In archive /Users/dimajolkin/GolandProjects/espradio/blobs/libs/esp32c3/libbtbb.a:

bt_bb_v2.o:     file format elf32-littleriscv


Disassembly of section .text.bt_bb_filter_sel:

00000000 <bt_bb_filter_sel>:
   0:	60011737          	lui	a4,0x60011
   4:	477c                	lw	a5,76(a4)
   6:	0107e793          	or	a5,a5,16
   a:	c77c                	sw	a5,76(a4)
   c:	8082                	ret

Disassembly of section .text.bt_bb_v2_recorrect:

00000000 <bt_bb_v2_recorrect>:
   0:	6001c637          	lui	a2,0x6001c
   4:	08062783          	lw	a5,128(a2) # 6001c080 <.L23+0x6001bf3a>
   8:	20000737          	lui	a4,0x20000
   c:	177d                	add	a4,a4,-1 # 1fffffff <.L23+0x1ffffeb9>
   e:	8ff9                	and	a5,a5,a4
  10:	40000737          	lui	a4,0x40000
  14:	8fd9                	or	a5,a5,a4
  16:	08f62023          	sw	a5,128(a2)
  1a:	600127b7          	lui	a5,0x60012
  1e:	8407a703          	lw	a4,-1984(a5) # 60011840 <.L23+0x600116fa>
  22:	76f9                	lui	a3,0xffffe
  24:	3ff68693          	add	a3,a3,1023 # ffffe3ff <.L23+0xffffe2b9>
  28:	8f75                	and	a4,a4,a3
  2a:	6685                	lui	a3,0x1
  2c:	80068593          	add	a1,a3,-2048 # 800 <.L23+0x6ba>
  30:	8f4d                	or	a4,a4,a1
  32:	84e7a023          	sw	a4,-1984(a5)
  36:	08462703          	lw	a4,132(a2)
  3a:	c00005b7          	lui	a1,0xc0000
  3e:	15fd                	add	a1,a1,-1 # bfffffff <.L23+0xbffffeb9>
  40:	8f6d                	and	a4,a4,a1
  42:	08e62223          	sw	a4,132(a2)
  46:	8687a703          	lw	a4,-1944(a5)
  4a:	6609                	lui	a2,0x2
  4c:	8f51                	or	a4,a4,a2
  4e:	86e7a423          	sw	a4,-1944(a5)
  52:	8687a703          	lw	a4,-1944(a5)
  56:	7671                	lui	a2,0xffffc
  58:	1ff60613          	add	a2,a2,511 # ffffc1ff <.L23+0xffffc0b9>
  5c:	02076713          	or	a4,a4,32
  60:	86e7a423          	sw	a4,-1944(a5)
  64:	8687a703          	lw	a4,-1944(a5)
  68:	8f55                	or	a4,a4,a3
  6a:	86e7a423          	sw	a4,-1944(a5)
  6e:	8687a703          	lw	a4,-1944(a5)
  72:	40068693          	add	a3,a3,1024
  76:	9b01                	and	a4,a4,-32
  78:	00a76713          	or	a4,a4,10
  7c:	86e7a423          	sw	a4,-1944(a5)
  80:	8b07a703          	lw	a4,-1872(a5)
  84:	8f71                	and	a4,a4,a2
  86:	8f55                	or	a4,a4,a3
  88:	8ae7a823          	sw	a4,-1872(a5)
  8c:	8b07a703          	lw	a4,-1872(a5)
  90:	e0f77713          	and	a4,a4,-497
  94:	0a076713          	or	a4,a4,160
  98:	8ae7a823          	sw	a4,-1872(a5)
  9c:	8082                	ret

Disassembly of section .text.bt_bb_corr_set:

00000000 <bt_bb_corr_set>:
   0:	600117b7          	lui	a5,0x60011
   4:	53f4                	lw	a3,100(a5)
   6:	fc100737          	lui	a4,0xfc100
   a:	fff70593          	add	a1,a4,-1 # fc0fffff <.L23+0xfc0ffeb9>
   e:	8eed                	and	a3,a3,a1
  10:	00200737          	lui	a4,0x200
  14:	8ed9                	or	a3,a3,a4
  16:	d3f4                	sw	a3,100(a5)
  18:	53f4                	lw	a3,100(a5)
  1a:	fff04737          	lui	a4,0xfff04
  1e:	177d                	add	a4,a4,-1 # fff03fff <.L23+0xfff03eb9>
  20:	8ef9                	and	a3,a3,a4
  22:	6721                	lui	a4,0x8
  24:	8ed9                	or	a3,a3,a4
  26:	d3f4                	sw	a3,100(a5)
  28:	53f4                	lw	a3,100(a5)
  2a:	7771                	lui	a4,0xffffc
  2c:	0ff70713          	add	a4,a4,255 # ffffc0ff <.L23+0xffffbfb9>
  30:	6605                	lui	a2,0x1
  32:	8ef9                	and	a3,a3,a4
  34:	90060713          	add	a4,a2,-1792 # 900 <.L23+0x7ba>
  38:	8ed9                	or	a3,a3,a4
  3a:	d3f4                	sw	a3,100(a5)
  3c:	53f4                	lw	a3,100(a5)
  3e:	04000737          	lui	a4,0x4000
  42:	177d                	add	a4,a4,-1 # 3ffffff <.L23+0x3fffeb9>
  44:	f036f693          	and	a3,a3,-253
  48:	0046e693          	or	a3,a3,4
  4c:	d3f4                	sw	a3,100(a5)
  4e:	57b4                	lw	a3,104(a5)
  50:	80060613          	add	a2,a2,-2048
  54:	8ef9                	and	a3,a3,a4
  56:	10000737          	lui	a4,0x10000
  5a:	8ed9                	or	a3,a3,a4
  5c:	d7b4                	sw	a3,104(a5)
  5e:	57b4                	lw	a3,104(a5)
  60:	81f6f693          	and	a3,a3,-2017
  64:	0606e693          	or	a3,a3,96
  68:	d7b4                	sw	a3,104(a5)
  6a:	57b8                	lw	a4,104(a5)
  6c:	00d006b7          	lui	a3,0xd00
  70:	8f6d                	and	a4,a4,a1
  72:	8f55                	or	a4,a4,a3
  74:	d7b8                	sw	a4,104(a5)
  76:	57b8                	lw	a4,104(a5)
  78:	fff016b7          	lui	a3,0xfff01
  7c:	16fd                	add	a3,a3,-1 # fff00fff <.L23+0xfff00eb9>
  7e:	8f75                	and	a4,a4,a3
  80:	000a16b7          	lui	a3,0xa1
  84:	8f55                	or	a4,a4,a3
  86:	d7b8                	sw	a4,104(a5)
  88:	57b8                	lw	a4,104(a5)
  8a:	8e59                	or	a2,a2,a4
  8c:	d7b0                	sw	a2,104(a5)
  8e:	8082                	ret

Disassembly of section .text.bt_bb_dpo_set:

00000000 <bt_bb_dpo_set>:
   0:	600117b7          	lui	a5,0x60011
   4:	5f98                	lw	a4,56(a5)
   6:	880006b7          	lui	a3,0x88000
   a:	16fd                	add	a3,a3,-1 # 87ffffff <.L23+0x87fffeb9>
   c:	87f77713          	and	a4,a4,-1921
  10:	30076713          	or	a4,a4,768
  14:	df98                	sw	a4,56(a5)
  16:	53d8                	lw	a4,36(a5)
  18:	8f75                	and	a4,a4,a3
  1a:	300006b7          	lui	a3,0x30000
  1e:	8f55                	or	a4,a4,a3
  20:	d3d8                	sw	a4,36(a5)
  22:	5398                	lw	a4,32(a5)
  24:	fffc46b7          	lui	a3,0xfffc4
  28:	16fd                	add	a3,a3,-1 # fffc3fff <.L23+0xfffc3eb9>
  2a:	8f75                	and	a4,a4,a3
  2c:	66e1                	lui	a3,0x18
  2e:	8f55                	or	a4,a4,a3
  30:	d398                	sw	a4,32(a5)
  32:	5398                	lw	a4,32(a5)
  34:	76f1                	lui	a3,0xffffc
  36:	3ff68693          	add	a3,a3,1023 # ffffc3ff <.L23+0xffffc2b9>
  3a:	8f75                	and	a4,a4,a3
  3c:	6689                	lui	a3,0x2
  3e:	80068693          	add	a3,a3,-2048 # 1800 <.L23+0x16ba>
  42:	8f55                	or	a4,a4,a3
  44:	d398                	sw	a4,32(a5)
  46:	5398                	lw	a4,32(a5)
  48:	fc077713          	and	a4,a4,-64
  4c:	00676713          	or	a4,a4,6
  50:	d398                	sw	a4,32(a5)
  52:	53d8                	lw	a4,36(a5)
  54:	9b75                	and	a4,a4,-3
  56:	d3d8                	sw	a4,36(a5)
  58:	5798                	lw	a4,40(a5)
  5a:	fcf77713          	and	a4,a4,-49
  5e:	02076713          	or	a4,a4,32
  62:	d798                	sw	a4,40(a5)
  64:	8082                	ret

Disassembly of section .text.bt_bb_restart_set:

00000000 <bt_bb_restart_set>:
   0:	6001c737          	lui	a4,0x6001c
   4:	08472783          	lw	a5,132(a4) # 6001c084 <.L23+0x6001bf3e>
   8:	ffe08637          	lui	a2,0xffe08
   c:	fff60513          	add	a0,a2,-1 # ffe07fff <.L23+0xffe07eb9>
  10:	001886b7          	lui	a3,0x188
  14:	8fe9                	and	a5,a5,a0
  16:	8fd5                	or	a5,a5,a3
  18:	08f72223          	sw	a5,132(a4)
  1c:	600127b7          	lui	a5,0x60012
  20:	8ac7a683          	lw	a3,-1876(a5) # 600118ac <.L23+0x60011766>
  24:	fffc1637          	lui	a2,0xfffc1
  28:	167d                	add	a2,a2,-1 # fffc0fff <.L23+0xfffc0eb9>
  2a:	8ef1                	and	a3,a3,a2
  2c:	00031637          	lui	a2,0x31
  30:	8ed1                	or	a3,a3,a2
  32:	8ad7a623          	sw	a3,-1876(a5)
  36:	08472683          	lw	a3,132(a4)
  3a:	7661                	lui	a2,0xffff8
  3c:	1ff60613          	add	a2,a2,511 # ffff81ff <.L23+0xffff80b9>
  40:	8ef1                	and	a3,a3,a2
  42:	6609                	lui	a2,0x2
  44:	e0060613          	add	a2,a2,-512 # 1e00 <.L23+0x1cba>
  48:	8ed1                	or	a3,a3,a2
  4a:	08d72223          	sw	a3,132(a4)
  4e:	8a47a683          	lw	a3,-1884(a5)
  52:	ffe00637          	lui	a2,0xffe00
  56:	167d                	add	a2,a2,-1 # ffdfffff <.L23+0xffdffeb9>
  58:	fc06f693          	and	a3,a3,-64
  5c:	00f6e693          	or	a3,a3,15
  60:	8ad7a223          	sw	a3,-1884(a5)
  64:	4f34                	lw	a3,88(a4)
  66:	6805                	lui	a6,0x1
  68:	8ef1                	and	a3,a3,a2
  6a:	cf34                	sw	a3,88(a4)
  6c:	8887a683          	lw	a3,-1912(a5)
  70:	f0000637          	lui	a2,0xf0000
  74:	167d                	add	a2,a2,-1 # efffffff <.L23+0xeffffeb9>
  76:	8ef1                	and	a3,a3,a2
  78:	88d7a423          	sw	a3,-1912(a5)
  7c:	09072683          	lw	a3,144(a4)
  80:	04000637          	lui	a2,0x4000
  84:	167d                	add	a2,a2,-1 # 3ffffff <.L23+0x3fffeb9>
  86:	8ef1                	and	a3,a3,a2
  88:	d8000637          	lui	a2,0xd8000
  8c:	8ed1                	or	a3,a3,a2
  8e:	08d72823          	sw	a3,144(a4)
  92:	8ac7a583          	lw	a1,-1876(a5)
  96:	76fd                	lui	a3,0xfffff
  98:	03f68893          	add	a7,a3,63 # fffff03f <.L23+0xffffeef9>
  9c:	0115f5b3          	and	a1,a1,a7
  a0:	d8080693          	add	a3,a6,-640 # d80 <.L23+0xc3a>
  a4:	8dd5                	or	a1,a1,a3
  a6:	8ab7a623          	sw	a1,-1876(a5)
  aa:	09072583          	lw	a1,144(a4)
  ae:	fc1006b7          	lui	a3,0xfc100
  b2:	16fd                	add	a3,a3,-1 # fc0fffff <.L23+0xfc0ffeb9>
  b4:	8df5                	and	a1,a1,a3
  b6:	00a006b7          	lui	a3,0xa00
  ba:	8dd5                	or	a1,a1,a3
  bc:	08b72823          	sw	a1,144(a4)
  c0:	8a47a583          	lw	a1,-1884(a5)
  c4:	f82006b7          	lui	a3,0xf8200
  c8:	16fd                	add	a3,a3,-1 # f81fffff <.L23+0xf81ffeb9>
  ca:	8df5                	and	a1,a1,a3
  cc:	014006b7          	lui	a3,0x1400
  d0:	8dd5                	or	a1,a1,a3
  d2:	8ab7a223          	sw	a1,-1884(a5)
  d6:	1a072583          	lw	a1,416(a4)
  da:	000506b7          	lui	a3,0x50
  de:	c4080813          	add	a6,a6,-960
  e2:	fc05f593          	and	a1,a1,-64
  e6:	00c5e593          	or	a1,a1,12
  ea:	1ab72023          	sw	a1,416(a4)
  ee:	8a47a603          	lw	a2,-1884(a5)
  f2:	8e69                	and	a2,a2,a0
  f4:	8e55                	or	a2,a2,a3
  f6:	8ac7a223          	sw	a2,-1884(a5)
  fa:	1a072683          	lw	a3,416(a4)
  fe:	0116f6b3          	and	a3,a3,a7
 102:	0106e6b3          	or	a3,a3,a6
 106:	1ad72023          	sw	a3,416(a4)
 10a:	8ac7a703          	lw	a4,-1876(a5)
 10e:	fc077713          	and	a4,a4,-64
 112:	03176713          	or	a4,a4,49
 116:	8ae7a623          	sw	a4,-1876(a5)
 11a:	8082                	ret

Disassembly of section .text.bt_bb_target_set:

00000000 <bt_bb_target_set>:
   0:	6001c737          	lui	a4,0x6001c
   4:	08072783          	lw	a5,128(a4) # 6001c080 <.L23+0x6001bf3a>
   8:	7681                	lui	a3,0xfffe0
   a:	0ff68693          	add	a3,a3,255 # fffe00ff <.L23+0xfffdffb9>
   e:	8ff5                	and	a5,a5,a3
  10:	66f5                	lui	a3,0x1d
  12:	40068693          	add	a3,a3,1024 # 1d400 <.L23+0x1d2ba>
  16:	8fd5                	or	a5,a5,a3
  18:	08f72023          	sw	a5,128(a4)
  1c:	600127b7          	lui	a5,0x60012
  20:	8987a683          	lw	a3,-1896(a5) # 60011898 <.L23+0x60011752>
  24:	ffc02637          	lui	a2,0xffc02
  28:	167d                	add	a2,a2,-1 # ffc01fff <.L23+0xffc01eb9>
  2a:	e006f693          	and	a3,a3,-512
  2e:	1d46e693          	or	a3,a3,468
  32:	88d7ac23          	sw	a3,-1896(a5)
  36:	14472683          	lw	a3,324(a4)
  3a:	008008b7          	lui	a7,0x800
  3e:	18fd                	add	a7,a7,-1 # 7fffff <.L23+0x7ffeb9>
  40:	e006f693          	and	a3,a3,-512
  44:	1d46e693          	or	a3,a3,468
  48:	14d72223          	sw	a3,324(a4)
  4c:	89c7a683          	lw	a3,-1892(a5)
  50:	00300e37          	lui	t3,0x300
  54:	e006f693          	and	a3,a3,-512
  58:	1d46e693          	or	a3,a3,468
  5c:	88d7ae23          	sw	a3,-1892(a5)
  60:	0d072683          	lw	a3,208(a4)
  64:	e006f693          	and	a3,a3,-512
  68:	1d46e693          	or	a3,a3,468
  6c:	0cd72823          	sw	a3,208(a4)
  70:	8407a683          	lw	a3,-1984(a5)
  74:	8ef1                	and	a3,a3,a2
  76:	003a8637          	lui	a2,0x3a8
  7a:	8ed1                	or	a3,a3,a2
  7c:	84d7a023          	sw	a3,-1984(a5)
  80:	14472503          	lw	a0,324(a4)
  84:	fffc06b7          	lui	a3,0xfffc0
  88:	1ff68593          	add	a1,a3,511 # fffc01ff <.L23+0xfffc00b9>
  8c:	0003b6b7          	lui	a3,0x3b
  90:	80068613          	add	a2,a3,-2048 # 3a800 <.L23+0x3a6ba>
  94:	8d6d                	and	a0,a0,a1
  96:	00c566b3          	or	a3,a0,a2
  9a:	14d72223          	sw	a3,324(a4)
  9e:	89c7a683          	lw	a3,-1892(a5)
  a2:	ed000537          	lui	a0,0xed000
  a6:	8eed                	and	a3,a3,a1
  a8:	8ed1                	or	a3,a3,a2
  aa:	88d7ae23          	sw	a3,-1892(a5)
  ae:	8b07a683          	lw	a3,-1872(a5)
  b2:	0116f6b3          	and	a3,a3,a7
  b6:	8ec9                	or	a3,a3,a0
  b8:	8ad7a823          	sw	a3,-1872(a5)
  bc:	8b07a503          	lw	a0,-1872(a5)
  c0:	ff8046b7          	lui	a3,0xff804
  c4:	fff68313          	add	t1,a3,-1 # ff803fff <.L23+0xff803eb9>
  c8:	00657533          	and	a0,a0,t1
  cc:	007686b7          	lui	a3,0x768
  d0:	8d55                	or	a0,a0,a3
  d2:	8aa7a823          	sw	a0,-1872(a5)
  d6:	08072503          	lw	a0,128(a4)
  da:	ff8206b7          	lui	a3,0xff820
  de:	16fd                	add	a3,a3,-1 # ff81ffff <.L23+0xff81feb9>
  e0:	8d75                	and	a0,a0,a3
  e2:	001806b7          	lui	a3,0x180
  e6:	8d55                	or	a0,a0,a3
  e8:	08a72023          	sw	a0,128(a4)
  ec:	8987a503          	lw	a0,-1896(a5)
  f0:	76e1                	lui	a3,0xffff8
  f2:	1ff68693          	add	a3,a3,511 # ffff81ff <.L23+0xffff80b9>
  f6:	8d75                	and	a0,a0,a3
  f8:	6689                	lui	a3,0x2
  fa:	80068693          	add	a3,a3,-2048 # 1800 <.L23+0x16ba>
  fe:	8d55                	or	a0,a0,a3
 100:	88a7ac23          	sw	a0,-1896(a5)
 104:	14472803          	lw	a6,324(a4)
 108:	ff040537          	lui	a0,0xff040
 10c:	fff50693          	add	a3,a0,-1 # ff03ffff <.L23+0xff03feb9>
 110:	00d87833          	and	a6,a6,a3
 114:	01c86833          	or	a6,a6,t3
 118:	15072223          	sw	a6,324(a4)
 11c:	89c7a503          	lw	a0,-1892(a5)
 120:	8d75                	and	a0,a0,a3
 122:	01c56533          	or	a0,a0,t3
 126:	88a7ae23          	sw	a0,-1892(a5)
 12a:	1a472503          	lw	a0,420(a4)
 12e:	e0057513          	and	a0,a0,-512
 132:	1d456513          	or	a0,a0,468
 136:	1aa72223          	sw	a0,420(a4)
 13a:	8947a683          	lw	a3,-1900(a5)
 13e:	00750537          	lui	a0,0x750
 142:	0066f6b3          	and	a3,a3,t1
 146:	8ec9                	or	a3,a3,a0
 148:	88d7aa23          	sw	a3,-1900(a5)
 14c:	1a472683          	lw	a3,420(a4)
 150:	8eed                	and	a3,a3,a1
 152:	8ed1                	or	a3,a3,a2
 154:	1ad72223          	sw	a3,420(a4)
 158:	8947a703          	lw	a4,-1900(a5)
 15c:	ea0006b7          	lui	a3,0xea000
 160:	01177733          	and	a4,a4,a7
 164:	8f55                	or	a4,a4,a3
 166:	88e7aa23          	sw	a4,-1900(a5)
 16a:	8082                	ret

Disassembly of section .text.bt_bb_detect_set:

00000000 <bt_bb_detect_set>:
   0:	6001c7b7          	lui	a5,0x6001c
   4:	1a07a703          	lw	a4,416(a5) # 6001c1a0 <.L23+0x6001c05a>
   8:	ffe206b7          	lui	a3,0xffe20
   c:	16fd                	add	a3,a3,-1 # ffe1ffff <.L23+0xffe1feb9>
   e:	8f75                	and	a4,a4,a3
  10:	001a06b7          	lui	a3,0x1a0
  14:	8f55                	or	a4,a4,a3
  16:	1ae7a023          	sw	a4,416(a5)
  1a:	60012737          	lui	a4,0x60012
  1e:	8ac72683          	lw	a3,-1876(a4) # 600118ac <.L23+0x60011766>
  22:	ff880637          	lui	a2,0xff880
  26:	167d                	add	a2,a2,-1 # ff87ffff <.L23+0xff87feb9>
  28:	8ef1                	and	a3,a3,a2
  2a:	00680637          	lui	a2,0x680
  2e:	8ed1                	or	a3,a3,a2
  30:	8ad72623          	sw	a3,-1876(a4)
  34:	5ff0                	lw	a2,124(a5)
  36:	f10006b7          	lui	a3,0xf1000
  3a:	fff68593          	add	a1,a3,-1 # f0ffffff <.L23+0xf0fffeb9>
  3e:	03000537          	lui	a0,0x3000
  42:	8e6d                	and	a2,a2,a1
  44:	8e49                	or	a2,a2,a0
  46:	dff0                	sw	a2,124(a5)
  48:	8a072683          	lw	a3,-1888(a4)
  4c:	ff840637          	lui	a2,0xff840
  50:	167d                	add	a2,a2,-1 # ff83ffff <.L23+0xff83feb9>
  52:	8eed                	and	a3,a3,a1
  54:	8ec9                	or	a3,a3,a0
  56:	8ad72023          	sw	a3,-1888(a4)
  5a:	8a872683          	lw	a3,-1880(a4)
  5e:	8ef1                	and	a3,a3,a2
  60:	00100637          	lui	a2,0x100
  64:	8ed1                	or	a3,a3,a2
  66:	8ad72423          	sw	a3,-1880(a4)
  6a:	0807a703          	lw	a4,128(a5)
  6e:	fc177713          	and	a4,a4,-63
  72:	00876713          	or	a4,a4,8
  76:	08e7a023          	sw	a4,128(a5)
  7a:	8082                	ret

Disassembly of section .text.bt_agc_gain_max:

00000000 <bt_agc_gain_max>:
   0:	600127b7          	lui	a5,0x60012
   4:	8507a683          	lw	a3,-1968(a5) # 60011850 <.L23+0x6001170a>
   8:	00e51713          	sll	a4,a0,0xe
   c:	001fc637          	lui	a2,0x1fc
  10:	8f71                	and	a4,a4,a2
  12:	ffe04637          	lui	a2,0xffe04
  16:	167d                	add	a2,a2,-1 # ffe03fff <.L23+0xffe03eb9>
  18:	8ef1                	and	a3,a3,a2
  1a:	8f55                	or	a4,a4,a3
  1c:	84e7a823          	sw	a4,-1968(a5)
  20:	6611                	lui	a2,0x4
  22:	8507a683          	lw	a3,-1968(a5)
  26:	00751713          	sll	a4,a0,0x7
  2a:	f8060613          	add	a2,a2,-128 # 3f80 <.L23+0x3e3a>
  2e:	8f71                	and	a4,a4,a2
  30:	7671                	lui	a2,0xffffc
  32:	07f60613          	add	a2,a2,127 # ffffc07f <.L23+0xffffbf39>
  36:	8ef1                	and	a3,a3,a2
  38:	8f55                	or	a4,a4,a3
  3a:	84e7a823          	sw	a4,-1968(a5)
  3e:	8507a703          	lw	a4,-1968(a5)
  42:	07f57513          	and	a0,a0,127
  46:	f8077713          	and	a4,a4,-128
  4a:	8f49                	or	a4,a4,a0
  4c:	84e7a823          	sw	a4,-1968(a5)
  50:	8082                	ret

Disassembly of section .text.bt_bb_gain_set:

00000000 <bt_bb_gain_set>:
   0:	6001c6b7          	lui	a3,0x6001c
   4:	0946a783          	lw	a5,148(a3) # 6001c094 <.L23+0x6001bf4e>
   8:	1141                	add	sp,sp,-16
   a:	c422                	sw	s0,8(sp)
   c:	c226                	sw	s1,4(sp)
   e:	c606                	sw	ra,12(sp)
  10:	0017e793          	or	a5,a5,1
  14:	60012437          	lui	s0,0x60012
  18:	08f6aa23          	sw	a5,148(a3)
  1c:	85442783          	lw	a5,-1964(s0) # 60011854 <.L23+0x6001170e>
  20:	60011737          	lui	a4,0x60011
  24:	65a1                	lui	a1,0x8
  26:	0017e793          	or	a5,a5,1
  2a:	84f42a23          	sw	a5,-1964(s0)
  2e:	477c                	lw	a5,76(a4)
  30:	f8058593          	add	a1,a1,-128 # 7f80 <.L23+0x7e3a>
  34:	0047e793          	or	a5,a5,4
  38:	c77c                	sw	a5,76(a4)
  3a:	0d06a783          	lw	a5,208(a3)
  3e:	84442603          	lw	a2,-1980(s0)
  42:	83a5                	srl	a5,a5,0x9
  44:	00779713          	sll	a4,a5,0x7
  48:	8f6d                	and	a4,a4,a1
  4a:	6591                	lui	a1,0x4
  4c:	f8058593          	add	a1,a1,-128 # 3f80 <.L23+0x3e3a>
  50:	8f6d                	and	a4,a4,a1
  52:	75f1                	lui	a1,0xffffc
  54:	07f58593          	add	a1,a1,127 # ffffc07f <.L23+0xffffbf39>
  58:	8e6d                	and	a2,a2,a1
  5a:	8f51                	or	a4,a4,a2
  5c:	84e42223          	sw	a4,-1980(s0)
  60:	84442703          	lw	a4,-1980(s0)
  64:	07f7f613          	and	a2,a5,127
  68:	07e2                	sll	a5,a5,0x18
  6a:	f8077713          	and	a4,a4,-128
  6e:	8f51                	or	a4,a4,a2
  70:	87e1                	sra	a5,a5,0x18
  72:	84e42223          	sw	a4,-1980(s0)
  76:	07c9                	add	a5,a5,18
  78:	84442703          	lw	a4,-1980(s0)
  7c:	00f80637          	lui	a2,0xf80
  80:	07ce                	sll	a5,a5,0x13
  82:	8ff1                	and	a5,a5,a2
  84:	ff080637          	lui	a2,0xff080
  88:	167d                	add	a2,a2,-1 # ff07ffff <.L23+0xff07feb9>
  8a:	8f71                	and	a4,a4,a2
  8c:	8fd9                	or	a5,a5,a4
  8e:	84f42223          	sw	a5,-1980(s0)
  92:	85442783          	lw	a5,-1964(s0)
  96:	e037f793          	and	a5,a5,-509
  9a:	0c87e793          	or	a5,a5,200
  9e:	84f42a23          	sw	a5,-1964(s0)
  a2:	85442783          	lw	a5,-1964(s0)
  a6:	0017e793          	or	a5,a5,1
  aa:	84f42a23          	sw	a5,-1964(s0)
  ae:	0a46a503          	lw	a0,164(a3)
  b2:	0a46a483          	lw	s1,164(a3)
  b6:	813d                	srl	a0,a0,0xf
  b8:	07f57513          	and	a0,a0,127
  bc:	00000097          	auipc	ra,0x0
  c0:	000080e7          	jalr	ra # bc <bt_bb_gain_set+0xbc>
  c4:	85042783          	lw	a5,-1968(s0)
  c8:	80d9                	srl	s1,s1,0x16
  ca:	f0200737          	lui	a4,0xf0200
  ce:	177d                	add	a4,a4,-1 # f01fffff <.L23+0xf01ffeb9>
  d0:	07f4f493          	and	s1,s1,127
  d4:	8ff9                	and	a5,a5,a4
  d6:	04d6                	sll	s1,s1,0x15
  d8:	8cdd                	or	s1,s1,a5
  da:	84942823          	sw	s1,-1968(s0)
  de:	84842783          	lw	a5,-1976(s0)
  e2:	ff010737          	lui	a4,0xff010
  e6:	177d                	add	a4,a4,-1 # ff00ffff <.L23+0xff00feb9>
  e8:	8ff9                	and	a5,a5,a4
  ea:	00500737          	lui	a4,0x500
  ee:	8fd9                	or	a5,a5,a4
  f0:	84f42423          	sw	a5,-1976(s0)
  f4:	84c42783          	lw	a5,-1972(s0)
  f8:	04000737          	lui	a4,0x4000
  fc:	40b2                	lw	ra,12(sp)
  fe:	8fd9                	or	a5,a5,a4
 100:	84f42623          	sw	a5,-1972(s0)
 104:	2c2c37b7          	lui	a5,0x2c2c3
 108:	c2c78793          	add	a5,a5,-980 # 2c2c2c2c <.L23+0x2c2c2ae6>
 10c:	84f42c23          	sw	a5,-1960(s0)
 110:	84f42e23          	sw	a5,-1956(s0)
 114:	84c42783          	lw	a5,-1972(s0)
 118:	fff80737          	lui	a4,0xfff80
 11c:	4492                	lw	s1,4(sp)
 11e:	8ff9                	and	a5,a5,a4
 120:	6709                	lui	a4,0x2
 122:	71070713          	add	a4,a4,1808 # 2710 <.L23+0x25ca>
 126:	8fd9                	or	a5,a5,a4
 128:	84f42623          	sw	a5,-1972(s0)
 12c:	4422                	lw	s0,8(sp)
 12e:	0141                	add	sp,sp,16
 130:	8082                	ret

Disassembly of section .text.bt_bb_v2_rx_rssi_thresh:

00000000 <bt_bb_v2_rx_rssi_thresh>:
   0:	6001c6b7          	lui	a3,0x6001c
   4:	5efc                	lw	a5,124(a3)
   6:	0542                	sll	a0,a0,0x10
   8:	00ff0637          	lui	a2,0xff0
   c:	8e69                	and	a2,a2,a0
   e:	ff010537          	lui	a0,0xff010
  12:	fff50813          	add	a6,a0,-1 # ff00ffff <.L23+0xff00feb9>
  16:	0107f7b3          	and	a5,a5,a6
  1a:	8fd1                	or	a5,a5,a2
  1c:	defc                	sw	a5,124(a3)
  1e:	60012737          	lui	a4,0x60012
  22:	8a072503          	lw	a0,-1888(a4) # 600118a0 <.L23+0x6001175a>
  26:	01559793          	sll	a5,a1,0x15
  2a:	05de                	sll	a1,a1,0x17
  2c:	01057533          	and	a0,a0,a6
  30:	8d51                	or	a0,a0,a2
  32:	8aa72023          	sw	a0,-1888(a4)
  36:	1a06a603          	lw	a2,416(a3) # 6001c1a0 <.L23+0x6001c05a>
  3a:	1fe00537          	lui	a0,0x1fe00
  3e:	8fe9                	and	a5,a5,a0
  40:	e0200537          	lui	a0,0xe0200
  44:	157d                	add	a0,a0,-1 # e01fffff <.L23+0xe01ffeb9>
  46:	8e69                	and	a2,a2,a0
  48:	8fd1                	or	a5,a5,a2
  4a:	1af6a023          	sw	a5,416(a3)
  4e:	8ac72783          	lw	a5,-1876(a4)
  52:	7f8006b7          	lui	a3,0x7f800
  56:	8df5                	and	a1,a1,a3
  58:	808006b7          	lui	a3,0x80800
  5c:	16fd                	add	a3,a3,-1 # 807fffff <.L23+0x807ffeb9>
  5e:	8ff5                	and	a5,a5,a3
  60:	8ddd                	or	a1,a1,a5
  62:	8ab72623          	sw	a1,-1876(a4)
  66:	8082                	ret

Disassembly of section .text.bt_bb_v2_rx_set:

00000000 <bt_bb_v2_rx_set>:
   0:	600266b7          	lui	a3,0x60026
   4:	4a9c                	lw	a5,16(a3)
   6:	000f0737          	lui	a4,0xf0
   a:	1141                	add	sp,sp,-16
   c:	072d                	add	a4,a4,11 # f000b <.L23+0xefec5>
   e:	c606                	sw	ra,12(sp)
  10:	8fd9                	or	a5,a5,a4
  12:	ca9c                	sw	a5,16(a3)
  14:	600116b7          	lui	a3,0x60011
  18:	469c                	lw	a5,8(a3)
  1a:	1f800737          	lui	a4,0x1f800
  1e:	055e                	sll	a0,a0,0x17
  20:	8d79                	and	a0,a0,a4
  22:	e0800737          	lui	a4,0xe0800
  26:	177d                	add	a4,a4,-1 # e07fffff <.L23+0xe07ffeb9>
  28:	8ff9                	and	a5,a5,a4
  2a:	8d5d                	or	a0,a0,a5
  2c:	c688                	sw	a0,8(a3)
  2e:	00000097          	auipc	ra,0x0
  32:	000080e7          	jalr	ra # 2e <bt_bb_v2_rx_set+0x2e>
  36:	00000097          	auipc	ra,0x0
  3a:	000080e7          	jalr	ra # 36 <bt_bb_v2_rx_set+0x36>
  3e:	00000097          	auipc	ra,0x0
  42:	000080e7          	jalr	ra # 3e <bt_bb_v2_rx_set+0x3e>
  46:	00000097          	auipc	ra,0x0
  4a:	000080e7          	jalr	ra # 46 <bt_bb_v2_rx_set+0x46>
  4e:	00000097          	auipc	ra,0x0
  52:	000080e7          	jalr	ra # 4e <bt_bb_v2_rx_set+0x4e>
  56:	00000097          	auipc	ra,0x0
  5a:	000080e7          	jalr	ra # 56 <bt_bb_v2_rx_set+0x56>
  5e:	f9200593          	li	a1,-110
  62:	f9c00513          	li	a0,-100
  66:	00000097          	auipc	ra,0x0
  6a:	000080e7          	jalr	ra # 66 <bt_bb_v2_rx_set+0x66>
  6e:	00000097          	auipc	ra,0x0
  72:	000080e7          	jalr	ra # 6e <bt_bb_v2_rx_set+0x6e>
  76:	600346b7          	lui	a3,0x60034
  7a:	c186a783          	lw	a5,-1000(a3) # 60033c18 <.L23+0x60033ad2>
  7e:	80000737          	lui	a4,0x80000
  82:	fff74713          	not	a4,a4
  86:	8ff9                	and	a5,a5,a4
  88:	c0f6ac23          	sw	a5,-1000(a3)
  8c:	600127b7          	lui	a5,0x60012
  90:	8887a703          	lw	a4,-1912(a5) # 60011888 <.L23+0x60011742>
  94:	e00006b7          	lui	a3,0xe0000
  98:	16fd                	add	a3,a3,-1 # dfffffff <.L23+0xdffffeb9>
  9a:	8f75                	and	a4,a4,a3
  9c:	88e7a423          	sw	a4,-1912(a5)
  a0:	8887a703          	lw	a4,-1912(a5)
  a4:	fffc06b7          	lui	a3,0xfffc0
  a8:	16fd                	add	a3,a3,-1 # fffbffff <.L23+0xfffbfeb9>
  aa:	8f75                	and	a4,a4,a3
  ac:	88e7a423          	sw	a4,-1912(a5)
  b0:	8a07a703          	lw	a4,-1888(a5)
  b4:	d00006b7          	lui	a3,0xd0000
  b8:	16fd                	add	a3,a3,-1 # cfffffff <.L23+0xcffffeb9>
  ba:	8f75                	and	a4,a4,a3
  bc:	200006b7          	lui	a3,0x20000
  c0:	8f55                	or	a4,a4,a3
  c2:	8ae7a023          	sw	a4,-1888(a5)
  c6:	8a07a703          	lw	a4,-1888(a5)
  ca:	40b2                	lw	ra,12(sp)
  cc:	f0077713          	and	a4,a4,-256
  d0:	00a76713          	or	a4,a4,10
  d4:	8ae7a023          	sw	a4,-1888(a5)
  d8:	0141                	add	sp,sp,16
  da:	8082                	ret

Disassembly of section .text.bt_bb_v2_tx_set:

00000000 <bt_bb_v2_tx_set>:
   0:	600117b7          	lui	a5,0x60011
   4:	4f98                	lw	a4,24(a5)
   6:	76c1                	lui	a3,0xffff0
   8:	0ff68693          	add	a3,a3,255 # ffff00ff <.L23+0xfffeffb9>
   c:	8f75                	and	a4,a4,a3
   e:	668d                	lui	a3,0x3
  10:	80068693          	add	a3,a3,-2048 # 2800 <.L23+0x26ba>
  14:	8f55                	or	a4,a4,a3
  16:	cf98                	sw	a4,24(a5)
  18:	4f98                	lw	a4,24(a5)
  1a:	010006b7          	lui	a3,0x1000
  1e:	16fd                	add	a3,a3,-1 # ffffff <.L23+0xfffeb9>
  20:	8f75                	and	a4,a4,a3
  22:	200006b7          	lui	a3,0x20000
  26:	8f55                	or	a4,a4,a3
  28:	cf98                	sw	a4,24(a5)
  2a:	4f98                	lw	a4,24(a5)
  2c:	007e06b7          	lui	a3,0x7e0
  30:	0546                	sll	a0,a0,0x11
  32:	f0077713          	and	a4,a4,-256
  36:	00176713          	or	a4,a4,1
  3a:	cf98                	sw	a4,24(a5)
  3c:	4798                	lw	a4,8(a5)
  3e:	8d75                	and	a0,a0,a3
  40:	ff8206b7          	lui	a3,0xff820
  44:	16fd                	add	a3,a3,-1 # ff81ffff <.L23+0xff81feb9>
  46:	8f75                	and	a4,a4,a3
  48:	8d59                	or	a0,a0,a4
  4a:	c788                	sw	a0,8(a5)
  4c:	47d8                	lw	a4,12(a5)
  4e:	76fd                	lui	a3,0xfffff
  50:	0ff68693          	add	a3,a3,255 # fffff0ff <.L23+0xffffefb9>
  54:	8f75                	and	a4,a4,a3
  56:	10076713          	or	a4,a4,256
  5a:	c7d8                	sw	a4,12(a5)
  5c:	8082                	ret

Disassembly of section .text.bt_bb_v2_version:

00000000 <bt_bb_v2_version>:
   0:	000006b7          	lui	a3,0x0
   4:	00000637          	lui	a2,0x0
   8:	000005b7          	lui	a1,0x0
   c:	00000537          	lui	a0,0x0
  10:	00068693          	mv	a3,a3
  14:	00060613          	mv	a2,a2
  18:	00058593          	mv	a1,a1
  1c:	00050513          	mv	a0,a0
  20:	00000317          	auipc	t1,0x0
  24:	00030067          	jr	t1 # 20 <bt_bb_v2_version+0x20>

Disassembly of section .text.bt_bb_tx_cca_set:

00000000 <bt_bb_tx_cca_set>:
   0:	10050863          	beqz	a0,110 <.L17>
   4:	60011337          	lui	t1,0x60011
   8:	0b832503          	lw	a0,184(t1) # 600110b8 <.L23+0x60010f72>
   c:	80000e37          	lui	t3,0x80000
  10:	01c56533          	or	a0,a0,t3
  14:	0aa32c23          	sw	a0,184(t1)

00000018 <.L18>:
  18:	60011537          	lui	a0,0x60011
  1c:	0b852303          	lw	t1,184(a0) # 600110b8 <.L23+0x60010f72>
  20:	0586                	sll	a1,a1,0x1
  22:	1fe5f593          	and	a1,a1,510
  26:	e0137313          	and	t1,t1,-511
  2a:	0065e5b3          	or	a1,a1,t1
  2e:	0ab52c23          	sw	a1,184(a0)
  32:	0b852583          	lw	a1,184(a0)
  36:	0015e593          	or	a1,a1,1
  3a:	0ab52c23          	sw	a1,184(a0)
  3e:	c675                	beqz	a2,12a <.L19>
  40:	0bc52603          	lw	a2,188(a0)
  44:	400005b7          	lui	a1,0x40000
  48:	8e4d                	or	a2,a2,a1

0000004a <.L25>:
  4a:	0ac52e23          	sw	a2,188(a0)
  4e:	60011637          	lui	a2,0x60011
  52:	0bc62583          	lw	a1,188(a2) # 600110bc <.L23+0x60010f76>
  56:	3c000537          	lui	a0,0x3c000
  5a:	06ea                	sll	a3,a3,0x1a
  5c:	8ee9                	and	a3,a3,a0
  5e:	c4000537          	lui	a0,0xc4000
  62:	157d                	add	a0,a0,-1 # c3ffffff <.L23+0xc3fffeb9>
  64:	8de9                	and	a1,a1,a0
  66:	8ecd                	or	a3,a3,a1
  68:	0ad62e23          	sw	a3,188(a2)
  6c:	0bc62683          	lw	a3,188(a2)
  70:	03c005b7          	lui	a1,0x3c00
  74:	075a                	sll	a4,a4,0x16
  76:	8f6d                	and	a4,a4,a1
  78:	fc4005b7          	lui	a1,0xfc400
  7c:	15fd                	add	a1,a1,-1 # fc3fffff <.L23+0xfc3ffeb9>
  7e:	8eed                	and	a3,a3,a1
  80:	8f55                	or	a4,a4,a3
  82:	0ae62e23          	sw	a4,188(a2)
  86:	cbcd                	beqz	a5,138 <.L21>
  88:	0bc62783          	lw	a5,188(a2)
  8c:	00200737          	lui	a4,0x200
  90:	8fd9                	or	a5,a5,a4

00000092 <.L26>:
  92:	0af62e23          	sw	a5,188(a2)
  96:	600117b7          	lui	a5,0x60011
  9a:	0bc7a703          	lw	a4,188(a5) # 600110bc <.L23+0x60010f76>
  9e:	001fe6b7          	lui	a3,0x1fe
  a2:	0836                	sll	a6,a6,0xd
  a4:	00d87833          	and	a6,a6,a3
  a8:	ffe026b7          	lui	a3,0xffe02
  ac:	16fd                	add	a3,a3,-1 # ffe01fff <.L23+0xffe01eb9>
  ae:	8f75                	and	a4,a4,a3
  b0:	00e86833          	or	a6,a6,a4
  b4:	0b07ae23          	sw	a6,188(a5)
  b8:	0bc7a703          	lw	a4,188(a5)
  bc:	08088563          	beqz	a7,146 <.L23>
  c0:	6685                	lui	a3,0x1
  c2:	8f55                	or	a4,a4,a3

000000c4 <.L27>:
  c4:	0ae7ae23          	sw	a4,188(a5)
  c8:	4782                	lw	a5,0(sp)
  ca:	60011737          	lui	a4,0x60011
  ce:	6605                	lui	a2,0x1
  d0:	0bc72683          	lw	a3,188(a4) # 600110bc <.L23+0x60010f76>
  d4:	f0060613          	add	a2,a2,-256 # f00 <.L23+0xdba>
  d8:	07a2                	sll	a5,a5,0x8
  da:	8ff1                	and	a5,a5,a2
  dc:	767d                	lui	a2,0xfffff
  de:	0ff60613          	add	a2,a2,255 # fffff0ff <.L23+0xffffefb9>
  e2:	8ef1                	and	a3,a3,a2
  e4:	8fd5                	or	a5,a5,a3
  e6:	0af72e23          	sw	a5,188(a4)
  ea:	4792                	lw	a5,4(sp)
  ec:	0bc72683          	lw	a3,188(a4)
  f0:	0792                	sll	a5,a5,0x4
  f2:	f0f6f693          	and	a3,a3,-241
  f6:	0ff7f793          	zext.b	a5,a5
  fa:	8fd5                	or	a5,a5,a3
  fc:	0af72e23          	sw	a5,188(a4)
 100:	0bc72783          	lw	a5,188(a4)
 104:	800006b7          	lui	a3,0x80000
 108:	8fd5                	or	a5,a5,a3
 10a:	0af72e23          	sw	a5,188(a4)
 10e:	8082                	ret

00000110 <.L17>:
 110:	60011e37          	lui	t3,0x60011
 114:	0b8e2503          	lw	a0,184(t3) # 600110b8 <.L23+0x60010f72>
 118:	80000337          	lui	t1,0x80000
 11c:	fff34313          	not	t1,t1
 120:	00657533          	and	a0,a0,t1
 124:	0aae2c23          	sw	a0,184(t3)
 128:	bdc5                	j	18 <.L18>

0000012a <.L19>:
 12a:	0bc52603          	lw	a2,188(a0)
 12e:	c00005b7          	lui	a1,0xc0000
 132:	15fd                	add	a1,a1,-1 # bfffffff <.L23+0xbffffeb9>
 134:	8e6d                	and	a2,a2,a1
 136:	bf11                	j	4a <.L25>

00000138 <.L21>:
 138:	0bc62783          	lw	a5,188(a2)
 13c:	ffe00737          	lui	a4,0xffe00
 140:	177d                	add	a4,a4,-1 # ffdfffff <.L23+0xffdffeb9>
 142:	8ff9                	and	a5,a5,a4
 144:	b7b9                	j	92 <.L26>

00000146 <.L23>:
 146:	76fd                	lui	a3,0xfffff
 148:	16fd                	add	a3,a3,-1 # ffffefff <.L23+0xffffeeb9>
 14a:	8f75                	and	a4,a4,a3
 14c:	bfa5                	j	c4 <.L27>

Disassembly of section .text.bt_bb_v2_init_cmplx:

00000000 <bt_bb_v2_init_cmplx>:
   0:	1141                	add	sp,sp,-16
   2:	c422                	sw	s0,8(sp)
   4:	6000e437          	lui	s0,0x6000e
   8:	0c442783          	lw	a5,196(s0) # 6000e0c4 <.L23+0x6000df7e>
   c:	02000737          	lui	a4,0x2000
  10:	c606                	sw	ra,12(sp)
  12:	8fd9                	or	a5,a5,a4
  14:	c226                	sw	s1,4(sp)
  16:	0cf42223          	sw	a5,196(s0)
  1a:	84aa                	mv	s1,a0
  1c:	4501                	li	a0,0
  1e:	00000097          	auipc	ra,0x0
  22:	000080e7          	jalr	ra # 1e <bt_bb_v2_init_cmplx+0x1e>
  26:	4511                	li	a0,4
  28:	00000097          	auipc	ra,0x0
  2c:	000080e7          	jalr	ra # 28 <bt_bb_v2_init_cmplx+0x28>
  30:	00000097          	auipc	ra,0x0
  34:	000080e7          	jalr	ra # 30 <bt_bb_v2_init_cmplx+0x30>
  38:	600066b7          	lui	a3,0x60006
  3c:	0fc6a783          	lw	a5,252(a3) # 600060fc <.L23+0x60005fb6>
  40:	7741                	lui	a4,0xffff0
  42:	0ff70713          	add	a4,a4,255 # ffff00ff <.L23+0xfffeffb9>
  46:	8ff9                	and	a5,a5,a4
  48:	6735                	lui	a4,0xd
  4a:	80070713          	add	a4,a4,-2048 # c800 <.L23+0xc6ba>
  4e:	8fd9                	or	a5,a5,a4
  50:	0ef6ae23          	sw	a5,252(a3)
  54:	0c442783          	lw	a5,196(s0)
  58:	fe000737          	lui	a4,0xfe000
  5c:	177d                	add	a4,a4,-1 # fdffffff <.L23+0xfdfffeb9>
  5e:	8ff9                	and	a5,a5,a4
  60:	0cf42223          	sw	a5,196(s0)
  64:	c889                	beqz	s1,76 <.L28>
  66:	4422                	lw	s0,8(sp)
  68:	40b2                	lw	ra,12(sp)
  6a:	4492                	lw	s1,4(sp)
  6c:	0141                	add	sp,sp,16
  6e:	00000317          	auipc	t1,0x0
  72:	00030067          	jr	t1 # 6e <bt_bb_v2_init_cmplx+0x6e>

00000076 <.L28>:
  76:	40b2                	lw	ra,12(sp)
  78:	4422                	lw	s0,8(sp)
  7a:	4492                	lw	s1,4(sp)
  7c:	0141                	add	sp,sp,16
  7e:	8082                	ret

Disassembly of section .text.coex_pti_v2:

00000000 <coex_pti_v2>:
   0:	6001c737          	lui	a4,0x6001c
   4:	08072783          	lw	a5,128(a4) # 6001c080 <.L23+0x6001bf3a>
   8:	fff00637          	lui	a2,0xfff00
   c:	0ff60613          	add	a2,a2,255 # fff000ff <.L23+0xffefffb9>
  10:	f3f7f793          	and	a5,a5,-193
  14:	08f72023          	sw	a5,128(a4)
  18:	600317b7          	lui	a5,0x60031
  1c:	5307a703          	lw	a4,1328(a5) # 60031530 <.L23+0x600313ea>
  20:	0f076713          	or	a4,a4,240
  24:	52e7a823          	sw	a4,1328(a5)
  28:	1507a703          	lw	a4,336(a5)
  2c:	0f076713          	or	a4,a4,240
  30:	14e7a823          	sw	a4,336(a5)
  34:	60035737          	lui	a4,0x60035
  38:	08472683          	lw	a3,132(a4) # 60035084 <.L23+0x60034f3e>
  3c:	8ef1                	and	a3,a3,a2
  3e:	6611                	lui	a2,0x4
  40:	c0060613          	add	a2,a2,-1024 # 3c00 <.L23+0x3aba>
  44:	8ed1                	or	a3,a3,a2
  46:	08d72223          	sw	a3,132(a4)
  4a:	09c72603          	lw	a2,156(a4)
  4e:	66c1                	lui	a3,0x10
  50:	fff68593          	add	a1,a3,-1 # ffff <.L23+0xfeb9>
  54:	8e6d                	and	a2,a2,a1
  56:	001406b7          	lui	a3,0x140
  5a:	8e55                	or	a2,a2,a3
  5c:	08c72e23          	sw	a2,156(a4)
  60:	09872683          	lw	a3,152(a4)
  64:	06400637          	lui	a2,0x6400
  68:	8eed                	and	a3,a3,a1
  6a:	8ed1                	or	a3,a3,a2
  6c:	08d72c23          	sw	a3,152(a4)
  70:	09c72683          	lw	a3,156(a4)
  74:	7641                	lui	a2,0xffff0
  76:	8ef1                	and	a3,a3,a2
  78:	0646e693          	or	a3,a3,100
  7c:	08d72e23          	sw	a3,156(a4)
  80:	08472683          	lw	a3,132(a4)
  84:	f1000637          	lui	a2,0xf1000
  88:	167d                	add	a2,a2,-1 # f0ffffff <.L23+0xf0fffeb9>
  8a:	0016e693          	or	a3,a3,1
  8e:	08d72223          	sw	a3,132(a4)
  92:	08472683          	lw	a3,132(a4)
  96:	8ef1                	and	a3,a3,a2
  98:	0c000637          	lui	a2,0xc000
  9c:	8ed1                	or	a3,a3,a2
  9e:	08d72223          	sw	a3,132(a4)
  a2:	5307a703          	lw	a4,1328(a5)
  a6:	00176713          	or	a4,a4,1
  aa:	52e7a823          	sw	a4,1328(a5)
  ae:	1507a703          	lw	a4,336(a5)
  b2:	00176713          	or	a4,a4,1
  b6:	14e7a823          	sw	a4,336(a5)
  ba:	47b8                	lw	a4,72(a5)
  bc:	10076713          	or	a4,a4,256
  c0:	c7b8                	sw	a4,72(a5)
  c2:	47b8                	lw	a4,72(a5)
  c4:	0f076713          	or	a4,a4,240
  c8:	c7b8                	sw	a4,72(a5)
  ca:	8082                	ret

Disassembly of section .text.coex_pti_print:

00000000 <coex_pti_print>:
   0:	1141                	add	sp,sp,-16
   2:	c422                	sw	s0,8(sp)
   4:	60035437          	lui	s0,0x60035
   8:	08442583          	lw	a1,132(s0) # 60035084 <.L23+0x60034f3e>
   c:	00000537          	lui	a0,0x0
  10:	00050513          	mv	a0,a0
  14:	c606                	sw	ra,12(sp)
  16:	00000097          	auipc	ra,0x0
  1a:	000080e7          	jalr	ra # 16 <coex_pti_print+0x16>
  1e:	09842583          	lw	a1,152(s0)
  22:	00000537          	lui	a0,0x0
  26:	00050513          	mv	a0,a0
  2a:	00000097          	auipc	ra,0x0
  2e:	000080e7          	jalr	ra # 2a <coex_pti_print+0x2a>
  32:	09c42583          	lw	a1,156(s0)
  36:	00000537          	lui	a0,0x0
  3a:	00050513          	mv	a0,a0
  3e:	00000097          	auipc	ra,0x0
  42:	000080e7          	jalr	ra # 3e <coex_pti_print+0x3e>
  46:	60031437          	lui	s0,0x60031
  4a:	53042583          	lw	a1,1328(s0) # 60031530 <.L23+0x600313ea>
  4e:	00000537          	lui	a0,0x0
  52:	00050513          	mv	a0,a0
  56:	00000097          	auipc	ra,0x0
  5a:	000080e7          	jalr	ra # 56 <coex_pti_print+0x56>
  5e:	15042583          	lw	a1,336(s0)
  62:	00000537          	lui	a0,0x0
  66:	00050513          	mv	a0,a0
  6a:	00000097          	auipc	ra,0x0
  6e:	000080e7          	jalr	ra # 6a <coex_pti_print+0x6a>
  72:	442c                	lw	a1,72(s0)
  74:	4422                	lw	s0,8(sp)
  76:	40b2                	lw	ra,12(sp)
  78:	00000537          	lui	a0,0x0
  7c:	00050513          	mv	a0,a0
  80:	0141                	add	sp,sp,16
  82:	00000317          	auipc	t1,0x0
  86:	00030067          	jr	t1 # 82 <coex_pti_print+0x82>

Disassembly of section .text.force_coex_timer0_wifi_v2:

00000000 <force_coex_timer0_wifi_v2>:
   0:	60035737          	lui	a4,0x60035
   4:	0a872783          	lw	a5,168(a4) # 600350a8 <.L23+0x60034f62>
   8:	900006b7          	lui	a3,0x90000
   c:	8fd5                	or	a5,a5,a3
   e:	0af72423          	sw	a5,168(a4)
  12:	8082                	ret

Disassembly of section .text.force_coex_timer0_wifi_pti_v2:

00000000 <force_coex_timer0_wifi_pti_v2>:
   0:	600356b7          	lui	a3,0x60035
   4:	0a86a783          	lw	a5,168(a3) # 600350a8 <.L23+0x60034f62>
   8:	0f000737          	lui	a4,0xf000
   c:	0562                	sll	a0,a0,0x18
   e:	8d79                	and	a0,a0,a4
  10:	f1000737          	lui	a4,0xf1000
  14:	177d                	add	a4,a4,-1 # f0ffffff <.L23+0xf0fffeb9>
  16:	8ff9                	and	a5,a5,a4
  18:	8d5d                	or	a0,a0,a5
  1a:	0aa6a423          	sw	a0,168(a3)
  1e:	8082                	ret

Disassembly of section .text.force_coex_timer1_bt_v2:

00000000 <force_coex_timer1_bt_v2>:
   0:	60035737          	lui	a4,0x60035
   4:	0b072783          	lw	a5,176(a4) # 600350b0 <.L23+0x60034f6a>
   8:	d00006b7          	lui	a3,0xd0000
   c:	8fd5                	or	a5,a5,a3
   e:	0af72823          	sw	a5,176(a4)
  12:	8082                	ret

Disassembly of section .text.force_coex_timer1_bt_pti_v2:

00000000 <force_coex_timer1_bt_pti_v2>:
   0:	600356b7          	lui	a3,0x60035
   4:	0b06a783          	lw	a5,176(a3) # 600350b0 <.L23+0x60034f6a>
   8:	0f000737          	lui	a4,0xf000
   c:	0562                	sll	a0,a0,0x18
   e:	8d79                	and	a0,a0,a4
  10:	f1000737          	lui	a4,0xf1000
  14:	177d                	add	a4,a4,-1 # f0ffffff <.L23+0xf0fffeb9>
  16:	8ff9                	and	a5,a5,a4
  18:	8d5d                	or	a0,a0,a5
  1a:	0aa6a823          	sw	a0,176(a3)
  1e:	8082                	ret

Disassembly of section .text.force_coex_timer11_bt_v2:

00000000 <force_coex_timer11_bt_v2>:
   0:	60035737          	lui	a4,0x60035
   4:	10072783          	lw	a5,256(a4) # 60035100 <.L23+0x60034fba>
   8:	d00006b7          	lui	a3,0xd0000
   c:	8fd5                	or	a5,a5,a3
   e:	10f72023          	sw	a5,256(a4)
  12:	8082                	ret

Disassembly of section .text.force_coex_timer11_bt_pti_v2:

00000000 <force_coex_timer11_bt_pti_v2>:
   0:	600356b7          	lui	a3,0x60035
   4:	1006a783          	lw	a5,256(a3) # 60035100 <.L23+0x60034fba>
   8:	0f000737          	lui	a4,0xf000
   c:	0562                	sll	a0,a0,0x18
   e:	8d79                	and	a0,a0,a4
  10:	f1000737          	lui	a4,0xf1000
  14:	177d                	add	a4,a4,-1 # f0ffffff <.L23+0xf0fffeb9>
  16:	8ff9                	and	a5,a5,a4
  18:	8d5d                	or	a0,a0,a5
  1a:	10a6a023          	sw	a0,256(a3)
  1e:	8082                	ret

Disassembly of section .text.bt_get_channel_pwr_set:

00000000 <bt_get_channel_pwr_set>:
   0:	6000e7b7          	lui	a5,0x6000e
   4:	0c47a703          	lw	a4,196(a5) # 6000e0c4 <.L23+0x6000df7e>
   8:	020006b7          	lui	a3,0x2000
   c:	1141                	add	sp,sp,-16
   e:	c606                	sw	ra,12(sp)
  10:	8f55                	or	a4,a4,a3
  12:	0ce7a223          	sw	a4,196(a5)
  16:	0c47a703          	lw	a4,196(a5)
  1a:	0506                	sll	a0,a0,0x1
  1c:	0ff57513          	zext.b	a0,a0
  20:	f0177713          	and	a4,a4,-255
  24:	8d59                	or	a0,a0,a4
  26:	0ca7a223          	sw	a0,196(a5)
  2a:	0c47a703          	lw	a4,196(a5)
  2e:	76e1                	lui	a3,0xffff8
  30:	16fd                	add	a3,a3,-1 # ffff7fff <.L23+0xffff7eb9>
  32:	8f75                	and	a4,a4,a3
  34:	0ce7a223          	sw	a4,196(a5)
  38:	0c47a703          	lw	a4,196(a5)
  3c:	10076713          	or	a4,a4,256
  40:	0ce7a223          	sw	a4,196(a5)

00000044 <.L41>:
  44:	0c47a683          	lw	a3,196(a5)
  48:	0c478713          	add	a4,a5,196
  4c:	fe06dce3          	bgez	a3,44 <.L41>
  50:	0c47a783          	lw	a5,196(a5)
  54:	eff7f793          	and	a5,a5,-257
  58:	c31c                	sw	a5,0(a4)
  5a:	00000097          	auipc	ra,0x0
  5e:	000080e7          	jalr	ra # 5a <.L41+0x16>
  62:	453d                	li	a0,15
  64:	00000097          	auipc	ra,0x0
  68:	000080e7          	jalr	ra # 64 <.L41+0x20>
  6c:	60011737          	lui	a4,0x60011
  70:	435c                	lw	a5,4(a4)
  72:	40b2                	lw	ra,12(sp)
  74:	3007e793          	or	a5,a5,768
  78:	c35c                	sw	a5,4(a4)
  7a:	0141                	add	sp,sp,16
  7c:	8082                	ret

Disassembly of section .text.bt_get_channel_pwr:

00000000 <bt_get_channel_pwr>:
   0:	600117b7          	lui	a5,0x60011
   4:	0b07a503          	lw	a0,176(a5) # 600110b0 <.L23+0x60010f6a>
   8:	0562                	sll	a0,a0,0x18
   a:	8561                	sra	a0,a0,0x18
   c:	8082                	ret

Disassembly of section .text.bt_get_channel_pwr_unset:

00000000 <bt_get_channel_pwr_unset>:
   0:	60011737          	lui	a4,0x60011
   4:	435c                	lw	a5,4(a4)
   6:	1141                	add	sp,sp,-16
   8:	c606                	sw	ra,12(sp)
   a:	cff7f793          	and	a5,a5,-769
   e:	c35c                	sw	a5,4(a4)
  10:	4501                	li	a0,0
  12:	00000097          	auipc	ra,0x0
  16:	000080e7          	jalr	ra # 12 <bt_get_channel_pwr_unset+0x12>
  1a:	6000e6b7          	lui	a3,0x6000e
  1e:	0c46a783          	lw	a5,196(a3) # 6000e0c4 <.L23+0x6000df7e>
  22:	fe000737          	lui	a4,0xfe000
  26:	40b2                	lw	ra,12(sp)
  28:	177d                	add	a4,a4,-1 # fdffffff <.L23+0xfdfffeb9>
  2a:	8ff9                	and	a5,a5,a4
  2c:	0cf6a223          	sw	a5,196(a3)
  30:	0141                	add	sp,sp,16
  32:	8082                	ret

Disassembly of section .text.bt_set_chn:

00000000 <bt_set_chn>:
   0:	6000e737          	lui	a4,0x6000e
   4:	0c472783          	lw	a5,196(a4) # 6000e0c4 <.L23+0x6000df7e>
   8:	020006b7          	lui	a3,0x2000
   c:	4601                	li	a2,0
   e:	8fd5                	or	a5,a5,a3
  10:	0cf72223          	sw	a5,196(a4)
  14:	4581                	li	a1,0
  16:	0ff57513          	zext.b	a0,a0
  1a:	00000317          	auipc	t1,0x0
  1e:	00030067          	jr	t1 # 1a <bt_set_chn+0x1a>

Disassembly of section .text.bt_bb_set_rx_sense:

00000000 <bt_bb_set_rx_sense>:
   0:	c53d                	beqz	a0,6e <.L49>
   2:	4785                	li	a5,1
   4:	02b7e663          	bltu	a5,a1,30 <.L50>
   8:	6001c5b7          	lui	a1,0x6001c
   c:	5df8                	lw	a4,124(a1)
   e:	ff0107b7          	lui	a5,0xff010
  12:	fff78693          	add	a3,a5,-1 # ff00ffff <.L23+0xff00feb9>
  16:	0642                	sll	a2,a2,0x10
  18:	8f75                	and	a4,a4,a3
  1a:	8f51                	or	a4,a4,a2
  1c:	ddf8                	sw	a4,124(a1)
  1e:	60012737          	lui	a4,0x60012
  22:	8a072783          	lw	a5,-1888(a4) # 600118a0 <.L23+0x6001175a>
  26:	8ff5                	and	a5,a5,a3
  28:	8e5d                	or	a2,a2,a5
  2a:	8ac72023          	sw	a2,-1888(a4)
  2e:	8082                	ret

00000030 <.L50>:
  30:	15f9                	add	a1,a1,-2 # 6001bffe <.L23+0x6001beb8>
  32:	0ff5f593          	zext.b	a1,a1
  36:	04b7e463          	bltu	a5,a1,7e <.L48>
  3a:	6001c6b7          	lui	a3,0x6001c
  3e:	1a06a783          	lw	a5,416(a3) # 6001c1a0 <.L23+0x6001c05a>
  42:	e0200737          	lui	a4,0xe0200
  46:	177d                	add	a4,a4,-1 # e01fffff <.L23+0xe01ffeb9>
  48:	8ff9                	and	a5,a5,a4
  4a:	01561713          	sll	a4,a2,0x15
  4e:	8fd9                	or	a5,a5,a4
  50:	1af6a023          	sw	a5,416(a3)
  54:	600126b7          	lui	a3,0x60012
  58:	8ac6a783          	lw	a5,-1876(a3) # 600118ac <.L23+0x60011766>
  5c:	80800737          	lui	a4,0x80800
  60:	177d                	add	a4,a4,-1 # 807fffff <.L23+0x807ffeb9>
  62:	8ff9                	and	a5,a5,a4
  64:	065e                	sll	a2,a2,0x17
  66:	8e5d                	or	a2,a2,a5
  68:	8ac6a623          	sw	a2,-1876(a3)
  6c:	8082                	ret

0000006e <.L49>:
  6e:	f9200593          	li	a1,-110
  72:	f9c00513          	li	a0,-100
  76:	00000317          	auipc	t1,0x0
  7a:	00030067          	jr	t1 # 76 <.L49+0x8>

0000007e <.L48>:
  7e:	8082                	ret

Disassembly of section .text.ieee802154_set_rx_sense:

00000000 <ieee802154_set_rx_sense>:
   0:	862e                	mv	a2,a1
   2:	4591                	li	a1,4
   4:	00000317          	auipc	t1,0x0
   8:	00030067          	jr	t1 # 4 <ieee802154_set_rx_sense+0x4>

Disassembly of section .text.bt_bb_set_max_gain:

00000000 <bt_bb_set_max_gain>:
   0:	c511                	beqz	a0,c <.L54>
   2:	852e                	mv	a0,a1

00000004 <.L55>:
   4:	00000317          	auipc	t1,0x0
   8:	00030067          	jr	t1 # 4 <.L55>

0000000c <.L54>:
   c:	6001c7b7          	lui	a5,0x6001c
  10:	0a47a503          	lw	a0,164(a5) # 6001c0a4 <.L23+0x6001bf5e>
  14:	813d                	srl	a0,a0,0xf
  16:	07f57513          	and	a0,a0,127
  1a:	b7ed                	j	4 <.L55>
