In archive /Users/dimajolkin/GolandProjects/espradio/blobs/libs/esp32c3/libcore.a:

misc_nvs.o:     file format elf32-littleriscv


Disassembly of section .text.misc_nvs_load:

00000000 <misc_nvs_load>:
   0:	1141                	add	sp,sp,-16
   2:	c226                	sw	s1,4(sp)
   4:	c606                	sw	ra,12(sp)
   6:	000004b7          	lui	s1,0x0
   a:	c422                	sw	s0,8(sp)
   c:	00048493          	mv	s1,s1
  10:	e951                	bnez	a0,a4 <.L2>
  12:	00000437          	lui	s0,0x0
  16:	00042783          	lw	a5,0(s0) # 0 <misc_nvs_load>
  1a:	03c00513          	li	a0,60
  1e:	1587a783          	lw	a5,344(a5)
  22:	9782                	jalr	a5
  24:	c088                	sw	a0,0(s1)
  26:	e50d                	bnez	a0,50 <.L3>
  28:	000006b7          	lui	a3,0x0
  2c:	00068693          	mv	a3,a3
  30:	4609                	li	a2,2
  32:	10000593          	li	a1,256
  36:	4505                	li	a0,1
  38:	00000097          	auipc	ra,0x0
  3c:	000080e7          	jalr	ra # 38 <misc_nvs_load+0x38>
  40:	10100413          	li	s0,257

00000044 <.L1>:
  44:	40b2                	lw	ra,12(sp)
  46:	8522                	mv	a0,s0
  48:	4422                	lw	s0,8(sp)
  4a:	4492                	lw	s1,4(sp)
  4c:	0141                	add	sp,sp,16
  4e:	8082                	ret

00000050 <.L3>:
  50:	03c00613          	li	a2,60
  54:	4581                	li	a1,0
  56:	00000097          	auipc	ra,0x0
  5a:	000080e7          	jalr	ra # 56 <.L3+0x6>
  5e:	000007b7          	lui	a5,0x0
  62:	00078793          	mv	a5,a5
  66:	53dc                	lw	a5,36(a5)
  68:	cf95                	beqz	a5,a4 <.L2>
  6a:	00042783          	lw	a5,0(s0)
  6e:	4090                	lw	a2,0(s1)
  70:	00000537          	lui	a0,0x0
  74:	1247a783          	lw	a5,292(a5) # 124 <.L2+0x80>
  78:	03860613          	add	a2,a2,56
  7c:	4585                	li	a1,1
  7e:	00050513          	mv	a0,a0
  82:	9782                	jalr	a5
  84:	842a                	mv	s0,a0
  86:	cd19                	beqz	a0,a4 <.L2>
  88:	000006b7          	lui	a3,0x0
  8c:	872a                	mv	a4,a0
  8e:	00068693          	mv	a3,a3
  92:	4609                	li	a2,2
  94:	10000593          	li	a1,256
  98:	4505                	li	a0,1
  9a:	00000097          	auipc	ra,0x0
  9e:	000080e7          	jalr	ra # 9a <.L3+0x4a>
  a2:	b74d                	j	44 <.L1>

000000a4 <.L2>:
  a4:	409c                	lw	a5,0(s1)
  a6:	4401                	li	s0,0
  a8:	0007a423          	sw	zero,8(a5)
  ac:	bf61                	j	44 <.L1>

Disassembly of section .text.misc_nvs_deinit:

00000000 <misc_nvs_deinit>:
   0:	1141                	add	sp,sp,-16
   2:	c422                	sw	s0,8(sp)
   4:	00000437          	lui	s0,0x0
   8:	00040793          	mv	a5,s0
   c:	4398                	lw	a4,0(a5)
   e:	c606                	sw	ra,12(sp)
  10:	c226                	sw	s1,4(sp)
  12:	00040413          	mv	s0,s0
  16:	cb0d                	beqz	a4,48 <.L13>
  18:	000007b7          	lui	a5,0x0
  1c:	00078793          	mv	a5,a5
  20:	53dc                	lw	a5,36(a5)
  22:	000004b7          	lui	s1,0x0
  26:	cb99                	beqz	a5,3c <.L14>
  28:	5f08                	lw	a0,56(a4)
  2a:	c909                	beqz	a0,3c <.L14>
  2c:	0004a783          	lw	a5,0(s1) # 0 <misc_nvs_deinit>
  30:	1287a783          	lw	a5,296(a5) # 128 <.L2+0x84>
  34:	9782                	jalr	a5
  36:	401c                	lw	a5,0(s0)
  38:	0207ac23          	sw	zero,56(a5)

0000003c <.L14>:
  3c:	0004a783          	lw	a5,0(s1)
  40:	4008                	lw	a0,0(s0)
  42:	0b07a783          	lw	a5,176(a5)
  46:	9782                	jalr	a5

00000048 <.L13>:
  48:	40b2                	lw	ra,12(sp)
  4a:	00042023          	sw	zero,0(s0) # 0 <misc_nvs_deinit>
  4e:	4422                	lw	s0,8(sp)
  50:	000007b7          	lui	a5,0x0
  54:	00078023          	sb	zero,0(a5) # 0 <misc_nvs_deinit>
  58:	4492                	lw	s1,4(sp)
  5a:	4501                	li	a0,0
  5c:	0141                	add	sp,sp,16
  5e:	8082                	ret

Disassembly of section .text.misc_nvs_init:

00000000 <misc_nvs_init>:
   0:	000007b7          	lui	a5,0x0
   4:	00078793          	mv	a5,a5
   8:	0007c703          	lbu	a4,0(a5) # 0 <misc_nvs_init>
   c:	1141                	add	sp,sp,-16
   e:	c422                	sw	s0,8(sp)
  10:	c606                	sw	ra,12(sp)
  12:	4401                	li	s0,0
  14:	ef19                	bnez	a4,32 <.L25>
  16:	4705                	li	a4,1
  18:	4501                	li	a0,0
  1a:	00e78023          	sb	a4,0(a5)
  1e:	00000097          	auipc	ra,0x0
  22:	000080e7          	jalr	ra # 1e <misc_nvs_init+0x1e>
  26:	842a                	mv	s0,a0
  28:	c509                	beqz	a0,32 <.L25>
  2a:	00000097          	auipc	ra,0x0
  2e:	000080e7          	jalr	ra # 2a <misc_nvs_init+0x2a>

00000032 <.L25>:
  32:	40b2                	lw	ra,12(sp)
  34:	8522                	mv	a0,s0
  36:	4422                	lw	s0,8(sp)
  38:	0141                	add	sp,sp,16
  3a:	8082                	ret

Disassembly of section .text.misc_nvs_restore:

00000000 <misc_nvs_restore>:
   0:	000007b7          	lui	a5,0x0
   4:	0007a783          	lw	a5,0(a5) # 0 <misc_nvs_restore>
   8:	4501                	li	a0,0
   a:	0007a423          	sw	zero,8(a5)
   e:	8082                	ret
