In archive /Users/dimajolkin/GolandProjects/espradio/blobs/libs/esp32c3/libmesh.a:

mesh_parent.o:     file format elf32-littleriscv


Disassembly of section .text.mesh_nwk_find_conflict_roots.part.0:

00000000 <mesh_nwk_find_conflict_roots.part.0>:
   0:	7179                	add	sp,sp,-48
   2:	d422                	sw	s0,40(sp)
   4:	d226                	sw	s1,36(sp)
   6:	cc52                	sw	s4,24(sp)
   8:	ca56                	sw	s5,20(sp)
   a:	c85a                	sw	s6,16(sp)
   c:	c65e                	sw	s7,12(sp)
   e:	d606                	sw	ra,44(sp)
  10:	d04a                	sw	s2,32(sp)
  12:	ce4e                	sw	s3,28(sp)
  14:	8aaa                	mv	s5,a0
  16:	84ae                	mv	s1,a1
  18:	00258a13          	add	s4,a1,2
  1c:	4401                	li	s0,0
  1e:	4b9d                	li	s7,7
  20:	4b29                	li	s6,10

00000022 <.L4>:
  22:	03740933          	mul	s2,s0,s7
  26:	9926                	add	s2,s2,s1
  28:	00194983          	lbu	s3,1(s2)
  2c:	0029d793          	srl	a5,s3,0x2
  30:	8b85                	and	a5,a5,1
  32:	cf95                	beqz	a5,6e <.L2>
  34:	4619                	li	a2,6
  36:	85d6                	mv	a1,s5
  38:	8552                	mv	a0,s4
  3a:	00000097          	auipc	ra,0x0
  3e:	000080e7          	jalr	ra # 3a <.L4+0x18>
  42:	e515                	bnez	a0,6e <.L2>
  44:	ffb9f993          	and	s3,s3,-5
  48:	013900a3          	sb	s3,1(s2)
  4c:	0004c783          	lbu	a5,0(s1)
  50:	17fd                	add	a5,a5,-1
  52:	00f48023          	sb	a5,0(s1)

00000056 <.L1>:
  56:	50b2                	lw	ra,44(sp)
  58:	8522                	mv	a0,s0
  5a:	5422                	lw	s0,40(sp)
  5c:	5492                	lw	s1,36(sp)
  5e:	5902                	lw	s2,32(sp)
  60:	49f2                	lw	s3,28(sp)
  62:	4a62                	lw	s4,24(sp)
  64:	4ad2                	lw	s5,20(sp)
  66:	4b42                	lw	s6,16(sp)
  68:	4bb2                	lw	s7,12(sp)
  6a:	6145                	add	sp,sp,48
  6c:	8082                	ret

0000006e <.L2>:
  6e:	0405                	add	s0,s0,1
  70:	0a1d                	add	s4,s4,7
  72:	fb6418e3          	bne	s0,s6,22 <.L4>
  76:	547d                	li	s0,-1
  78:	bff9                	j	56 <.L1>

Disassembly of section .text.mesh_sta_auth_expire_time:

00000000 <mesh_sta_auth_expire_time>:
   0:	000007b7          	lui	a5,0x0
   4:	0007c783          	lbu	a5,0(a5) # 0 <mesh_sta_auth_expire_time>
   8:	3e800513          	li	a0,1000
   c:	e79d                	bnez	a5,3a <.L10>
   e:	000007b7          	lui	a5,0x0
  12:	0007a783          	lw	a5,0(a5) # 0 <mesh_sta_auth_expire_time>
  16:	4b000513          	li	a0,1200
  1a:	c399                	beqz	a5,20 <.L12>
  1c:	5dc00513          	li	a0,1500

00000020 <.L12>:
  20:	000007b7          	lui	a5,0x0
  24:	0007a783          	lw	a5,0(a5) # 0 <mesh_sta_auth_expire_time>
  28:	470d                	li	a4,3
  2a:	00f75863          	bge	a4,a5,3a <.L10>
  2e:	17f5                	add	a5,a5,-3
  30:	1f400713          	li	a4,500
  34:	02e787b3          	mul	a5,a5,a4
  38:	953e                	add	a0,a0,a5

0000003a <.L10>:
  3a:	8082                	ret

Disassembly of section .text.mesh_register_timer_cb:

00000000 <mesh_register_timer_cb>:
   0:	000007b7          	lui	a5,0x0
   4:	00a7a023          	sw	a0,0(a5) # 0 <mesh_register_timer_cb>
   8:	8082                	ret

Disassembly of section .text.esp_mesh_ie_update_rssi:

00000000 <esp_mesh_ie_update_rssi>:
   0:	715d                	add	sp,sp,-80
   2:	03a00613          	li	a2,58
   6:	4581                	li	a1,0
   8:	0048                	add	a0,sp,4
   a:	c686                	sw	ra,76(sp)
   c:	c4a2                	sw	s0,72(sp)
   e:	00000097          	auipc	ra,0x0
  12:	000080e7          	jalr	ra # e <esp_mesh_ie_update_rssi+0xe>
  16:	4581                	li	a1,0
  18:	0048                	add	a0,sp,4
  1a:	00000097          	auipc	ra,0x0
  1e:	000080e7          	jalr	ra # 1a <esp_mesh_ie_update_rssi+0x1a>
  22:	842a                	mv	s0,a0
  24:	e93d                	bnez	a0,9a <.L17>
  26:	02010783          	lb	a5,32(sp)
  2a:	f8800713          	li	a4,-120
  2e:	00e78663          	beq	a5,a4,3a <.L20>
  32:	00000737          	lui	a4,0x0
  36:	00f70e23          	sb	a5,28(a4) # 1c <esp_mesh_ie_update_rssi+0x1c>

0000003a <.L20>:
  3a:	02110783          	lb	a5,33(sp)
  3e:	f8800713          	li	a4,-120
  42:	00e78663          	beq	a5,a4,4e <.L21>
  46:	00000737          	lui	a4,0x0
  4a:	00f70ea3          	sb	a5,29(a4) # 1d <esp_mesh_ie_update_rssi+0x1d>

0000004e <.L21>:
  4e:	02910703          	lb	a4,41(sp)
  52:	f8800793          	li	a5,-120
  56:	00f70d63          	beq	a4,a5,70 <.L23>
  5a:	000007b7          	lui	a5,0x0
  5e:	0007c783          	lbu	a5,0(a5) # 0 <esp_mesh_ie_update_rssi>
  62:	c3a9                	beqz	a5,a4 <.L24>

00000064 <.L26>:
  64:	02914703          	lbu	a4,41(sp)
  68:	000007b7          	lui	a5,0x0
  6c:	02e782a3          	sb	a4,37(a5) # 25 <esp_mesh_ie_update_rssi+0x25>

00000070 <.L23>:
  70:	03010703          	lb	a4,48(sp)
  74:	f8800793          	li	a5,-120
  78:	02f70163          	beq	a4,a5,9a <.L17>
  7c:	00000537          	lui	a0,0x0
  80:	02650513          	add	a0,a0,38 # 26 <esp_mesh_ie_update_rssi+0x26>
  84:	00000097          	auipc	ra,0x0
  88:	000080e7          	jalr	ra # 84 <.L23+0x14>
  8c:	e519                	bnez	a0,9a <.L17>
  8e:	03014703          	lbu	a4,48(sp)
  92:	000007b7          	lui	a5,0x0
  96:	02e78623          	sb	a4,44(a5) # 2c <esp_mesh_ie_update_rssi+0x2c>

0000009a <.L17>:
  9a:	40b6                	lw	ra,76(sp)
  9c:	8522                	mv	a0,s0
  9e:	4426                	lw	s0,72(sp)
  a0:	6161                	add	sp,sp,80
  a2:	8082                	ret

000000a4 <.L24>:
  a4:	00000537          	lui	a0,0x0
  a8:	01f50513          	add	a0,a0,31 # 1f <esp_mesh_ie_update_rssi+0x1f>
  ac:	00000097          	auipc	ra,0x0
  b0:	000080e7          	jalr	ra # ac <.L24+0x8>
  b4:	d945                	beqz	a0,64 <.L26>
  b6:	bf6d                	j	70 <.L23>

Disassembly of section .text.esp_mesh_set_ie.constprop.0.isra.0:

00000000 <esp_mesh_set_ie.constprop.0.isra.0>:
   0:	1141                	add	sp,sp,-16
   2:	c606                	sw	ra,12(sp)
   4:	00000097          	auipc	ra,0x0
   8:	000080e7          	jalr	ra # 4 <esp_mesh_set_ie.constprop.0.isra.0+0x4>
   c:	ed19                	bnez	a0,2a <.L29>
   e:	40b2                	lw	ra,12(sp)
  10:	000005b7          	lui	a1,0x0
  14:	00000537          	lui	a0,0x0
  18:	00058593          	mv	a1,a1
  1c:	00050513          	mv	a0,a0
  20:	0141                	add	sp,sp,16
  22:	00000317          	auipc	t1,0x0
  26:	00030067          	jr	t1 # 22 <esp_mesh_set_ie.constprop.0.isra.0+0x22>

0000002a <.L29>:
  2a:	40b2                	lw	ra,12(sp)
  2c:	0141                	add	sp,sp,16
  2e:	8082                	ret

Disassembly of section .text.esp_mesh_set_ie:

00000000 <esp_mesh_set_ie>:
   0:	1141                	add	sp,sp,-16
   2:	c606                	sw	ra,12(sp)
   4:	00000097          	auipc	ra,0x0
   8:	000080e7          	jalr	ra # 4 <esp_mesh_set_ie+0x4>
   c:	ed19                	bnez	a0,2a <.L33>
   e:	40b2                	lw	ra,12(sp)
  10:	000005b7          	lui	a1,0x0
  14:	00000537          	lui	a0,0x0
  18:	00058593          	mv	a1,a1
  1c:	00050513          	mv	a0,a0
  20:	0141                	add	sp,sp,16
  22:	00000317          	auipc	t1,0x0
  26:	00030067          	jr	t1 # 22 <esp_mesh_set_ie+0x22>

0000002a <.L33>:
  2a:	40b2                	lw	ra,12(sp)
  2c:	4501                	li	a0,0
  2e:	0141                	add	sp,sp,16
  30:	8082                	ret

Disassembly of section .text.is_mesh_last_parent:

00000000 <is_mesh_last_parent>:
   0:	c129                	beqz	a0,42 <.L37>
   2:	1141                	add	sp,sp,-16
   4:	c422                	sw	s0,8(sp)
   6:	00000437          	lui	s0,0x0
   a:	4619                	li	a2,6
   c:	00040593          	mv	a1,s0
  10:	c606                	sw	ra,12(sp)
  12:	00000097          	auipc	ra,0x0
  16:	000080e7          	jalr	ra # 12 <is_mesh_last_parent+0x12>
  1a:	87aa                	mv	a5,a0
  1c:	4501                	li	a0,0
  1e:	ef91                	bnez	a5,3a <.L36>
  20:	000005b7          	lui	a1,0x0
  24:	4619                	li	a2,6
  26:	00058593          	mv	a1,a1
  2a:	00040513          	mv	a0,s0
  2e:	00000097          	auipc	ra,0x0
  32:	000080e7          	jalr	ra # 2e <is_mesh_last_parent+0x2e>
  36:	00a03533          	snez	a0,a0

0000003a <.L36>:
  3a:	40b2                	lw	ra,12(sp)
  3c:	4422                	lw	s0,8(sp)
  3e:	0141                	add	sp,sp,16
  40:	8082                	ret

00000042 <.L37>:
  42:	4501                	li	a0,0
  44:	8082                	ret

Disassembly of section .text.esp_mesh_send_root_switch:

00000000 <esp_mesh_send_root_switch>:
   0:	1101                	add	sp,sp,-32
   2:	cc22                	sw	s0,24(sp)
   4:	842e                	mv	s0,a1
   6:	000005b7          	lui	a1,0x0
   a:	ca26                	sw	s1,20(sp)
   c:	c84a                	sw	s2,16(sp)
   e:	84aa                	mv	s1,a0
  10:	8932                	mv	s2,a2
  12:	00058593          	mv	a1,a1
  16:	4619                	li	a2,6
  18:	00a10513          	add	a0,sp,10
  1c:	ce06                	sw	ra,28(sp)
  1e:	00000097          	auipc	ra,0x0
  22:	000080e7          	jalr	ra # 1e <esp_mesh_send_root_switch+0x1e>
  26:	47a1                	li	a5,8
  28:	00f100a3          	sb	a5,1(sp)
  2c:	003c                	add	a5,sp,8
  2e:	0087d693          	srl	a3,a5,0x8
  32:	4705                	li	a4,1
  34:	00f101a3          	sb	a5,3(sp)
  38:	00d10223          	sb	a3,4(sp)
  3c:	0107d693          	srl	a3,a5,0x10
  40:	83e1                	srl	a5,a5,0x18
  42:	012104a3          	sb	s2,9(sp)
  46:	00810423          	sb	s0,8(sp)
  4a:	00e10023          	sb	a4,0(sp)
  4e:	00010123          	sb	zero,2(sp)
  52:	00d102a3          	sb	a3,5(sp)
  56:	00f10323          	sb	a5,6(sp)
  5a:	e005                	bnez	s0,7a <.L44>
  5c:	4701                	li	a4,0
  5e:	56fd                	li	a3,-1
  60:	860a                	mv	a2,sp
  62:	45a1                	li	a1,8

00000064 <.L48>:
  64:	8526                	mv	a0,s1
  66:	00000097          	auipc	ra,0x0
  6a:	000080e7          	jalr	ra # 66 <.L48+0x2>

0000006e <.L43>:
  6e:	40f2                	lw	ra,28(sp)
  70:	4462                	lw	s0,24(sp)
  72:	44d2                	lw	s1,20(sp)
  74:	4942                	lw	s2,16(sp)
  76:	6105                	add	sp,sp,32
  78:	8082                	ret

0000007a <.L44>:
  7a:	557d                	li	a0,-1
  7c:	fee419e3          	bne	s0,a4,6e <.L43>
  80:	4701                	li	a4,0
  82:	56fd                	li	a3,-1
  84:	860a                	mv	a2,sp
  86:	4589                	li	a1,2
  88:	bff1                	j	64 <.L48>

Disassembly of section .text.esp_mesh_is_switch_parent:

00000000 <esp_mesh_is_switch_parent>:
   0:	7171                	add	sp,sp,-176
   2:	000007b7          	lui	a5,0x0
   6:	d14a                	sw	s2,160(sp)
   8:	0007a903          	lw	s2,0(a5) # 0 <esp_mesh_is_switch_parent>
   c:	4d7c                	lw	a5,92(a0)
   e:	d522                	sw	s0,168(sp)
  10:	d706                	sw	ra,172(sp)
  12:	d326                	sw	s1,164(sp)
  14:	cf4e                	sw	s3,156(sp)
  16:	cd52                	sw	s4,152(sp)
  18:	cb56                	sw	s5,148(sp)
  1a:	c95a                	sw	s6,144(sp)
  1c:	c75e                	sw	s7,140(sp)
  1e:	c562                	sw	s8,136(sp)
  20:	c366                	sw	s9,132(sp)
  22:	c16a                	sw	s10,128(sp)
  24:	deee                	sw	s11,124(sp)
  26:	842a                	mv	s0,a0
  28:	e3b5                	bnez	a5,8c <.L50>
  2a:	4789                	li	a5,2
  2c:	4481                	li	s1,0
  2e:	0327ff63          	bgeu	a5,s2,6c <.L51>
  32:	000007b7          	lui	a5,0x0
  36:	0007a783          	lw	a5,0(a5) # 0 <esp_mesh_is_switch_parent>
  3a:	cb8d                	beqz	a5,6c <.L51>
  3c:	14c7a903          	lw	s2,332(a5)
  40:	02090663          	beqz	s2,6c <.L51>
  44:	1547a783          	lw	a5,340(a5)
  48:	9782                	jalr	a5
  4a:	000005b7          	lui	a1,0x0
  4e:	00000637          	lui	a2,0x0
  52:	86aa                	mv	a3,a0
  54:	00058713          	mv	a4,a1
  58:	00640813          	add	a6,s0,6 # 6 <esp_mesh_is_switch_parent+0x6>
  5c:	2b200793          	li	a5,690
  60:	00060613          	mv	a2,a2
  64:	00058593          	mv	a1,a1
  68:	450d                	li	a0,3
  6a:	9902                	jalr	s2

0000006c <.L51>:
  6c:	50ba                	lw	ra,172(sp)
  6e:	542a                	lw	s0,168(sp)
  70:	590a                	lw	s2,160(sp)
  72:	49fa                	lw	s3,156(sp)
  74:	4a6a                	lw	s4,152(sp)
  76:	4ada                	lw	s5,148(sp)
  78:	4b4a                	lw	s6,144(sp)
  7a:	4bba                	lw	s7,140(sp)
  7c:	4c2a                	lw	s8,136(sp)
  7e:	4c9a                	lw	s9,132(sp)
  80:	4d0a                	lw	s10,128(sp)
  82:	5df6                	lw	s11,124(sp)
  84:	8526                	mv	a0,s1
  86:	549a                	lw	s1,164(sp)
  88:	614d                	add	sp,sp,176
  8a:	8082                	ret

0000008c <.L50>:
  8c:	00000097          	auipc	ra,0x0
  90:	000080e7          	jalr	ra # 8c <.L50>
  94:	4789                	li	a5,2
  96:	10051463          	bnez	a0,19e <.L52>
  9a:	4485                	li	s1,1
  9c:	fd27f8e3          	bgeu	a5,s2,6c <.L51>
  a0:	000007b7          	lui	a5,0x0
  a4:	0007a783          	lw	a5,0(a5) # 0 <esp_mesh_is_switch_parent>
  a8:	d3f1                	beqz	a5,6c <.L51>
  aa:	14c7a903          	lw	s2,332(a5)
  ae:	fa090fe3          	beqz	s2,6c <.L51>
  b2:	1547a783          	lw	a5,340(a5)
  b6:	9782                	jalr	a5
  b8:	000007b7          	lui	a5,0x0
  bc:	0007a603          	lw	a2,0(a5) # 0 <esp_mesh_is_switch_parent>
  c0:	00044803          	lbu	a6,0(s0)
  c4:	00144883          	lbu	a7,1(s0)
  c8:	00244983          	lbu	s3,2(s0)
  cc:	00344a03          	lbu	s4,3(s0)
  d0:	00444a83          	lbu	s5,4(s0)
  d4:	00544b03          	lbu	s6,5(s0)
  d8:	4c7c                	lw	a5,92(s0)
  da:	86aa                	mv	a3,a0
  dc:	ea4d                	bnez	a2,18e <.L53>
  de:	00f7c483          	lbu	s1,15(a5)

000000e2 <.L54>:
  e2:	00000737          	lui	a4,0x0
  e6:	0117cc03          	lbu	s8,17(a5)
  ea:	00070793          	mv	a5,a4
  ee:	0007cc83          	lbu	s9,0(a5)
  f2:	0017cd03          	lbu	s10,1(a5)
  f6:	0027cd83          	lbu	s11,2(a5)
  fa:	0037c583          	lbu	a1,3(a5)
  fe:	0047c303          	lbu	t1,4(a5)
 102:	0057ce03          	lbu	t3,5(a5)
 106:	000007b7          	lui	a5,0x0
 10a:	02c40b83          	lb	s7,44(s0)
 10e:	00070713          	mv	a4,a4
 112:	00078793          	mv	a5,a5
 116:	ee3d                	bnez	a2,194 <.L55>
 118:	00f7c403          	lbu	s0,15(a5) # f <esp_mesh_is_switch_parent+0xf>

0000011c <.L56>:
 11c:	02c70703          	lb	a4,44(a4) # 2c <esp_mesh_is_switch_parent+0x2c>
 120:	0117c783          	lbu	a5,17(a5)
 124:	d6f2                	sw	t3,108(sp)
 126:	d49a                	sw	t1,104(sp)
 128:	d2ae                	sw	a1,100(sp)
 12a:	d0c6                	sw	a7,96(sp)
 12c:	cec2                	sw	a6,92(sp)
 12e:	ccb6                	sw	a3,88(sp)
 130:	caba                	sw	a4,84(sp)
 132:	c8be                	sw	a5,80(sp)
 134:	00000097          	auipc	ra,0x0
 138:	000080e7          	jalr	ra # 134 <.L56+0x18>
 13c:	5596                	lw	a1,100(sp)
 13e:	47c6                	lw	a5,80(sp)
 140:	4756                	lw	a4,84(sp)
 142:	5e36                	lw	t3,108(sp)
 144:	5326                	lw	t1,104(sp)
 146:	5886                	lw	a7,96(sp)
 148:	4876                	lw	a6,92(sp)
 14a:	46e6                	lw	a3,88(sp)
 14c:	d42e                	sw	a1,40(sp)
 14e:	00000637          	lui	a2,0x0
 152:	000005b7          	lui	a1,0x0
 156:	c0aa                	sw	a0,64(sp)
 158:	de3e                	sw	a5,60(sp)
 15a:	dc3a                	sw	a4,56(sp)
 15c:	c826                	sw	s1,16(sp)
 15e:	00058713          	mv	a4,a1
 162:	da22                	sw	s0,52(sp)
 164:	d872                	sw	t3,48(sp)
 166:	d61a                	sw	t1,44(sp)
 168:	d26e                	sw	s11,36(sp)
 16a:	d06a                	sw	s10,32(sp)
 16c:	ce66                	sw	s9,28(sp)
 16e:	cc62                	sw	s8,24(sp)
 170:	ca5e                	sw	s7,20(sp)
 172:	c65a                	sw	s6,12(sp)
 174:	c456                	sw	s5,8(sp)
 176:	c252                	sw	s4,4(sp)
 178:	c04e                	sw	s3,0(sp)
 17a:	2b600793          	li	a5,694
 17e:	00060613          	mv	a2,a2
 182:	00058593          	mv	a1,a1
 186:	450d                	li	a0,3
 188:	9902                	jalr	s2
 18a:	4485                	li	s1,1
 18c:	b5c5                	j	6c <.L51>

0000018e <.L53>:
 18e:	06645483          	lhu	s1,102(s0)
 192:	bf81                	j	e2 <.L54>

00000194 <.L55>:
 194:	00000637          	lui	a2,0x0
 198:	00265403          	lhu	s0,2(a2) # 2 <esp_mesh_is_switch_parent+0x2>
 19c:	b741                	j	11c <.L56>

0000019e <.L52>:
 19e:	4481                	li	s1,0
 1a0:	ed27f6e3          	bgeu	a5,s2,6c <.L51>
 1a4:	000007b7          	lui	a5,0x0
 1a8:	0007a783          	lw	a5,0(a5) # 0 <esp_mesh_is_switch_parent>
 1ac:	ec0780e3          	beqz	a5,6c <.L51>
 1b0:	14c7a903          	lw	s2,332(a5)
 1b4:	ea090ce3          	beqz	s2,6c <.L51>
 1b8:	1547a783          	lw	a5,340(a5)
 1bc:	9782                	jalr	a5
 1be:	02c40783          	lb	a5,44(s0)
 1c2:	000005b7          	lui	a1,0x0
 1c6:	00000637          	lui	a2,0x0
 1ca:	c83e                	sw	a5,16(sp)
 1cc:	00544783          	lbu	a5,5(s0)
 1d0:	86aa                	mv	a3,a0
 1d2:	00058713          	mv	a4,a1
 1d6:	c63e                	sw	a5,12(sp)
 1d8:	00444783          	lbu	a5,4(s0)
 1dc:	00060613          	mv	a2,a2
 1e0:	00058593          	mv	a1,a1
 1e4:	c43e                	sw	a5,8(sp)
 1e6:	00344783          	lbu	a5,3(s0)
 1ea:	450d                	li	a0,3
 1ec:	c23e                	sw	a5,4(sp)
 1ee:	00244783          	lbu	a5,2(s0)
 1f2:	c03e                	sw	a5,0(sp)
 1f4:	00144883          	lbu	a7,1(s0)
 1f8:	00044803          	lbu	a6,0(s0)
 1fc:	2ca00793          	li	a5,714
 200:	9902                	jalr	s2
 202:	b5ad                	j	6c <.L51>

Disassembly of section .text.esp_mesh_compute_my_votes:

00000000 <esp_mesh_compute_my_votes>:
   0:	7179                	add	sp,sp,-48
   2:	d226                	sw	s1,36(sp)
   4:	d606                	sw	ra,44(sp)
   6:	d422                	sw	s0,40(sp)
   8:	d04a                	sw	s2,32(sp)
   a:	ce4e                	sw	s3,28(sp)
   c:	cc52                	sw	s4,24(sp)
   e:	ca56                	sw	s5,20(sp)
  10:	c85a                	sw	s6,16(sp)
  12:	c65e                	sw	s7,12(sp)
  14:	c462                	sw	s8,8(sp)
  16:	00454783          	lbu	a5,4(a0) # 4 <esp_mesh_compute_my_votes+0x4>
  1a:	4104                	lw	s1,0(a0)
  1c:	ef91                	bnez	a5,38 <.L76>

0000001e <.L74>:
  1e:	4501                	li	a0,0

00000020 <.L67>:
  20:	50b2                	lw	ra,44(sp)
  22:	5422                	lw	s0,40(sp)
  24:	5492                	lw	s1,36(sp)
  26:	5902                	lw	s2,32(sp)
  28:	49f2                	lw	s3,28(sp)
  2a:	4a62                	lw	s4,24(sp)
  2c:	4ad2                	lw	s5,20(sp)
  2e:	4b42                	lw	s6,16(sp)
  30:	4bb2                	lw	s7,12(sp)
  32:	4c22                	lw	s8,8(sp)
  34:	6145                	add	sp,sp,48
  36:	8082                	ret

00000038 <.L76>:
  38:	4981                	li	s3,0
  3a:	4401                	li	s0,0
  3c:	00000ab7          	lui	s5,0x0
  40:	4b09                	li	s6,2
  42:	00000bb7          	lui	s7,0x0
  46:	f8800c13          	li	s8,-120

0000004a <.L68>:
  4a:	05c4a903          	lw	s2,92(s1)
  4e:	02090663          	beqz	s2,7a <.L70>
  52:	000aa783          	lw	a5,0(s5) # 0 <esp_mesh_compute_my_votes>
  56:	eb85                	bnez	a5,86 <.L71>
  58:	00f94783          	lbu	a5,15(s2)

0000005c <.L72>:
  5c:	01679f63          	bne	a5,s6,7a <.L70>
  60:	01f90a13          	add	s4,s2,31
  64:	8552                	mv	a0,s4
  66:	00000097          	auipc	ra,0x0
  6a:	000080e7          	jalr	ra # 66 <.L72+0xa>
  6e:	cd19                	beqz	a0,8c <.L73>
  70:	02590783          	lb	a5,37(s2)
  74:	01878c63          	beq	a5,s8,8c <.L73>
  78:	0405                	add	s0,s0,1

0000007a <.L70>:
  7a:	58a4                	lw	s1,112(s1)
  7c:	f4f9                	bnez	s1,4a <.L68>
  7e:	01340533          	add	a0,s0,s3
  82:	fc59                	bnez	s0,20 <.L67>
  84:	bf69                	j	1e <.L74>

00000086 <.L71>:
  86:	0664d783          	lhu	a5,102(s1)
  8a:	bfc9                	j	5c <.L72>

0000008c <.L73>:
  8c:	4619                	li	a2,6
  8e:	000b8593          	mv	a1,s7
  92:	8552                	mv	a0,s4
  94:	00000097          	auipc	ra,0x0
  98:	000080e7          	jalr	ra # 94 <.L73+0x8>
  9c:	fd79                	bnez	a0,7a <.L70>
  9e:	0985                	add	s3,s3,1
  a0:	bfe9                	j	7a <.L70>

Disassembly of section .text.mesh_nwk_change_layer:

00000000 <mesh_nwk_change_layer>:
   0:	7179                	add	sp,sp,-48
   2:	d422                	sw	s0,40(sp)
   4:	d226                	sw	s1,36(sp)
   6:	d04a                	sw	s2,32(sp)
   8:	d606                	sw	ra,44(sp)
   a:	ce4e                	sw	s3,28(sp)
   c:	892a                	mv	s2,a0
   e:	842e                	mv	s0,a1
  10:	fff58493          	add	s1,a1,-1 # ffffffff <.L3353+0xffffcaa7>
  14:	e191                	bnez	a1,18 <.L89>
  16:	4481                	li	s1,0

00000018 <.L89>:
  18:	000007b7          	lui	a5,0x0
  1c:	0007a703          	lw	a4,0(a5) # 0 <mesh_nwk_change_layer>
  20:	4789                	li	a5,2
  22:	04e7fb63          	bgeu	a5,a4,78 <.L90>
  26:	000007b7          	lui	a5,0x0
  2a:	0007a783          	lw	a5,0(a5) # 0 <mesh_nwk_change_layer>
  2e:	c7a9                	beqz	a5,78 <.L90>
  30:	14c7a983          	lw	s3,332(a5)
  34:	04098263          	beqz	s3,78 <.L90>
  38:	1547a783          	lw	a5,340(a5)
  3c:	9782                	jalr	a5
  3e:	c62a                	sw	a0,12(sp)
  40:	854a                	mv	a0,s2
  42:	00000097          	auipc	ra,0x0
  46:	000080e7          	jalr	ra # 42 <.L89+0x2a>
  4a:	00000737          	lui	a4,0x0
  4e:	00075703          	lhu	a4,0(a4) # 0 <mesh_nwk_change_layer>
  52:	46b2                	lw	a3,12(sp)
  54:	87aa                	mv	a5,a0
  56:	88a6                	mv	a7,s1
  58:	00e46363          	bltu	s0,a4,5e <.L91>
  5c:	4889                	li	a7,2

0000005e <.L91>:
  5e:	000005b7          	lui	a1,0x0
  62:	00000637          	lui	a2,0x0
  66:	00058713          	mv	a4,a1
  6a:	8822                	mv	a6,s0
  6c:	00060613          	mv	a2,a2
  70:	00058593          	mv	a1,a1
  74:	450d                	li	a0,3
  76:	9982                	jalr	s3

00000078 <.L90>:
  78:	06700793          	li	a5,103
  7c:	00f91663          	bne	s2,a5,88 <.L92>

00000080 <.L94>:
  80:	01049513          	sll	a0,s1,0x10
  84:	8141                	srl	a0,a0,0x10
  86:	a829                	j	a0 <.L93>

00000088 <.L92>:
  88:	000007b7          	lui	a5,0x0
  8c:	0007c783          	lbu	a5,0(a5) # 0 <mesh_nwk_change_layer>
  90:	fbe5                	bnez	a5,80 <.L94>
  92:	000007b7          	lui	a5,0x0
  96:	0007d783          	lhu	a5,0(a5) # 0 <mesh_nwk_change_layer>
  9a:	4509                	li	a0,2
  9c:	fef462e3          	bltu	s0,a5,80 <.L94>

000000a0 <.L93>:
  a0:	50b2                	lw	ra,44(sp)
  a2:	5422                	lw	s0,40(sp)
  a4:	5492                	lw	s1,36(sp)
  a6:	5902                	lw	s2,32(sp)
  a8:	49f2                	lw	s3,28(sp)
  aa:	6145                	add	sp,sp,48
  ac:	8082                	ret

Disassembly of section .text.esp_mesh_set_parent_candidate_config:

00000000 <esp_mesh_set_parent_candidate_config>:
   0:	c961                	beqz	a0,d0 <.L112>
   2:	7135                	add	sp,sp,-160
   4:	cd22                	sw	s0,152(sp)
   6:	85aa                	mv	a1,a0
   8:	842a                	mv	s0,a0
   a:	05c00613          	li	a2,92
   e:	1048                	add	a0,sp,36
  10:	cb26                	sw	s1,148(sp)
  12:	c94a                	sw	s2,144(sp)
  14:	c74e                	sw	s3,140(sp)
  16:	cf06                	sw	ra,156(sp)
  18:	00000097          	auipc	ra,0x0
  1c:	000080e7          	jalr	ra # 18 <esp_mesh_set_parent_candidate_config+0x18>
  20:	4c64                	lw	s1,92(s0)
  22:	06440993          	add	s3,s0,100
  26:	4901                	li	s2,0
  28:	c881                	beqz	s1,38 <.L109>
  2a:	000007b7          	lui	a5,0x0
  2e:	0007a783          	lw	a5,0(a5) # 0 <esp_mesh_set_parent_candidate_config>
  32:	efc1                	bnez	a5,ca <.L110>
  34:	00f4c903          	lbu	s2,15(s1)

00000038 <.L109>:
  38:	000007b7          	lui	a5,0x0
  3c:	0007a703          	lw	a4,0(a5) # 0 <esp_mesh_set_parent_candidate_config>
  40:	4789                	li	a5,2
  42:	06e7f363          	bgeu	a5,a4,a8 <.L111>
  46:	000007b7          	lui	a5,0x0
  4a:	0007a783          	lw	a5,0(a5) # 0 <esp_mesh_set_parent_candidate_config>
  4e:	cfa9                	beqz	a5,a8 <.L111>
  50:	14c7a403          	lw	s0,332(a5)
  54:	c831                	beqz	s0,a8 <.L111>
  56:	1547a783          	lw	a5,340(a5)
  5a:	9782                	jalr	a5
  5c:	02914783          	lbu	a5,41(sp)
  60:	05010883          	lb	a7,80(sp)
  64:	000005b7          	lui	a1,0x0
  68:	ca3e                	sw	a5,20(sp)
  6a:	02814783          	lbu	a5,40(sp)
  6e:	00000637          	lui	a2,0x0
  72:	86aa                	mv	a3,a0
  74:	c83e                	sw	a5,16(sp)
  76:	02714783          	lbu	a5,39(sp)
  7a:	00058713          	mv	a4,a1
  7e:	cc4a                	sw	s2,24(sp)
  80:	c63e                	sw	a5,12(sp)
  82:	02614783          	lbu	a5,38(sp)
  86:	02a10813          	add	a6,sp,42
  8a:	00060613          	mv	a2,a2
  8e:	c43e                	sw	a5,8(sp)
  90:	02514783          	lbu	a5,37(sp)
  94:	00058593          	mv	a1,a1
  98:	450d                	li	a0,3
  9a:	c23e                	sw	a5,4(sp)
  9c:	02414783          	lbu	a5,36(sp)
  a0:	c03e                	sw	a5,0(sp)
  a2:	40000793          	li	a5,1024
  a6:	9402                	jalr	s0

000000a8 <.L111>:
  a8:	864e                	mv	a2,s3
  aa:	85a6                	mv	a1,s1
  ac:	1048                	add	a0,sp,36
  ae:	00000097          	auipc	ra,0x0
  b2:	000080e7          	jalr	ra # ae <.L111+0x6>
  b6:	40fa                	lw	ra,156(sp)
  b8:	446a                	lw	s0,152(sp)
  ba:	6511                	lui	a0,0x4
  bc:	44da                	lw	s1,148(sp)
  be:	494a                	lw	s2,144(sp)
  c0:	49ba                	lw	s3,140(sp)
  c2:	03450513          	add	a0,a0,52 # 4034 <.L3353+0xadc>
  c6:	610d                	add	sp,sp,160
  c8:	8082                	ret

000000ca <.L110>:
  ca:	06645903          	lhu	s2,102(s0)
  ce:	b7ad                	j	38 <.L109>

000000d0 <.L112>:
  d0:	4501                	li	a0,0
  d2:	8082                	ret

Disassembly of section .text.mesh_parent_check_root_conflict:

00000000 <mesh_parent_check_root_conflict>:
   0:	711d                	add	sp,sp,-96
   2:	cca2                	sw	s0,88(sp)
   4:	ce86                	sw	ra,92(sp)
   6:	caa6                	sw	s1,84(sp)
   8:	c8ca                	sw	s2,80(sp)
   a:	c6ce                	sw	s3,76(sp)
   c:	c4d2                	sw	s4,72(sp)
   e:	c2d6                	sw	s5,68(sp)
  10:	842a                	mv	s0,a0
  12:	00000097          	auipc	ra,0x0
  16:	000080e7          	jalr	ra # 12 <mesh_parent_check_root_conflict+0x12>
  1a:	e15d                	bnez	a0,c0 <.L125>
  1c:	000007b7          	lui	a5,0x0
  20:	0c47c783          	lbu	a5,196(a5) # c4 <.L125+0x4>
  24:	8b89                	and	a5,a5,2
  26:	efc9                	bnez	a5,c0 <.L125>
  28:	03a00613          	li	a2,58
  2c:	4581                	li	a1,0
  2e:	0048                	add	a0,sp,4
  30:	00000097          	auipc	ra,0x0
  34:	000080e7          	jalr	ra # 30 <mesh_parent_check_root_conflict+0x30>
  38:	c441                	beqz	s0,c0 <.L125>
  3a:	401c                	lw	a5,0(s0)
  3c:	c3d1                	beqz	a5,c0 <.L125>
  3e:	00444783          	lbu	a5,4(s0)
  42:	cfbd                	beqz	a5,c0 <.L125>
  44:	4581                	li	a1,0
  46:	0048                	add	a0,sp,4
  48:	00000097          	auipc	ra,0x0
  4c:	000080e7          	jalr	ra # 48 <mesh_parent_check_root_conflict+0x48>
  50:	84aa                	mv	s1,a0
  52:	e53d                	bnez	a0,c0 <.L125>
  54:	02214783          	lbu	a5,34(sp)
  58:	0207f793          	and	a5,a5,32
  5c:	e3b5                	bnez	a5,c0 <.L125>
  5e:	4000                	lw	s0,0(s0)
  60:	00000937          	lui	s2,0x0
  64:	00000a37          	lui	s4,0x0
  68:	4985                	li	s3,1
  6a:	00090913          	mv	s2,s2
  6e:	00000ab7          	lui	s5,0x0

00000072 <.L129>:
  72:	4c7c                	lw	a5,92(s0)
  74:	c7a1                	beqz	a5,bc <.L126>
  76:	000a2703          	lw	a4,0(s4) # 0 <mesh_parent_check_root_conflict>
  7a:	ef29                	bnez	a4,d4 <.L127>
  7c:	00f7c703          	lbu	a4,15(a5)

00000080 <.L128>:
  80:	03371e63          	bne	a4,s3,bc <.L126>
  84:	01e7c783          	lbu	a5,30(a5)
  88:	0407f793          	and	a5,a5,64
  8c:	eb85                	bnez	a5,bc <.L126>
  8e:	5028                	lw	a0,96(s0)
  90:	00000097          	auipc	ra,0x0
  94:	000080e7          	jalr	ra # 90 <.L128+0x10>
  98:	03351263          	bne	a0,s3,bc <.L126>
  9c:	0485                	add	s1,s1,1
  9e:	01348f63          	beq	s1,s3,bc <.L126>
  a2:	01e94783          	lbu	a5,30(s2) # 1e <mesh_parent_check_root_conflict+0x1e>
  a6:	000a8593          	mv	a1,s5
  aa:	854a                	mv	a0,s2
  ac:	0207e793          	or	a5,a5,32
  b0:	00f90f23          	sb	a5,30(s2)
  b4:	00000097          	auipc	ra,0x0
  b8:	000080e7          	jalr	ra # b4 <.L128+0x34>

000000bc <.L126>:
  bc:	5820                	lw	s0,112(s0)
  be:	f855                	bnez	s0,72 <.L129>

000000c0 <.L125>:
  c0:	40f6                	lw	ra,92(sp)
  c2:	4466                	lw	s0,88(sp)
  c4:	44d6                	lw	s1,84(sp)
  c6:	4946                	lw	s2,80(sp)
  c8:	49b6                	lw	s3,76(sp)
  ca:	4a26                	lw	s4,72(sp)
  cc:	4a96                	lw	s5,68(sp)
  ce:	4501                	li	a0,0
  d0:	6125                	add	sp,sp,96
  d2:	8082                	ret

000000d4 <.L127>:
  d4:	06645703          	lhu	a4,102(s0)
  d8:	b765                	j	80 <.L128>

Disassembly of section .text.route_announce_timer_start:

00000000 <route_announce_timer_start>:
   0:	1101                	add	sp,sp,-32
   2:	c64e                	sw	s3,12(sp)
   4:	000009b7          	lui	s3,0x0
   8:	0009a783          	lw	a5,0(s3) # 0 <route_announce_timer_start>
   c:	cc22                	sw	s0,24(sp)
   e:	ca26                	sw	s1,20(sp)
  10:	1087a783          	lw	a5,264(a5)
  14:	c84a                	sw	s2,16(sp)
  16:	ce06                	sw	ra,28(sp)
  18:	9782                	jalr	a5
  1a:	00000937          	lui	s2,0x0
  1e:	00090793          	mv	a5,s2
  22:	43dc                	lw	a5,4(a5)
  24:	00000437          	lui	s0,0x0
  28:	00090913          	mv	s2,s2
  2c:	00040413          	mv	s0,s0
  30:	000004b7          	lui	s1,0x0
  34:	06f5c363          	blt	a1,a5,9a <.L145>
  38:	00b79663          	bne	a5,a1,44 <.L151>
  3c:	00092783          	lw	a5,0(s2) # 0 <route_announce_timer_start>
  40:	04f56d63          	bltu	a0,a5,9a <.L145>

00000044 <.L151>:
  44:	0009a783          	lw	a5,0(s3)
  48:	1087a783          	lw	a5,264(a5)
  4c:	9782                	jalr	a5
  4e:	00092783          	lw	a5,0(s2)
  52:	00492703          	lw	a4,4(s2)
  56:	40f507b3          	sub	a5,a0,a5
  5a:	00f53533          	sltu	a0,a0,a5
  5e:	8d99                	sub	a1,a1,a4
  60:	8d89                	sub	a1,a1,a0
  62:	01659713          	sll	a4,a1,0x16
  66:	83a9                	srl	a5,a5,0xa
  68:	85a9                	sra	a1,a1,0xa
  6a:	8fd9                	or	a5,a5,a4
  6c:	00b04863          	bgtz	a1,7c <.L149>
  70:	e1bd                	bnez	a1,d6 <.L147>

00000072 <.L153>:
  72:	6705                	lui	a4,0x1
  74:	38870713          	add	a4,a4,904 # 1388 <.L3199>
  78:	04f77f63          	bgeu	a4,a5,d6 <.L147>

0000007c <.L149>:
  7c:	0009a783          	lw	a5,0(s3)
  80:	404c                	lw	a1,4(s0)
  82:	4601                	li	a2,0
  84:	0e07a783          	lw	a5,224(a5)

00000088 <.L154>:
  88:	4462                	lw	s0,24(sp)
  8a:	40f2                	lw	ra,28(sp)
  8c:	4942                	lw	s2,16(sp)
  8e:	49b2                	lw	s3,12(sp)
  90:	00048513          	mv	a0,s1
  94:	44d2                	lw	s1,20(sp)
  96:	6105                	add	sp,sp,32
  98:	8782                	jr	a5

0000009a <.L145>:
  9a:	0009a783          	lw	a5,0(s3)
  9e:	1087a783          	lw	a5,264(a5)
  a2:	9782                	jalr	a5
  a4:	00092783          	lw	a5,0(s2)
  a8:	00492703          	lw	a4,4(s2)
  ac:	fff7c793          	not	a5,a5
  b0:	953e                	add	a0,a0,a5
  b2:	00f537b3          	sltu	a5,a0,a5
  b6:	972e                	add	a4,a4,a1
  b8:	97ba                	add	a5,a5,a4
  ba:	00150713          	add	a4,a0,1
  be:	00a73533          	sltu	a0,a4,a0
  c2:	953e                	add	a0,a0,a5
  c4:	01651693          	sll	a3,a0,0x16
  c8:	00a75793          	srl	a5,a4,0xa
  cc:	8529                	sra	a0,a0,0xa
  ce:	8fd5                	or	a5,a5,a3
  d0:	faa046e3          	bgtz	a0,7c <.L149>
  d4:	dd59                	beqz	a0,72 <.L153>

000000d6 <.L147>:
  d6:	0009a783          	lw	a5,0(s3)
  da:	400c                	lw	a1,0(s0)
  dc:	4601                	li	a2,0
  de:	0e07a783          	lw	a5,224(a5)
  e2:	b75d                	j	88 <.L154>

Disassembly of section .text.route_announce_timeout_process:

00000000 <route_announce_timeout_process>:
   0:	1101                	add	sp,sp,-32
   2:	cc22                	sw	s0,24(sp)
   4:	00000437          	lui	s0,0x0
   8:	00042783          	lw	a5,0(s0) # 0 <route_announce_timeout_process>
   c:	00000537          	lui	a0,0x0
  10:	ce06                	sw	ra,28(sp)
  12:	0e47a783          	lw	a5,228(a5)
  16:	ca26                	sw	s1,20(sp)
  18:	00050513          	mv	a0,a0
  1c:	9782                	jalr	a5
  1e:	00000097          	auipc	ra,0x0
  22:	000080e7          	jalr	ra # 1e <route_announce_timeout_process+0x1e>
  26:	c14d                	beqz	a0,c8 <.L155>
  28:	7771                	lui	a4,0xffffc
  2a:	1771                	add	a4,a4,-4 # ffffbffc <.L3353+0xffff8aa4>
  2c:	972a                	add	a4,a4,a0
  2e:	46a5                	li	a3,9
  30:	87aa                	mv	a5,a0
  32:	00e6e863          	bltu	a3,a4,42 <.L157>
  36:	28100693          	li	a3,641
  3a:	00e6d733          	srl	a4,a3,a4
  3e:	8b05                	and	a4,a4,1
  40:	ef25                	bnez	a4,b8 <.L158>

00000042 <.L157>:
  42:	00000737          	lui	a4,0x0
  46:	00072683          	lw	a3,0(a4) # 0 <route_announce_timeout_process>
  4a:	c63e                	sw	a5,12(sp)
  4c:	4709                	li	a4,2
  4e:	02d77963          	bgeu	a4,a3,80 <.L159>
  52:	00042703          	lw	a4,0(s0)
  56:	c70d                	beqz	a4,80 <.L159>
  58:	14c72483          	lw	s1,332(a4)
  5c:	c095                	beqz	s1,80 <.L159>
  5e:	15472703          	lw	a4,340(a4)
  62:	9702                	jalr	a4
  64:	47b2                	lw	a5,12(sp)
  66:	000005b7          	lui	a1,0x0
  6a:	00000637          	lui	a2,0x0
  6e:	86aa                	mv	a3,a0
  70:	00058713          	mv	a4,a1
  74:	00060613          	mv	a2,a2
  78:	00058593          	mv	a1,a1
  7c:	450d                	li	a0,3
  7e:	9482                	jalr	s1

00000080 <.L159>:
  80:	00042783          	lw	a5,0(s0)
  84:	cb95                	beqz	a5,b8 <.L158>
  86:	14c7a403          	lw	s0,332(a5)
  8a:	c41d                	beqz	s0,b8 <.L158>
  8c:	1547a783          	lw	a5,340(a5)
  90:	9782                	jalr	a5
  92:	000005b7          	lui	a1,0x0
  96:	000007b7          	lui	a5,0x0
  9a:	00000637          	lui	a2,0x0
  9e:	86aa                	mv	a3,a0
  a0:	00058713          	mv	a4,a1
  a4:	6a100813          	li	a6,1697
  a8:	00078793          	mv	a5,a5
  ac:	00060613          	mv	a2,a2
  b0:	00058593          	mv	a1,a1
  b4:	4505                	li	a0,1
  b6:	9402                	jalr	s0

000000b8 <.L158>:
  b8:	4462                	lw	s0,24(sp)
  ba:	40f2                	lw	ra,28(sp)
  bc:	44d2                	lw	s1,20(sp)
  be:	6105                	add	sp,sp,32
  c0:	00000317          	auipc	t1,0x0
  c4:	00030067          	jr	t1 # c0 <.L158+0x8>

000000c8 <.L155>:
  c8:	40f2                	lw	ra,28(sp)
  ca:	4462                	lw	s0,24(sp)
  cc:	44d2                	lw	s1,20(sp)
  ce:	6105                	add	sp,sp,32
  d0:	8082                	ret

Disassembly of section .text.route_announce_timer_stop:

00000000 <route_announce_timer_stop>:
   0:	000007b7          	lui	a5,0x0
   4:	0007a783          	lw	a5,0(a5) # 0 <route_announce_timer_stop>
   8:	00000537          	lui	a0,0x0
   c:	00050513          	mv	a0,a0
  10:	0e47a783          	lw	a5,228(a5)
  14:	8782                	jr	a5

Disassembly of section .text.esp_mesh_ie_monitor:

00000000 <esp_mesh_ie_monitor>:
   0:	711d                	add	sp,sp,-96
   2:	03a00613          	li	a2,58
   6:	4581                	li	a1,0
   8:	0048                	add	a0,sp,4
   a:	ce86                	sw	ra,92(sp)
   c:	cca2                	sw	s0,88(sp)
   e:	caa6                	sw	s1,84(sp)
  10:	c6ce                	sw	s3,76(sp)
  12:	c8ca                	sw	s2,80(sp)
  14:	00000097          	auipc	ra,0x0
  18:	000080e7          	jalr	ra # 14 <esp_mesh_ie_monitor+0x14>
  1c:	858a                	mv	a1,sp
  1e:	0048                	add	a0,sp,4
  20:	c002                	sw	zero,0(sp)
  22:	00000097          	auipc	ra,0x0
  26:	000080e7          	jalr	ra # 22 <esp_mesh_ie_monitor+0x22>
  2a:	89aa                	mv	s3,a0
  2c:	000004b7          	lui	s1,0x0
  30:	00000437          	lui	s0,0x0
  34:	c135                	beqz	a0,98 <.L175>
  36:	0004a783          	lw	a5,0(s1) # 0 <esp_mesh_ie_monitor>
  3a:	cf85                	beqz	a5,72 <.L182>
  3c:	14c7a903          	lw	s2,332(a5)
  40:	02090963          	beqz	s2,72 <.L182>
  44:	1547a783          	lw	a5,340(a5)
  48:	9782                	jalr	a5
  4a:	000005b7          	lui	a1,0x0
  4e:	000007b7          	lui	a5,0x0
  52:	00000637          	lui	a2,0x0
  56:	86aa                	mv	a3,a0
  58:	00058713          	mv	a4,a1
  5c:	88ce                	mv	a7,s3
  5e:	6bf00813          	li	a6,1727
  62:	00078793          	mv	a5,a5
  66:	00060613          	mv	a2,a2
  6a:	00058593          	mv	a1,a1
  6e:	4505                	li	a0,1
  70:	9902                	jalr	s2

00000072 <.L182>:
  72:	0004a783          	lw	a5,0(s1)
  76:	659d                	lui	a1,0x7
  78:	00040513          	mv	a0,s0
  7c:	0e07a783          	lw	a5,224(a5) # e0 <.L1728>
  80:	4601                	li	a2,0
  82:	53058593          	add	a1,a1,1328 # 7530 <.L3353+0x3fd8>
  86:	9782                	jalr	a5
  88:	40f6                	lw	ra,92(sp)
  8a:	4466                	lw	s0,88(sp)
  8c:	44d6                	lw	s1,84(sp)
  8e:	4946                	lw	s2,80(sp)
  90:	49b6                	lw	s3,76(sp)
  92:	4501                	li	a0,0
  94:	6125                	add	sp,sp,96
  96:	8082                	ret

00000098 <.L175>:
  98:	858a                	mv	a1,sp
  9a:	0048                	add	a0,sp,4
  9c:	00000097          	auipc	ra,0x0
  a0:	000080e7          	jalr	ra # 9c <.L175+0x4>
  a4:	0004a783          	lw	a5,0(s1)
  a8:	00000937          	lui	s2,0x0
  ac:	1087a783          	lw	a5,264(a5)
  b0:	9782                	jalr	a5
  b2:	00090793          	mv	a5,s2
  b6:	439c                	lw	a5,0(a5)
  b8:	0135cb63          	blt	a1,s3,ce <.L178>
  bc:	e199                	bnez	a1,c2 <.L185>
  be:	00f56863          	bltu	a0,a5,ce <.L178>

000000c2 <.L185>:
  c2:	0004a783          	lw	a5,0(s1)
  c6:	1087a783          	lw	a5,264(a5)
  ca:	9782                	jalr	a5
  cc:	b75d                	j	72 <.L182>

000000ce <.L178>:
  ce:	0004a783          	lw	a5,0(s1)
  d2:	1087a783          	lw	a5,264(a5)
  d6:	9782                	jalr	a5
  d8:	bf69                	j	72 <.L182>

Disassembly of section .text.mesh_ie_monitor_timeout_process:

00000000 <mesh_ie_monitor_timeout_process>:
   0:	000007b7          	lui	a5,0x0
   4:	0007a783          	lw	a5,0(a5) # 0 <mesh_ie_monitor_timeout_process>
   8:	1141                	add	sp,sp,-16
   a:	00000537          	lui	a0,0x0
   e:	0e47a783          	lw	a5,228(a5)
  12:	c606                	sw	ra,12(sp)
  14:	00050513          	mv	a0,a0
  18:	9782                	jalr	a5
  1a:	40b2                	lw	ra,12(sp)
  1c:	0141                	add	sp,sp,16
  1e:	00000317          	auipc	t1,0x0
  22:	00030067          	jr	t1 # 1e <mesh_ie_monitor_timeout_process+0x1e>

Disassembly of section .text.mesh_bcn_change_timer_start:

00000000 <mesh_bcn_change_timer_start>:
   0:	000007b7          	lui	a5,0x0
   4:	0007c783          	lbu	a5,0(a5) # 0 <mesh_bcn_change_timer_start>
   8:	e785                	bnez	a5,30 <.L196>
   a:	000007b7          	lui	a5,0x0
   e:	00a7a023          	sw	a0,0(a5) # 0 <mesh_bcn_change_timer_start>
  12:	000007b7          	lui	a5,0x0
  16:	0007a783          	lw	a5,0(a5) # 0 <mesh_bcn_change_timer_start>
  1a:	6589                	lui	a1,0x2
  1c:	00000537          	lui	a0,0x0
  20:	0e07a783          	lw	a5,224(a5)
  24:	4601                	li	a2,0
  26:	71058593          	add	a1,a1,1808 # 2710 <.L3300+0x18>
  2a:	00050513          	mv	a0,a0
  2e:	8782                	jr	a5

00000030 <.L196>:
  30:	8082                	ret

Disassembly of section .text.mesh_root_connect_timer_start:

00000000 <mesh_root_connect_timer_start>:
   0:	000007b7          	lui	a5,0x0
   4:	0007c783          	lbu	a5,0(a5) # 0 <mesh_root_connect_timer_start>
   8:	ef99                	bnez	a5,26 <.L198>
   a:	000007b7          	lui	a5,0x0
   e:	0007a783          	lw	a5,0(a5) # 0 <mesh_root_connect_timer_start>
  12:	00000537          	lui	a0,0x0
  16:	4601                	li	a2,0
  18:	0e07a783          	lw	a5,224(a5)
  1c:	3e800593          	li	a1,1000
  20:	00050513          	mv	a0,a0
  24:	8782                	jr	a5

00000026 <.L198>:
  26:	8082                	ret

Disassembly of section .text.candidate_monitor_timer_stop:

00000000 <candidate_monitor_timer_stop>:
   0:	000007b7          	lui	a5,0x0
   4:	0007a783          	lw	a5,0(a5) # 0 <candidate_monitor_timer_stop>
   8:	00000537          	lui	a0,0x0
   c:	00050513          	mv	a0,a0
  10:	0e47a783          	lw	a5,228(a5)
  14:	8782                	jr	a5

Disassembly of section .text.mesh_disable_parent_switch_monitor:

00000000 <mesh_disable_parent_switch_monitor>:
   0:	00000537          	lui	a0,0x0
   4:	00051023          	sh	zero,0(a0) # 0 <mesh_disable_parent_switch_monitor>
   8:	00050513          	mv	a0,a0
   c:	00000317          	auipc	t1,0x0
  10:	00030067          	jr	t1 # c <mesh_disable_parent_switch_monitor+0xc>

Disassembly of section .text.candidate_monitor_timer_start:

00000000 <candidate_monitor_timer_start>:
   0:	000007b7          	lui	a5,0x0
   4:	0007c783          	lbu	a5,0(a5) # 0 <candidate_monitor_timer_start>
   8:	c791                	beqz	a5,14 <.L203>
   a:	000007b7          	lui	a5,0x0
   e:	0007c783          	lbu	a5,0(a5) # 0 <candidate_monitor_timer_start>
  12:	c789                	beqz	a5,1c <.L204>

00000014 <.L203>:
  14:	00000317          	auipc	t1,0x0
  18:	00030067          	jr	t1 # 14 <.L203>

0000001c <.L204>:
  1c:	7139                	add	sp,sp,-64
  1e:	dc22                	sw	s0,56(sp)
  20:	da26                	sw	s1,52(sp)
  22:	d64e                	sw	s3,44(sp)
  24:	d452                	sw	s4,40(sp)
  26:	00000437          	lui	s0,0x0
  2a:	de06                	sw	ra,60(sp)
  2c:	d84a                	sw	s2,48(sp)
  2e:	d256                	sw	s5,36(sp)
  30:	02000793          	li	a5,32
  34:	84aa                	mv	s1,a0
  36:	89ae                	mv	s3,a1
  38:	00040a13          	mv	s4,s0
  3c:	12f50763          	beq	a0,a5,16a <.L205>
  40:	10a7ee63          	bltu	a5,a0,15c <.L206>
  44:	47a5                	li	a5,9
  46:	12f50263          	beq	a0,a5,16a <.L205>
  4a:	47b9                	li	a5,14

0000004c <.L235>:
  4c:	12f48f63          	beq	s1,a5,18a <.L207>

00000050 <.L208>:
  50:	001a4783          	lbu	a5,1(s4)
  54:	cbfd                	beqz	a5,14a <.L202>
  56:	00000097          	auipc	ra,0x0
  5a:	000080e7          	jalr	ra # 56 <.L208+0x6>
  5e:	00000937          	lui	s2,0x0
  62:	00090793          	mv	a5,s2
  66:	439c                	lw	a5,0(a5)
  68:	4709                	li	a4,2
  6a:	00090913          	mv	s2,s2
  6e:	14f74763          	blt	a4,a5,1bc <.L211>
  72:	0785                	add	a5,a5,1
  74:	00f92023          	sw	a5,0(s2) # 0 <candidate_monitor_timer_start>
  78:	00000097          	auipc	ra,0x0
  7c:	000080e7          	jalr	ra # 78 <.L208+0x28>
  80:	00951413          	sll	s0,a0,0x9
  84:	0044b7b7          	lui	a5,0x44b
  88:	8025                	srl	s0,s0,0x9
  8a:	a2078793          	add	a5,a5,-1504 # 44aa20 <.L3353+0x4474c8>

0000008e <.L236>:
  8e:	943e                	add	s0,s0,a5
  90:	000007b7          	lui	a5,0x0
  94:	0007a703          	lw	a4,0(a5) # 0 <candidate_monitor_timer_start>
  98:	4789                	li	a5,2
  9a:	00000a37          	lui	s4,0x0
  9e:	08e7f763          	bgeu	a5,a4,12c <.L214>
  a2:	000a2783          	lw	a5,0(s4) # 0 <candidate_monitor_timer_start>
  a6:	c3d9                	beqz	a5,12c <.L214>
  a8:	14c7aa83          	lw	s5,332(a5)
  ac:	080a8063          	beqz	s5,12c <.L214>
  b0:	1547a783          	lw	a5,340(a5)
  b4:	9782                	jalr	a5
  b6:	000007b7          	lui	a5,0x0
  ba:	0007a703          	lw	a4,0(a5) # 0 <candidate_monitor_timer_start>
  be:	000007b7          	lui	a5,0x0
  c2:	86aa                	mv	a3,a0
  c4:	00078793          	mv	a5,a5
  c8:	12071863          	bnez	a4,1f8 <.L215>
  cc:	00f7c803          	lbu	a6,15(a5) # f <candidate_monitor_timer_start+0xf>
  d0:	00e7c883          	lbu	a7,14(a5)

000000d4 <.L216>:
  d4:	0077c503          	lbu	a0,7(a5)
  d8:	98c2                	add	a7,a7,a6
  da:	ce36                	sw	a3,28(sp)
  dc:	cc42                	sw	a6,24(sp)
  de:	ca46                	sw	a7,20(sp)
  e0:	00000097          	auipc	ra,0x0
  e4:	000080e7          	jalr	ra # e0 <.L216+0xc>
  e8:	47a5                	li	a5,9
  ea:	00092603          	lw	a2,0(s2)
  ee:	48d2                	lw	a7,20(sp)
  f0:	4862                	lw	a6,24(sp)
  f2:	46f2                	lw	a3,28(sp)
  f4:	00a45713          	srl	a4,s0,0xa
  f8:	10f49963          	bne	s1,a5,20a <.L218>
  fc:	10099c63          	bnez	s3,214 <.L219>
 100:	000007b7          	lui	a5,0x0
 104:	00078793          	mv	a5,a5

00000108 <.L217>:
 108:	000005b7          	lui	a1,0x0
 10c:	c432                	sw	a2,8(sp)
 10e:	00000637          	lui	a2,0x0
 112:	c63e                	sw	a5,12(sp)
 114:	c23a                	sw	a4,4(sp)
 116:	c02a                	sw	a0,0(sp)
 118:	00058713          	mv	a4,a1
 11c:	7d400793          	li	a5,2004
 120:	00060613          	mv	a2,a2
 124:	00058593          	mv	a1,a1
 128:	450d                	li	a0,3
 12a:	9a82                	jalr	s5

0000012c <.L214>:
 12c:	000a2783          	lw	a5,0(s4)
 130:	00000537          	lui	a0,0x0
 134:	4601                	li	a2,0
 136:	0f07a783          	lw	a5,240(a5) # f0 <.L216+0x1c>
 13a:	85a2                	mv	a1,s0
 13c:	00050513          	mv	a0,a0
 140:	9782                	jalr	a5
 142:	000007b7          	lui	a5,0x0
 146:	0087a023          	sw	s0,0(a5) # 0 <candidate_monitor_timer_start>

0000014a <.L202>:
 14a:	50f2                	lw	ra,60(sp)
 14c:	5462                	lw	s0,56(sp)
 14e:	54d2                	lw	s1,52(sp)
 150:	5942                	lw	s2,48(sp)
 152:	59b2                	lw	s3,44(sp)
 154:	5a22                	lw	s4,40(sp)
 156:	5a92                	lw	s5,36(sp)
 158:	6121                	add	sp,sp,64
 15a:	8082                	ret

0000015c <.L206>:
 15c:	02900793          	li	a5,41
 160:	00f50563          	beq	a0,a5,16a <.L205>
 164:	02e00793          	li	a5,46
 168:	b5d5                	j	4c <.L235>

0000016a <.L205>:
 16a:	000007b7          	lui	a5,0x0
 16e:	00078793          	mv	a5,a5
 172:	00098563          	beqz	s3,17c <.L209>
 176:	470d                	li	a4,3
 178:	c398                	sw	a4,0(a5)
 17a:	bdd9                	j	50 <.L208>

0000017c <.L209>:
 17c:	00000737          	lui	a4,0x0
 180:	00072023          	sw	zero,0(a4) # 0 <candidate_monitor_timer_start>
 184:	0007a023          	sw	zero,0(a5) # 0 <candidate_monitor_timer_start>
 188:	b5e1                	j	50 <.L208>

0000018a <.L207>:
 18a:	000007b7          	lui	a5,0x0
 18e:	0007a703          	lw	a4,0(a5) # 0 <candidate_monitor_timer_start>
 192:	11e1a7b7          	lui	a5,0x11e1a
 196:	2ff78793          	add	a5,a5,767 # 11e1a2ff <.L3353+0x11e16da7>
 19a:	eae7fbe3          	bgeu	a5,a4,50 <.L208>
 19e:	10000793          	li	a5,256
 1a2:	00fa1023          	sh	a5,0(s4)
 1a6:	00040513          	mv	a0,s0
 1aa:	00000097          	auipc	ra,0x0
 1ae:	000080e7          	jalr	ra # 1aa <.L207+0x20>
 1b2:	000007b7          	lui	a5,0x0
 1b6:	0007a023          	sw	zero,0(a5) # 0 <candidate_monitor_timer_start>
 1ba:	bd59                	j	50 <.L208>

000001bc <.L211>:
 1bc:	000007b7          	lui	a5,0x0
 1c0:	00078793          	mv	a5,a5
 1c4:	43d8                	lw	a4,4(a5)
 1c6:	f8900793          	li	a5,-119
 1ca:	00f74563          	blt	a4,a5,1d4 <.L213>
 1ce:	4785                	li	a5,1
 1d0:	00fa1023          	sh	a5,0(s4)

000001d4 <.L213>:
 1d4:	00040513          	mv	a0,s0
 1d8:	00000097          	auipc	ra,0x0
 1dc:	000080e7          	jalr	ra # 1d8 <.L213+0x4>
 1e0:	00000097          	auipc	ra,0x0
 1e4:	000080e7          	jalr	ra # 1e0 <.L213+0xc>
 1e8:	00551413          	sll	s0,a0,0x5
 1ec:	11e1a7b7          	lui	a5,0x11e1a
 1f0:	8015                	srl	s0,s0,0x5
 1f2:	30078793          	add	a5,a5,768 # 11e1a300 <.L3353+0x11e16da8>
 1f6:	bd61                	j	8e <.L236>

000001f8 <.L215>:
 1f8:	00000737          	lui	a4,0x0
 1fc:	00070613          	mv	a2,a4
 200:	00265803          	lhu	a6,2(a2) # 2 <candidate_monitor_timer_start+0x2>
 204:	00075883          	lhu	a7,0(a4) # 0 <candidate_monitor_timer_start>
 208:	b5f1                	j	d4 <.L216>

0000020a <.L218>:
 20a:	000007b7          	lui	a5,0x0
 20e:	00078793          	mv	a5,a5
 212:	bddd                	j	108 <.L217>

00000214 <.L219>:
 214:	000007b7          	lui	a5,0x0
 218:	00078793          	mv	a5,a5
 21c:	b5f5                	j	108 <.L217>

Disassembly of section .text.esp_mesh_ps_control_check_awake:

00000000 <esp_mesh_ps_control_check_awake>:
   0:	1141                	add	sp,sp,-16
   2:	c606                	sw	ra,12(sp)
   4:	472d                	li	a4,11
   6:	02e51363          	bne	a0,a4,2c <.L238>
   a:	000007b7          	lui	a5,0x0
   e:	0007c783          	lbu	a5,0(a5) # 0 <esp_mesh_ps_control_check_awake>
  12:	e795                	bnez	a5,3e <.L239>
  14:	00000097          	auipc	ra,0x0
  18:	000080e7          	jalr	ra # 14 <esp_mesh_ps_control_check_awake+0x14>
  1c:	c10d                	beqz	a0,3e <.L239>
  1e:	000007b7          	lui	a5,0x0
  22:	0217c503          	lbu	a0,33(a5) # 21 <esp_mesh_ps_control_check_awake+0x21>

00000026 <.L240>:
  26:	40b2                	lw	ra,12(sp)
  28:	0141                	add	sp,sp,16
  2a:	8082                	ret

0000002c <.L238>:
  2c:	4731                	li	a4,12
  2e:	87aa                	mv	a5,a0
  30:	02e51563          	bne	a0,a4,5a <.L241>
  34:	000007b7          	lui	a5,0x0
  38:	0007c783          	lbu	a5,0(a5) # 0 <esp_mesh_ps_control_check_awake>
  3c:	c399                	beqz	a5,42 <.L242>

0000003e <.L239>:
  3e:	4505                	li	a0,1
  40:	b7dd                	j	26 <.L240>

00000042 <.L242>:
  42:	00000097          	auipc	ra,0x0
  46:	000080e7          	jalr	ra # 42 <.L242>
  4a:	4789                	li	a5,2
  4c:	fef509e3          	beq	a0,a5,3e <.L239>
  50:	000007b7          	lui	a5,0x0
  54:	01b7c503          	lbu	a0,27(a5) # 1b <esp_mesh_ps_control_check_awake+0x1b>
  58:	b7f9                	j	26 <.L240>

0000005a <.L241>:
  5a:	4729                	li	a4,10
  5c:	02e51963          	bne	a0,a4,8e <.L243>
  60:	000006b7          	lui	a3,0x0
  64:	4701                	li	a4,0
  66:	00068693          	mv	a3,a3
  6a:	45a9                	li	a1,10

0000006c <.L245>:
  6c:	00870793          	add	a5,a4,8
  70:	078a                	sll	a5,a5,0x2
  72:	97b6                	add	a5,a5,a3
  74:	43dc                	lw	a5,4(a5)
  76:	0087d613          	srl	a2,a5,0x8
  7a:	8a05                	and	a2,a2,1
  7c:	c601                	beqz	a2,84 <.L244>
  7e:	83a5                	srl	a5,a5,0x9
  80:	8b85                	and	a5,a5,1
  82:	ffd5                	bnez	a5,3e <.L239>

00000084 <.L244>:
  84:	0705                	add	a4,a4,1
  86:	feb713e3          	bne	a4,a1,6c <.L245>
  8a:	4501                	li	a0,0
  8c:	bf69                	j	26 <.L240>

0000008e <.L243>:
  8e:	4501                	li	a0,0
  90:	f807cbe3          	bltz	a5,26 <.L240>
  94:	00000737          	lui	a4,0x0
  98:	0bd74703          	lbu	a4,189(a4) # bd <.L126+0x1>
  9c:	f8e7d5e3          	bge	a5,a4,26 <.L240>
  a0:	07a1                	add	a5,a5,8
  a2:	00000737          	lui	a4,0x0
  a6:	078a                	sll	a5,a5,0x2
  a8:	00070713          	mv	a4,a4
  ac:	97ba                	add	a5,a5,a4
  ae:	43c8                	lw	a0,4(a5)
  b0:	8125                	srl	a0,a0,0x9
  b2:	8905                	and	a0,a0,1
  b4:	bf8d                	j	26 <.L240>

Disassembly of section .text.mesh_ps_control_set_awake:

00000000 <mesh_ps_control_set_awake>:
   0:	000007b7          	lui	a5,0x0
   4:	0117c783          	lbu	a5,17(a5) # 11 <mesh_ps_control_set_awake+0x11>
   8:	c3a9                	beqz	a5,4a <.L257>
   a:	02250613          	add	a2,a0,34 # 22 <.L259+0x10>
   e:	4681                	li	a3,0
  10:	45a9                	li	a1,10

00000012 <.L259>:
  12:	00868793          	add	a5,a3,8 # 8 <mesh_ps_control_set_awake+0x8>
  16:	078a                	sll	a5,a5,0x2
  18:	97aa                	add	a5,a5,a0
  1a:	43d8                	lw	a4,4(a5)
  1c:	8321                	srl	a4,a4,0x8
  1e:	8b05                	and	a4,a4,1
  20:	c30d                	beqz	a4,42 <.L258>
  22:	0057c703          	lbu	a4,5(a5)
  26:	00276713          	or	a4,a4,2
  2a:	00e782a3          	sb	a4,5(a5)
  2e:	00064703          	lbu	a4,0(a2)
  32:	00e60123          	sb	a4,2(a2)
  36:	0057c703          	lbu	a4,5(a5)
  3a:	00476713          	or	a4,a4,4
  3e:	00e782a3          	sb	a4,5(a5)

00000042 <.L258>:
  42:	0685                	add	a3,a3,1
  44:	0611                	add	a2,a2,4
  46:	fcb696e3          	bne	a3,a1,12 <.L259>

0000004a <.L257>:
  4a:	4785                	li	a5,1
  4c:	02f500a3          	sb	a5,33(a0)
  50:	00f50da3          	sb	a5,27(a0)
  54:	4501                	li	a0,0
  56:	8082                	ret

Disassembly of section .text.mesh_ps_control_set_sleep:

00000000 <mesh_ps_control_set_sleep>:
   0:	1101                	add	sp,sp,-32
   2:	000007b7          	lui	a5,0x0
   6:	ca26                	sw	s1,20(sp)
   8:	c84a                	sw	s2,16(sp)
   a:	00055483          	lhu	s1,0(a0)
   e:	0bd7c903          	lbu	s2,189(a5) # bd <.L126+0x1>
  12:	cc22                	sw	s0,24(sp)
  14:	c64e                	sw	s3,12(sp)
  16:	c452                	sw	s4,8(sp)
  18:	c256                	sw	s5,4(sp)
  1a:	ce06                	sw	ra,28(sp)
  1c:	842a                	mv	s0,a0
  1e:	49ad                	li	s3,11
  20:	4a31                	li	s4,12
  22:	4a85                	li	s5,1

00000024 <.L268>:
  24:	e899                	bnez	s1,3a <.L272>
  26:	40f2                	lw	ra,28(sp)
  28:	4462                	lw	s0,24(sp)
  2a:	44d2                	lw	s1,20(sp)
  2c:	4942                	lw	s2,16(sp)
  2e:	49b2                	lw	s3,12(sp)
  30:	4a22                	lw	s4,8(sp)
  32:	4a92                	lw	s5,4(sp)
  34:	4501                	li	a0,0
  36:	6105                	add	sp,sp,32
  38:	8082                	ret

0000003a <.L272>:
  3a:	8526                	mv	a0,s1
  3c:	00000097          	auipc	ra,0x0
  40:	000080e7          	jalr	ra # 3c <.L272+0x2>
  44:	01255b63          	bge	a0,s2,5a <.L269>
  48:	00850793          	add	a5,a0,8
  4c:	078a                	sll	a5,a5,0x2
  4e:	97a2                	add	a5,a5,s0
  50:	0057c703          	lbu	a4,5(a5)
  54:	9b75                	and	a4,a4,-3
  56:	00e782a3          	sb	a4,5(a5)

0000005a <.L269>:
  5a:	01351a63          	bne	a0,s3,6e <.L270>
  5e:	020400a3          	sb	zero,33(s0) # 21 <mesh_ps_control_set_sleep+0x21>

00000062 <.L271>:
  62:	00aa97b3          	sll	a5,s5,a0
  66:	fff7c793          	not	a5,a5
  6a:	8cfd                	and	s1,s1,a5
  6c:	bf65                	j	24 <.L268>

0000006e <.L270>:
  6e:	ff451ae3          	bne	a0,s4,62 <.L271>
  72:	00040da3          	sb	zero,27(s0)
  76:	b7f5                	j	62 <.L271>

Disassembly of section .text.mesh_ps_control_get_min_duty:

00000000 <mesh_ps_control_get_min_duty>:
   0:	1141                	add	sp,sp,-16
   2:	000006b7          	lui	a3,0x0
   6:	c422                	sw	s0,8(sp)
   8:	c226                	sw	s1,4(sp)
   a:	c606                	sw	ra,12(sp)
   c:	c04a                	sw	s2,0(sp)
   e:	00068793          	mv	a5,a3
  12:	0207c303          	lbu	t1,32(a5)
  16:	84ae                	mv	s1,a1
  18:	01a7c583          	lbu	a1,26(a5)
  1c:	0047c783          	lbu	a5,4(a5)
  20:	8432                	mv	s0,a2
  22:	00068e13          	mv	t3,a3
  26:	12078f63          	beqz	a5,164 <.L288>
  2a:	00068693          	mv	a3,a3
  2e:	4801                	li	a6,0
  30:	577d                	li	a4,-1
  32:	0ff00793          	li	a5,255
  36:	4ea9                	li	t4,10

00000038 <.L277>:
  38:	00880613          	add	a2,a6,8
  3c:	060a                	sll	a2,a2,0x2
  3e:	9672                	add	a2,a2,t3
  40:	00462883          	lw	a7,4(a2)
  44:	00a8d893          	srl	a7,a7,0xa
  48:	0018f893          	and	a7,a7,1
  4c:	02088263          	beqz	a7,70 <.L276>
  50:	00055883          	lhu	a7,0(a0)
  54:	0108d8b3          	srl	a7,a7,a6
  58:	0018f893          	and	a7,a7,1
  5c:	00089a63          	bnez	a7,70 <.L276>
  60:	0246c603          	lbu	a2,36(a3) # 24 <mesh_ps_control_get_min_duty+0x24>
  64:	00c7e663          	bltu	a5,a2,70 <.L276>
  68:	01881713          	sll	a4,a6,0x18
  6c:	8761                	sra	a4,a4,0x18
  6e:	87b2                	mv	a5,a2

00000070 <.L276>:
  70:	0805                	add	a6,a6,1
  72:	0691                	add	a3,a3,4
  74:	fdd812e3          	bne	a6,t4,38 <.L277>

00000078 <.L275>:
  78:	00055683          	lhu	a3,0(a0)
  7c:	00b6d613          	srl	a2,a3,0xb
  80:	8a05                	and	a2,a2,1
  82:	e609                	bnez	a2,8c <.L278>
  84:	0067e463          	bltu	a5,t1,8c <.L278>
  88:	879a                	mv	a5,t1
  8a:	472d                	li	a4,11

0000008c <.L278>:
  8c:	6605                	lui	a2,0x1
  8e:	8e75                	and	a2,a2,a3
  90:	e219                	bnez	a2,96 <.L279>
  92:	0cb7fd63          	bgeu	a5,a1,16c <.L289>

00000096 <.L279>:
  96:	567d                	li	a2,-1
  98:	0cc71c63          	bne	a4,a2,170 <.L280>

0000009c <.L281>:
  9c:	8672                	mv	a2,t3
  9e:	4681                	li	a3,0
  a0:	4f05                	li	t5,1
  a2:	4ea9                	li	t4,10

000000a4 <.L283>:
  a4:	00868813          	add	a6,a3,8
  a8:	080a                	sll	a6,a6,0x2
  aa:	9872                	add	a6,a6,t3
  ac:	00482803          	lw	a6,4(a6)
  b0:	00a85813          	srl	a6,a6,0xa
  b4:	00187813          	and	a6,a6,1
  b8:	00080e63          	beqz	a6,d4 <.L282>
  bc:	02464803          	lbu	a6,36(a2) # 1024 <.L3183+0x2e>
  c0:	00f81a63          	bne	a6,a5,d4 <.L282>
  c4:	00055803          	lhu	a6,0(a0)
  c8:	00df18b3          	sll	a7,t5,a3
  cc:	01186833          	or	a6,a6,a7
  d0:	01051023          	sh	a6,0(a0)

000000d4 <.L282>:
  d4:	0685                	add	a3,a3,1
  d6:	0611                	add	a2,a2,4
  d8:	fdd696e3          	bne	a3,t4,a4 <.L283>
  dc:	00679a63          	bne	a5,t1,f0 <.L284>
  e0:	00055683          	lhu	a3,0(a0)
  e4:	6605                	lui	a2,0x1
  e6:	80060613          	add	a2,a2,-2048 # 800 <.L2967+0x16>
  ea:	8ed1                	or	a3,a3,a2
  ec:	00d51023          	sh	a3,0(a0)

000000f0 <.L284>:
  f0:	00b79863          	bne	a5,a1,100 <.L285>
  f4:	00055683          	lhu	a3,0(a0)
  f8:	6605                	lui	a2,0x1
  fa:	8ed1                	or	a3,a3,a2
  fc:	00d51023          	sh	a3,0(a0)

00000100 <.L285>:
 100:	0ff00693          	li	a3,255
 104:	04d79563          	bne	a5,a3,14e <.L286>
 108:	000007b7          	lui	a5,0x0
 10c:	0007a703          	lw	a4,0(a5) # 0 <mesh_ps_control_get_min_duty>
 110:	4789                	li	a5,2
 112:	02e7fb63          	bgeu	a5,a4,148 <.L287>
 116:	000007b7          	lui	a5,0x0
 11a:	0007a783          	lw	a5,0(a5) # 0 <mesh_ps_control_get_min_duty>
 11e:	c78d                	beqz	a5,148 <.L287>
 120:	14c7a903          	lw	s2,332(a5)
 124:	02090263          	beqz	s2,148 <.L287>
 128:	1547a783          	lw	a5,340(a5)
 12c:	9782                	jalr	a5
 12e:	000005b7          	lui	a1,0x0
 132:	00000637          	lui	a2,0x0
 136:	86aa                	mv	a3,a0
 138:	00058713          	mv	a4,a1
 13c:	00060613          	mv	a2,a2
 140:	00058593          	mv	a1,a1
 144:	450d                	li	a0,3
 146:	9902                	jalr	s2

00000148 <.L287>:
 148:	06400793          	li	a5,100
 14c:	577d                	li	a4,-1

0000014e <.L286>:
 14e:	00f48023          	sb	a5,0(s1)
 152:	40b2                	lw	ra,12(sp)
 154:	00e40023          	sb	a4,0(s0)
 158:	4422                	lw	s0,8(sp)
 15a:	4492                	lw	s1,4(sp)
 15c:	4902                	lw	s2,0(sp)
 15e:	4501                	li	a0,0
 160:	0141                	add	sp,sp,16
 162:	8082                	ret

00000164 <.L288>:
 164:	577d                	li	a4,-1
 166:	0ff00793          	li	a5,255
 16a:	b739                	j	78 <.L275>

0000016c <.L289>:
 16c:	87ae                	mv	a5,a1
 16e:	4731                	li	a4,12

00000170 <.L280>:
 170:	4605                	li	a2,1
 172:	00e61633          	sll	a2,a2,a4
 176:	8ed1                	or	a3,a3,a2
 178:	00d51023          	sh	a3,0(a0)
 17c:	b705                	j	9c <.L281>

Disassembly of section .text.mesh_ps_control_timeout_process:

00000000 <mesh_ps_control_timeout_process>:
   0:	7179                	add	sp,sp,-48
   2:	d04a                	sw	s2,32(sp)
   4:	00000937          	lui	s2,0x0
   8:	d226                	sw	s1,36(sp)
   a:	00090493          	mv	s1,s2
   e:	0024c783          	lbu	a5,2(s1)
  12:	d422                	sw	s0,40(sp)
  14:	0204c403          	lbu	s0,32(s1)
  18:	00f10723          	sb	a5,14(sp)
  1c:	0034c783          	lbu	a5,3(s1)
  20:	f9c40413          	add	s0,s0,-100
  24:	00803433          	snez	s0,s0
  28:	00f107a3          	sb	a5,15(sp)
  2c:	01a4c783          	lbu	a5,26(s1)
  30:	00090513          	mv	a0,s2
  34:	d606                	sw	ra,44(sp)
  36:	f9c78793          	add	a5,a5,-100
  3a:	00f037b3          	snez	a5,a5
  3e:	ce4e                	sw	s3,28(sp)
  40:	cc52                	sw	s4,24(sp)
  42:	943e                	add	s0,s0,a5
  44:	00000097          	auipc	ra,0x0
  48:	000080e7          	jalr	ra # 44 <mesh_ps_control_timeout_process+0x44>
  4c:	0004d583          	lhu	a1,0(s1)
  50:	00090613          	mv	a2,s2
  54:	4681                	li	a3,0
  56:	4501                	li	a0,0
  58:	06400893          	li	a7,100
  5c:	4305                	li	t1,1
  5e:	4829                	li	a6,10

00000060 <.L308>:
  60:	00868793          	add	a5,a3,8
  64:	078a                	sll	a5,a5,0x2
  66:	97a6                	add	a5,a5,s1
  68:	43d8                	lw	a4,4(a5)
  6a:	8329                	srl	a4,a4,0xa
  6c:	8b05                	and	a4,a4,1
  6e:	c305                	beqz	a4,8e <.L306>
  70:	02264e03          	lbu	t3,34(a2) # 22 <mesh_ps_control_timeout_process+0x22>
  74:	060e1263          	bnez	t3,d8 <.L307>
  78:	00d31533          	sll	a0,t1,a3
  7c:	fff54513          	not	a0,a0
  80:	8de9                	and	a1,a1,a0
  82:	0057c503          	lbu	a0,5(a5)
  86:	996d                	and	a0,a0,-5
  88:	00a782a3          	sb	a0,5(a5)
  8c:	853a                	mv	a0,a4

0000008e <.L306>:
  8e:	0685                	add	a3,a3,1
  90:	0611                	add	a2,a2,4
  92:	fd0697e3          	bne	a3,a6,60 <.L308>
  96:	c119                	beqz	a0,9c <.L309>
  98:	00b49023          	sh	a1,0(s1)

0000009c <.L309>:
  9c:	0004d503          	lhu	a0,0(s1)
  a0:	00000097          	auipc	ra,0x0
  a4:	000080e7          	jalr	ra # a0 <.L309+0x4>
  a8:	04854063          	blt	a0,s0,e8 <.L310>
  ac:	4701                	li	a4,0
  ae:	4629                	li	a2,10

000000b0 <.L311>:
  b0:	00870793          	add	a5,a4,8 # 8 <mesh_ps_control_timeout_process+0x8>
  b4:	078a                	sll	a5,a5,0x2
  b6:	97a6                	add	a5,a5,s1
  b8:	0057c683          	lbu	a3,5(a5)
  bc:	0705                	add	a4,a4,1
  be:	9aed                	and	a3,a3,-5
  c0:	00d782a3          	sb	a3,5(a5)
  c4:	fec716e3          	bne	a4,a2,b0 <.L311>

000000c8 <.L305>:
  c8:	50b2                	lw	ra,44(sp)
  ca:	5422                	lw	s0,40(sp)
  cc:	5492                	lw	s1,36(sp)
  ce:	5902                	lw	s2,32(sp)
  d0:	49f2                	lw	s3,28(sp)
  d2:	4a62                	lw	s4,24(sp)
  d4:	6145                	add	sp,sp,48
  d6:	8082                	ret

000000d8 <.L307>:
  d8:	02464783          	lbu	a5,36(a2)
  dc:	fb1789e3          	beq	a5,a7,8e <.L306>
  e0:	0405                	add	s0,s0,1
  e2:	0ff47413          	zext.b	s0,s0
  e6:	b765                	j	8e <.L306>

000000e8 <.L310>:
  e8:	00c4c783          	lbu	a5,12(s1)
  ec:	00090513          	mv	a0,s2
  f0:	00f10613          	add	a2,sp,15
  f4:	0785                	add	a5,a5,1
  f6:	00e10593          	add	a1,sp,14
  fa:	00f48623          	sb	a5,12(s1)
  fe:	00000097          	auipc	ra,0x0
 102:	000080e7          	jalr	ra # fe <.L310+0x16>
 106:	00e14903          	lbu	s2,14(sp)
 10a:	06400713          	li	a4,100
 10e:	04e91963          	bne	s2,a4,160 <.L313>
 112:	000007b7          	lui	a5,0x0
 116:	0007a703          	lw	a4,0(a5) # 0 <mesh_ps_control_timeout_process>
 11a:	4789                	li	a5,2
 11c:	fae7f6e3          	bgeu	a5,a4,c8 <.L305>
 120:	000007b7          	lui	a5,0x0
 124:	0007a783          	lw	a5,0(a5) # 0 <mesh_ps_control_timeout_process>
 128:	d3c5                	beqz	a5,c8 <.L305>
 12a:	14c7a403          	lw	s0,332(a5)
 12e:	dc49                	beqz	s0,c8 <.L305>
 130:	1547a783          	lw	a5,340(a5)
 134:	9782                	jalr	a5
 136:	87a2                	mv	a5,s0
 138:	5422                	lw	s0,40(sp)
 13a:	50b2                	lw	ra,44(sp)
 13c:	5492                	lw	s1,36(sp)
 13e:	5902                	lw	s2,32(sp)
 140:	49f2                	lw	s3,28(sp)
 142:	4a62                	lw	s4,24(sp)
 144:	000005b7          	lui	a1,0x0
 148:	00000637          	lui	a2,0x0
 14c:	86aa                	mv	a3,a0
 14e:	00058713          	mv	a4,a1
 152:	00060613          	mv	a2,a2
 156:	00058593          	mv	a1,a1
 15a:	450d                	li	a0,3
 15c:	6145                	add	sp,sp,48
 15e:	8782                	jr	a5

00000160 <.L313>:
 160:	0024c783          	lbu	a5,2(s1)
 164:	000009b7          	lui	s3,0x0
 168:	04f96763          	bltu	s2,a5,1b6 <.L314>
 16c:	01e4d403          	lhu	s0,30(s1)
 170:	40f907b3          	sub	a5,s2,a5
 174:	042a                	sll	s0,s0,0xa

00000176 <.L339>:
 176:	02f40433          	mul	s0,s0,a5
 17a:	0009a783          	lw	a5,0(s3) # 0 <mesh_ps_control_timeout_process>
 17e:	00000a37          	lui	s4,0x0
 182:	000a0513          	mv	a0,s4
 186:	0e47a783          	lw	a5,228(a5)
 18a:	02e44433          	div	s0,s0,a4
 18e:	9782                	jalr	a5
 190:	0009a783          	lw	a5,0(s3)
 194:	4601                	li	a2,0
 196:	000a0513          	mv	a0,s4
 19a:	0f07a783          	lw	a5,240(a5)
 19e:	85a2                	mv	a1,s0
 1a0:	9782                	jalr	a5
 1a2:	449c                	lw	a5,8(s1)
 1a4:	01248123          	sb	s2,2(s1)
 1a8:	8f81                	sub	a5,a5,s0
 1aa:	c49c                	sw	a5,8(s1)
 1ac:	00f14783          	lbu	a5,15(sp)
 1b0:	00f481a3          	sb	a5,3(s1)
 1b4:	bf11                	j	c8 <.L305>

000001b6 <.L314>:
 1b6:	000007b7          	lui	a5,0x0
 1ba:	0007a703          	lw	a4,0(a5) # 0 <mesh_ps_control_timeout_process>
 1be:	4789                	li	a5,2
 1c0:	02e7f863          	bgeu	a5,a4,1f0 <.L316>
 1c4:	0009a783          	lw	a5,0(s3)
 1c8:	c785                	beqz	a5,1f0 <.L316>
 1ca:	14c7a403          	lw	s0,332(a5)
 1ce:	c00d                	beqz	s0,1f0 <.L316>
 1d0:	1547a783          	lw	a5,340(a5)
 1d4:	9782                	jalr	a5
 1d6:	000005b7          	lui	a1,0x0
 1da:	00000637          	lui	a2,0x0
 1de:	86aa                	mv	a3,a0
 1e0:	00058713          	mv	a4,a1
 1e4:	00060613          	mv	a2,a2
 1e8:	00058593          	mv	a1,a1
 1ec:	450d                	li	a0,3
 1ee:	9402                	jalr	s0

000001f0 <.L316>:
 1f0:	01e4d403          	lhu	s0,30(s1)
 1f4:	0024c783          	lbu	a5,2(s1)
 1f8:	06400713          	li	a4,100
 1fc:	042a                	sll	s0,s0,0xa
 1fe:	40f707b3          	sub	a5,a4,a5
 202:	bf95                	j	176 <.L339>

Disassembly of section .text.mesh_nwk_find_conflict_roots:

00000000 <mesh_nwk_find_conflict_roots>:
   0:	c511                	beqz	a0,c <.L340>
   2:	c589                	beqz	a1,c <.L340>
   4:	00000317          	auipc	t1,0x0
   8:	00030067          	jr	t1 # 4 <mesh_nwk_find_conflict_roots+0x4>

0000000c <.L340>:
   c:	557d                	li	a0,-1
   e:	8082                	ret

Disassembly of section .text.mesh_nwk_remove_conflict_roots:

00000000 <mesh_nwk_remove_conflict_roots>:
   0:	7179                	add	sp,sp,-48
   2:	d606                	sw	ra,44(sp)
   4:	d422                	sw	s0,40(sp)
   6:	d226                	sw	s1,36(sp)
   8:	d04a                	sw	s2,32(sp)
   a:	ce4e                	sw	s3,28(sp)
   c:	cc52                	sw	s4,24(sp)
   e:	ca56                	sw	s5,20(sp)
  10:	c85a                	sw	s6,16(sp)
  12:	c65e                	sw	s7,12(sp)
  14:	e535                	bnez	a0,80 <.L347>
  16:	000007b7          	lui	a5,0x0
  1a:	0007a703          	lw	a4,0(a5) # 0 <mesh_nwk_remove_conflict_roots>
  1e:	4789                	li	a5,2
  20:	0ee7f363          	bgeu	a5,a4,106 <.L355>
  24:	000007b7          	lui	a5,0x0
  28:	0007a783          	lw	a5,0(a5) # 0 <mesh_nwk_remove_conflict_roots>
  2c:	6411                	lui	s0,0x4
  2e:	0421                	add	s0,s0,8 # 4008 <.L3353+0xab0>
  30:	8522                	mv	a0,s0
  32:	cf85                	beqz	a5,6a <.L346>
  34:	14c7a483          	lw	s1,332(a5)
  38:	c88d                	beqz	s1,6a <.L346>
  3a:	1547a783          	lw	a5,340(a5)
  3e:	9782                	jalr	a5
  40:	6805                	lui	a6,0x1
  42:	86aa                	mv	a3,a0
  44:	9d980813          	add	a6,a6,-1575 # 9d9 <.L3146+0x5>

00000048 <.L365>:
  48:	000005b7          	lui	a1,0x0
  4c:	000007b7          	lui	a5,0x0
  50:	00000637          	lui	a2,0x0
  54:	00058713          	mv	a4,a1
  58:	450d                	li	a0,3
  5a:	00078793          	mv	a5,a5
  5e:	00060613          	mv	a2,a2
  62:	00058593          	mv	a1,a1
  66:	9482                	jalr	s1
  68:	8522                	mv	a0,s0

0000006a <.L346>:
  6a:	50b2                	lw	ra,44(sp)
  6c:	5422                	lw	s0,40(sp)
  6e:	5492                	lw	s1,36(sp)
  70:	5902                	lw	s2,32(sp)
  72:	49f2                	lw	s3,28(sp)
  74:	4a62                	lw	s4,24(sp)
  76:	4ad2                	lw	s5,20(sp)
  78:	4b42                	lw	s6,16(sp)
  7a:	4bb2                	lw	s7,12(sp)
  7c:	6145                	add	sp,sp,48
  7e:	8082                	ret

00000080 <.L347>:
  80:	842e                	mv	s0,a1
  82:	00258a93          	add	s5,a1,2 # 2 <mesh_nwk_remove_conflict_roots+0x2>
  86:	4481                	li	s1,0
  88:	cd9d                	beqz	a1,c6 <.L363>
  8a:	892a                	mv	s2,a0
  8c:	4b9d                	li	s7,7
  8e:	4b29                	li	s6,10

00000090 <.L351>:
  90:	037489b3          	mul	s3,s1,s7
  94:	99a2                	add	s3,s3,s0
  96:	0019ca03          	lbu	s4,1(s3)
  9a:	002a5793          	srl	a5,s4,0x2
  9e:	8b85                	and	a5,a5,1
  a0:	cfa9                	beqz	a5,fa <.L350>
  a2:	4619                	li	a2,6
  a4:	85ca                	mv	a1,s2
  a6:	8556                	mv	a0,s5
  a8:	00000097          	auipc	ra,0x0
  ac:	000080e7          	jalr	ra # a8 <.L351+0x18>
  b0:	e529                	bnez	a0,fa <.L350>
  b2:	ffba7a13          	and	s4,s4,-5
  b6:	014980a3          	sb	s4,1(s3)
  ba:	00044783          	lbu	a5,0(s0)
  be:	17fd                	add	a5,a5,-1 # ffffffff <.L3353+0xffffcaa7>
  c0:	00f40023          	sb	a5,0(s0)
  c4:	b75d                	j	6a <.L346>

000000c6 <.L363>:
  c6:	000007b7          	lui	a5,0x0
  ca:	0007a703          	lw	a4,0(a5) # 0 <mesh_nwk_remove_conflict_roots>
  ce:	4789                	li	a5,2
  d0:	02e7fb63          	bgeu	a5,a4,106 <.L355>
  d4:	000007b7          	lui	a5,0x0
  d8:	0007a783          	lw	a5,0(a5) # 0 <mesh_nwk_remove_conflict_roots>
  dc:	6411                	lui	s0,0x4
  de:	0421                	add	s0,s0,8 # 4008 <.L3353+0xab0>
  e0:	8522                	mv	a0,s0
  e2:	d7c1                	beqz	a5,6a <.L346>
  e4:	14c7a483          	lw	s1,332(a5)
  e8:	d0c9                	beqz	s1,6a <.L346>
  ea:	1547a783          	lw	a5,340(a5)
  ee:	9782                	jalr	a5
  f0:	6805                	lui	a6,0x1
  f2:	86aa                	mv	a3,a0
  f4:	9da80813          	add	a6,a6,-1574 # 9da <.L3146+0x6>
  f8:	bf81                	j	48 <.L365>

000000fa <.L350>:
  fa:	0485                	add	s1,s1,1
  fc:	0a9d                	add	s5,s5,7 # 7 <mesh_nwk_remove_conflict_roots+0x7>
  fe:	f96499e3          	bne	s1,s6,90 <.L351>
 102:	4501                	li	a0,0
 104:	b79d                	j	6a <.L346>

00000106 <.L355>:
 106:	6511                	lui	a0,0x4
 108:	0521                	add	a0,a0,8 # 4008 <.L3353+0xab0>
 10a:	b785                	j	6a <.L346>

Disassembly of section .text.is_self_mac_greater:

00000000 <is_self_mac_greater>:
   0:	87aa                	mv	a5,a0
   2:	4501                	li	a0,0
   4:	c3a5                	beqz	a5,64 <.L367>
   6:	cdb9                	beqz	a1,64 <.L367>
   8:	0055c683          	lbu	a3,5(a1)
   c:	0057c703          	lbu	a4,5(a5)
  10:	0045c503          	lbu	a0,4(a1)
  14:	0047c603          	lbu	a2,4(a5)
  18:	06a2                	sll	a3,a3,0x8
  1a:	0722                	sll	a4,a4,0x8
  1c:	8ec9                	or	a3,a3,a0
  1e:	8f51                	or	a4,a4,a2
  20:	4505                	li	a0,1
  22:	04e6e163          	bltu	a3,a4,64 <.L367>
  26:	0017c683          	lbu	a3,1(a5)
  2a:	0007c703          	lbu	a4,0(a5)
  2e:	0037c503          	lbu	a0,3(a5)
  32:	06a2                	sll	a3,a3,0x8
  34:	8ed9                	or	a3,a3,a4
  36:	0027c703          	lbu	a4,2(a5)
  3a:	0562                	sll	a0,a0,0x18
  3c:	0015c783          	lbu	a5,1(a1)
  40:	0742                	sll	a4,a4,0x10
  42:	8f55                	or	a4,a4,a3
  44:	8d59                	or	a0,a0,a4
  46:	0005c703          	lbu	a4,0(a1)
  4a:	07a2                	sll	a5,a5,0x8
  4c:	8fd9                	or	a5,a5,a4
  4e:	0025c703          	lbu	a4,2(a1)
  52:	0742                	sll	a4,a4,0x10
  54:	8f5d                	or	a4,a4,a5
  56:	0035c783          	lbu	a5,3(a1)
  5a:	07e2                	sll	a5,a5,0x18
  5c:	8fd9                	or	a5,a5,a4
  5e:	00a7a533          	slt	a0,a5,a0
  62:	8082                	ret

00000064 <.L367>:
  64:	8082                	ret

Disassembly of section .text.mesh_is_yield_root:

00000000 <mesh_is_yield_root>:
   0:	00000737          	lui	a4,0x0
   4:	00a50803          	lb	a6,10(a0)
   8:	00072703          	lw	a4,0(a4) # 0 <mesh_is_yield_root>
   c:	87aa                	mv	a5,a0
   e:	04e84263          	blt	a6,a4,52 <.L373>
  12:	00a58603          	lb	a2,10(a1)
  16:	04e64063          	blt	a2,a4,56 <.L377>
  1a:	00354683          	lbu	a3,3(a0)
  1e:	00254703          	lbu	a4,2(a0)
  22:	0025c503          	lbu	a0,2(a1)
  26:	06a2                	sll	a3,a3,0x8
  28:	8ed9                	or	a3,a3,a4
  2a:	0035c703          	lbu	a4,3(a1)
  2e:	0722                	sll	a4,a4,0x8
  30:	8f49                	or	a4,a4,a0
  32:	02d76263          	bltu	a4,a3,56 <.L377>
  36:	4501                	li	a0,0
  38:	02e69063          	bne	a3,a4,58 <.L372>
  3c:	01064d63          	blt	a2,a6,56 <.L377>
  40:	00c81c63          	bne	a6,a2,58 <.L372>
  44:	0591                	add	a1,a1,4
  46:	00478513          	add	a0,a5,4
  4a:	00000317          	auipc	t1,0x0
  4e:	00030067          	jr	t1 # 4a <mesh_is_yield_root+0x4a>

00000052 <.L373>:
  52:	4501                	li	a0,0
  54:	8082                	ret

00000056 <.L377>:
  56:	4505                	li	a0,1

00000058 <.L372>:
  58:	8082                	ret

Disassembly of section .text.mesh_nwk_add_conflict_roots:

00000000 <mesh_nwk_add_conflict_roots>:
   0:	715d                	add	sp,sp,-80
   2:	c686                	sw	ra,76(sp)
   4:	c4a2                	sw	s0,72(sp)
   6:	c2a6                	sw	s1,68(sp)
   8:	c0ca                	sw	s2,64(sp)
   a:	de4e                	sw	s3,60(sp)
   c:	dc52                	sw	s4,56(sp)
   e:	da56                	sw	s5,52(sp)
  10:	d85a                	sw	s6,48(sp)
  12:	d65e                	sw	s7,44(sp)
  14:	e535                	bnez	a0,80 <.L380>
  16:	000007b7          	lui	a5,0x0
  1a:	0007a703          	lw	a4,0(a5) # 0 <mesh_nwk_add_conflict_roots>
  1e:	4789                	li	a5,2
  20:	1ee7fa63          	bgeu	a5,a4,214 <.L396>
  24:	000007b7          	lui	a5,0x0
  28:	0007a783          	lw	a5,0(a5) # 0 <mesh_nwk_add_conflict_roots>
  2c:	6411                	lui	s0,0x4
  2e:	0421                	add	s0,s0,8 # 4008 <.L3353+0xab0>
  30:	8522                	mv	a0,s0
  32:	cf85                	beqz	a5,6a <.L379>
  34:	14c7a483          	lw	s1,332(a5)
  38:	c88d                	beqz	s1,6a <.L379>
  3a:	1547a783          	lw	a5,340(a5)
  3e:	9782                	jalr	a5
  40:	6805                	lui	a6,0x1
  42:	86aa                	mv	a3,a0
  44:	a2880813          	add	a6,a6,-1496 # a28 <.LC198+0x24>

00000048 <.L411>:
  48:	000005b7          	lui	a1,0x0
  4c:	000007b7          	lui	a5,0x0
  50:	00000637          	lui	a2,0x0
  54:	00058713          	mv	a4,a1
  58:	450d                	li	a0,3
  5a:	00078793          	mv	a5,a5
  5e:	00060613          	mv	a2,a2
  62:	00058593          	mv	a1,a1
  66:	9482                	jalr	s1
  68:	8522                	mv	a0,s0

0000006a <.L379>:
  6a:	40b6                	lw	ra,76(sp)
  6c:	4426                	lw	s0,72(sp)
  6e:	4496                	lw	s1,68(sp)
  70:	4906                	lw	s2,64(sp)
  72:	59f2                	lw	s3,60(sp)
  74:	5a62                	lw	s4,56(sp)
  76:	5ad2                	lw	s5,52(sp)
  78:	5b42                	lw	s6,48(sp)
  7a:	5bb2                	lw	s7,44(sp)
  7c:	6161                	add	sp,sp,80
  7e:	8082                	ret

00000080 <.L380>:
  80:	892e                	mv	s2,a1
  82:	e99d                	bnez	a1,b8 <.L382>
  84:	000007b7          	lui	a5,0x0
  88:	0007a703          	lw	a4,0(a5) # 0 <mesh_nwk_add_conflict_roots>
  8c:	4789                	li	a5,2
  8e:	18e7f363          	bgeu	a5,a4,214 <.L396>
  92:	000007b7          	lui	a5,0x0
  96:	0007a783          	lw	a5,0(a5) # 0 <mesh_nwk_add_conflict_roots>
  9a:	6411                	lui	s0,0x4
  9c:	0421                	add	s0,s0,8 # 4008 <.L3353+0xab0>
  9e:	8522                	mv	a0,s0
  a0:	d7e9                	beqz	a5,6a <.L379>
  a2:	14c7a483          	lw	s1,332(a5)
  a6:	d0f1                	beqz	s1,6a <.L379>
  a8:	1547a783          	lw	a5,340(a5)
  ac:	9782                	jalr	a5
  ae:	6805                	lui	a6,0x1
  b0:	86aa                	mv	a3,a0
  b2:	a2980813          	add	a6,a6,-1495 # a29 <.LC198+0x25>
  b6:	bf49                	j	48 <.L411>

000000b8 <.L382>:
  b8:	8432                	mv	s0,a2
  ba:	ea1d                	bnez	a2,f0 <.L383>
  bc:	000007b7          	lui	a5,0x0
  c0:	0007a703          	lw	a4,0(a5) # 0 <mesh_nwk_add_conflict_roots>
  c4:	4789                	li	a5,2
  c6:	14e7f763          	bgeu	a5,a4,214 <.L396>
  ca:	000007b7          	lui	a5,0x0
  ce:	0007a783          	lw	a5,0(a5) # 0 <mesh_nwk_add_conflict_roots>
  d2:	6411                	lui	s0,0x4
  d4:	0421                	add	s0,s0,8 # 4008 <.L3353+0xab0>
  d6:	8522                	mv	a0,s0
  d8:	dbc9                	beqz	a5,6a <.L379>
  da:	14c7a483          	lw	s1,332(a5)
  de:	d4d1                	beqz	s1,6a <.L379>
  e0:	1547a783          	lw	a5,340(a5)
  e4:	9782                	jalr	a5
  e6:	6805                	lui	a6,0x1
  e8:	86aa                	mv	a3,a0
  ea:	a2a80813          	add	a6,a6,-1494 # a2a <.LC198+0x26>
  ee:	bfa9                	j	48 <.L411>

000000f0 <.L383>:
  f0:	00810b13          	add	s6,sp,8
  f4:	84aa                	mv	s1,a0
  f6:	4661                	li	a2,24
  f8:	4581                	li	a1,0
  fa:	855a                	mv	a0,s6
  fc:	00000097          	auipc	ra,0x0
 100:	000080e7          	jalr	ra # fc <.L383+0xc>
 104:	85ca                	mv	a1,s2
 106:	8526                	mv	a0,s1
 108:	00000097          	auipc	ra,0x0
 10c:	000080e7          	jalr	ra # 108 <.L383+0x18>
 110:	89aa                	mv	s3,a0
 112:	c12d                	beqz	a0,174 <.L384>
 114:	00015783          	lhu	a5,0(sp)
 118:	4631                	li	a2,12
 11a:	85ca                	mv	a1,s2
 11c:	8b85                	and	a5,a5,1
 11e:	2027e793          	or	a5,a5,514
 122:	00f11023          	sh	a5,0(sp)
 126:	000007b7          	lui	a5,0x0
 12a:	0007da03          	lhu	s4,0(a5) # 0 <mesh_nwk_add_conflict_roots>
 12e:	855a                	mv	a0,s6
 130:	1a7d                	add	s4,s4,-1 # ffffffff <.L3353+0xffffcaa7>
 132:	010a1a93          	sll	s5,s4,0x10
 136:	010ada93          	srl	s5,s5,0x10
 13a:	0ffa7a13          	zext.b	s4,s4
 13e:	008ada93          	srl	s5,s5,0x8
 142:	01490023          	sb	s4,0(s2) # 0 <mesh_nwk_add_conflict_roots>
 146:	015900a3          	sb	s5,1(s2)
 14a:	00000097          	auipc	ra,0x0
 14e:	000080e7          	jalr	ra # 14a <.L383+0x5a>
 152:	4631                	li	a2,12
 154:	01448023          	sb	s4,0(s1)
 158:	015480a3          	sb	s5,1(s1)
 15c:	85a6                	mv	a1,s1
 15e:	0848                	add	a0,sp,20
 160:	00000097          	auipc	ra,0x0
 164:	000080e7          	jalr	ra # 160 <.L383+0x70>
 168:	850a                	mv	a0,sp
 16a:	c25a                	sw	s6,4(sp)
 16c:	00000097          	auipc	ra,0x0
 170:	000080e7          	jalr	ra # 16c <.L383+0x7c>

00000174 <.L384>:
 174:	00240a13          	add	s4,s0,2
 178:	4481                	li	s1,0
 17a:	4b1d                	li	s6,7
 17c:	00490b93          	add	s7,s2,4
 180:	4aa9                	li	s5,10

00000182 <.L387>:
 182:	036487b3          	mul	a5,s1,s6
 186:	97a2                	add	a5,a5,s0
 188:	0017c783          	lbu	a5,1(a5)
 18c:	8389                	srl	a5,a5,0x2
 18e:	8b85                	and	a5,a5,1
 190:	cb89                	beqz	a5,1a2 <.L385>
 192:	4619                	li	a2,6
 194:	85de                	mv	a1,s7
 196:	8552                	mv	a0,s4
 198:	00000097          	auipc	ra,0x0
 19c:	000080e7          	jalr	ra # 198 <.L387+0x16>
 1a0:	c531                	beqz	a0,1ec <.L386>

000001a2 <.L385>:
 1a2:	0485                	add	s1,s1,1
 1a4:	0a1d                	add	s4,s4,7
 1a6:	fd549ee3          	bne	s1,s5,182 <.L387>
 1aa:	4481                	li	s1,0
 1ac:	469d                	li	a3,7
 1ae:	4729                	li	a4,10

000001b0 <.L389>:
 1b0:	02d48533          	mul	a0,s1,a3
 1b4:	00a40a33          	add	s4,s0,a0
 1b8:	001a4783          	lbu	a5,1(s4)
 1bc:	8389                	srl	a5,a5,0x2
 1be:	8b85                	and	a5,a5,1
 1c0:	e7b1                	bnez	a5,20c <.L388>
 1c2:	0509                	add	a0,a0,2
 1c4:	4619                	li	a2,6
 1c6:	00490593          	add	a1,s2,4
 1ca:	9522                	add	a0,a0,s0
 1cc:	00000097          	auipc	ra,0x0
 1d0:	000080e7          	jalr	ra # 1cc <.L389+0x1c>
 1d4:	001a4783          	lbu	a5,1(s4)
 1d8:	9be1                	and	a5,a5,-8
 1da:	0047e793          	or	a5,a5,4
 1de:	00fa00a3          	sb	a5,1(s4)
 1e2:	00044783          	lbu	a5,0(s0)
 1e6:	0785                	add	a5,a5,1
 1e8:	00f40023          	sb	a5,0(s0)

000001ec <.L386>:
 1ec:	479d                	li	a5,7
 1ee:	02f484b3          	mul	s1,s1,a5
 1f2:	0019f993          	and	s3,s3,1
 1f6:	0986                	sll	s3,s3,0x1
 1f8:	4501                	li	a0,0
 1fa:	9426                	add	s0,s0,s1
 1fc:	00144783          	lbu	a5,1(s0)
 200:	9bf5                	and	a5,a5,-3
 202:	0137e7b3          	or	a5,a5,s3
 206:	00f400a3          	sb	a5,1(s0)
 20a:	b585                	j	6a <.L379>

0000020c <.L388>:
 20c:	0485                	add	s1,s1,1
 20e:	fae491e3          	bne	s1,a4,1b0 <.L389>
 212:	bfe9                	j	1ec <.L386>

00000214 <.L396>:
 214:	6511                	lui	a0,0x4
 216:	0521                	add	a0,a0,8 # 4008 <.L3353+0xab0>
 218:	bd89                	j	6a <.L379>

Disassembly of section .text.mesh_nwk_process_yield_roots_announce:

00000000 <mesh_nwk_process_yield_roots_announce>:
   0:	711d                	add	sp,sp,-96
   2:	ce86                	sw	ra,92(sp)
   4:	cca2                	sw	s0,88(sp)
   6:	caa6                	sw	s1,84(sp)
   8:	c8ca                	sw	s2,80(sp)
   a:	c6ce                	sw	s3,76(sp)
   c:	c4d2                	sw	s4,72(sp)
   e:	c2d6                	sw	s5,68(sp)
  10:	c0da                	sw	s6,64(sp)
  12:	de5e                	sw	s7,60(sp)
  14:	dc62                	sw	s8,56(sp)
  16:	da66                	sw	s9,52(sp)
  18:	d86a                	sw	s10,48(sp)
  1a:	d66e                	sw	s11,44(sp)
  1c:	e93d                	bnez	a0,92 <.L413>
  1e:	000007b7          	lui	a5,0x0
  22:	0007a703          	lw	a4,0(a5) # 0 <mesh_nwk_process_yield_roots_announce>
  26:	4789                	li	a5,2
  28:	1ee7f263          	bgeu	a5,a4,20c <.L436>
  2c:	000007b7          	lui	a5,0x0
  30:	0007a783          	lw	a5,0(a5) # 0 <mesh_nwk_process_yield_roots_announce>
  34:	6491                	lui	s1,0x4
  36:	04a1                	add	s1,s1,8 # 4008 <.L3353+0xab0>
  38:	8426                	mv	s0,s1
  3a:	cf85                	beqz	a5,72 <.L412>
  3c:	14c7a903          	lw	s2,332(a5)
  40:	02090963          	beqz	s2,72 <.L412>
  44:	1547a783          	lw	a5,340(a5)
  48:	9782                	jalr	a5
  4a:	6805                	lui	a6,0x1
  4c:	86aa                	mv	a3,a0
  4e:	a9c80813          	add	a6,a6,-1380 # a9c <.L3149+0x30>

00000052 <.L451>:
  52:	000005b7          	lui	a1,0x0
  56:	000007b7          	lui	a5,0x0
  5a:	00000637          	lui	a2,0x0
  5e:	00058713          	mv	a4,a1
  62:	00078793          	mv	a5,a5
  66:	00060613          	mv	a2,a2
  6a:	00058593          	mv	a1,a1
  6e:	450d                	li	a0,3
  70:	9902                	jalr	s2

00000072 <.L412>:
  72:	40f6                	lw	ra,92(sp)
  74:	8522                	mv	a0,s0
  76:	4466                	lw	s0,88(sp)
  78:	44d6                	lw	s1,84(sp)
  7a:	4946                	lw	s2,80(sp)
  7c:	49b6                	lw	s3,76(sp)
  7e:	4a26                	lw	s4,72(sp)
  80:	4a96                	lw	s5,68(sp)
  82:	4b06                	lw	s6,64(sp)
  84:	5bf2                	lw	s7,60(sp)
  86:	5c62                	lw	s8,56(sp)
  88:	5cd2                	lw	s9,52(sp)
  8a:	5d42                	lw	s10,48(sp)
  8c:	5db2                	lw	s11,44(sp)
  8e:	6125                	add	sp,sp,96
  90:	8082                	ret

00000092 <.L413>:
  92:	ed85                	bnez	a1,ca <.L415>
  94:	000007b7          	lui	a5,0x0
  98:	0007a703          	lw	a4,0(a5) # 0 <mesh_nwk_process_yield_roots_announce>
  9c:	4789                	li	a5,2
  9e:	16e7f763          	bgeu	a5,a4,20c <.L436>
  a2:	000007b7          	lui	a5,0x0
  a6:	0007a783          	lw	a5,0(a5) # 0 <mesh_nwk_process_yield_roots_announce>
  aa:	6491                	lui	s1,0x4
  ac:	04a1                	add	s1,s1,8 # 4008 <.L3353+0xab0>
  ae:	8426                	mv	s0,s1
  b0:	d3e9                	beqz	a5,72 <.L412>
  b2:	14c7a903          	lw	s2,332(a5)
  b6:	fa090ee3          	beqz	s2,72 <.L412>
  ba:	1547a783          	lw	a5,340(a5)
  be:	9782                	jalr	a5
  c0:	6805                	lui	a6,0x1
  c2:	86aa                	mv	a3,a0
  c4:	a9d80813          	add	a6,a6,-1379 # a9d <.L3149+0x31>
  c8:	b769                	j	52 <.L451>

000000ca <.L415>:
  ca:	8932                	mv	s2,a2
  cc:	ee05                	bnez	a2,104 <.L416>
  ce:	000007b7          	lui	a5,0x0
  d2:	0007a703          	lw	a4,0(a5) # 0 <mesh_nwk_process_yield_roots_announce>
  d6:	4789                	li	a5,2
  d8:	12e7fa63          	bgeu	a5,a4,20c <.L436>
  dc:	000007b7          	lui	a5,0x0
  e0:	0007a783          	lw	a5,0(a5) # 0 <mesh_nwk_process_yield_roots_announce>
  e4:	6491                	lui	s1,0x4
  e6:	04a1                	add	s1,s1,8 # 4008 <.L3353+0xab0>
  e8:	8426                	mv	s0,s1
  ea:	d7c1                	beqz	a5,72 <.L412>
  ec:	14c7a903          	lw	s2,332(a5)
  f0:	f80901e3          	beqz	s2,72 <.L412>
  f4:	1547a783          	lw	a5,340(a5)
  f8:	9782                	jalr	a5
  fa:	6805                	lui	a6,0x1
  fc:	86aa                	mv	a3,a0
  fe:	a9e80813          	add	a6,a6,-1378 # a9e <.L3149+0x32>
 102:	bf81                	j	52 <.L451>

00000104 <.L416>:
 104:	000007b7          	lui	a5,0x0
 108:	0007ab83          	lw	s7,0(a5) # 0 <mesh_nwk_process_yield_roots_announce>
 10c:	8a2a                	mv	s4,a0
 10e:	060b9a63          	bnez	s7,182 <.L417>
 112:	0145c983          	lbu	s3,20(a1) # 14 <mesh_nwk_process_yield_roots_announce+0x14>
 116:	01558493          	add	s1,a1,21

0000011a <.L418>:
 11a:	002a0d93          	add	s11,s4,2
 11e:	4a81                	li	s5,0
 120:	4c1d                	li	s8,7
 122:	4c99                	li	s9,6
 124:	00000d37          	lui	s10,0x0

00000128 <.L429>:
 128:	038a87b3          	mul	a5,s5,s8
 12c:	97d2                	add	a5,a5,s4
 12e:	0017c783          	lbu	a5,1(a5)
 132:	0027d693          	srl	a3,a5,0x2
 136:	8a85                	and	a3,a3,1
 138:	ce95                	beqz	a3,174 <.L427>
 13a:	8b85                	and	a5,a5,1
 13c:	ef85                	bnez	a5,174 <.L427>
 13e:	4619                	li	a2,6
 140:	85ee                	mv	a1,s11
 142:	0828                	add	a0,sp,24
 144:	00000097          	auipc	ra,0x0
 148:	000080e7          	jalr	ra # 144 <.L429+0x1c>
 14c:	4619                	li	a2,6
 14e:	000d0593          	mv	a1,s10
 152:	0828                	add	a0,sp,24
 154:	00000097          	auipc	ra,0x0
 158:	000080e7          	jalr	ra # 154 <.L429+0x2c>
 15c:	cd01                	beqz	a0,174 <.L427>
 15e:	01d14683          	lbu	a3,29(sp)
 162:	4b01                	li	s6,0
 164:	fff68793          	add	a5,a3,-1
 168:	00f10ea3          	sb	a5,29(sp)

0000016c <.L420>:
 16c:	033b4563          	blt	s6,s3,196 <.L426>

00000170 <.L422>:
 170:	00d10ea3          	sb	a3,29(sp)

00000174 <.L427>:
 174:	0a85                	add	s5,s5,1
 176:	47a9                	li	a5,10
 178:	0d9d                	add	s11,s11,7
 17a:	fafa97e3          	bne	s5,a5,128 <.L429>
 17e:	4401                	li	s0,0
 180:	bdcd                	j	72 <.L412>

00000182 <.L417>:
 182:	0155c983          	lbu	s3,21(a1)
 186:	0145c783          	lbu	a5,20(a1)
 18a:	01658493          	add	s1,a1,22
 18e:	09a2                	sll	s3,s3,0x8
 190:	00f9e9b3          	or	s3,s3,a5
 194:	b759                	j	11a <.L418>

00000196 <.L426>:
 196:	000b8463          	beqz	s7,19e <.L421>
 19a:	fc0b1be3          	bnez	s6,170 <.L422>

0000019e <.L421>:
 19e:	039b05b3          	mul	a1,s6,s9
 1a2:	4619                	li	a2,6
 1a4:	0828                	add	a0,sp,24
 1a6:	c636                	sw	a3,12(sp)
 1a8:	95a6                	add	a1,a1,s1
 1aa:	00000097          	auipc	ra,0x0
 1ae:	000080e7          	jalr	ra # 1aa <.L421+0xc>
 1b2:	46b2                	lw	a3,12(sp)
 1b4:	842a                	mv	s0,a0
 1b6:	e51d                	bnez	a0,1e4 <.L423>
 1b8:	479d                	li	a5,7
 1ba:	02fa87b3          	mul	a5,s5,a5
 1be:	00d10ea3          	sb	a3,29(sp)
 1c2:	97d2                	add	a5,a5,s4
 1c4:	0017c603          	lbu	a2,1(a5)
 1c8:	00166613          	or	a2,a2,1
 1cc:	00c780a3          	sb	a2,1(a5)
 1d0:	47e9                	li	a5,26
 1d2:	00f92023          	sw	a5,0(s2)
 1d6:	000b8963          	beqz	s7,1e8 <.L424>
 1da:	000007b7          	lui	a5,0x0
 1de:	0027d783          	lhu	a5,2(a5) # 2 <mesh_nwk_process_yield_roots_announce+0x2>
 1e2:	a039                	j	1f0 <.L428>

000001e4 <.L423>:
 1e4:	0b05                	add	s6,s6,1
 1e6:	b759                	j	16c <.L420>

000001e8 <.L424>:
 1e8:	000007b7          	lui	a5,0x0
 1ec:	00f7c783          	lbu	a5,15(a5) # f <mesh_nwk_process_yield_roots_announce+0xf>

000001f0 <.L428>:
 1f0:	00f91223          	sh	a5,4(s2)
 1f4:	4619                	li	a2,6
 1f6:	082c                	add	a1,sp,24
 1f8:	00790513          	add	a0,s2,7
 1fc:	00000097          	auipc	ra,0x0
 200:	000080e7          	jalr	ra # 1fc <.L428+0xc>
 204:	4789                	li	a5,2
 206:	00f90323          	sb	a5,6(s2)
 20a:	b5a5                	j	72 <.L412>

0000020c <.L436>:
 20c:	6411                	lui	s0,0x4
 20e:	0421                	add	s0,s0,8 # 4008 <.L3353+0xab0>
 210:	b58d                	j	72 <.L412>

Disassembly of section .text.mesh_nwk_process_yield_roots_monitor:

00000000 <mesh_nwk_process_yield_roots_monitor>:
   0:	7139                	add	sp,sp,-64
   2:	de06                	sw	ra,60(sp)
   4:	dc22                	sw	s0,56(sp)
   6:	da26                	sw	s1,52(sp)
   8:	d84a                	sw	s2,48(sp)
   a:	d64e                	sw	s3,44(sp)
   c:	d452                	sw	s4,40(sp)
   e:	d256                	sw	s5,36(sp)
  10:	d05a                	sw	s6,32(sp)
  12:	ce5e                	sw	s7,28(sp)
  14:	cc62                	sw	s8,24(sp)
  16:	e53d                	bnez	a0,84 <.L453>
  18:	000007b7          	lui	a5,0x0
  1c:	0007a703          	lw	a4,0(a5) # 0 <mesh_nwk_process_yield_roots_monitor>
  20:	4789                	li	a5,2
  22:	18e7fe63          	bgeu	a5,a4,1be <.L471>
  26:	000007b7          	lui	a5,0x0
  2a:	0007a783          	lw	a5,0(a5) # 0 <mesh_nwk_process_yield_roots_monitor>
  2e:	6411                	lui	s0,0x4
  30:	0421                	add	s0,s0,8 # 4008 <.L3353+0xab0>
  32:	8522                	mv	a0,s0
  34:	cf85                	beqz	a5,6c <.L452>
  36:	14c7a483          	lw	s1,332(a5)
  3a:	c88d                	beqz	s1,6c <.L452>
  3c:	1547a783          	lw	a5,340(a5)
  40:	9782                	jalr	a5
  42:	6805                	lui	a6,0x1
  44:	86aa                	mv	a3,a0
  46:	ae980813          	add	a6,a6,-1303 # ae9 <.L3153+0x5>

0000004a <.L486>:
  4a:	000005b7          	lui	a1,0x0
  4e:	000007b7          	lui	a5,0x0
  52:	00000637          	lui	a2,0x0
  56:	00058713          	mv	a4,a1
  5a:	450d                	li	a0,3
  5c:	00078793          	mv	a5,a5
  60:	00060613          	mv	a2,a2
  64:	00058593          	mv	a1,a1
  68:	9482                	jalr	s1
  6a:	8522                	mv	a0,s0

0000006c <.L452>:
  6c:	50f2                	lw	ra,60(sp)
  6e:	5462                	lw	s0,56(sp)
  70:	54d2                	lw	s1,52(sp)
  72:	5942                	lw	s2,48(sp)
  74:	59b2                	lw	s3,44(sp)
  76:	5a22                	lw	s4,40(sp)
  78:	5a92                	lw	s5,36(sp)
  7a:	5b02                	lw	s6,32(sp)
  7c:	4bf2                	lw	s7,28(sp)
  7e:	4c62                	lw	s8,24(sp)
  80:	6121                	add	sp,sp,64
  82:	8082                	ret

00000084 <.L453>:
  84:	89ae                	mv	s3,a1
  86:	e99d                	bnez	a1,bc <.L455>
  88:	000007b7          	lui	a5,0x0
  8c:	0007a703          	lw	a4,0(a5) # 0 <mesh_nwk_process_yield_roots_monitor>
  90:	4789                	li	a5,2
  92:	12e7f663          	bgeu	a5,a4,1be <.L471>
  96:	000007b7          	lui	a5,0x0
  9a:	0007a783          	lw	a5,0(a5) # 0 <mesh_nwk_process_yield_roots_monitor>
  9e:	6411                	lui	s0,0x4
  a0:	0421                	add	s0,s0,8 # 4008 <.L3353+0xab0>
  a2:	8522                	mv	a0,s0
  a4:	d7e1                	beqz	a5,6c <.L452>
  a6:	14c7a483          	lw	s1,332(a5)
  aa:	d0e9                	beqz	s1,6c <.L452>
  ac:	1547a783          	lw	a5,340(a5)
  b0:	9782                	jalr	a5
  b2:	6805                	lui	a6,0x1
  b4:	86aa                	mv	a3,a0
  b6:	aea80813          	add	a6,a6,-1302 # aea <.L3153+0x6>
  ba:	bf41                	j	4a <.L486>

000000bc <.L455>:
  bc:	842a                	mv	s0,a0
  be:	8936                	mv	s2,a3
  c0:	00250b13          	add	s6,a0,2
  c4:	4481                	li	s1,0
  c6:	cead                	beqz	a3,140 <.L482>
  c8:	8a32                	mv	s4,a2
  ca:	4c1d                	li	s8,7
  cc:	4ba9                	li	s7,10

000000ce <.L464>:
  ce:	038487b3          	mul	a5,s1,s8
  d2:	97a2                	add	a5,a5,s0
  d4:	0017c783          	lbu	a5,1(a5)
  d8:	0027d713          	srl	a4,a5,0x2
  dc:	8b05                	and	a4,a4,1
  de:	cf59                	beqz	a4,17c <.L457>
  e0:	8b85                	and	a5,a5,1
  e2:	efc9                	bnez	a5,17c <.L457>
  e4:	4619                	li	a2,6
  e6:	85da                	mv	a1,s6
  e8:	0028                	add	a0,sp,8
  ea:	00000097          	auipc	ra,0x0
  ee:	000080e7          	jalr	ra # ea <.L464+0x1c>
  f2:	00d14a83          	lbu	s5,13(sp)
  f6:	4619                	li	a2,6
  f8:	85ce                	mv	a1,s3
  fa:	fffa8793          	add	a5,s5,-1
  fe:	0028                	add	a0,sp,8
 100:	00f106a3          	sb	a5,13(sp)
 104:	00000097          	auipc	ra,0x0
 108:	000080e7          	jalr	ra # 104 <.L464+0x36>
 10c:	e525                	bnez	a0,174 <.L458>

0000010e <.L462>:
 10e:	479d                	li	a5,7
 110:	02f484b3          	mul	s1,s1,a5
 114:	015106a3          	sb	s5,13(sp)
 118:	9426                	add	s0,s0,s1
 11a:	00144783          	lbu	a5,1(s0)
 11e:	0017e793          	or	a5,a5,1
 122:	00f400a3          	sb	a5,1(s0)
 126:	47e9                	li	a5,26
 128:	00f92023          	sw	a5,0(s2)
 12c:	000007b7          	lui	a5,0x0
 130:	0007a783          	lw	a5,0(a5) # 0 <mesh_nwk_process_yield_roots_monitor>
 134:	c3b5                	beqz	a5,198 <.L459>
 136:	000007b7          	lui	a5,0x0
 13a:	0027d783          	lhu	a5,2(a5) # 2 <mesh_nwk_process_yield_roots_monitor+0x2>
 13e:	a08d                	j	1a0 <.L463>

00000140 <.L482>:
 140:	000007b7          	lui	a5,0x0
 144:	0007a703          	lw	a4,0(a5) # 0 <mesh_nwk_process_yield_roots_monitor>
 148:	4789                	li	a5,2
 14a:	06e7fa63          	bgeu	a5,a4,1be <.L471>
 14e:	000007b7          	lui	a5,0x0
 152:	0007a783          	lw	a5,0(a5) # 0 <mesh_nwk_process_yield_roots_monitor>
 156:	6411                	lui	s0,0x4
 158:	0421                	add	s0,s0,8 # 4008 <.L3353+0xab0>
 15a:	8522                	mv	a0,s0
 15c:	db81                	beqz	a5,6c <.L452>
 15e:	14c7a483          	lw	s1,332(a5)
 162:	d489                	beqz	s1,6c <.L452>
 164:	1547a783          	lw	a5,340(a5)
 168:	9782                	jalr	a5
 16a:	6805                	lui	a6,0x1
 16c:	86aa                	mv	a3,a0
 16e:	aeb80813          	add	a6,a6,-1301 # aeb <.L3153+0x7>
 172:	bde1                	j	4a <.L486>

00000174 <.L458>:
 174:	000a1963          	bnez	s4,186 <.L461>

00000178 <.L485>:
 178:	015106a3          	sb	s5,13(sp)

0000017c <.L457>:
 17c:	0485                	add	s1,s1,1
 17e:	0b1d                	add	s6,s6,7
 180:	f57497e3          	bne	s1,s7,ce <.L464>
 184:	a81d                	j	1ba <.L487>

00000186 <.L461>:
 186:	4619                	li	a2,6
 188:	85d2                	mv	a1,s4
 18a:	0028                	add	a0,sp,8
 18c:	00000097          	auipc	ra,0x0
 190:	000080e7          	jalr	ra # 18c <.L461+0x6>
 194:	dd2d                	beqz	a0,10e <.L462>
 196:	b7cd                	j	178 <.L485>

00000198 <.L459>:
 198:	000007b7          	lui	a5,0x0
 19c:	00f7c783          	lbu	a5,15(a5) # f <mesh_nwk_process_yield_roots_monitor+0xf>

000001a0 <.L463>:
 1a0:	00f91223          	sh	a5,4(s2)
 1a4:	4619                	li	a2,6
 1a6:	002c                	add	a1,sp,8
 1a8:	00790513          	add	a0,s2,7
 1ac:	00000097          	auipc	ra,0x0
 1b0:	000080e7          	jalr	ra # 1ac <.L463+0xc>
 1b4:	478d                	li	a5,3
 1b6:	00f90323          	sb	a5,6(s2)

000001ba <.L487>:
 1ba:	4501                	li	a0,0
 1bc:	bd45                	j	6c <.L452>

000001be <.L471>:
 1be:	6511                	lui	a0,0x4
 1c0:	0521                	add	a0,a0,8 # 4008 <.L3353+0xab0>
 1c2:	b56d                	j	6c <.L452>

Disassembly of section .text.mesh_nwk_delete_timers:

00000000 <mesh_nwk_delete_timers>:
   0:	1141                	add	sp,sp,-16
   2:	c422                	sw	s0,8(sp)
   4:	000007b7          	lui	a5,0x0
   8:	00000437          	lui	s0,0x0
   c:	0007a023          	sw	zero,0(a5) # 0 <mesh_nwk_delete_timers>
  10:	00042783          	lw	a5,0(s0) # 0 <mesh_nwk_delete_timers>
  14:	c226                	sw	s1,4(sp)
  16:	000004b7          	lui	s1,0x0
  1a:	0e47a783          	lw	a5,228(a5)
  1e:	c606                	sw	ra,12(sp)
  20:	00048513          	mv	a0,s1
  24:	9782                	jalr	a5
  26:	00042783          	lw	a5,0(s0)
  2a:	00048513          	mv	a0,s1
  2e:	000004b7          	lui	s1,0x0
  32:	0e87a783          	lw	a5,232(a5)
  36:	9782                	jalr	a5
  38:	00042783          	lw	a5,0(s0)
  3c:	00048513          	mv	a0,s1
  40:	0e47a783          	lw	a5,228(a5)
  44:	9782                	jalr	a5
  46:	00042783          	lw	a5,0(s0)
  4a:	00048513          	mv	a0,s1
  4e:	000004b7          	lui	s1,0x0
  52:	0e87a783          	lw	a5,232(a5)
  56:	9782                	jalr	a5
  58:	00042783          	lw	a5,0(s0)
  5c:	00048513          	mv	a0,s1
  60:	0e47a783          	lw	a5,228(a5)
  64:	9782                	jalr	a5
  66:	00042783          	lw	a5,0(s0)
  6a:	00048513          	mv	a0,s1
  6e:	000004b7          	lui	s1,0x0
  72:	0e87a783          	lw	a5,232(a5)
  76:	9782                	jalr	a5
  78:	00042783          	lw	a5,0(s0)
  7c:	00048513          	mv	a0,s1
  80:	0e47a783          	lw	a5,228(a5)
  84:	9782                	jalr	a5
  86:	00042783          	lw	a5,0(s0)
  8a:	00048513          	mv	a0,s1
  8e:	000004b7          	lui	s1,0x0
  92:	0e87a783          	lw	a5,232(a5)
  96:	9782                	jalr	a5
  98:	00042783          	lw	a5,0(s0)
  9c:	00048513          	mv	a0,s1
  a0:	0e47a783          	lw	a5,228(a5)
  a4:	9782                	jalr	a5
  a6:	00042783          	lw	a5,0(s0)
  aa:	00048513          	mv	a0,s1
  ae:	000004b7          	lui	s1,0x0
  b2:	0e87a783          	lw	a5,232(a5)
  b6:	9782                	jalr	a5
  b8:	00042783          	lw	a5,0(s0)
  bc:	00048513          	mv	a0,s1
  c0:	0e47a783          	lw	a5,228(a5)
  c4:	9782                	jalr	a5
  c6:	00042783          	lw	a5,0(s0)
  ca:	4422                	lw	s0,8(sp)
  cc:	40b2                	lw	ra,12(sp)
  ce:	0e87a783          	lw	a5,232(a5)
  d2:	00048513          	mv	a0,s1
  d6:	4492                	lw	s1,4(sp)
  d8:	0141                	add	sp,sp,16
  da:	8782                	jr	a5

Disassembly of section .text.mesh_send_roots_gone:

00000000 <mesh_send_roots_gone>:
   0:	1101                	add	sp,sp,-32
   2:	ce06                	sw	ra,28(sp)
   4:	cc22                	sw	s0,24(sp)
   6:	ca26                	sw	s1,20(sp)
   8:	e125                	bnez	a0,68 <.L491>
   a:	000007b7          	lui	a5,0x0
   e:	0007a703          	lw	a4,0(a5) # 0 <mesh_send_roots_gone>
  12:	4789                	li	a5,2
  14:	06e7f563          	bgeu	a5,a4,7e <.L493>
  18:	000007b7          	lui	a5,0x0
  1c:	0007a783          	lw	a5,0(a5) # 0 <mesh_send_roots_gone>
  20:	6411                	lui	s0,0x4
  22:	0421                	add	s0,s0,8 # 4008 <.L3353+0xab0>
  24:	8522                	mv	a0,s0
  26:	cf85                	beqz	a5,5e <.L490>
  28:	14c7a483          	lw	s1,332(a5)
  2c:	c88d                	beqz	s1,5e <.L490>
  2e:	1547a783          	lw	a5,340(a5)
  32:	9782                	jalr	a5
  34:	000005b7          	lui	a1,0x0
  38:	6805                	lui	a6,0x1
  3a:	000007b7          	lui	a5,0x0
  3e:	00000637          	lui	a2,0x0
  42:	86aa                	mv	a3,a0
  44:	00058713          	mv	a4,a1
  48:	450d                	li	a0,3
  4a:	b3580813          	add	a6,a6,-1227 # b35 <.LC201+0x1>
  4e:	00078793          	mv	a5,a5
  52:	00060613          	mv	a2,a2
  56:	00058593          	mv	a1,a1
  5a:	9482                	jalr	s1
  5c:	8522                	mv	a0,s0

0000005e <.L490>:
  5e:	40f2                	lw	ra,28(sp)
  60:	4462                	lw	s0,24(sp)
  62:	44d2                	lw	s1,20(sp)
  64:	6105                	add	sp,sp,32
  66:	8082                	ret

00000068 <.L491>:
  68:	10600793          	li	a5,262
  6c:	c62a                	sw	a0,12(sp)
  6e:	0028                	add	a0,sp,8
  70:	c43e                	sw	a5,8(sp)
  72:	00000097          	auipc	ra,0x0
  76:	000080e7          	jalr	ra # 72 <.L491+0xa>
  7a:	4501                	li	a0,0
  7c:	b7cd                	j	5e <.L490>

0000007e <.L493>:
  7e:	6511                	lui	a0,0x4
  80:	0521                	add	a0,a0,8 # 4008 <.L3353+0xab0>
  82:	bff1                	j	5e <.L490>

Disassembly of section .text.mesh_send_roots_fixed:

00000000 <mesh_send_roots_fixed>:
   0:	7179                	add	sp,sp,-48
   2:	d606                	sw	ra,44(sp)
   4:	d422                	sw	s0,40(sp)
   6:	d226                	sw	s1,36(sp)
   8:	e125                	bnez	a0,68 <.L498>
   a:	000007b7          	lui	a5,0x0
   e:	0007a703          	lw	a4,0(a5) # 0 <mesh_send_roots_fixed>
  12:	4789                	li	a5,2
  14:	0ae7fc63          	bgeu	a5,a4,cc <.L501>
  18:	000007b7          	lui	a5,0x0
  1c:	0007a783          	lw	a5,0(a5) # 0 <mesh_send_roots_fixed>
  20:	6411                	lui	s0,0x4
  22:	0421                	add	s0,s0,8 # 4008 <.L3353+0xab0>
  24:	8522                	mv	a0,s0
  26:	cf85                	beqz	a5,5e <.L497>
  28:	14c7a483          	lw	s1,332(a5)
  2c:	c88d                	beqz	s1,5e <.L497>
  2e:	1547a783          	lw	a5,340(a5)
  32:	9782                	jalr	a5
  34:	000005b7          	lui	a1,0x0
  38:	6805                	lui	a6,0x1
  3a:	000007b7          	lui	a5,0x0
  3e:	00000637          	lui	a2,0x0
  42:	86aa                	mv	a3,a0
  44:	00058713          	mv	a4,a1
  48:	450d                	li	a0,3
  4a:	b4180813          	add	a6,a6,-1215 # b41 <.L3368+0x7>
  4e:	00078793          	mv	a5,a5
  52:	00060613          	mv	a2,a2
  56:	00058593          	mv	a1,a1
  5a:	9482                	jalr	s1
  5c:	8522                	mv	a0,s0

0000005e <.L497>:
  5e:	50b2                	lw	ra,44(sp)
  60:	5422                	lw	s0,40(sp)
  62:	5492                	lw	s1,36(sp)
  64:	6145                	add	sp,sp,48
  66:	8082                	ret

00000068 <.L498>:
  68:	000007b7          	lui	a5,0x0
  6c:	0007d783          	lhu	a5,0(a5) # 0 <mesh_send_roots_fixed>
  70:	ca02                	sw	zero,20(sp)
  72:	ce02                	sw	zero,28(sp)
  74:	17fd                	add	a5,a5,-1
  76:	00f11a23          	sh	a5,20(sp)
  7a:	f8800793          	li	a5,-120
  7e:	85aa                	mv	a1,a0
  80:	842a                	mv	s0,a0
  82:	00f10f23          	sb	a5,30(sp)
  86:	4619                	li	a2,6
  88:	10400793          	li	a5,260
  8c:	0828                	add	a0,sp,24
  8e:	cc02                	sw	zero,24(sp)
  90:	c63e                	sw	a5,12(sp)
  92:	00000097          	auipc	ra,0x0
  96:	000080e7          	jalr	ra # 92 <.L498+0x2a>
  9a:	000005b7          	lui	a1,0x0
  9e:	4619                	li	a2,6
  a0:	00058593          	mv	a1,a1
  a4:	8522                	mv	a0,s0
  a6:	00000097          	auipc	ra,0x0
  aa:	000080e7          	jalr	ra # a6 <.L498+0x3e>
  ae:	e511                	bnez	a0,ba <.L500>
  b0:	77e1                	lui	a5,0xffff8
  b2:	fff7c793          	not	a5,a5
  b6:	00f11b23          	sh	a5,22(sp)

000000ba <.L500>:
  ba:	085c                	add	a5,sp,20
  bc:	0068                	add	a0,sp,12
  be:	c83e                	sw	a5,16(sp)
  c0:	00000097          	auipc	ra,0x0
  c4:	000080e7          	jalr	ra # c0 <.L500+0x6>
  c8:	4501                	li	a0,0
  ca:	bf51                	j	5e <.L497>

000000cc <.L501>:
  cc:	6511                	lui	a0,0x4
  ce:	0521                	add	a0,a0,8 # 4008 <.L3353+0xab0>
  d0:	b779                	j	5e <.L497>

Disassembly of section .text.mesh_send_roots_stop:

00000000 <mesh_send_roots_stop>:
   0:	7179                	add	sp,sp,-48
   2:	d606                	sw	ra,44(sp)
   4:	d422                	sw	s0,40(sp)
   6:	d226                	sw	s1,36(sp)
   8:	e125                	bnez	a0,68 <.L506>
   a:	000007b7          	lui	a5,0x0
   e:	0007a703          	lw	a4,0(a5) # 0 <mesh_send_roots_stop>
  12:	4789                	li	a5,2
  14:	08e7fb63          	bgeu	a5,a4,aa <.L508>
  18:	000007b7          	lui	a5,0x0
  1c:	0007a783          	lw	a5,0(a5) # 0 <mesh_send_roots_stop>
  20:	6411                	lui	s0,0x4
  22:	0421                	add	s0,s0,8 # 4008 <.L3353+0xab0>
  24:	8522                	mv	a0,s0
  26:	cf85                	beqz	a5,5e <.L505>
  28:	14c7a483          	lw	s1,332(a5)
  2c:	c88d                	beqz	s1,5e <.L505>
  2e:	1547a783          	lw	a5,340(a5)
  32:	9782                	jalr	a5
  34:	000005b7          	lui	a1,0x0
  38:	6805                	lui	a6,0x1
  3a:	000007b7          	lui	a5,0x0
  3e:	00000637          	lui	a2,0x0
  42:	86aa                	mv	a3,a0
  44:	00058713          	mv	a4,a1
  48:	450d                	li	a0,3
  4a:	b5480813          	add	a6,a6,-1196 # b54 <.L3151+0x6>
  4e:	00078793          	mv	a5,a5
  52:	00060613          	mv	a2,a2
  56:	00058593          	mv	a1,a1
  5a:	9482                	jalr	s1
  5c:	8522                	mv	a0,s0

0000005e <.L505>:
  5e:	50b2                	lw	ra,44(sp)
  60:	5422                	lw	s0,40(sp)
  62:	5492                	lw	s1,36(sp)
  64:	6145                	add	sp,sp,48
  66:	8082                	ret

00000068 <.L506>:
  68:	000007b7          	lui	a5,0x0
  6c:	0007d783          	lhu	a5,0(a5) # 0 <mesh_send_roots_stop>
  70:	ca02                	sw	zero,20(sp)
  72:	ce02                	sw	zero,28(sp)
  74:	17fd                	add	a5,a5,-1
  76:	00f11a23          	sh	a5,20(sp)
  7a:	f8800793          	li	a5,-120
  7e:	85aa                	mv	a1,a0
  80:	00f10f23          	sb	a5,30(sp)
  84:	4619                	li	a2,6
  86:	10800793          	li	a5,264
  8a:	0828                	add	a0,sp,24
  8c:	c63e                	sw	a5,12(sp)
  8e:	cc02                	sw	zero,24(sp)
  90:	00000097          	auipc	ra,0x0
  94:	000080e7          	jalr	ra # 90 <.L506+0x28>
  98:	085c                	add	a5,sp,20
  9a:	0068                	add	a0,sp,12
  9c:	c83e                	sw	a5,16(sp)
  9e:	00000097          	auipc	ra,0x0
  a2:	000080e7          	jalr	ra # 9e <.L506+0x36>
  a6:	4501                	li	a0,0
  a8:	bf5d                	j	5e <.L505>

000000aa <.L508>:
  aa:	6511                	lui	a0,0x4
  ac:	0521                	add	a0,a0,8 # 4008 <.L3353+0xab0>
  ae:	bf45                	j	5e <.L505>

Disassembly of section .text.mesh_nwk_check_conflict_roots:

00000000 <mesh_nwk_check_conflict_roots>:
   0:	7179                	add	sp,sp,-48
   2:	d606                	sw	ra,44(sp)
   4:	d422                	sw	s0,40(sp)
   6:	d226                	sw	s1,36(sp)
   8:	d04a                	sw	s2,32(sp)
   a:	ce4e                	sw	s3,28(sp)
   c:	cc52                	sw	s4,24(sp)
   e:	ca56                	sw	s5,20(sp)
  10:	c85a                	sw	s6,16(sp)
  12:	e5ad                	bnez	a1,7c <.L513>
  14:	000007b7          	lui	a5,0x0
  18:	0007a703          	lw	a4,0(a5) # 0 <mesh_nwk_check_conflict_roots>
  1c:	4789                	li	a5,2
  1e:	18e7f063          	bgeu	a5,a4,19e <.L525>
  22:	000007b7          	lui	a5,0x0
  26:	0007a783          	lw	a5,0(a5) # 0 <mesh_nwk_check_conflict_roots>
  2a:	6411                	lui	s0,0x4
  2c:	0421                	add	s0,s0,8 # 4008 <.L3353+0xab0>
  2e:	8522                	mv	a0,s0
  30:	cf85                	beqz	a5,68 <.L512>
  32:	14c7a483          	lw	s1,332(a5)
  36:	c88d                	beqz	s1,68 <.L512>
  38:	1547a783          	lw	a5,340(a5)
  3c:	9782                	jalr	a5
  3e:	6805                	lui	a6,0x1
  40:	86aa                	mv	a3,a0
  42:	b6180813          	add	a6,a6,-1183 # b61 <.L3151+0x13>

00000046 <.L532>:
  46:	000005b7          	lui	a1,0x0
  4a:	000007b7          	lui	a5,0x0
  4e:	00000637          	lui	a2,0x0
  52:	00058713          	mv	a4,a1
  56:	450d                	li	a0,3
  58:	00078793          	mv	a5,a5
  5c:	00060613          	mv	a2,a2
  60:	00058593          	mv	a1,a1
  64:	9482                	jalr	s1
  66:	8522                	mv	a0,s0

00000068 <.L512>:
  68:	50b2                	lw	ra,44(sp)
  6a:	5422                	lw	s0,40(sp)
  6c:	5492                	lw	s1,36(sp)
  6e:	5902                	lw	s2,32(sp)
  70:	49f2                	lw	s3,28(sp)
  72:	4a62                	lw	s4,24(sp)
  74:	4ad2                	lw	s5,20(sp)
  76:	4b42                	lw	s6,16(sp)
  78:	6145                	add	sp,sp,48
  7a:	8082                	ret

0000007c <.L513>:
  7c:	8432                	mv	s0,a2
  7e:	ea1d                	bnez	a2,b4 <.L515>
  80:	000007b7          	lui	a5,0x0
  84:	0007a703          	lw	a4,0(a5) # 0 <mesh_nwk_check_conflict_roots>
  88:	4789                	li	a5,2
  8a:	10e7fa63          	bgeu	a5,a4,19e <.L525>
  8e:	000007b7          	lui	a5,0x0
  92:	0007a783          	lw	a5,0(a5) # 0 <mesh_nwk_check_conflict_roots>
  96:	6411                	lui	s0,0x4
  98:	0421                	add	s0,s0,8 # 4008 <.L3353+0xab0>
  9a:	8522                	mv	a0,s0
  9c:	d7f1                	beqz	a5,68 <.L512>
  9e:	14c7a483          	lw	s1,332(a5)
  a2:	d0f9                	beqz	s1,68 <.L512>
  a4:	1547a783          	lw	a5,340(a5)
  a8:	9782                	jalr	a5
  aa:	6805                	lui	a6,0x1
  ac:	86aa                	mv	a3,a0
  ae:	b6280813          	add	a6,a6,-1182 # b62 <.L3151+0x14>
  b2:	bf51                	j	46 <.L532>

000000b4 <.L515>:
  b4:	00000a37          	lui	s4,0x0
  b8:	000a0a13          	mv	s4,s4
  bc:	89aa                	mv	s3,a0
  be:	000a2503          	lw	a0,0(s4) # 0 <mesh_nwk_check_conflict_roots>
  c2:	00000ab7          	lui	s5,0x0
  c6:	6b05                	lui	s6,0x1
  c8:	84ae                	mv	s1,a1
  ca:	b67b0613          	add	a2,s6,-1177 # b67 <.L3151+0x19>
  ce:	000a8593          	mv	a1,s5
  d2:	00000097          	auipc	ra,0x0
  d6:	000080e7          	jalr	ra # d2 <.L515+0x1e>
  da:	00448913          	add	s2,s1,4 # 4 <mesh_nwk_check_conflict_roots+0x4>
  de:	0070                	add	a2,sp,12
  e0:	00b10593          	add	a1,sp,11
  e4:	854a                	mv	a0,s2
  e6:	00000097          	auipc	ra,0x0
  ea:	000080e7          	jalr	ra # e6 <.L515+0x32>
  ee:	000a2503          	lw	a0,0(s4)
  f2:	b69b0613          	add	a2,s6,-1175
  f6:	000a8593          	mv	a1,s5
  fa:	00000097          	auipc	ra,0x0
  fe:	000080e7          	jalr	ra # fa <.L515+0x46>
 102:	47f5                	li	a5,29
 104:	0137e763          	bltu	a5,s3,112 <.L516>
 108:	47ed                	li	a5,27
 10a:	0537eb63          	bltu	a5,s3,160 <.L517>

0000010e <.L534>:
 10e:	4501                	li	a0,0
 110:	bfa1                	j	68 <.L512>

00000112 <.L516>:
 112:	47f9                	li	a5,30
 114:	fef99de3          	bne	s3,a5,10e <.L534>
 118:	85a2                	mv	a1,s0
 11a:	854a                	mv	a0,s2
 11c:	00000097          	auipc	ra,0x0
 120:	000080e7          	jalr	ra # 11c <.L516+0xa>
 124:	00b10783          	lb	a5,11(sp)
 128:	577d                	li	a4,-1
 12a:	04e79a63          	bne	a5,a4,17e <.L520>
 12e:	00e11703          	lh	a4,14(sp)
 132:	04f71663          	bne	a4,a5,17e <.L520>
 136:	0014c783          	lbu	a5,1(s1)
 13a:	0004c703          	lbu	a4,0(s1)
 13e:	07a2                	sll	a5,a5,0x8
 140:	8fd9                	or	a5,a5,a4
 142:	d7f1                	beqz	a5,10e <.L534>
 144:	00000737          	lui	a4,0x0
 148:	00075703          	lhu	a4,0(a4) # 0 <mesh_nwk_check_conflict_roots>
 14c:	fce7f1e3          	bgeu	a5,a4,10e <.L534>
 150:	00044583          	lbu	a1,0(s0)
 154:	8526                	mv	a0,s1
 156:	00000097          	auipc	ra,0x0
 15a:	000080e7          	jalr	ra # 156 <.L516+0x44>
 15e:	bf45                	j	10e <.L534>

00000160 <.L517>:
 160:	00b10783          	lb	a5,11(sp)
 164:	577d                	li	a4,-1
 166:	00e79663          	bne	a5,a4,172 <.L519>
 16a:	00e11703          	lh	a4,14(sp)
 16e:	faf700e3          	beq	a4,a5,10e <.L534>

00000172 <.L519>:
 172:	85a2                	mv	a1,s0
 174:	854a                	mv	a0,s2
 176:	00000097          	auipc	ra,0x0
 17a:	000080e7          	jalr	ra # 176 <.L519+0x4>

0000017e <.L520>:
 17e:	00044583          	lbu	a1,0(s0)
 182:	854a                	mv	a0,s2
 184:	00000097          	auipc	ra,0x0
 188:	000080e7          	jalr	ra # 184 <.L520+0x6>
 18c:	854a                	mv	a0,s2
 18e:	00000097          	auipc	ra,0x0
 192:	000080e7          	jalr	ra # 18e <.L520+0x10>
 196:	6511                	lui	a0,0x4
 198:	03550513          	add	a0,a0,53 # 4035 <.L3353+0xadd>
 19c:	b5f1                	j	68 <.L512>

0000019e <.L525>:
 19e:	6511                	lui	a0,0x4
 1a0:	0521                	add	a0,a0,8 # 4008 <.L3353+0xab0>
 1a2:	b5d9                	j	68 <.L512>

Disassembly of section .text.esp_mesh_send_rmv_announcement:

00000000 <esp_mesh_send_rmv_announcement>:
   0:	1101                	add	sp,sp,-32
   2:	ce06                	sw	ra,28(sp)
   4:	cc22                	sw	s0,24(sp)
   6:	ca26                	sw	s1,20(sp)
   8:	c84a                	sw	s2,16(sp)
   a:	c64e                	sw	s3,12(sp)
   c:	e1bd                	bnez	a1,72 <.L536>
   e:	000007b7          	lui	a5,0x0
  12:	0007a703          	lw	a4,0(a5) # 0 <esp_mesh_send_rmv_announcement>
  16:	4789                	li	a5,2
  18:	1ee7f663          	bgeu	a5,a4,204 <.L547>
  1c:	000007b7          	lui	a5,0x0
  20:	0007a783          	lw	a5,0(a5) # 0 <esp_mesh_send_rmv_announcement>
  24:	6491                	lui	s1,0x4
  26:	04a1                	add	s1,s1,8 # 4008 <.L3353+0xab0>
  28:	8426                	mv	s0,s1
  2a:	cf85                	beqz	a5,62 <.L535>
  2c:	14c7a903          	lw	s2,332(a5)
  30:	02090963          	beqz	s2,62 <.L535>
  34:	1547a783          	lw	a5,340(a5)
  38:	9782                	jalr	a5
  3a:	6805                	lui	a6,0x1
  3c:	86aa                	mv	a3,a0
  3e:	ba080813          	add	a6,a6,-1120 # ba0 <.L3156+0x22>

00000042 <.L566>:
  42:	000005b7          	lui	a1,0x0
  46:	000007b7          	lui	a5,0x0
  4a:	00000637          	lui	a2,0x0
  4e:	00058713          	mv	a4,a1
  52:	00078793          	mv	a5,a5
  56:	00060613          	mv	a2,a2
  5a:	00058593          	mv	a1,a1
  5e:	450d                	li	a0,3
  60:	9902                	jalr	s2

00000062 <.L535>:
  62:	40f2                	lw	ra,28(sp)
  64:	8522                	mv	a0,s0
  66:	4462                	lw	s0,24(sp)
  68:	44d2                	lw	s1,20(sp)
  6a:	4942                	lw	s2,16(sp)
  6c:	49b2                	lw	s3,12(sp)
  6e:	6105                	add	sp,sp,32
  70:	8082                	ret

00000072 <.L536>:
  72:	0045c783          	lbu	a5,4(a1) # 4 <esp_mesh_send_rmv_announcement+0x4>
  76:	0035c703          	lbu	a4,3(a1)
  7a:	07a2                	sll	a5,a5,0x8
  7c:	8fd9                	or	a5,a5,a4
  7e:	0055c703          	lbu	a4,5(a1)
  82:	0742                	sll	a4,a4,0x10
  84:	8f5d                	or	a4,a4,a5
  86:	0065c783          	lbu	a5,6(a1)
  8a:	07e2                	sll	a5,a5,0x18
  8c:	8fd9                	or	a5,a5,a4
  8e:	ef85                	bnez	a5,c6 <.L538>
  90:	000007b7          	lui	a5,0x0
  94:	0007a703          	lw	a4,0(a5) # 0 <esp_mesh_send_rmv_announcement>
  98:	4789                	li	a5,2
  9a:	16e7f563          	bgeu	a5,a4,204 <.L547>
  9e:	000007b7          	lui	a5,0x0
  a2:	0007a783          	lw	a5,0(a5) # 0 <esp_mesh_send_rmv_announcement>
  a6:	6491                	lui	s1,0x4
  a8:	04a1                	add	s1,s1,8 # 4008 <.L3353+0xab0>
  aa:	8426                	mv	s0,s1
  ac:	dbdd                	beqz	a5,62 <.L535>
  ae:	14c7a903          	lw	s2,332(a5)
  b2:	fa0908e3          	beqz	s2,62 <.L535>
  b6:	1547a783          	lw	a5,340(a5)
  ba:	9782                	jalr	a5
  bc:	6805                	lui	a6,0x1
  be:	86aa                	mv	a3,a0
  c0:	ba180813          	add	a6,a6,-1119 # ba1 <.L3156+0x23>
  c4:	bfbd                	j	42 <.L566>

000000c6 <.L538>:
  c6:	ee05                	bnez	a2,fe <.L539>
  c8:	000007b7          	lui	a5,0x0
  cc:	0007a703          	lw	a4,0(a5) # 0 <esp_mesh_send_rmv_announcement>
  d0:	4789                	li	a5,2
  d2:	12e7f963          	bgeu	a5,a4,204 <.L547>
  d6:	000007b7          	lui	a5,0x0
  da:	0007a783          	lw	a5,0(a5) # 0 <esp_mesh_send_rmv_announcement>
  de:	6491                	lui	s1,0x4
  e0:	04a1                	add	s1,s1,8 # 4008 <.L3353+0xab0>
  e2:	8426                	mv	s0,s1
  e4:	dfbd                	beqz	a5,62 <.L535>
  e6:	14c7a903          	lw	s2,332(a5)
  ea:	f6090ce3          	beqz	s2,62 <.L535>
  ee:	1547a783          	lw	a5,340(a5)
  f2:	9782                	jalr	a5
  f4:	6805                	lui	a6,0x1
  f6:	86aa                	mv	a3,a0
  f8:	ba280813          	add	a6,a6,-1118 # ba2 <.L3156+0x24>
  fc:	b799                	j	42 <.L566>

000000fe <.L539>:
  fe:	01851693          	sll	a3,a0,0x18
 102:	862e                	mv	a2,a1
 104:	84aa                	mv	s1,a0
 106:	4701                	li	a4,0
 108:	86e1                	sra	a3,a3,0x18
 10a:	45a1                	li	a1,8
 10c:	4501                	li	a0,0
 10e:	00000097          	auipc	ra,0x0
 112:	000080e7          	jalr	ra # 10e <.L539+0x10>
 116:	842a                	mv	s0,a0
 118:	d529                	beqz	a0,62 <.L535>
 11a:	479d                	li	a5,7
 11c:	02f48533          	mul	a0,s1,a5
 120:	000004b7          	lui	s1,0x0
 124:	00048493          	mv	s1,s1
 128:	6985                	lui	s3,0x1
 12a:	000005b7          	lui	a1,0x0
 12e:	baf98613          	add	a2,s3,-1105 # baf <.L3156+0x31>
 132:	00058593          	mv	a1,a1
 136:	94aa                	add	s1,s1,a0
 138:	0044c703          	lbu	a4,4(s1) # 4 <esp_mesh_send_rmv_announcement+0x4>
 13c:	0034c783          	lbu	a5,3(s1)
 140:	0064c503          	lbu	a0,6(s1)
 144:	0722                	sll	a4,a4,0x8
 146:	8f5d                	or	a4,a4,a5
 148:	0054c783          	lbu	a5,5(s1)
 14c:	0562                	sll	a0,a0,0x18
 14e:	07c2                	sll	a5,a5,0x10
 150:	8fd9                	or	a5,a5,a4
 152:	8d5d                	or	a0,a0,a5
 154:	00000097          	auipc	ra,0x0
 158:	000080e7          	jalr	ra # 154 <.L539+0x56>
 15c:	6791                	lui	a5,0x4
 15e:	000481a3          	sb	zero,3(s1)
 162:	00048223          	sb	zero,4(s1)
 166:	000482a3          	sb	zero,5(s1)
 16a:	00048323          	sb	zero,6(s1)
 16e:	00b78713          	add	a4,a5,11 # 400b <.L3353+0xab3>
 172:	eee408e3          	beq	s0,a4,62 <.L535>
 176:	00d78713          	add	a4,a5,13
 17a:	eee404e3          	beq	s0,a4,62 <.L535>
 17e:	0791                	add	a5,a5,4
 180:	eef401e3          	beq	s0,a5,62 <.L535>
 184:	000004b7          	lui	s1,0x0
 188:	0004a783          	lw	a5,0(s1) # 0 <esp_mesh_send_rmv_announcement>
 18c:	cf85                	beqz	a5,1c4 <.L540>
 18e:	14c7a903          	lw	s2,332(a5)
 192:	02090963          	beqz	s2,1c4 <.L540>
 196:	1547a783          	lw	a5,340(a5)
 19a:	9782                	jalr	a5
 19c:	000005b7          	lui	a1,0x0
 1a0:	000007b7          	lui	a5,0x0
 1a4:	00000637          	lui	a2,0x0
 1a8:	86aa                	mv	a3,a0
 1aa:	00058713          	mv	a4,a1
 1ae:	88a2                	mv	a7,s0
 1b0:	bb498813          	add	a6,s3,-1100
 1b4:	00078793          	mv	a5,a5
 1b8:	00060613          	mv	a2,a2
 1bc:	00058593          	mv	a1,a1
 1c0:	4509                	li	a0,2
 1c2:	9902                	jalr	s2

000001c4 <.L540>:
 1c4:	0004a783          	lw	a5,0(s1)
 1c8:	e8078de3          	beqz	a5,62 <.L535>
 1cc:	14c7a483          	lw	s1,332(a5) # 14c <.L539+0x4e>
 1d0:	e80489e3          	beqz	s1,62 <.L535>
 1d4:	1547a783          	lw	a5,340(a5)
 1d8:	9782                	jalr	a5
 1da:	000005b7          	lui	a1,0x0
 1de:	6805                	lui	a6,0x1
 1e0:	000007b7          	lui	a5,0x0
 1e4:	00000637          	lui	a2,0x0
 1e8:	86aa                	mv	a3,a0
 1ea:	00058713          	mv	a4,a1
 1ee:	bb580813          	add	a6,a6,-1099 # bb5 <.L3156+0x37>
 1f2:	00078793          	mv	a5,a5
 1f6:	00060613          	mv	a2,a2
 1fa:	00058593          	mv	a1,a1
 1fe:	4505                	li	a0,1
 200:	9482                	jalr	s1
 202:	b585                	j	62 <.L535>

00000204 <.L547>:
 204:	6411                	lui	s0,0x4
 206:	0421                	add	s0,s0,8 # 4008 <.L3353+0xab0>
 208:	bda9                	j	62 <.L535>

Disassembly of section .text.esp_mesh_is_scan_allowed:

00000000 <esp_mesh_is_scan_allowed>:
   0:	000007b7          	lui	a5,0x0
   4:	0007c783          	lbu	a5,0(a5) # 0 <esp_mesh_is_scan_allowed>
   8:	4501                	li	a0,0
   a:	eb99                	bnez	a5,20 <.L568>
   c:	000007b7          	lui	a5,0x0
  10:	0007c783          	lbu	a5,0(a5) # 0 <esp_mesh_is_scan_allowed>
  14:	4505                	li	a0,1
  16:	c789                	beqz	a5,20 <.L568>
  18:	000007b7          	lui	a5,0x0
  1c:	0007c503          	lbu	a0,0(a5) # 0 <esp_mesh_is_scan_allowed>

00000020 <.L568>:
  20:	8082                	ret

Disassembly of section .text.esp_mesh_rt_change_debug:

00000000 <esp_mesh_rt_change_debug>:
   0:	000007b7          	lui	a5,0x0
   4:	00a78023          	sb	a0,0(a5) # 0 <esp_mesh_rt_change_debug>
   8:	8082                	ret

Disassembly of section .text.esp_mesh_is_rt_change_debug:

00000000 <esp_mesh_is_rt_change_debug>:
   0:	000007b7          	lui	a5,0x0
   4:	0007c503          	lbu	a0,0(a5) # 0 <esp_mesh_is_rt_change_debug>
   8:	8082                	ret

Disassembly of section .text.mesh_nwk_process_disconnected:

00000000 <mesh_nwk_process_disconnected>:
   0:	000007b7          	lui	a5,0x0
   4:	00078023          	sb	zero,0(a5) # 0 <mesh_nwk_process_disconnected>
   8:	000007b7          	lui	a5,0x0
   c:	00078023          	sb	zero,0(a5) # 0 <mesh_nwk_process_disconnected>
  10:	000007b7          	lui	a5,0x0
  14:	00078023          	sb	zero,0(a5) # 0 <mesh_nwk_process_disconnected>
  18:	000007b7          	lui	a5,0x0
  1c:	0007c783          	lbu	a5,0(a5) # 0 <mesh_nwk_process_disconnected>
  20:	1141                	add	sp,sp,-16
  22:	c422                	sw	s0,8(sp)
  24:	c606                	sw	ra,12(sp)
  26:	842a                	mv	s0,a0
  28:	c789                	beqz	a5,32 <.L575>
  2a:	00000097          	auipc	ra,0x0
  2e:	000080e7          	jalr	ra # 2a <mesh_nwk_process_disconnected+0x2a>

00000032 <.L575>:
  32:	00000537          	lui	a0,0x0
  36:	07400613          	li	a2,116
  3a:	4581                	li	a1,0
  3c:	00050513          	mv	a0,a0
  40:	00000097          	auipc	ra,0x0
  44:	000080e7          	jalr	ra # 40 <.L575+0xe>
  48:	00000537          	lui	a0,0x0
  4c:	03a00613          	li	a2,58
  50:	4581                	li	a1,0
  52:	00050513          	mv	a0,a0
  56:	00000097          	auipc	ra,0x0
  5a:	000080e7          	jalr	ra # 56 <.L575+0x24>
  5e:	000007b7          	lui	a5,0x0
  62:	0007a023          	sw	zero,0(a5) # 0 <mesh_nwk_process_disconnected>
  66:	00000097          	auipc	ra,0x0
  6a:	000080e7          	jalr	ra # 66 <.L575+0x34>
  6e:	c811                	beqz	s0,82 <.L576>
  70:	4008                	lw	a0,0(s0)
  72:	02900613          	li	a2,41
  76:	00440593          	add	a1,s0,4
  7a:	00000097          	auipc	ra,0x0
  7e:	000080e7          	jalr	ra # 7a <.L575+0x48>

00000082 <.L576>:
  82:	40b2                	lw	ra,12(sp)
  84:	4422                	lw	s0,8(sp)
  86:	4501                	li	a0,0
  88:	0141                	add	sp,sp,16
  8a:	8082                	ret

Disassembly of section .text.mesh_nwk_process_scan_request:

00000000 <mesh_nwk_process_scan_request>:
   0:	7179                	add	sp,sp,-48
   2:	d606                	sw	ra,44(sp)
   4:	d422                	sw	s0,40(sp)
   6:	d226                	sw	s1,36(sp)
   8:	47dd                	li	a5,23
   a:	0cf50163          	beq	a0,a5,cc <.L585>
   e:	fe150793          	add	a5,a0,-31 # ffffffe1 <.L3353+0xffffca89>
  12:	4705                	li	a4,1
  14:	842a                	mv	s0,a0
  16:	08f76663          	bltu	a4,a5,a2 <.L586>
  1a:	02000793          	li	a5,32
  1e:	c19c                	sw	a5,0(a1)
  20:	4799                	li	a5,6
  22:	c1dc                	sw	a5,4(a1)
  24:	000007b7          	lui	a5,0x0
  28:	0007a703          	lw	a4,0(a5) # 0 <mesh_nwk_process_scan_request>
  2c:	4789                	li	a5,2
  2e:	06e7fa63          	bgeu	a5,a4,a2 <.L586>
  32:	000007b7          	lui	a5,0x0
  36:	0007a783          	lw	a5,0(a5) # 0 <mesh_nwk_process_scan_request>
  3a:	c7a5                	beqz	a5,a2 <.L586>
  3c:	14c7a483          	lw	s1,332(a5)
  40:	c0ad                	beqz	s1,a2 <.L586>
  42:	1547a783          	lw	a5,340(a5)
  46:	9782                	jalr	a5
  48:	ce2a                	sw	a0,28(sp)
  4a:	8522                	mv	a0,s0
  4c:	00000097          	auipc	ra,0x0
  50:	000080e7          	jalr	ra # 4c <mesh_nwk_process_scan_request+0x4c>
  54:	00000737          	lui	a4,0x0
  58:	00074703          	lbu	a4,0(a4) # 0 <mesh_nwk_process_scan_request>
  5c:	46f2                	lw	a3,28(sp)
  5e:	87aa                	mv	a5,a0
  60:	00177613          	and	a2,a4,1
  64:	e629                	bnez	a2,ae <.L592>
  66:	00000837          	lui	a6,0x0
  6a:	00080813          	mv	a6,a6

0000006e <.L589>:
  6e:	00477613          	and	a2,a4,4
  72:	e239                	bnez	a2,b8 <.L593>
  74:	000008b7          	lui	a7,0x0
  78:	00088893          	mv	a7,a7

0000007c <.L590>:
  7c:	8b09                	and	a4,a4,2
  7e:	e331                	bnez	a4,c2 <.L594>
  80:	00000737          	lui	a4,0x0
  84:	00070713          	mv	a4,a4

00000088 <.L591>:
  88:	000005b7          	lui	a1,0x0
  8c:	00000637          	lui	a2,0x0
  90:	c03a                	sw	a4,0(sp)
  92:	00060613          	mv	a2,a2
  96:	00058713          	mv	a4,a1
  9a:	450d                	li	a0,3
  9c:	00058593          	mv	a1,a1
  a0:	9482                	jalr	s1

000000a2 <.L586>:
  a2:	50b2                	lw	ra,44(sp)
  a4:	5422                	lw	s0,40(sp)
  a6:	5492                	lw	s1,36(sp)
  a8:	4501                	li	a0,0
  aa:	6145                	add	sp,sp,48
  ac:	8082                	ret

000000ae <.L592>:
  ae:	00000837          	lui	a6,0x0
  b2:	00080813          	mv	a6,a6
  b6:	bf65                	j	6e <.L589>

000000b8 <.L593>:
  b8:	000008b7          	lui	a7,0x0
  bc:	00088893          	mv	a7,a7
  c0:	bf75                	j	7c <.L590>

000000c2 <.L594>:
  c2:	00000737          	lui	a4,0x0
  c6:	00070713          	mv	a4,a4
  ca:	bf7d                	j	88 <.L591>

000000cc <.L585>:
  cc:	000007b7          	lui	a5,0x0
  d0:	0007a703          	lw	a4,0(a5) # 0 <mesh_nwk_process_scan_request>
  d4:	4789                	li	a5,2
  d6:	fce7f6e3          	bgeu	a5,a4,a2 <.L586>
  da:	000007b7          	lui	a5,0x0
  de:	0007a783          	lw	a5,0(a5) # 0 <mesh_nwk_process_scan_request>
  e2:	d3e1                	beqz	a5,a2 <.L586>
  e4:	14c7a403          	lw	s0,332(a5)
  e8:	dc4d                	beqz	s0,a2 <.L586>
  ea:	1547a783          	lw	a5,340(a5)
  ee:	9782                	jalr	a5
  f0:	ce2a                	sw	a0,28(sp)
  f2:	455d                	li	a0,23
  f4:	00000097          	auipc	ra,0x0
  f8:	000080e7          	jalr	ra # f4 <.L585+0x28>
  fc:	46f2                	lw	a3,28(sp)
  fe:	000005b7          	lui	a1,0x0
 102:	00000637          	lui	a2,0x0
 106:	87aa                	mv	a5,a0
 108:	00058713          	mv	a4,a1
 10c:	00060613          	mv	a2,a2
 110:	00058593          	mv	a1,a1
 114:	450d                	li	a0,3
 116:	9402                	jalr	s0
 118:	b769                	j	a2 <.L586>

Disassembly of section .text.mesh_nwk_check_no_parent_found:

00000000 <mesh_nwk_check_no_parent_found>:
   0:	7179                	add	sp,sp,-48
   2:	d606                	sw	ra,44(sp)
   4:	d422                	sw	s0,40(sp)
   6:	d226                	sw	s1,36(sp)
   8:	d04a                	sw	s2,32(sp)
   a:	ce4e                	sw	s3,28(sp)
   c:	cc52                	sw	s4,24(sp)
   e:	ca56                	sw	s5,20(sp)
  10:	c1d5                	beqz	a1,b4 <.L612>
  12:	000007b7          	lui	a5,0x0
  16:	00078793          	mv	a5,a5
  1a:	4780                	lw	s0,8(a5)
  1c:	892e                	mv	s2,a1
  1e:	0285e433          	rem	s0,a1,s0
  22:	e849                	bnez	s0,b4 <.L612>
  24:	000007b7          	lui	a5,0x0
  28:	0007a703          	lw	a4,0(a5) # 0 <mesh_nwk_check_no_parent_found>
  2c:	4789                	li	a5,2
  2e:	84b2                	mv	s1,a2
  30:	04e7fb63          	bgeu	a5,a4,86 <.L610>
  34:	00000ab7          	lui	s5,0x0
  38:	000aa783          	lw	a5,0(s5) # 0 <mesh_nwk_check_no_parent_found>
  3c:	c7a9                	beqz	a5,86 <.L610>
  3e:	14c7aa03          	lw	s4,332(a5)
  42:	040a0263          	beqz	s4,86 <.L610>
  46:	1547a783          	lw	a5,340(a5)
  4a:	89aa                	mv	s3,a0
  4c:	9782                	jalr	a5
  4e:	c62a                	sw	a0,12(sp)
  50:	854e                	mv	a0,s3
  52:	00000097          	auipc	ra,0x0
  56:	000080e7          	jalr	ra # 52 <mesh_nwk_check_no_parent_found+0x52>
  5a:	000aa703          	lw	a4,0(s5)
  5e:	c42a                	sw	a0,8(sp)
  60:	0b872703          	lw	a4,184(a4) # b8 <.L158>
  64:	9702                	jalr	a4
  66:	47a2                	lw	a5,8(sp)
  68:	46b2                	lw	a3,12(sp)
  6a:	000005b7          	lui	a1,0x0
  6e:	00000637          	lui	a2,0x0
  72:	88aa                	mv	a7,a0
  74:	00058713          	mv	a4,a1
  78:	884a                	mv	a6,s2
  7a:	00060613          	mv	a2,a2
  7e:	00058593          	mv	a1,a1
  82:	450d                	li	a0,3
  84:	9a02                	jalr	s4

00000086 <.L610>:
  86:	cc89                	beqz	s1,a0 <.L608>
  88:	47a5                	li	a5,9
  8a:	c09c                	sw	a5,0(s1)
  8c:	0124a223          	sw	s2,4(s1)
  90:	4611                	li	a2,4
  92:	00448593          	add	a1,s1,4
  96:	4525                	li	a0,9
  98:	00000097          	auipc	ra,0x0
  9c:	000080e7          	jalr	ra # 98 <.L610+0x12>

000000a0 <.L608>:
  a0:	50b2                	lw	ra,44(sp)
  a2:	8522                	mv	a0,s0
  a4:	5422                	lw	s0,40(sp)
  a6:	5492                	lw	s1,36(sp)
  a8:	5902                	lw	s2,32(sp)
  aa:	49f2                	lw	s3,28(sp)
  ac:	4a62                	lw	s4,24(sp)
  ae:	4ad2                	lw	s5,20(sp)
  b0:	6145                	add	sp,sp,48
  b2:	8082                	ret

000000b4 <.L612>:
  b4:	547d                	li	s0,-1
  b6:	b7ed                	j	a0 <.L608>

Disassembly of section .text.mesh_root_process_connect:

00000000 <mesh_root_process_connect>:
   0:	000007b7          	lui	a5,0x0
   4:	0c47c783          	lbu	a5,196(a5) # c4 <.L1635>
   8:	1141                	add	sp,sp,-16
   a:	c422                	sw	s0,8(sp)
   c:	c226                	sw	s1,4(sp)
   e:	c606                	sw	ra,12(sp)
  10:	8b89                	and	a5,a5,2
  12:	842a                	mv	s0,a0
  14:	84ae                	mv	s1,a1
  16:	ef99                	bnez	a5,34 <.L624>
  18:	000005b7          	lui	a1,0x0
  1c:	00000537          	lui	a0,0x0
  20:	4619                	li	a2,6
  22:	00058593          	mv	a1,a1
  26:	02d50513          	add	a0,a0,45 # 2d <mesh_root_process_connect+0x2d>
  2a:	00000097          	auipc	ra,0x0
  2e:	000080e7          	jalr	ra # 2a <mesh_root_process_connect+0x2a>
  32:	c521                	beqz	a0,7a <.L623>

00000034 <.L624>:
  34:	557d                	li	a0,-1
  36:	c031                	beqz	s0,7a <.L623>
  38:	c0a9                	beqz	s1,7a <.L623>
  3a:	000005b7          	lui	a1,0x0
  3e:	4619                	li	a2,6
  40:	02d58593          	add	a1,a1,45 # 2d <mesh_root_process_connect+0x2d>
  44:	02148513          	add	a0,s1,33
  48:	00000097          	auipc	ra,0x0
  4c:	000080e7          	jalr	ra # 48 <.L624+0x14>
  50:	c50d                	beqz	a0,7a <.L623>
  52:	47dd                	li	a5,23
  54:	c01c                	sw	a5,0(s0)
  56:	0411                	add	s0,s0,4
  58:	03000613          	li	a2,48
  5c:	85a6                	mv	a1,s1
  5e:	8522                	mv	a0,s0
  60:	00000097          	auipc	ra,0x0
  64:	000080e7          	jalr	ra # 60 <.L624+0x2c>
  68:	03000613          	li	a2,48
  6c:	85a2                	mv	a1,s0
  6e:	455d                	li	a0,23
  70:	00000097          	auipc	ra,0x0
  74:	000080e7          	jalr	ra # 70 <.L624+0x3c>
  78:	4501                	li	a0,0

0000007a <.L623>:
  7a:	40b2                	lw	ra,12(sp)
  7c:	4422                	lw	s0,8(sp)
  7e:	4492                	lw	s1,4(sp)
  80:	0141                	add	sp,sp,16
  82:	8082                	ret

Disassembly of section .text.mesh_child_set_ps_duty:

00000000 <mesh_child_set_ps_duty>:
   0:	0521                	add	a0,a0,8
   2:	000007b7          	lui	a5,0x0
   6:	050a                	sll	a0,a0,0x2
   8:	00078793          	mv	a5,a5
   c:	97aa                	add	a5,a5,a0
   e:	0057c703          	lbu	a4,5(a5) # 5 <mesh_child_set_ps_duty+0x5>
  12:	00c78123          	sb	a2,2(a5)
  16:	00b781a3          	sb	a1,3(a5)
  1a:	00176713          	or	a4,a4,1
  1e:	00e782a3          	sb	a4,5(a5)
  22:	4501                	li	a0,0
  24:	8082                	ret

Disassembly of section .text.mesh_child_clr_ps_duty:

00000000 <mesh_child_clr_ps_duty>:
   0:	0521                	add	a0,a0,8
   2:	000007b7          	lui	a5,0x0
   6:	050a                	sll	a0,a0,0x2
   8:	00078793          	mv	a5,a5
   c:	97aa                	add	a5,a5,a0
   e:	0057c703          	lbu	a4,5(a5) # 5 <mesh_child_clr_ps_duty+0x5>
  12:	4501                	li	a0,0
  14:	9b79                	and	a4,a4,-2
  16:	00e782a3          	sb	a4,5(a5)
  1a:	10000713          	li	a4,256
  1e:	00e79123          	sh	a4,2(a5)
  22:	8082                	ret

Disassembly of section .text.esp_mesh_process_ps_type:

00000000 <esp_mesh_process_ps_type>:
   0:	00000737          	lui	a4,0x0
   4:	00072703          	lw	a4,0(a4) # 0 <esp_mesh_process_ps_type>
   8:	7179                	add	sp,sp,-48
   a:	d606                	sw	ra,44(sp)
   c:	c602                	sw	zero,12(sp)
   e:	c802                	sw	zero,16(sp)
  10:	ca02                	sw	zero,20(sp)
  12:	cc02                	sw	zero,24(sp)
  14:	ce02                	sw	zero,28(sp)
  16:	c331                	beqz	a4,5a <.L639>
  18:	87aa                	mv	a5,a0
  1a:	c121                	beqz	a0,5a <.L639>
  1c:	4705                	li	a4,1
  1e:	852e                	mv	a0,a1
  20:	04e79163          	bne	a5,a4,62 <.L641>
  24:	c591                	beqz	a1,30 <.L642>
  26:	4501                	li	a0,0
  28:	00000097          	auipc	ra,0x0
  2c:	000080e7          	jalr	ra # 28 <esp_mesh_process_ps_type+0x28>

00000030 <.L642>:
  30:	0874                	add	a3,sp,28
  32:	0850                	add	a2,sp,20
  34:	082c                	add	a1,sp,24
  36:	0068                	add	a0,sp,12
  38:	00000097          	auipc	ra,0x0
  3c:	000080e7          	jalr	ra # 38 <.L642+0x8>
  40:	47d2                	lw	a5,20(sp)
  42:	0807f793          	and	a5,a5,128
  46:	eb91                	bnez	a5,5a <.L639>
  48:	45e2                	lw	a1,24(sp)
  4a:	0005d863          	bgez	a1,5a <.L639>
  4e:	4672                	lw	a2,28(sp)
  50:	4532                	lw	a0,12(sp)
  52:	00000097          	auipc	ra,0x0
  56:	000080e7          	jalr	ra # 52 <.L642+0x22>

0000005a <.L639>:
  5a:	50b2                	lw	ra,44(sp)
  5c:	4501                	li	a0,0
  5e:	6145                	add	sp,sp,48
  60:	8082                	ret

00000062 <.L641>:
  62:	00000097          	auipc	ra,0x0
  66:	000080e7          	jalr	ra # 62 <.L641>
  6a:	084c                	add	a1,sp,20
  6c:	0808                	add	a0,sp,16
  6e:	00000097          	auipc	ra,0x0
  72:	000080e7          	jalr	ra # 6e <.L641+0xc>
  76:	45d2                	lw	a1,20(sp)
  78:	0805f793          	and	a5,a1,128
  7c:	dff9                	beqz	a5,5a <.L639>
  7e:	4542                	lw	a0,16(sp)
  80:	f7f5f593          	and	a1,a1,-129
  84:	ca2e                	sw	a1,20(sp)
  86:	00000097          	auipc	ra,0x0
  8a:	000080e7          	jalr	ra # 86 <.L641+0x24>
  8e:	b7f1                	j	5a <.L639>

Disassembly of section .text.mesh_is_better_parent:

00000000 <mesh_is_better_parent>:
   0:	87aa                	mv	a5,a0
   2:	00c56d63          	bltu	a0,a2,1c <.L655>
   6:	4501                	li	a0,0
   8:	00c79b63          	bne	a5,a2,1e <.L654>
   c:	00d5f963          	bgeu	a1,a3,1e <.L654>
  10:	8e8d                	sub	a3,a3,a1
  12:	0026a693          	slti	a3,a3,2
  16:	0016c513          	xor	a0,a3,1
  1a:	8082                	ret

0000001c <.L655>:
  1c:	4505                	li	a0,1

0000001e <.L654>:
  1e:	8082                	ret

Disassembly of section .text.is_mesh_child:

00000000 <is_mesh_child>:
   0:	1101                	add	sp,sp,-32
   2:	cc22                	sw	s0,24(sp)
   4:	00000437          	lui	s0,0x0
   8:	00040793          	mv	a5,s0
   c:	ca26                	sw	s1,20(sp)
   e:	84aa                	mv	s1,a0
  10:	4388                	lw	a0,0(a5)
  12:	c84a                	sw	s2,16(sp)
  14:	6605                	lui	a2,0x1
  16:	00000937          	lui	s2,0x0
  1a:	62a60613          	add	a2,a2,1578 # 162a <.L3217+0x16>
  1e:	00090593          	mv	a1,s2
  22:	ce06                	sw	ra,28(sp)
  24:	00000097          	auipc	ra,0x0
  28:	000080e7          	jalr	ra # 24 <is_mesh_child+0x24>
  2c:	0070                	add	a2,sp,12
  2e:	00b10593          	add	a1,sp,11
  32:	8526                	mv	a0,s1
  34:	00000097          	auipc	ra,0x0
  38:	000080e7          	jalr	ra # 34 <is_mesh_child+0x34>
  3c:	00b10683          	lb	a3,11(sp)
  40:	577d                	li	a4,-1
  42:	00040793          	mv	a5,s0
  46:	4405                	li	s0,1
  48:	00e69763          	bne	a3,a4,56 <.L659>
  4c:	00e11403          	lh	s0,14(sp)
  50:	0405                	add	s0,s0,1 # 1 <is_mesh_child+0x1>
  52:	00803433          	snez	s0,s0

00000056 <.L659>:
  56:	4388                	lw	a0,0(a5)
  58:	6605                	lui	a2,0x1
  5a:	00090593          	mv	a1,s2
  5e:	63160613          	add	a2,a2,1585 # 1631 <.L3218+0x5>
  62:	00000097          	auipc	ra,0x0
  66:	000080e7          	jalr	ra # 62 <.L659+0xc>
  6a:	40f2                	lw	ra,28(sp)
  6c:	8522                	mv	a0,s0
  6e:	4462                	lw	s0,24(sp)
  70:	44d2                	lw	s1,20(sp)
  72:	4942                	lw	s2,16(sp)
  74:	6105                	add	sp,sp,32
  76:	8082                	ret

Disassembly of section .text.esp_mesh_flush_scan_result:

00000000 <esp_mesh_flush_scan_result>:
   0:	1141                	add	sp,sp,-16
   2:	c606                	sw	ra,12(sp)

00000004 <.L663>:
   4:	4601                	li	a2,0
   6:	4581                	li	a1,0
   8:	4501                	li	a0,0
   a:	00000097          	auipc	ra,0x0
   e:	000080e7          	jalr	ra # a <.L663+0x6>
  12:	d96d                	beqz	a0,4 <.L663>
  14:	40b2                	lw	ra,12(sp)
  16:	4501                	li	a0,0
  18:	0141                	add	sp,sp,16
  1a:	8082                	ret

Disassembly of section .text.mesh_nwk_process_scan_done:

00000000 <mesh_nwk_process_scan_done>:
   0:	451c                	lw	a5,8(a0)
   2:	715d                	add	sp,sp,-80
   4:	c4a2                	sw	s0,72(sp)
   6:	c2a6                	sw	s1,68(sp)
   8:	de4e                	sw	s3,60(sp)
   a:	c686                	sw	ra,76(sp)
   c:	c0ca                	sw	s2,64(sp)
   e:	02000993          	li	s3,32
  12:	84aa                	mv	s1,a0
  14:	842e                	mv	s0,a1
  16:	0af9e363          	bltu	s3,a5,bc <.L668>
  1a:	4779                	li	a4,30
  1c:	00000937          	lui	s2,0x0
  20:	0af76d63          	bltu	a4,a5,da <.L669>
  24:	475d                	li	a4,23
  26:	16e78663          	beq	a5,a4,192 <.L670>

0000002a <.L671>:
  2a:	00000097          	auipc	ra,0x0
  2e:	000080e7          	jalr	ra # 2a <.L671>
  32:	000007b7          	lui	a5,0x0
  36:	0007a703          	lw	a4,0(a5) # 0 <mesh_nwk_process_scan_done>
  3a:	4789                	li	a5,2
  3c:	00000437          	lui	s0,0x0
  40:	04e7f063          	bgeu	a5,a4,80 <.L684>
  44:	00042783          	lw	a5,0(s0) # 0 <mesh_nwk_process_scan_done>
  48:	cf85                	beqz	a5,80 <.L684>
  4a:	14c7a903          	lw	s2,332(a5)
  4e:	02090963          	beqz	s2,80 <.L684>
  52:	1547a783          	lw	a5,340(a5)
  56:	9782                	jalr	a5
  58:	ce2a                	sw	a0,28(sp)
  5a:	4488                	lw	a0,8(s1)
  5c:	00000097          	auipc	ra,0x0
  60:	000080e7          	jalr	ra # 5c <.L671+0x32>
  64:	46f2                	lw	a3,28(sp)
  66:	000005b7          	lui	a1,0x0
  6a:	00000637          	lui	a2,0x0
  6e:	87aa                	mv	a5,a0
  70:	00058713          	mv	a4,a1
  74:	00060613          	mv	a2,a2
  78:	00058593          	mv	a1,a1
  7c:	450d                	li	a0,3
  7e:	9902                	jalr	s2

00000080 <.L684>:
  80:	00042783          	lw	a5,0(s0)
  84:	c3e5                	beqz	a5,164 <.L674>
  86:	14c7a403          	lw	s0,332(a5)
  8a:	cc69                	beqz	s0,164 <.L674>
  8c:	1547a783          	lw	a5,340(a5)
  90:	9782                	jalr	a5
  92:	000005b7          	lui	a1,0x0
  96:	6805                	lui	a6,0x1
  98:	000007b7          	lui	a5,0x0
  9c:	00000637          	lui	a2,0x0
  a0:	86aa                	mv	a3,a0
  a2:	00058713          	mv	a4,a1
  a6:	d1080813          	add	a6,a6,-752 # d10 <.LC207>
  aa:	00078793          	mv	a5,a5
  ae:	00060613          	mv	a2,a2
  b2:	00058593          	mv	a1,a1
  b6:	4505                	li	a0,1
  b8:	9402                	jalr	s0
  ba:	a06d                	j	164 <.L674>

000000bc <.L668>:
  bc:	02b00713          	li	a4,43
  c0:	f6e795e3          	bne	a5,a4,2a <.L671>
  c4:	000007b7          	lui	a5,0x0
  c8:	0007c783          	lbu	a5,0(a5) # 0 <mesh_nwk_process_scan_done>
  cc:	10079c63          	bnez	a5,1e4 <.L679>
  d0:	00000097          	auipc	ra,0x0
  d4:	000080e7          	jalr	ra # d0 <.L668+0x14>
  d8:	a071                	j	164 <.L674>

000000da <.L669>:
  da:	00000097          	auipc	ra,0x0
  de:	000080e7          	jalr	ra # da <.L669>
  e2:	00092703          	lw	a4,0(s2) # 0 <mesh_nwk_process_scan_done>
  e6:	4799                	li	a5,6
  e8:	c05c                	sw	a5,4(s0)
  ea:	01342023          	sw	s3,0(s0)
  ee:	4789                	li	a5,2
  f0:	06e7fa63          	bgeu	a5,a4,164 <.L674>
  f4:	000007b7          	lui	a5,0x0
  f8:	0007a783          	lw	a5,0(a5) # 0 <mesh_nwk_process_scan_done>
  fc:	c7a5                	beqz	a5,164 <.L674>
  fe:	14c7a403          	lw	s0,332(a5)
 102:	c02d                	beqz	s0,164 <.L674>
 104:	1547a783          	lw	a5,340(a5)
 108:	9782                	jalr	a5
 10a:	ce2a                	sw	a0,28(sp)
 10c:	4488                	lw	a0,8(s1)
 10e:	00000097          	auipc	ra,0x0
 112:	000080e7          	jalr	ra # 10e <.L669+0x34>
 116:	00000737          	lui	a4,0x0
 11a:	00074703          	lbu	a4,0(a4) # 0 <mesh_nwk_process_scan_done>
 11e:	46f2                	lw	a3,28(sp)
 120:	87aa                	mv	a5,a0
 122:	00177613          	and	a2,a4,1
 126:	e639                	bnez	a2,174 <.L685>
 128:	00000837          	lui	a6,0x0
 12c:	00080813          	mv	a6,a6

00000130 <.L676>:
 130:	00477613          	and	a2,a4,4
 134:	e629                	bnez	a2,17e <.L686>
 136:	000008b7          	lui	a7,0x0
 13a:	00088893          	mv	a7,a7

0000013e <.L677>:
 13e:	8b09                	and	a4,a4,2
 140:	e721                	bnez	a4,188 <.L687>
 142:	00000737          	lui	a4,0x0
 146:	00070713          	mv	a4,a4

0000014a <.L678>:
 14a:	000005b7          	lui	a1,0x0
 14e:	00000637          	lui	a2,0x0
 152:	c03a                	sw	a4,0(sp)
 154:	00060613          	mv	a2,a2
 158:	00058713          	mv	a4,a1
 15c:	450d                	li	a0,3
 15e:	00058593          	mv	a1,a1
 162:	9402                	jalr	s0

00000164 <.L674>:
 164:	40b6                	lw	ra,76(sp)
 166:	4426                	lw	s0,72(sp)
 168:	4496                	lw	s1,68(sp)
 16a:	4906                	lw	s2,64(sp)
 16c:	59f2                	lw	s3,60(sp)
 16e:	4501                	li	a0,0
 170:	6161                	add	sp,sp,80
 172:	8082                	ret

00000174 <.L685>:
 174:	00000837          	lui	a6,0x0
 178:	00080813          	mv	a6,a6
 17c:	bf55                	j	130 <.L676>

0000017e <.L686>:
 17e:	000008b7          	lui	a7,0x0
 182:	00088893          	mv	a7,a7
 186:	bf65                	j	13e <.L677>

00000188 <.L687>:
 188:	00000737          	lui	a4,0x0
 18c:	00070713          	mv	a4,a4
 190:	bf6d                	j	14a <.L678>

00000192 <.L670>:
 192:	00000097          	auipc	ra,0x0
 196:	000080e7          	jalr	ra # 192 <.L670>
 19a:	00092703          	lw	a4,0(s2)
 19e:	4789                	li	a5,2
 1a0:	fce7f2e3          	bgeu	a5,a4,164 <.L674>
 1a4:	000007b7          	lui	a5,0x0
 1a8:	0007a783          	lw	a5,0(a5) # 0 <mesh_nwk_process_scan_done>
 1ac:	dfc5                	beqz	a5,164 <.L674>
 1ae:	14c7a403          	lw	s0,332(a5)
 1b2:	d84d                	beqz	s0,164 <.L674>
 1b4:	1547a783          	lw	a5,340(a5)
 1b8:	9782                	jalr	a5
 1ba:	ce2a                	sw	a0,28(sp)
 1bc:	4488                	lw	a0,8(s1)
 1be:	00000097          	auipc	ra,0x0
 1c2:	000080e7          	jalr	ra # 1be <.L670+0x2c>
 1c6:	46f2                	lw	a3,28(sp)
 1c8:	000005b7          	lui	a1,0x0
 1cc:	00000637          	lui	a2,0x0
 1d0:	87aa                	mv	a5,a0
 1d2:	00058713          	mv	a4,a1
 1d6:	00060613          	mv	a2,a2
 1da:	00058593          	mv	a1,a1
 1de:	450d                	li	a0,3
 1e0:	9402                	jalr	s0
 1e2:	b749                	j	164 <.L674>

000001e4 <.L679>:
 1e4:	00254683          	lbu	a3,2(a0)
 1e8:	02f10613          	add	a2,sp,47
 1ec:	0595                	add	a1,a1,5 # 5 <mesh_nwk_process_scan_done+0x5>
 1ee:	020107a3          	sb	zero,47(sp)
 1f2:	00000097          	auipc	ra,0x0
 1f6:	000080e7          	jalr	ra # 1f2 <.L679+0xe>
 1fa:	00544783          	lbu	a5,5(s0)
 1fe:	e78d                	bnez	a5,228 <.L681>
 200:	4789                	li	a5,2
 202:	00f40223          	sb	a5,4(s0)
 206:	0014c783          	lbu	a5,1(s1)
 20a:	c399                	beqz	a5,210 <.L682>
 20c:	00f402a3          	sb	a5,5(s0)

00000210 <.L682>:
 210:	000007b7          	lui	a5,0x0
 214:	0c47c783          	lbu	a5,196(a5) # c4 <.L668+0x8>
 218:	02f14703          	lbu	a4,47(sp)
 21c:	8b89                	and	a5,a5,2
 21e:	8fd9                	or	a5,a5,a4
 220:	e781                	bnez	a5,228 <.L681>
 222:	478d                	li	a5,3
 224:	00f40223          	sb	a5,4(s0)

00000228 <.L681>:
 228:	02b00793          	li	a5,43
 22c:	c01c                	sw	a5,0(s0)
 22e:	bf1d                	j	164 <.L674>

Disassembly of section .text.scan_result_print:

00000000 <scan_result_print>:
   0:	711d                	add	sp,sp,-96
   2:	ce86                	sw	ra,92(sp)
   4:	cca2                	sw	s0,88(sp)
   6:	caa6                	sw	s1,84(sp)
   8:	c8ca                	sw	s2,80(sp)
   a:	c6ce                	sw	s3,76(sp)
   c:	c4d2                	sw	s4,72(sp)
   e:	e5a5                	bnez	a1,76 <.L717>
  10:	000007b7          	lui	a5,0x0
  14:	0007a703          	lw	a4,0(a5) # 0 <scan_result_print>
  18:	4789                	li	a5,2
  1a:	2ae7f863          	bgeu	a5,a4,2ca <.L730>
  1e:	000007b7          	lui	a5,0x0
  22:	0007a783          	lw	a5,0(a5) # 0 <scan_result_print>
  26:	6491                	lui	s1,0x4
  28:	04a1                	add	s1,s1,8 # 4008 <.L3353+0xab0>
  2a:	8426                	mv	s0,s1
  2c:	cf85                	beqz	a5,64 <.L716>
  2e:	14c7a903          	lw	s2,332(a5)
  32:	02090963          	beqz	s2,64 <.L716>
  36:	1547a783          	lw	a5,340(a5)
  3a:	9782                	jalr	a5
  3c:	6805                	lui	a6,0x1
  3e:	86aa                	mv	a3,a0
  40:	6ff80813          	add	a6,a6,1791 # 16ff <.L3225+0x63>

00000044 <.L754>:
  44:	000005b7          	lui	a1,0x0
  48:	000007b7          	lui	a5,0x0
  4c:	00000637          	lui	a2,0x0
  50:	00058713          	mv	a4,a1
  54:	00078793          	mv	a5,a5
  58:	00060613          	mv	a2,a2
  5c:	00058593          	mv	a1,a1
  60:	450d                	li	a0,3
  62:	9902                	jalr	s2

00000064 <.L716>:
  64:	40f6                	lw	ra,92(sp)
  66:	8522                	mv	a0,s0
  68:	4466                	lw	s0,88(sp)
  6a:	44d6                	lw	s1,84(sp)
  6c:	4946                	lw	s2,80(sp)
  6e:	49b6                	lw	s3,76(sp)
  70:	4a26                	lw	s4,72(sp)
  72:	6125                	add	sp,sp,96
  74:	8082                	ret

00000076 <.L717>:
  76:	05c5a903          	lw	s2,92(a1) # 5c <.L754+0x18>
  7a:	84ae                	mv	s1,a1
  7c:	02091d63          	bnez	s2,b6 <.L719>
  80:	000007b7          	lui	a5,0x0
  84:	0007a703          	lw	a4,0(a5) # 0 <scan_result_print>
  88:	4789                	li	a5,2
  8a:	24e7f063          	bgeu	a5,a4,2ca <.L730>
  8e:	000007b7          	lui	a5,0x0
  92:	0007a783          	lw	a5,0(a5) # 0 <scan_result_print>
  96:	6491                	lui	s1,0x4
  98:	04a1                	add	s1,s1,8 # 4008 <.L3353+0xab0>
  9a:	8426                	mv	s0,s1
  9c:	d7e1                	beqz	a5,64 <.L716>
  9e:	14c7a903          	lw	s2,332(a5)
  a2:	fc0901e3          	beqz	s2,64 <.L716>
  a6:	1547a783          	lw	a5,340(a5)
  aa:	9782                	jalr	a5
  ac:	6805                	lui	a6,0x1
  ae:	86aa                	mv	a3,a0
  b0:	70080813          	add	a6,a6,1792 # 1700 <.L3225+0x64>
  b4:	bf41                	j	44 <.L754>

000000b6 <.L719>:
  b6:	00794a03          	lbu	s4,7(s2)
  ba:	dc02                	sw	zero,56(sp)
  bc:	02011e23          	sh	zero,60(sp)
  c0:	842a                	mv	s0,a0
  c2:	89b2                	mv	s3,a2
  c4:	160a1d63          	bnez	s4,23e <.L720>
  c8:	4619                	li	a2,6
  ca:	01f90593          	add	a1,s2,31

000000ce <.L753>:
  ce:	1828                	add	a0,sp,56
  d0:	00000097          	auipc	ra,0x0
  d4:	000080e7          	jalr	ra # d0 <.L753+0x2>

000000d8 <.L721>:
  d8:	16041c63          	bnez	s0,250 <.L733>
  dc:	000005b7          	lui	a1,0x0
  e0:	00058593          	mv	a1,a1

000000e4 <.L722>:
  e4:	00648693          	add	a3,s1,6
  e8:	8552                	mv	a0,s4
  ea:	d62e                	sw	a1,44(sp)
  ec:	d436                	sw	a3,40(sp)
  ee:	00000097          	auipc	ra,0x0
  f2:	000080e7          	jalr	ra # ee <.L722+0xa>
  f6:	01b94e03          	lbu	t3,27(s2)
  fa:	01a94603          	lbu	a2,26(s2)
  fe:	872a                	mv	a4,a0
 100:	0e22                	sll	t3,t3,0x8
 102:	00ce6e33          	or	t3,t3,a2
 106:	01e94603          	lbu	a2,30(s2)
 10a:	00e94783          	lbu	a5,14(s2)
 10e:	00f94803          	lbu	a6,15(s2)
 112:	8a21                	and	a2,a2,8
 114:	0644d883          	lhu	a7,100(s1)
 118:	0664d503          	lhu	a0,102(s1)
 11c:	01094e83          	lbu	t4,16(s2)
 120:	01194f03          	lbu	t5,17(s2)
 124:	02c48f83          	lb	t6,44(s1)
 128:	56a2                	lw	a3,40(sp)
 12a:	55b2                	lw	a1,44(sp)
 12c:	12061763          	bnez	a2,25a <.L734>
 130:	00000337          	lui	t1,0x0
 134:	00030313          	mv	t1,t1

00000138 <.L723>:
 138:	c02a                	sw	a0,0(sp)
 13a:	00000537          	lui	a0,0x0
 13e:	ca1a                	sw	t1,20(sp)
 140:	c872                	sw	t3,16(sp)
 142:	c67e                	sw	t6,12(sp)
 144:	c47a                	sw	t5,8(sp)
 146:	c276                	sw	t4,4(sp)
 148:	864e                	mv	a2,s3
 14a:	00050513          	mv	a0,a0
 14e:	00000097          	auipc	ra,0x0
 152:	000080e7          	jalr	ra # 14e <.L723+0x16>
 156:	01e94783          	lbu	a5,30(s2)
 15a:	8b85                	and	a5,a5,1
 15c:	cf8d                	beqz	a5,196 <.L724>
 15e:	03894603          	lbu	a2,56(s2)
 162:	03794883          	lbu	a7,55(s2)
 166:	03694803          	lbu	a6,54(s2)
 16a:	03594783          	lbu	a5,53(s2)
 16e:	03494703          	lbu	a4,52(s2)
 172:	03394683          	lbu	a3,51(s2)
 176:	000005b7          	lui	a1,0x0
 17a:	c032                	sw	a2,0(sp)
 17c:	00000537          	lui	a0,0x0
 180:	6605                	lui	a2,0x1
 182:	72d60613          	add	a2,a2,1837 # 172d <.L3226+0x7>
 186:	00058593          	mv	a1,a1
 18a:	00050513          	mv	a0,a0
 18e:	00000097          	auipc	ra,0x0
 192:	000080e7          	jalr	ra # 18e <.L723+0x56>

00000196 <.L724>:
 196:	c419                	beqz	s0,1a4 <.L725>
 198:	01e94783          	lbu	a5,30(s2)
 19c:	4401                	li	s0,0
 19e:	8b89                	and	a5,a5,2
 1a0:	ec0782e3          	beqz	a5,64 <.L716>

000001a4 <.L725>:
 1a4:	02d94683          	lbu	a3,45(s2)
 1a8:	08000793          	li	a5,128
 1ac:	0af69c63          	bne	a3,a5,264 <.L726>
 1b0:	000005b7          	lui	a1,0x0
 1b4:	4619                	li	a2,6
 1b6:	00058593          	mv	a1,a1
 1ba:	1828                	add	a0,sp,56
 1bc:	00000097          	auipc	ra,0x0
 1c0:	000080e7          	jalr	ra # 1bc <.L725+0x18>
 1c4:	842a                	mv	s0,a0
 1c6:	e8050fe3          	beqz	a0,64 <.L716>
 1ca:	4619                	li	a2,6
 1cc:	182c                	add	a1,sp,56
 1ce:	8526                	mv	a0,s1
 1d0:	00000097          	auipc	ra,0x0
 1d4:	000080e7          	jalr	ra # 1d0 <.L725+0x2c>
 1d8:	842a                	mv	s0,a0
 1da:	e80505e3          	beqz	a0,64 <.L716>
 1de:	0054c783          	lbu	a5,5(s1)
 1e2:	03c14883          	lbu	a7,60(sp)
 1e6:	03b14803          	lbu	a6,59(sp)
 1ea:	cc3e                	sw	a5,24(sp)
 1ec:	0044c783          	lbu	a5,4(s1)
 1f0:	03914703          	lbu	a4,57(sp)
 1f4:	03814683          	lbu	a3,56(sp)
 1f8:	ca3e                	sw	a5,20(sp)
 1fa:	0034c783          	lbu	a5,3(s1)
 1fe:	6605                	lui	a2,0x1
 200:	000005b7          	lui	a1,0x0
 204:	c83e                	sw	a5,16(sp)
 206:	0024c783          	lbu	a5,2(s1)
 20a:	00000537          	lui	a0,0x0
 20e:	73760613          	add	a2,a2,1847 # 1737 <.L3226+0x11>
 212:	c63e                	sw	a5,12(sp)
 214:	0014c783          	lbu	a5,1(s1)
 218:	00058593          	mv	a1,a1
 21c:	00050513          	mv	a0,a0
 220:	c43e                	sw	a5,8(sp)
 222:	0004c783          	lbu	a5,0(s1)
 226:	4401                	li	s0,0
 228:	c23e                	sw	a5,4(sp)
 22a:	03d14783          	lbu	a5,61(sp)
 22e:	c03e                	sw	a5,0(sp)
 230:	03a14783          	lbu	a5,58(sp)
 234:	00000097          	auipc	ra,0x0
 238:	000080e7          	jalr	ra # 234 <.L725+0x90>
 23c:	b525                	j	64 <.L716>

0000023e <.L720>:
 23e:	01e94783          	lbu	a5,30(s2)
 242:	8b89                	and	a5,a5,2
 244:	e8078ae3          	beqz	a5,d8 <.L721>
 248:	4619                	li	a2,6
 24a:	02690593          	add	a1,s2,38
 24e:	b541                	j	ce <.L753>

00000250 <.L733>:
 250:	000005b7          	lui	a1,0x0
 254:	00058593          	mv	a1,a1
 258:	b571                	j	e4 <.L722>

0000025a <.L734>:
 25a:	00000337          	lui	t1,0x0
 25e:	00030313          	mv	t1,t1
 262:	bdd9                	j	138 <.L723>

00000264 <.L726>:
 264:	4401                	li	s0,0
 266:	ded7ffe3          	bgeu	a5,a3,64 <.L716>
 26a:	0054c783          	lbu	a5,5(s1)
 26e:	03b14883          	lbu	a7,59(sp)
 272:	03a14803          	lbu	a6,58(sp)
 276:	ce3e                	sw	a5,28(sp)
 278:	0044c783          	lbu	a5,4(s1)
 27c:	03814703          	lbu	a4,56(sp)
 280:	6605                	lui	a2,0x1
 282:	cc3e                	sw	a5,24(sp)
 284:	0034c783          	lbu	a5,3(s1)
 288:	000005b7          	lui	a1,0x0
 28c:	00000537          	lui	a0,0x0
 290:	ca3e                	sw	a5,20(sp)
 292:	0024c783          	lbu	a5,2(s1)
 296:	73960613          	add	a2,a2,1849 # 1739 <.L3226+0x13>
 29a:	00058593          	mv	a1,a1
 29e:	c83e                	sw	a5,16(sp)
 2a0:	0014c783          	lbu	a5,1(s1)
 2a4:	00050513          	mv	a0,a0
 2a8:	c63e                	sw	a5,12(sp)
 2aa:	0004c783          	lbu	a5,0(s1)
 2ae:	c43e                	sw	a5,8(sp)
 2b0:	03d14783          	lbu	a5,61(sp)
 2b4:	c23e                	sw	a5,4(sp)
 2b6:	03c14783          	lbu	a5,60(sp)
 2ba:	c03e                	sw	a5,0(sp)
 2bc:	03914783          	lbu	a5,57(sp)
 2c0:	00000097          	auipc	ra,0x0
 2c4:	000080e7          	jalr	ra # 2c0 <.L726+0x5c>
 2c8:	bb71                	j	64 <.L716>

000002ca <.L730>:
 2ca:	6411                	lui	s0,0x4
 2cc:	0421                	add	s0,s0,8 # 4008 <.L3353+0xab0>
 2ce:	bb59                	j	64 <.L716>

Disassembly of section .text.mesh_scan_done_process_weak:

00000000 <mesh_scan_done_process_weak>:
   0:	7179                	add	sp,sp,-48
   2:	d226                	sw	s1,36(sp)
   4:	d04a                	sw	s2,32(sp)
   6:	d606                	sw	ra,44(sp)
   8:	d422                	sw	s0,40(sp)
   a:	ce4e                	sw	s3,28(sp)
   c:	05c52903          	lw	s2,92(a0) # 5c <.L759+0x4>
  10:	84aa                	mv	s1,a0
  12:	00000097          	auipc	ra,0x0
  16:	000080e7          	jalr	ra # 12 <mesh_scan_done_process_weak+0x12>
  1a:	c555                	beqz	a0,c6 <.L757>
  1c:	00000537          	lui	a0,0x0
  20:	4619                	li	a2,6
  22:	85a6                	mv	a1,s1
  24:	00050513          	mv	a0,a0
  28:	00000097          	auipc	ra,0x0
  2c:	000080e7          	jalr	ra # 28 <mesh_scan_done_process_weak+0x28>
  30:	000009b7          	lui	s3,0x0
  34:	0009a703          	lw	a4,0(s3) # 0 <mesh_scan_done_process_weak>
  38:	000007b7          	lui	a5,0x0
  3c:	00000437          	lui	s0,0x0
  40:	0007d783          	lhu	a5,0(a5) # 0 <mesh_scan_done_process_weak>
  44:	00040413          	mv	s0,s0
  48:	e759                	bnez	a4,d6 <.L758>
  4a:	00f94703          	lbu	a4,15(s2)
  4e:	8f99                	sub	a5,a5,a4
  50:	00f40723          	sb	a5,14(s0) # e <mesh_scan_done_process_weak+0xe>
  54:	00e407a3          	sb	a4,15(s0)

00000058 <.L759>:
  58:	01194783          	lbu	a5,17(s2)
  5c:	00f408a3          	sb	a5,17(s0)
  60:	000007b7          	lui	a5,0x0
  64:	0007a703          	lw	a4,0(a5) # 0 <mesh_scan_done_process_weak>
  68:	4789                	li	a5,2
  6a:	04e7fe63          	bgeu	a5,a4,c6 <.L757>
  6e:	000007b7          	lui	a5,0x0
  72:	0007a783          	lw	a5,0(a5) # 0 <mesh_scan_done_process_weak>
  76:	cba1                	beqz	a5,c6 <.L757>
  78:	14c7a903          	lw	s2,332(a5)
  7c:	04090563          	beqz	s2,c6 <.L757>
  80:	1547a783          	lw	a5,340(a5)
  84:	9782                	jalr	a5
  86:	0009a783          	lw	a5,0(s3)
  8a:	86aa                	mv	a3,a0
  8c:	e3ad                	bnez	a5,ee <.L761>
  8e:	00f44803          	lbu	a6,15(s0)

00000092 <.L762>:
  92:	000007b7          	lui	a5,0x0
  96:	00078793          	mv	a5,a5
  9a:	43dc                	lw	a5,4(a5)
  9c:	02c48883          	lb	a7,44(s1)
  a0:	000005b7          	lui	a1,0x0
  a4:	c23e                	sw	a5,4(sp)
  a6:	01144783          	lbu	a5,17(s0)
  aa:	00000637          	lui	a2,0x0
  ae:	00058713          	mv	a4,a1
  b2:	c03e                	sw	a5,0(sp)
  b4:	6785                	lui	a5,0x1
  b6:	74e78793          	add	a5,a5,1870 # 174e <.L3224+0x10>
  ba:	00060613          	mv	a2,a2
  be:	00058593          	mv	a1,a1
  c2:	450d                	li	a0,3
  c4:	9902                	jalr	s2

000000c6 <.L757>:
  c6:	50b2                	lw	ra,44(sp)
  c8:	5422                	lw	s0,40(sp)
  ca:	5492                	lw	s1,36(sp)
  cc:	5902                	lw	s2,32(sp)
  ce:	49f2                	lw	s3,28(sp)
  d0:	4501                	li	a0,0
  d2:	6145                	add	sp,sp,48
  d4:	8082                	ret

000000d6 <.L758>:
  d6:	0664d683          	lhu	a3,102(s1)
  da:	00000737          	lui	a4,0x0
  de:	00070713          	mv	a4,a4
  e2:	8f95                	sub	a5,a5,a3
  e4:	00f71023          	sh	a5,0(a4) # 0 <mesh_scan_done_process_weak>
  e8:	00d71123          	sh	a3,2(a4)
  ec:	b7b5                	j	58 <.L759>

000000ee <.L761>:
  ee:	000007b7          	lui	a5,0x0
  f2:	0027d803          	lhu	a6,2(a5) # 2 <mesh_scan_done_process_weak+0x2>
  f6:	bf71                	j	92 <.L762>

Disassembly of section .text.esp_mesh_conn_init:

00000000 <esp_mesh_conn_init>:
   0:	ed01                	bnez	a0,18 <.L771>
   2:	557d                	li	a0,-1
   4:	8082                	ret

00000006 <.L773>:
   6:	557d                	li	a0,-1

00000008 <.L770>:
   8:	40f2                	lw	ra,28(sp)
   a:	4462                	lw	s0,24(sp)
   c:	44d2                	lw	s1,20(sp)
   e:	4942                	lw	s2,16(sp)
  10:	49b2                	lw	s3,12(sp)
  12:	4a22                	lw	s4,8(sp)
  14:	6105                	add	sp,sp,32
  16:	8082                	ret

00000018 <.L771>:
  18:	1101                	add	sp,sp,-32
  1a:	cc22                	sw	s0,24(sp)
  1c:	c84a                	sw	s2,16(sp)
  1e:	ce06                	sw	ra,28(sp)
  20:	ca26                	sw	s1,20(sp)
  22:	c64e                	sw	s3,12(sp)
  24:	c452                	sw	s4,8(sp)
  26:	2c054783          	lbu	a5,704(a0) # 2c0 <.L1967+0x8>
  2a:	4905                	li	s2,1
  2c:	842a                	mv	s0,a0
  2e:	4501                	li	a0,0
  30:	fd278ce3          	beq	a5,s2,8 <.L770>
  34:	000007b7          	lui	a5,0x0
  38:	0007a783          	lw	a5,0(a5) # 0 <esp_mesh_conn_init>
  3c:	000004b7          	lui	s1,0x0
  40:	00048493          	mv	s1,s1
  44:	47fc                	lw	a5,76(a5)
  46:	9782                	jalr	a5
  48:	c088                	sw	a0,0(s1)
  4a:	dd55                	beqz	a0,6 <.L773>
  4c:	00000537          	lui	a0,0x0
  50:	00050513          	mv	a0,a0
  54:	00000097          	auipc	ra,0x0
  58:	000080e7          	jalr	ra # 54 <.L771+0x3c>
  5c:	00000537          	lui	a0,0x0
  60:	00050513          	mv	a0,a0
  64:	00000097          	auipc	ra,0x0
  68:	000080e7          	jalr	ra # 64 <.L771+0x4c>
  6c:	4088                	lw	a0,0(s1)
  6e:	000007b7          	lui	a5,0x0
  72:	000009b7          	lui	s3,0x0
  76:	6a09                	lui	s4,0x2
  78:	00078023          	sb	zero,0(a5) # 0 <esp_mesh_conn_init>
  7c:	8b5a0613          	add	a2,s4,-1867 # 18b5 <.L3231+0x19>
  80:	000007b7          	lui	a5,0x0
  84:	00098593          	mv	a1,s3
  88:	01278023          	sb	s2,0(a5) # 0 <esp_mesh_conn_init>
  8c:	00000097          	auipc	ra,0x0
  90:	000080e7          	jalr	ra # 8c <.L771+0x74>
  94:	2c800613          	li	a2,712
  98:	4581                	li	a1,0
  9a:	8522                	mv	a0,s0
  9c:	00000097          	auipc	ra,0x0
  a0:	000080e7          	jalr	ra # 9c <.L771+0x84>
  a4:	4088                	lw	a0,0(s1)
  a6:	2d240023          	sb	s2,704(s0)
  aa:	8b8a0613          	add	a2,s4,-1864
  ae:	00098593          	mv	a1,s3
  b2:	00000097          	auipc	ra,0x0
  b6:	000080e7          	jalr	ra # b2 <.L771+0x9a>
  ba:	4501                	li	a0,0
  bc:	b7b1                	j	8 <.L770>

Disassembly of section .text.esp_mesh_conn_deinit:

00000000 <esp_mesh_conn_deinit>:
   0:	c945                	beqz	a0,b0 <.L785>
   2:	1101                	add	sp,sp,-32
   4:	ca26                	sw	s1,20(sp)
   6:	ce06                	sw	ra,28(sp)
   8:	cc22                	sw	s0,24(sp)
   a:	c84a                	sw	s2,16(sp)
   c:	c64e                	sw	s3,12(sp)
   e:	2c054783          	lbu	a5,704(a0) # 2c0 <.L1967+0x8>
  12:	84aa                	mv	s1,a0
  14:	eb89                	bnez	a5,26 <.L783>

00000016 <.L793>:
  16:	40f2                	lw	ra,28(sp)
  18:	4462                	lw	s0,24(sp)
  1a:	44d2                	lw	s1,20(sp)
  1c:	4942                	lw	s2,16(sp)
  1e:	49b2                	lw	s3,12(sp)
  20:	4501                	li	a0,0
  22:	6105                	add	sp,sp,32
  24:	8082                	ret

00000026 <.L783>:
  26:	00000537          	lui	a0,0x0
  2a:	00050513          	mv	a0,a0
  2e:	00000097          	auipc	ra,0x0
  32:	000080e7          	jalr	ra # 2e <.L783+0x8>
  36:	00000537          	lui	a0,0x0
  3a:	00050513          	mv	a0,a0
  3e:	00000437          	lui	s0,0x0
  42:	00000097          	auipc	ra,0x0
  46:	000080e7          	jalr	ra # 42 <.L783+0x1c>
  4a:	00040413          	mv	s0,s0
  4e:	4008                	lw	a0,0(s0)
  50:	000007b7          	lui	a5,0x0
  54:	00000937          	lui	s2,0x0
  58:	6989                	lui	s3,0x2
  5a:	4705                	li	a4,1
  5c:	00078023          	sb	zero,0(a5) # 0 <esp_mesh_conn_deinit>
  60:	8c998613          	add	a2,s3,-1847 # 18c9 <.L3232+0x3>
  64:	000007b7          	lui	a5,0x0
  68:	00090593          	mv	a1,s2
  6c:	00e78023          	sb	a4,0(a5) # 0 <esp_mesh_conn_deinit>
  70:	00000097          	auipc	ra,0x0
  74:	000080e7          	jalr	ra # 70 <.L783+0x4a>
  78:	2c800613          	li	a2,712
  7c:	4581                	li	a1,0
  7e:	8526                	mv	a0,s1
  80:	00000097          	auipc	ra,0x0
  84:	000080e7          	jalr	ra # 80 <.L783+0x5a>
  88:	4008                	lw	a0,0(s0)
  8a:	8cb98613          	add	a2,s3,-1845
  8e:	00090593          	mv	a1,s2
  92:	00000097          	auipc	ra,0x0
  96:	000080e7          	jalr	ra # 92 <.L783+0x6c>
  9a:	4008                	lw	a0,0(s0)
  9c:	dd2d                	beqz	a0,16 <.L793>
  9e:	000007b7          	lui	a5,0x0
  a2:	0007a783          	lw	a5,0(a5) # 0 <esp_mesh_conn_deinit>
  a6:	5f9c                	lw	a5,56(a5)
  a8:	9782                	jalr	a5
  aa:	00042023          	sw	zero,0(s0) # 0 <esp_mesh_conn_deinit>
  ae:	b7a5                	j	16 <.L793>

000000b0 <.L785>:
  b0:	557d                	li	a0,-1
  b2:	8082                	ret

Disassembly of section .text.mesh_parent_insert_candidate:

00000000 <mesh_parent_insert_candidate>:
   0:	7179                	add	sp,sp,-48
   2:	d606                	sw	ra,44(sp)
   4:	d422                	sw	s0,40(sp)
   6:	d226                	sw	s1,36(sp)
   8:	d04a                	sw	s2,32(sp)
   a:	ce4e                	sw	s3,28(sp)
   c:	cc52                	sw	s4,24(sp)
   e:	ca56                	sw	s5,20(sp)
  10:	c85a                	sw	s6,16(sp)
  12:	c65e                	sw	s7,12(sp)
  14:	c462                	sw	s8,8(sp)
  16:	e53d                	bnez	a0,84 <.L795>
  18:	000007b7          	lui	a5,0x0
  1c:	0007a703          	lw	a4,0(a5) # 0 <mesh_parent_insert_candidate>
  20:	4789                	li	a5,2
  22:	14e7fd63          	bgeu	a5,a4,17c <.L808>
  26:	000007b7          	lui	a5,0x0
  2a:	0007a783          	lw	a5,0(a5) # 0 <mesh_parent_insert_candidate>
  2e:	6411                	lui	s0,0x4
  30:	0421                	add	s0,s0,8 # 4008 <.L3353+0xab0>
  32:	8522                	mv	a0,s0
  34:	cf85                	beqz	a5,6c <.L794>
  36:	14c7a483          	lw	s1,332(a5)
  3a:	c88d                	beqz	s1,6c <.L794>
  3c:	1547a783          	lw	a5,340(a5)
  40:	9782                	jalr	a5
  42:	6809                	lui	a6,0x2
  44:	86aa                	mv	a3,a0
  46:	8d680813          	add	a6,a6,-1834 # 18d6 <.L3232+0x10>

0000004a <.L820>:
  4a:	000005b7          	lui	a1,0x0
  4e:	000007b7          	lui	a5,0x0
  52:	00000637          	lui	a2,0x0
  56:	00058713          	mv	a4,a1
  5a:	450d                	li	a0,3
  5c:	00078793          	mv	a5,a5
  60:	00060613          	mv	a2,a2
  64:	00058593          	mv	a1,a1
  68:	9482                	jalr	s1
  6a:	8522                	mv	a0,s0

0000006c <.L794>:
  6c:	50b2                	lw	ra,44(sp)
  6e:	5422                	lw	s0,40(sp)
  70:	5492                	lw	s1,36(sp)
  72:	5902                	lw	s2,32(sp)
  74:	49f2                	lw	s3,28(sp)
  76:	4a62                	lw	s4,24(sp)
  78:	4ad2                	lw	s5,20(sp)
  7a:	4b42                	lw	s6,16(sp)
  7c:	4bb2                	lw	s7,12(sp)
  7e:	4c22                	lw	s8,8(sp)
  80:	6145                	add	sp,sp,48
  82:	8082                	ret

00000084 <.L795>:
  84:	89b2                	mv	s3,a2
  86:	c215                	beqz	a2,aa <.L797>
  88:	00000ab7          	lui	s5,0x0
  8c:	842a                	mv	s0,a0
  8e:	8a2e                	mv	s4,a1
  90:	4481                	li	s1,0
  92:	000a8a93          	mv	s5,s5
  96:	00000bb7          	lui	s7,0x0
  9a:	00000b37          	lui	s6,0x0
  9e:	00000c37          	lui	s8,0x0

000000a2 <.L798>:
  a2:	03449e63          	bne	s1,s4,de <.L804>
  a6:	4501                	li	a0,0
  a8:	b7d1                	j	6c <.L794>

000000aa <.L797>:
  aa:	000007b7          	lui	a5,0x0
  ae:	0007a703          	lw	a4,0(a5) # 0 <mesh_parent_insert_candidate>
  b2:	4789                	li	a5,2
  b4:	0ce7f463          	bgeu	a5,a4,17c <.L808>
  b8:	000007b7          	lui	a5,0x0
  bc:	0007a783          	lw	a5,0(a5) # 0 <mesh_parent_insert_candidate>
  c0:	6411                	lui	s0,0x4
  c2:	0421                	add	s0,s0,8 # 4008 <.L3353+0xab0>
  c4:	8522                	mv	a0,s0
  c6:	d3dd                	beqz	a5,6c <.L794>
  c8:	14c7a483          	lw	s1,332(a5)
  cc:	d0c5                	beqz	s1,6c <.L794>
  ce:	1547a783          	lw	a5,340(a5)
  d2:	9782                	jalr	a5
  d4:	6809                	lui	a6,0x2
  d6:	86aa                	mv	a3,a0
  d8:	8d780813          	add	a6,a6,-1833 # 18d7 <.L3232+0x11>
  dc:	b7bd                	j	4a <.L820>

000000de <.L804>:
  de:	4c68                	lw	a0,92(s0)
  e0:	c105                	beqz	a0,100 <.L799>
  e2:	4619                	li	a2,6
  e4:	006c0593          	add	a1,s8,6 # 6 <mesh_parent_insert_candidate+0x6>
  e8:	0521                	add	a0,a0,8 # 8 <mesh_parent_insert_candidate+0x8>

000000ea <.L819>:
  ea:	00000097          	auipc	ra,0x0
  ee:	000080e7          	jalr	ra # ea <.L819>
  f2:	c535                	beqz	a0,15e <.L800>

000000f4 <.L801>:
  f4:	0485                	add	s1,s1,1 # 1 <mesh_parent_insert_candidate+0x1>
  f6:	04c2                	sll	s1,s1,0x10
  f8:	80c1                	srl	s1,s1,0x10
  fa:	06c40413          	add	s0,s0,108
  fe:	b755                	j	a2 <.L798>

00000100 <.L799>:
 100:	00644783          	lbu	a5,6(s0)
 104:	cf99                	beqz	a5,122 <.L802>
 106:	00640913          	add	s2,s0,6
 10a:	02000593          	li	a1,32
 10e:	854a                	mv	a0,s2
 110:	00000097          	auipc	ra,0x0
 114:	000080e7          	jalr	ra # 110 <.L799+0x10>
 118:	862a                	mv	a2,a0
 11a:	85ca                	mv	a1,s2
 11c:	00cb0513          	add	a0,s6,12 # c <mesh_parent_insert_candidate+0xc>
 120:	b7e9                	j	ea <.L819>

00000122 <.L802>:
 122:	0c4ac783          	lbu	a5,196(s5) # c4 <.L797+0x1a>
 126:	8b85                	and	a5,a5,1
 128:	cb9d                	beqz	a5,15e <.L800>
 12a:	4619                	li	a2,6
 12c:	85a2                	mv	a1,s0
 12e:	0beb8513          	add	a0,s7,190 # be <.L797+0x14>
 132:	00000097          	auipc	ra,0x0
 136:	000080e7          	jalr	ra # 132 <.L802+0x10>
 13a:	fd4d                	bnez	a0,f4 <.L801>
 13c:	02000593          	li	a1,32
 140:	00cb0513          	add	a0,s6,12
 144:	00000097          	auipc	ra,0x0
 148:	000080e7          	jalr	ra # 144 <.L802+0x22>
 14c:	862a                	mv	a2,a0
 14e:	00cb0593          	add	a1,s6,12
 152:	00640513          	add	a0,s0,6
 156:	00000097          	auipc	ra,0x0
 15a:	000080e7          	jalr	ra # 156 <.L802+0x34>

0000015e <.L800>:
 15e:	4605                	li	a2,1
 160:	85a2                	mv	a1,s0
 162:	854e                	mv	a0,s3
 164:	00000097          	auipc	ra,0x0
 168:	000080e7          	jalr	ra # 164 <.L800+0x6>
 16c:	f541                	bnez	a0,f4 <.L801>
 16e:	85a2                	mv	a1,s0
 170:	854e                	mv	a0,s3
 172:	00000097          	auipc	ra,0x0
 176:	000080e7          	jalr	ra # 172 <.L800+0x14>
 17a:	bfad                	j	f4 <.L801>

0000017c <.L808>:
 17c:	6511                	lui	a0,0x4
 17e:	0521                	add	a0,a0,8 # 4008 <.L3353+0xab0>
 180:	b5f5                	j	6c <.L794>

Disassembly of section .text.esp_mesh_scan_done_vote:

00000000 <esp_mesh_scan_done_vote>:
   0:	7111                	add	sp,sp,-256
   2:	c7ee                	sw	s11,204(sp)
   4:	00000db7          	lui	s11,0x0
   8:	000da783          	lw	a5,0(s11) # 0 <esp_mesh_scan_done_vote>
   c:	df86                	sw	ra,252(sp)
   e:	dda2                	sw	s0,248(sp)
  10:	dba6                	sw	s1,244(sp)
  12:	d9ca                	sw	s2,240(sp)
  14:	d7ce                	sw	s3,236(sp)
  16:	d5d2                	sw	s4,232(sp)
  18:	d3d6                	sw	s5,228(sp)
  1a:	d1da                	sw	s6,224(sp)
  1c:	cfde                	sw	s7,220(sp)
  1e:	cde2                	sw	s8,216(sp)
  20:	cbe6                	sw	s9,212(sp)
  22:	c9ea                	sw	s10,208(sp)
  24:	c6aa                	sw	a0,76(sp)
  26:	c4ae                	sw	a1,72(sp)
  28:	efd1                	bnez	a5,c4 <.L851>
  2a:	4d05                	li	s10,1
  2c:	03a00c93          	li	s9,58

00000030 <.L822>:
  30:	000007b7          	lui	a5,0x0
  34:	00dc8a13          	add	s4,s9,13
  38:	6485                	lui	s1,0x1
  3a:	65048613          	add	a2,s1,1616 # 1650 <.L3221+0x2>
  3e:	00078593          	mv	a1,a5
  42:	8552                	mv	a0,s4
  44:	00000097          	auipc	ra,0x0
  48:	000080e7          	jalr	ra # 44 <.L822+0x14>
  4c:	842a                	mv	s0,a0
  4e:	ed3d                	bnez	a0,cc <.L823>
  50:	00000937          	lui	s2,0x0
  54:	00092783          	lw	a5,0(s2) # 0 <esp_mesh_scan_done_vote>
  58:	c3b1                	beqz	a5,9c <.L824>
  5a:	14c7a403          	lw	s0,332(a5) # 14c <.L829+0x22>
  5e:	cc1d                	beqz	s0,9c <.L824>
  60:	1547a783          	lw	a5,340(a5)
  64:	9782                	jalr	a5
  66:	00092783          	lw	a5,0(s2)
  6a:	c4aa                	sw	a0,72(sp)
  6c:	0b87a783          	lw	a5,184(a5)
  70:	9782                	jalr	a5
  72:	46a6                	lw	a3,72(sp)
  74:	000005b7          	lui	a1,0x0
  78:	000007b7          	lui	a5,0x0
  7c:	00000637          	lui	a2,0x0
  80:	c02a                	sw	a0,0(sp)
  82:	00058713          	mv	a4,a1
  86:	88d2                	mv	a7,s4
  88:	65248813          	add	a6,s1,1618
  8c:	00078793          	mv	a5,a5
  90:	00060613          	mv	a2,a2
  94:	00058593          	mv	a1,a1
  98:	4505                	li	a0,1
  9a:	9402                	jalr	s0

0000009c <.L824>:
  9c:	00000097          	auipc	ra,0x0
  a0:	000080e7          	jalr	ra # 9c <.L824>

000000a4 <.L825>:
  a4:	50fe                	lw	ra,252(sp)
  a6:	546e                	lw	s0,248(sp)
  a8:	54de                	lw	s1,244(sp)
  aa:	594e                	lw	s2,240(sp)
  ac:	59be                	lw	s3,236(sp)
  ae:	5a2e                	lw	s4,232(sp)
  b0:	5a9e                	lw	s5,228(sp)
  b2:	5b0e                	lw	s6,224(sp)
  b4:	4bfe                	lw	s7,220(sp)
  b6:	4c6e                	lw	s8,216(sp)
  b8:	4cde                	lw	s9,212(sp)
  ba:	4d4e                	lw	s10,208(sp)
  bc:	4dbe                	lw	s11,204(sp)
  be:	4501                	li	a0,0
  c0:	6111                	add	sp,sp,256
  c2:	8082                	ret

000000c4 <.L851>:
  c4:	4d41                	li	s10,16
  c6:	03e00c93          	li	s9,62
  ca:	b79d                	j	30 <.L822>

000000cc <.L823>:
  cc:	000004b7          	lui	s1,0x0
  d0:	00000097          	auipc	ra,0x0
  d4:	000080e7          	jalr	ra # d0 <.L823+0x4>
  d8:	4b01                	li	s6,0
  da:	4c01                	li	s8,0
  dc:	4901                	li	s2,0
  de:	4b81                	li	s7,0
  e0:	4a81                	li	s5,0
  e2:	00048493          	mv	s1,s1

000000e6 <.L826>:
  e6:	088c                	add	a1,sp,80
  e8:	856a                	mv	a0,s10
  ea:	c882                	sw	zero,80(sp)
  ec:	00000097          	auipc	ra,0x0
  f0:	000080e7          	jalr	ra # ec <.L826+0x6>
  f4:	18051263          	bnez	a0,278 <.L827>
  f8:	06c00613          	li	a2,108
  fc:	4581                	li	a1,0
  fe:	08c8                	add	a0,sp,84
 100:	00000097          	auipc	ra,0x0
 104:	000080e7          	jalr	ra # 100 <.L826+0x1a>
 108:	47c6                	lw	a5,80(sp)
 10a:	02f05063          	blez	a5,12a <.L829>
 10e:	8652                	mv	a2,s4
 110:	4581                	li	a1,0
 112:	8522                	mv	a0,s0
 114:	00000097          	auipc	ra,0x0
 118:	000080e7          	jalr	ra # 114 <.L826+0x2e>
 11c:	47c6                	lw	a5,80(sp)
 11e:	d922                	sw	s0,176(sp)
 120:	01479563          	bne	a5,s4,12a <.L829>
 124:	019407b3          	add	a5,s0,s9
 128:	db3e                	sw	a5,180(sp)

0000012a <.L829>:
 12a:	8622                	mv	a2,s0
 12c:	08cc                	add	a1,sp,84
 12e:	856a                	mv	a0,s10
 130:	00000097          	auipc	ra,0x0
 134:	000080e7          	jalr	ra # 130 <.L829+0x6>
 138:	c129                	beqz	a0,17a <.L831>
 13a:	000007b7          	lui	a5,0x0
 13e:	0007a783          	lw	a5,0(a5) # 0 <esp_mesh_scan_done_vote>
 142:	cf85                	beqz	a5,17a <.L831>
 144:	14c7a983          	lw	s3,332(a5)
 148:	02098963          	beqz	s3,17a <.L831>
 14c:	1547a783          	lw	a5,340(a5)
 150:	9782                	jalr	a5
 152:	000005b7          	lui	a1,0x0
 156:	6805                	lui	a6,0x1
 158:	000007b7          	lui	a5,0x0
 15c:	00000637          	lui	a2,0x0
 160:	86aa                	mv	a3,a0
 162:	00058713          	mv	a4,a1
 166:	67080813          	add	a6,a6,1648 # 1670 <.L3223+0x16>
 16a:	00078793          	mv	a5,a5
 16e:	00060613          	mv	a2,a2
 172:	00058593          	mv	a1,a1
 176:	4505                	li	a0,1
 178:	9982                	jalr	s3

0000017a <.L831>:
 17a:	47c6                	lw	a5,80(sp)
 17c:	c3e9                	beqz	a5,23e <.L832>
 17e:	00000537          	lui	a0,0x0
 182:	08cc                	add	a1,sp,84
 184:	00050513          	mv	a0,a0
 188:	00000097          	auipc	ra,0x0
 18c:	000080e7          	jalr	ra # 188 <.L831+0xe>
 190:	000da783          	lw	a5,0(s11)
 194:	cb89                	beqz	a5,1a6 <.L833>
 196:	4611                	li	a2,4
 198:	03a40593          	add	a1,s0,58
 19c:	1928                	add	a0,sp,184
 19e:	00000097          	auipc	ra,0x0
 1a2:	000080e7          	jalr	ra # 19e <.L831+0x24>

000001a6 <.L833>:
 1a6:	000005b7          	lui	a1,0x0
 1aa:	4619                	li	a2,6
 1ac:	00858593          	add	a1,a1,8 # 8 <esp_mesh_scan_done_vote+0x8>
 1b0:	00840513          	add	a0,s0,8
 1b4:	00000097          	auipc	ra,0x0
 1b8:	000080e7          	jalr	ra # 1b4 <.L833+0xe>
 1bc:	c501                	beqz	a0,1c4 <.L834>
 1be:	0b85                	add	s7,s7,1

000001c0 <.L835>:
 1c0:	0b05                	add	s6,s6,1
 1c2:	b715                	j	e6 <.L826>

000001c4 <.L834>:
 1c4:	0c44c783          	lbu	a5,196(s1) # c4 <.L851>
 1c8:	8b89                	and	a5,a5,2
 1ca:	ef95                	bnez	a5,206 <.L836>
 1cc:	555a                	lw	a0,180(sp)
 1ce:	00000097          	auipc	ra,0x0
 1d2:	000080e7          	jalr	ra # 1ce <.L834+0xa>
 1d6:	e905                	bnez	a0,206 <.L836>
 1d8:	0c44c783          	lbu	a5,196(s1)
 1dc:	8b89                	and	a5,a5,2
 1de:	e395                	bnez	a5,202 <.L837>
 1e0:	0734c783          	lbu	a5,115(s1)
 1e4:	e38d                	bnez	a5,206 <.L836>
 1e6:	000005b7          	lui	a1,0x0
 1ea:	00000537          	lui	a0,0x0
 1ee:	4619                	li	a2,6
 1f0:	00058593          	mv	a1,a1
 1f4:	02d50513          	add	a0,a0,45 # 2d <esp_mesh_scan_done_vote+0x2d>
 1f8:	00000097          	auipc	ra,0x0
 1fc:	000080e7          	jalr	ra # 1f8 <.L834+0x34>
 200:	c119                	beqz	a0,206 <.L836>

00000202 <.L837>:
 202:	0c05                	add	s8,s8,1
 204:	bf75                	j	1c0 <.L835>

00000206 <.L836>:
 206:	00744783          	lbu	a5,7(s0)
 20a:	4705                	li	a4,1
 20c:	00e79e63          	bne	a5,a4,228 <.L838>
 210:	0905                	add	s2,s2,1

00000212 <.L839>:
 212:	000007b7          	lui	a5,0x0
 216:	00078613          	mv	a2,a5
 21a:	4585                	li	a1,1
 21c:	08c8                	add	a0,sp,84
 21e:	00000097          	auipc	ra,0x0
 222:	000080e7          	jalr	ra # 21e <.L839+0xc>
 226:	bf69                	j	1c0 <.L835>

00000228 <.L838>:
 228:	f7ed                	bnez	a5,212 <.L839>
 22a:	00000537          	lui	a0,0x0
 22e:	08cc                	add	a1,sp,84
 230:	00050513          	mv	a0,a0
 234:	00000097          	auipc	ra,0x0
 238:	000080e7          	jalr	ra # 234 <.L838+0xc>
 23c:	b751                	j	1c0 <.L835>

0000023e <.L832>:
 23e:	0c44c983          	lbu	s3,196(s1)
 242:	0019f993          	and	s3,s3,1
 246:	f6098de3          	beqz	s3,1c0 <.L835>
 24a:	000007b7          	lui	a5,0x0
 24e:	4619                	li	a2,6
 250:	0be78593          	add	a1,a5,190 # be <.L825+0x1a>
 254:	08c8                	add	a0,sp,84
 256:	00000097          	auipc	ra,0x0
 25a:	000080e7          	jalr	ra # 256 <.L832+0x18>
 25e:	f12d                	bnez	a0,1c0 <.L835>
 260:	000007b7          	lui	a5,0x0
 264:	00078613          	mv	a2,a5
 268:	4585                	li	a1,1
 26a:	08c8                	add	a0,sp,84
 26c:	00000097          	auipc	ra,0x0
 270:	000080e7          	jalr	ra # 26c <.L832+0x2e>
 274:	8ace                	mv	s5,s3
 276:	b7a9                	j	1c0 <.L835>

00000278 <.L827>:
 278:	000007b7          	lui	a5,0x0
 27c:	6605                	lui	a2,0x1
 27e:	00078593          	mv	a1,a5
 282:	8522                	mv	a0,s0
 284:	6b960613          	add	a2,a2,1721 # 16b9 <.L3225+0x1d>
 288:	00000097          	auipc	ra,0x0
 28c:	000080e7          	jalr	ra # 288 <.L827+0x10>
 290:	00000cb7          	lui	s9,0x0
 294:	000ca703          	lw	a4,0(s9) # 0 <esp_mesh_scan_done_vote>
 298:	000009b7          	lui	s3,0x0
 29c:	00000a37          	lui	s4,0x0
 2a0:	000004b7          	lui	s1,0x0
 2a4:	4789                	li	a5,2
 2a6:	00098993          	mv	s3,s3
 2aa:	000a0a13          	mv	s4,s4
 2ae:	00048413          	mv	s0,s1
 2b2:	0ce7f663          	bgeu	a5,a4,37e <.L840>
 2b6:	000007b7          	lui	a5,0x0
 2ba:	0007a783          	lw	a5,0(a5) # 0 <esp_mesh_scan_done_vote>
 2be:	c3e1                	beqz	a5,37e <.L840>
 2c0:	14c7ad03          	lw	s10,332(a5)
 2c4:	0a0d0d63          	beqz	s10,37e <.L840>
 2c8:	1547a783          	lw	a5,340(a5)
 2cc:	9782                	jalr	a5
 2ce:	000007b7          	lui	a5,0x0
 2d2:	0007d883          	lhu	a7,0(a5) # 0 <esp_mesh_scan_done_vote>
 2d6:	000007b7          	lui	a5,0x0
 2da:	00078793          	mv	a5,a5
 2de:	86aa                	mv	a3,a0
 2e0:	004a4803          	lbu	a6,4(s4) # 4 <esp_mesh_scan_done_vote+0x4>
 2e4:	0049c503          	lbu	a0,4(s3) # 4 <esp_mesh_scan_done_vote+0x4>
 2e8:	0be7c303          	lbu	t1,190(a5) # be <.L825+0x1a>
 2ec:	0bf7ce03          	lbu	t3,191(a5)
 2f0:	0c07ce83          	lbu	t4,192(a5)
 2f4:	0c17cf03          	lbu	t5,193(a5)
 2f8:	0c27cf83          	lbu	t6,194(a5)
 2fc:	0c37c283          	lbu	t0,195(a5)
 300:	1a0a9b63          	bnez	s5,4b6 <.L852>
 304:	000007b7          	lui	a5,0x0
 308:	00078793          	mv	a5,a5

0000030c <.L841>:
 30c:	01e44703          	lbu	a4,30(s0)
 310:	8b09                	and	a4,a4,2
 312:	1a071763          	bnez	a4,4c0 <.L853>
 316:	00000737          	lui	a4,0x0
 31a:	00070713          	mv	a4,a4

0000031e <.L842>:
 31e:	00744603          	lbu	a2,7(s0)
 322:	1a060463          	beqz	a2,4ca <.L854>
 326:	00000637          	lui	a2,0x0
 32a:	00060613          	mv	a2,a2

0000032e <.L843>:
 32e:	000005b7          	lui	a1,0x0
 332:	0005c583          	lbu	a1,0(a1) # 0 <esp_mesh_scan_done_vote>
 336:	18058f63          	beqz	a1,4d4 <.L855>
 33a:	000005b7          	lui	a1,0x0
 33e:	00058593          	mv	a1,a1

00000342 <.L844>:
 342:	d63e                	sw	a5,44(sp)
 344:	47b6                	lw	a5,76(sp)
 346:	dc2e                	sw	a1,56(sp)
 348:	da32                	sw	a2,52(sp)
 34a:	000005b7          	lui	a1,0x0
 34e:	00000637          	lui	a2,0x0
 352:	d83a                	sw	a4,48(sp)
 354:	c846                	sw	a7,16(sp)
 356:	c442                	sw	a6,8(sp)
 358:	c22a                	sw	a0,4(sp)
 35a:	00058713          	mv	a4,a1
 35e:	d416                	sw	t0,40(sp)
 360:	d27e                	sw	t6,36(sp)
 362:	d07a                	sw	t5,32(sp)
 364:	ce76                	sw	t4,28(sp)
 366:	cc72                	sw	t3,24(sp)
 368:	ca1a                	sw	t1,20(sp)
 36a:	c64a                	sw	s2,12(sp)
 36c:	c062                	sw	s8,0(sp)
 36e:	88de                	mv	a7,s7
 370:	885a                	mv	a6,s6
 372:	00060613          	mv	a2,a2
 376:	00058593          	mv	a1,a1
 37a:	450d                	li	a0,3
 37c:	9d02                	jalr	s10

0000037e <.L840>:
 37e:	00000ab7          	lui	s5,0x0
 382:	000a8793          	mv	a5,s5
 386:	4bd8                	lw	a4,20(a5)
 388:	4789                	li	a5,2
 38a:	000a8a93          	mv	s5,s5
 38e:	0ef71563          	bne	a4,a5,478 <.L846>
 392:	0e090363          	beqz	s2,478 <.L846>
 396:	00000097          	auipc	ra,0x0
 39a:	000080e7          	jalr	ra # 396 <.L840+0x18>
 39e:	00000b37          	lui	s6,0x0
 3a2:	000b2783          	lw	a5,0(s6) # 0 <esp_mesh_scan_done_vote>
 3a6:	00000937          	lui	s2,0x0
 3aa:	1087a783          	lw	a5,264(a5) # 108 <.L826+0x22>
 3ae:	9782                	jalr	a5
 3b0:	47a6                	lw	a5,72(sp)
 3b2:	00a92023          	sw	a0,0(s2) # 0 <esp_mesh_scan_done_vote>
 3b6:	00b92223          	sw	a1,4(s2)
 3ba:	00090913          	mv	s2,s2
 3be:	c781                	beqz	a5,3c6 <.L848>
 3c0:	4726                	lw	a4,72(sp)
 3c2:	4785                	li	a5,1
 3c4:	c31c                	sw	a5,0(a4)

000003c6 <.L848>:
 3c6:	000ca783          	lw	a5,0(s9)
 3ca:	4b89                	li	s7,2
 3cc:	0afbf663          	bgeu	s7,a5,478 <.L846>
 3d0:	000b2783          	lw	a5,0(s6)
 3d4:	c3d5                	beqz	a5,478 <.L846>
 3d6:	14c7ab03          	lw	s6,332(a5)
 3da:	080b0f63          	beqz	s6,478 <.L846>
 3de:	1547a783          	lw	a5,340(a5)
 3e2:	9782                	jalr	a5
 3e4:	014aa803          	lw	a6,20(s5) # 14 <esp_mesh_scan_done_vote+0x14>
 3e8:	000007b7          	lui	a5,0x0
 3ec:	0007a783          	lw	a5,0(a5) # 0 <esp_mesh_scan_done_vote>
 3f0:	86aa                	mv	a3,a0
 3f2:	0f780663          	beq	a6,s7,4de <.L856>
 3f6:	4705                	li	a4,1
 3f8:	0ee80863          	beq	a6,a4,4e8 <.L857>
 3fc:	000008b7          	lui	a7,0x0
 400:	00088893          	mv	a7,a7

00000404 <.L849>:
 404:	00000737          	lui	a4,0x0
 408:	00070713          	mv	a4,a4
 40c:	00074503          	lbu	a0,0(a4) # 0 <esp_mesh_scan_done_vote>
 410:	00174303          	lbu	t1,1(a4)
 414:	00274e03          	lbu	t3,2(a4)
 418:	00374e83          	lbu	t4,3(a4)
 41c:	00474f03          	lbu	t5,4(a4)
 420:	00574f83          	lbu	t6,5(a4)
 424:	00092603          	lw	a2,0(s2)
 428:	00492703          	lw	a4,4(s2)
 42c:	01d40283          	lb	t0,29(s0)
 430:	8229                	srl	a2,a2,0xa
 432:	01671593          	sll	a1,a4,0x16
 436:	8e4d                	or	a2,a2,a1
 438:	40a75593          	sra	a1,a4,0xa
 43c:	000ac703          	lbu	a4,0(s5)
 440:	8b11                	and	a4,a4,4
 442:	eb45                	bnez	a4,4f2 <.L858>
 444:	00000737          	lui	a4,0x0
 448:	00070713          	mv	a4,a4

0000044c <.L850>:
 44c:	d032                	sw	a2,32(sp)
 44e:	d22e                	sw	a1,36(sp)
 450:	00000637          	lui	a2,0x0
 454:	000005b7          	lui	a1,0x0
 458:	d43a                	sw	a4,40(sp)
 45a:	c02a                	sw	a0,0(sp)
 45c:	00058713          	mv	a4,a1
 460:	cc16                	sw	t0,24(sp)
 462:	ca7e                	sw	t6,20(sp)
 464:	c87a                	sw	t5,16(sp)
 466:	c676                	sw	t4,12(sp)
 468:	c472                	sw	t3,8(sp)
 46a:	c21a                	sw	t1,4(sp)
 46c:	00060613          	mv	a2,a2
 470:	00058593          	mv	a1,a1
 474:	450d                	li	a0,3
 476:	9b02                	jalr	s6

00000478 <.L846>:
 478:	0049c703          	lbu	a4,4(s3)
 47c:	004a4783          	lbu	a5,4(s4)
 480:	01a44683          	lbu	a3,26(s0)
 484:	97ba                	add	a5,a5,a4
 486:	01b44703          	lbu	a4,27(s0)
 48a:	07c2                	sll	a5,a5,0x10
 48c:	83c1                	srl	a5,a5,0x10
 48e:	0722                	sll	a4,a4,0x8
 490:	8f55                	or	a4,a4,a3
 492:	c0f709e3          	beq	a4,a5,a4 <.L825>
 496:	000005b7          	lui	a1,0x0
 49a:	00f40d23          	sb	a5,26(s0)
 49e:	00058593          	mv	a1,a1
 4a2:	83a1                	srl	a5,a5,0x8
 4a4:	00048513          	mv	a0,s1
 4a8:	00f40da3          	sb	a5,27(s0)
 4ac:	00000097          	auipc	ra,0x0
 4b0:	000080e7          	jalr	ra # 4ac <.L846+0x34>
 4b4:	bec5                	j	a4 <.L825>

000004b6 <.L852>:
 4b6:	000007b7          	lui	a5,0x0
 4ba:	00078793          	mv	a5,a5
 4be:	b5b9                	j	30c <.L841>

000004c0 <.L853>:
 4c0:	00000737          	lui	a4,0x0
 4c4:	00070713          	mv	a4,a4
 4c8:	bd99                	j	31e <.L842>

000004ca <.L854>:
 4ca:	00000637          	lui	a2,0x0
 4ce:	00060613          	mv	a2,a2
 4d2:	bdb1                	j	32e <.L843>

000004d4 <.L855>:
 4d4:	000005b7          	lui	a1,0x0
 4d8:	00058593          	mv	a1,a1
 4dc:	b59d                	j	342 <.L844>

000004de <.L856>:
 4de:	000008b7          	lui	a7,0x0
 4e2:	00088893          	mv	a7,a7
 4e6:	bf39                	j	404 <.L849>

000004e8 <.L857>:
 4e8:	000008b7          	lui	a7,0x0
 4ec:	00088893          	mv	a7,a7
 4f0:	bf11                	j	404 <.L849>

000004f2 <.L858>:
 4f2:	00000737          	lui	a4,0x0
 4f6:	00070713          	mv	a4,a4
 4fa:	bf89                	j	44c <.L850>

Disassembly of section .text.esp_mesh_scan_done:

00000000 <esp_mesh_scan_done>:
   0:	7165                	add	sp,sp,-400
   2:	18112623          	sw	ra,396(sp)
   6:	18812423          	sw	s0,392(sp)
   a:	18912223          	sw	s1,388(sp)
   e:	19212023          	sw	s2,384(sp)
  12:	17312e23          	sw	s3,380(sp)
  16:	17412c23          	sw	s4,376(sp)
  1a:	17512a23          	sw	s5,372(sp)
  1e:	17612823          	sw	s6,368(sp)
  22:	17712623          	sw	s7,364(sp)
  26:	17812423          	sw	s8,360(sp)
  2a:	17912223          	sw	s9,356(sp)
  2e:	17a12023          	sw	s10,352(sp)
  32:	15b12e23          	sw	s11,348(sp)
  36:	ceae                	sw	a1,92(sp)
  38:	e9c1                	bnez	a1,c8 <.L903>
  3a:	000007b7          	lui	a5,0x0
  3e:	0007a703          	lw	a4,0(a5) # 0 <esp_mesh_scan_done>
  42:	4789                	li	a5,2
  44:	6ee7fe63          	bgeu	a5,a4,740 <.L950>
  48:	000007b7          	lui	a5,0x0
  4c:	0007a783          	lw	a5,0(a5) # 0 <esp_mesh_scan_done>
  50:	6491                	lui	s1,0x4
  52:	04a1                	add	s1,s1,8 # 4008 <.L3353+0xab0>
  54:	8426                	mv	s0,s1
  56:	cf85                	beqz	a5,8e <.L902>
  58:	14c7a903          	lw	s2,332(a5)
  5c:	02090963          	beqz	s2,8e <.L902>
  60:	1547a783          	lw	a5,340(a5)
  64:	9782                	jalr	a5
  66:	6805                	lui	a6,0x1
  68:	86aa                	mv	a3,a0
  6a:	75a80813          	add	a6,a6,1882 # 175a <.L3390>

0000006e <.L1035>:
  6e:	000005b7          	lui	a1,0x0
  72:	000007b7          	lui	a5,0x0
  76:	00000637          	lui	a2,0x0
  7a:	00058713          	mv	a4,a1
  7e:	00078793          	mv	a5,a5
  82:	00060613          	mv	a2,a2
  86:	00058593          	mv	a1,a1
  8a:	450d                	li	a0,3
  8c:	9902                	jalr	s2

0000008e <.L902>:
  8e:	18c12083          	lw	ra,396(sp)
  92:	8522                	mv	a0,s0
  94:	18812403          	lw	s0,392(sp)
  98:	18412483          	lw	s1,388(sp)
  9c:	18012903          	lw	s2,384(sp)
  a0:	17c12983          	lw	s3,380(sp)
  a4:	17812a03          	lw	s4,376(sp)
  a8:	17412a83          	lw	s5,372(sp)
  ac:	17012b03          	lw	s6,368(sp)
  b0:	16c12b83          	lw	s7,364(sp)
  b4:	16812c03          	lw	s8,360(sp)
  b8:	16412c83          	lw	s9,356(sp)
  bc:	16012d03          	lw	s10,352(sp)
  c0:	15c12d83          	lw	s11,348(sp)
  c4:	6159                	add	sp,sp,400
  c6:	8082                	ret

000000c8 <.L903>:
  c8:	84aa                	mv	s1,a0
  ca:	ed05                	bnez	a0,102 <.L905>
  cc:	000007b7          	lui	a5,0x0
  d0:	0007a703          	lw	a4,0(a5) # 0 <esp_mesh_scan_done>
  d4:	4789                	li	a5,2
  d6:	66e7f563          	bgeu	a5,a4,740 <.L950>
  da:	000007b7          	lui	a5,0x0
  de:	0007a783          	lw	a5,0(a5) # 0 <esp_mesh_scan_done>
  e2:	6491                	lui	s1,0x4
  e4:	04a1                	add	s1,s1,8 # 4008 <.L3353+0xab0>
  e6:	8426                	mv	s0,s1
  e8:	d3dd                	beqz	a5,8e <.L902>
  ea:	14c7a903          	lw	s2,332(a5)
  ee:	fa0900e3          	beqz	s2,8e <.L902>
  f2:	1547a783          	lw	a5,340(a5)
  f6:	9782                	jalr	a5
  f8:	6805                	lui	a6,0x1
  fa:	86aa                	mv	a3,a0
  fc:	75b80813          	add	a6,a6,1883 # 175b <.L3390+0x1>
 100:	b7bd                	j	6e <.L1035>

00000102 <.L905>:
 102:	000007b7          	lui	a5,0x0
 106:	0007a403          	lw	s0,0(a5) # 0 <esp_mesh_scan_done>
 10a:	4905                	li	s2,1
 10c:	c011                	beqz	s0,110 <.L906>
 10e:	4941                	li	s2,16

00000110 <.L906>:
 110:	07000613          	li	a2,112
 114:	4581                	li	a1,0
 116:	1188                	add	a0,sp,224
 118:	00000097          	auipc	ra,0x0
 11c:	000080e7          	jalr	ra # 118 <.L906+0x8>
 120:	03a00793          	li	a5,58
 124:	ccbe                	sw	a5,88(sp)
 126:	c401                	beqz	s0,12e <.L907>
 128:	03e00793          	li	a5,62
 12c:	ccbe                	sw	a5,88(sp)

0000012e <.L907>:
 12e:	47e6                	lw	a5,88(sp)
 130:	6985                	lui	s3,0x1
 132:	76a98613          	add	a2,s3,1898 # 176a <.L3391+0x6>
 136:	00d78d13          	add	s10,a5,13
 13a:	000007b7          	lui	a5,0x0
 13e:	00078593          	mv	a1,a5
 142:	856a                	mv	a0,s10
 144:	00000097          	auipc	ra,0x0
 148:	000080e7          	jalr	ra # 144 <.L907+0x16>
 14c:	842a                	mv	s0,a0
 14e:	ed29                	bnez	a0,1a8 <.L908>
 150:	000004b7          	lui	s1,0x0
 154:	0004a783          	lw	a5,0(s1) # 0 <esp_mesh_scan_done>
 158:	c3b1                	beqz	a5,19c <.L909>
 15a:	14c7a403          	lw	s0,332(a5) # 14c <.L907+0x1e>
 15e:	cc1d                	beqz	s0,19c <.L909>
 160:	1547a783          	lw	a5,340(a5)
 164:	9782                	jalr	a5
 166:	0004a783          	lw	a5,0(s1)
 16a:	caaa                	sw	a0,84(sp)
 16c:	0b87a783          	lw	a5,184(a5)
 170:	9782                	jalr	a5
 172:	46d6                	lw	a3,84(sp)
 174:	000005b7          	lui	a1,0x0
 178:	000007b7          	lui	a5,0x0
 17c:	00000637          	lui	a2,0x0
 180:	c02a                	sw	a0,0(sp)
 182:	00058713          	mv	a4,a1
 186:	88ea                	mv	a7,s10
 188:	76c98813          	add	a6,s3,1900
 18c:	00078793          	mv	a5,a5
 190:	00060613          	mv	a2,a2
 194:	00058593          	mv	a1,a1
 198:	4505                	li	a0,1
 19a:	9402                	jalr	s0

0000019c <.L909>:
 19c:	00000097          	auipc	ra,0x0
 1a0:	000080e7          	jalr	ra # 19c <.L909>
 1a4:	4401                	li	s0,0
 1a6:	b5e5                	j	8e <.L902>

000001a8 <.L908>:
 1a8:	00896793          	or	a5,s2,8
 1ac:	d2be                	sw	a5,100(sp)
 1ae:	00000097          	auipc	ra,0x0
 1b2:	000080e7          	jalr	ra # 1ae <.L908+0x6>
 1b6:	00000097          	auipc	ra,0x0
 1ba:	000080e7          	jalr	ra # 1b6 <.L908+0xe>
 1be:	000007b7          	lui	a5,0x0
 1c2:	00078793          	mv	a5,a5
 1c6:	d4be                	sw	a5,104(sp)
 1c8:	000007b7          	lui	a5,0x0
 1cc:	00000b37          	lui	s6,0x0
 1d0:	000009b7          	lui	s3,0x0
 1d4:	00078793          	mv	a5,a5
 1d8:	4d81                	li	s11,0
 1da:	4a81                	li	s5,0
 1dc:	4b81                	li	s7,0
 1de:	4c01                	li	s8,0
 1e0:	4c81                	li	s9,0
 1e2:	ca82                	sw	zero,84(sp)
 1e4:	4901                	li	s2,0
 1e6:	000b0b13          	mv	s6,s6
 1ea:	00098993          	mv	s3,s3
 1ee:	d6be                	sw	a5,108(sp)

000001f0 <.L910>:
 1f0:	5516                	lw	a0,100(sp)
 1f2:	188c                	add	a1,sp,112
 1f4:	d882                	sw	zero,112(sp)
 1f6:	00000097          	auipc	ra,0x0
 1fa:	000080e7          	jalr	ra # 1f6 <.L910+0x6>
 1fe:	38051c63          	bnez	a0,596 <.L911>
 202:	06c00613          	li	a2,108
 206:	4581                	li	a1,0
 208:	18c8                	add	a0,sp,116
 20a:	00000097          	auipc	ra,0x0
 20e:	000080e7          	jalr	ra # 20a <.L910+0x1a>
 212:	57c6                	lw	a5,112(sp)
 214:	02f05063          	blez	a5,234 <.L913>
 218:	866a                	mv	a2,s10
 21a:	4581                	li	a1,0
 21c:	8522                	mv	a0,s0
 21e:	00000097          	auipc	ra,0x0
 222:	000080e7          	jalr	ra # 21e <.L910+0x2e>
 226:	57c6                	lw	a5,112(sp)
 228:	c9a2                	sw	s0,208(sp)
 22a:	01a79563          	bne	a5,s10,234 <.L913>
 22e:	47e6                	lw	a5,88(sp)
 230:	97a2                	add	a5,a5,s0
 232:	cbbe                	sw	a5,212(sp)

00000234 <.L913>:
 234:	5516                	lw	a0,100(sp)
 236:	8622                	mv	a2,s0
 238:	18cc                	add	a1,sp,116
 23a:	00000097          	auipc	ra,0x0
 23e:	000080e7          	jalr	ra # 23a <.L913+0x6>
 242:	c129                	beqz	a0,284 <.L915>
 244:	000007b7          	lui	a5,0x0
 248:	0007a783          	lw	a5,0(a5) # 0 <esp_mesh_scan_done>
 24c:	cf85                	beqz	a5,284 <.L915>
 24e:	14c7aa03          	lw	s4,332(a5)
 252:	020a0963          	beqz	s4,284 <.L915>
 256:	1547a783          	lw	a5,340(a5)
 25a:	9782                	jalr	a5
 25c:	000005b7          	lui	a1,0x0
 260:	6805                	lui	a6,0x1
 262:	000007b7          	lui	a5,0x0
 266:	00000637          	lui	a2,0x0
 26a:	86aa                	mv	a3,a0
 26c:	00058713          	mv	a4,a1
 270:	79880813          	add	a6,a6,1944 # 1798 <.L3220+0x20>
 274:	00078793          	mv	a5,a5
 278:	00060613          	mv	a2,a2
 27c:	00058593          	mv	a1,a1
 280:	4505                	li	a0,1
 282:	9a02                	jalr	s4

00000284 <.L915>:
 284:	57c6                	lw	a5,112(sp)
 286:	2a078a63          	beqz	a5,53a <.L916>
 28a:	00000537          	lui	a0,0x0
 28e:	18cc                	add	a1,sp,116
 290:	00050513          	mv	a0,a0
 294:	00000097          	auipc	ra,0x0
 298:	000080e7          	jalr	ra # 294 <.L915+0x10>
 29c:	000007b7          	lui	a5,0x0
 2a0:	0007a783          	lw	a5,0(a5) # 0 <esp_mesh_scan_done>
 2a4:	e79d                	bnez	a5,2d2 <.L917>
 2a6:	00f44a03          	lbu	s4,15(s0)
 2aa:	00e44783          	lbu	a5,14(s0)

000002ae <.L1033>:
 2ae:	000005b7          	lui	a1,0x0
 2b2:	4619                	li	a2,6
 2b4:	00858593          	add	a1,a1,8 # 8 <esp_mesh_scan_done+0x8>
 2b8:	00840513          	add	a0,s0,8
 2bc:	d0be                	sw	a5,96(sp)
 2be:	00000097          	auipc	ra,0x0
 2c2:	000080e7          	jalr	ra # 2be <.L1033+0x10>
 2c6:	cd05                	beqz	a0,2fe <.L919>
 2c8:	47d6                	lw	a5,84(sp)
 2ca:	0785                	add	a5,a5,1
 2cc:	cabe                	sw	a5,84(sp)

000002ce <.L920>:
 2ce:	0d85                	add	s11,s11,1
 2d0:	b705                	j	1f0 <.L910>

000002d2 <.L917>:
 2d2:	4611                	li	a2,4
 2d4:	03a40593          	add	a1,s0,58
 2d8:	09a8                	add	a0,sp,216
 2da:	00000097          	auipc	ra,0x0
 2de:	000080e7          	jalr	ra # 2da <.L917+0x8>
 2e2:	03d44a03          	lbu	s4,61(s0)
 2e6:	03c44783          	lbu	a5,60(s0)
 2ea:	03a44703          	lbu	a4,58(s0)
 2ee:	0a22                	sll	s4,s4,0x8
 2f0:	00fa6a33          	or	s4,s4,a5
 2f4:	03b44783          	lbu	a5,59(s0)
 2f8:	07a2                	sll	a5,a5,0x8
 2fa:	8fd9                	or	a5,a5,a4
 2fc:	bf4d                	j	2ae <.L1033>

000002fe <.L919>:
 2fe:	0c4b4783          	lbu	a5,196(s6) # c4 <.L902+0x36>
 302:	8b89                	and	a5,a5,2
 304:	e7a9                	bnez	a5,34e <.L921>
 306:	455e                	lw	a0,212(sp)
 308:	00000097          	auipc	ra,0x0
 30c:	000080e7          	jalr	ra # 308 <.L919+0xa>
 310:	ed1d                	bnez	a0,34e <.L921>
 312:	57a6                	lw	a5,104(sp)
 314:	0007c783          	lbu	a5,0(a5)
 318:	c791                	beqz	a5,324 <.L922>
 31a:	0054c783          	lbu	a5,5(s1)
 31e:	c399                	beqz	a5,324 <.L922>

00000320 <.L923>:
 320:	0b85                	add	s7,s7,1
 322:	b775                	j	2ce <.L920>

00000324 <.L922>:
 324:	0c4b4783          	lbu	a5,196(s6)
 328:	8b89                	and	a5,a5,2
 32a:	fbfd                	bnez	a5,320 <.L923>
 32c:	073b4783          	lbu	a5,115(s6)
 330:	ef99                	bnez	a5,34e <.L921>
 332:	000005b7          	lui	a1,0x0
 336:	00000537          	lui	a0,0x0
 33a:	4619                	li	a2,6
 33c:	00058593          	mv	a1,a1
 340:	02d50513          	add	a0,a0,45 # 2d <esp_mesh_scan_done+0x2d>
 344:	00000097          	auipc	ra,0x0
 348:	000080e7          	jalr	ra # 344 <.L922+0x20>
 34c:	f971                	bnez	a0,320 <.L923>

0000034e <.L921>:
 34e:	57a6                	lw	a5,104(sp)
 350:	0905                	add	s2,s2,1
 352:	0942                	sll	s2,s2,0x10
 354:	0007c783          	lbu	a5,0(a5)
 358:	01095913          	srl	s2,s2,0x10
 35c:	cb89                	beqz	a5,36e <.L924>
 35e:	0054c783          	lbu	a5,5(s1)
 362:	c791                	beqz	a5,36e <.L924>
 364:	18c8                	add	a0,sp,116
 366:	00000097          	auipc	ra,0x0
 36a:	000080e7          	jalr	ra # 366 <.L921+0x18>

0000036e <.L924>:
 36e:	01e44703          	lbu	a4,30(s0)
 372:	46a9                	li	a3,10
 374:	00744783          	lbu	a5,7(s0)
 378:	00a77613          	and	a2,a4,10
 37c:	02d61c63          	bne	a2,a3,3b4 <.L925>
 380:	cfc9                	beqz	a5,41a <.L926>
 382:	57b6                	lw	a5,108(sp)
 384:	0007c783          	lbu	a5,0(a5)
 388:	cb99                	beqz	a5,39e <.L927>
 38a:	0a85                	add	s5,s5,1
 38c:	4701                	li	a4,0
 38e:	4681                	li	a3,0
 390:	8656                	mv	a2,s5
 392:	18cc                	add	a1,sp,116
 394:	4501                	li	a0,0
 396:	00000097          	auipc	ra,0x0
 39a:	000080e7          	jalr	ra # 396 <.L924+0x28>

0000039e <.L927>:
 39e:	00000637          	lui	a2,0x0
 3a2:	00060613          	mv	a2,a2
 3a6:	4585                	li	a1,1
 3a8:	18c8                	add	a0,sp,116
 3aa:	00000097          	auipc	ra,0x0
 3ae:	000080e7          	jalr	ra # 3aa <.L927+0xc>
 3b2:	bf31                	j	2ce <.L920>

000003b4 <.L925>:
 3b4:	4685                	li	a3,1
 3b6:	10d79563          	bne	a5,a3,4c0 <.L928>
 3ba:	00000737          	lui	a4,0x0
 3be:	00072023          	sw	zero,0(a4) # 0 <esp_mesh_scan_done>
 3c2:	00000737          	lui	a4,0x0
 3c6:	00070713          	mv	a4,a4
 3ca:	00075683          	lhu	a3,0(a4) # 0 <esp_mesh_scan_done>
 3ce:	0c05                	add	s8,s8,1
 3d0:	04f69563          	bne	a3,a5,41a <.L926>
 3d4:	000007b7          	lui	a5,0x0
 3d8:	00078793          	mv	a5,a5
 3dc:	00071023          	sh	zero,0(a4)
 3e0:	0007c703          	lbu	a4,0(a5) # 0 <esp_mesh_scan_done>
 3e4:	00277693          	and	a3,a4,2
 3e8:	ca8d                	beqz	a3,41a <.L926>
 3ea:	000006b7          	lui	a3,0x0
 3ee:	0006c683          	lbu	a3,0(a3) # 0 <esp_mesh_scan_done>
 3f2:	ea99                	bnez	a3,408 <.L929>
 3f4:	9b71                	and	a4,a4,-4
 3f6:	00e78023          	sb	a4,0(a5)
 3fa:	01e9c783          	lbu	a5,30(s3) # 1e <esp_mesh_scan_done+0x1e>
 3fe:	02098923          	sb	zero,50(s3)
 402:	9bf5                	and	a5,a5,-3
 404:	00f98f23          	sb	a5,30(s3)

00000408 <.L929>:
 408:	000005b7          	lui	a1,0x0
 40c:	00058593          	mv	a1,a1
 410:	854e                	mv	a0,s3
 412:	00000097          	auipc	ra,0x0
 416:	000080e7          	jalr	ra # 412 <.L929+0xa>

0000041a <.L926>:
 41a:	4789                	li	a5,2
 41c:	00fa1c63          	bne	s4,a5,434 <.L931>
 420:	00000637          	lui	a2,0x0
 424:	00060613          	mv	a2,a2
 428:	4585                	li	a1,1
 42a:	18c8                	add	a0,sp,116
 42c:	00000097          	auipc	ra,0x0
 430:	000080e7          	jalr	ra # 42c <.L926+0x12>

00000434 <.L931>:
 434:	07914783          	lbu	a5,121(sp)
 438:	00744683          	lbu	a3,7(s0)
 43c:	fff78713          	add	a4,a5,-1
 440:	06e10ca3          	sb	a4,121(sp)
 444:	4705                	li	a4,1
 446:	08e68a63          	beq	a3,a4,4da <.L932>
 44a:	18c8                	add	a0,sp,116
 44c:	00000097          	auipc	ra,0x0
 450:	000080e7          	jalr	ra # 44c <.L931+0x18>
 454:	07914783          	lbu	a5,121(sp)
 458:	8a2a                	mv	s4,a0
 45a:	00000537          	lui	a0,0x0
 45e:	0785                	add	a5,a5,1
 460:	4601                	li	a2,0
 462:	18cc                	add	a1,sp,116
 464:	00050513          	mv	a0,a0
 468:	06f10ca3          	sb	a5,121(sp)
 46c:	00000097          	auipc	ra,0x0
 470:	000080e7          	jalr	ra # 46c <.L931+0x38>
 474:	872a                	mv	a4,a0
 476:	000a1863          	bnez	s4,486 <.L933>
 47a:	e511                	bnez	a0,486 <.L933>
 47c:	00744783          	lbu	a5,7(s0)
 480:	efb9                	bnez	a5,4de <.L935>

00000482 <.L1034>:
 482:	4701                	li	a4,0
 484:	4a01                	li	s4,0

00000486 <.L933>:
 486:	00744783          	lbu	a5,7(s0)
 48a:	ef81                	bnez	a5,4a2 <.L940>
 48c:	00000537          	lui	a0,0x0
 490:	18cc                	add	a1,sp,116
 492:	00050513          	mv	a0,a0
 496:	d0ba                	sw	a4,96(sp)
 498:	00000097          	auipc	ra,0x0
 49c:	000080e7          	jalr	ra # 498 <.L933+0x12>
 4a0:	5706                	lw	a4,96(sp)

000004a2 <.L940>:
 4a2:	57b6                	lw	a5,108(sp)
 4a4:	0007c783          	lbu	a5,0(a5)
 4a8:	e20783e3          	beqz	a5,2ce <.L920>
 4ac:	0a85                	add	s5,s5,1
 4ae:	86d2                	mv	a3,s4
 4b0:	8656                	mv	a2,s5
 4b2:	18cc                	add	a1,sp,116
 4b4:	4501                	li	a0,0
 4b6:	00000097          	auipc	ra,0x0
 4ba:	000080e7          	jalr	ra # 4b6 <.L940+0x14>
 4be:	bd01                	j	2ce <.L920>

000004c0 <.L928>:
 4c0:	dfa9                	beqz	a5,41a <.L926>
 4c2:	468d                	li	a3,3
 4c4:	f4d78be3          	beq	a5,a3,41a <.L926>
 4c8:	8b21                	and	a4,a4,8
 4ca:	fb21                	bnez	a4,41a <.L926>
 4cc:	0004d783          	lhu	a5,0(s1)
 4d0:	c399                	beqz	a5,4d6 <.L930>
 4d2:	f4fa74e3          	bgeu	s4,a5,41a <.L926>

000004d6 <.L930>:
 4d6:	0c85                	add	s9,s9,1
 4d8:	b789                	j	41a <.L926>

000004da <.L932>:
 4da:	06f10ca3          	sb	a5,121(sp)

000004de <.L935>:
 4de:	5786                	lw	a5,96(sp)
 4e0:	d3cd                	beqz	a5,482 <.L1034>
 4e2:	01144703          	lbu	a4,17(s0)
 4e6:	01044783          	lbu	a5,16(s0)
 4ea:	02f71d63          	bne	a4,a5,524 <.L937>
 4ee:	01e44783          	lbu	a5,30(s0)
 4f2:	8b85                	and	a5,a5,1
 4f4:	d7d9                	beqz	a5,482 <.L1034>
 4f6:	00000537          	lui	a0,0x0
 4fa:	4619                	li	a2,6
 4fc:	03340593          	add	a1,s0,51
 500:	00050513          	mv	a0,a0
 504:	00000097          	auipc	ra,0x0
 508:	000080e7          	jalr	ra # 504 <.L935+0x26>
 50c:	f93d                	bnez	a0,482 <.L1034>

0000050e <.L939>:
 50e:	00000637          	lui	a2,0x0
 512:	00060613          	mv	a2,a2
 516:	4585                	li	a1,1
 518:	18c8                	add	a0,sp,116
 51a:	00000097          	auipc	ra,0x0
 51e:	000080e7          	jalr	ra # 51a <.L939+0xc>
 522:	b785                	j	482 <.L1034>

00000524 <.L937>:
 524:	fff78693          	add	a3,a5,-1
 528:	00d71663          	bne	a4,a3,534 <.L938>
 52c:	01e44683          	lbu	a3,30(s0)
 530:	8a85                	and	a3,a3,1
 532:	def1                	beqz	a3,50e <.L939>

00000534 <.L938>:
 534:	f4f777e3          	bgeu	a4,a5,482 <.L1034>
 538:	bfd9                	j	50e <.L939>

0000053a <.L916>:
 53a:	0c4b4783          	lbu	a5,196(s6)
 53e:	8b85                	and	a5,a5,1
 540:	d80787e3          	beqz	a5,2ce <.L920>
 544:	000005b7          	lui	a1,0x0
 548:	4619                	li	a2,6
 54a:	0be58593          	add	a1,a1,190 # be <.L902+0x30>
 54e:	18c8                	add	a0,sp,116
 550:	00000097          	auipc	ra,0x0
 554:	000080e7          	jalr	ra # 550 <.L916+0x16>
 558:	d6051be3          	bnez	a0,2ce <.L920>
 55c:	06c00613          	li	a2,108
 560:	18cc                	add	a1,sp,116
 562:	1188                	add	a0,sp,224
 564:	00000097          	auipc	ra,0x0
 568:	000080e7          	jalr	ra # 564 <.L916+0x2a>
 56c:	4785                	li	a5,1
 56e:	14f10623          	sb	a5,332(sp)
 572:	01d98703          	lb	a4,29(s3)
 576:	0a010783          	lb	a5,160(sp)
 57a:	d4f70ae3          	beq	a4,a5,2ce <.L920>
 57e:	000005b7          	lui	a1,0x0
 582:	00058593          	mv	a1,a1
 586:	854e                	mv	a0,s3
 588:	00f98ea3          	sb	a5,29(s3)
 58c:	00000097          	auipc	ra,0x0
 590:	000080e7          	jalr	ra # 58c <.L916+0x52>
 594:	bb2d                	j	2ce <.L920>

00000596 <.L911>:
 596:	000007b7          	lui	a5,0x0
 59a:	6609                	lui	a2,0x2
 59c:	00078593          	mv	a1,a5
 5a0:	85960613          	add	a2,a2,-1959 # 1859 <.L3228+0x3b>
 5a4:	8522                	mv	a0,s0
 5a6:	00000097          	auipc	ra,0x0
 5aa:	000080e7          	jalr	ra # 5a6 <.L911+0x10>
 5ae:	46f6                	lw	a3,92(sp)
 5b0:	018ce7b3          	or	a5,s9,s8
 5b4:	00f03733          	snez	a4,a5
 5b8:	00e68023          	sb	a4,0(a3)
 5bc:	14c14703          	lbu	a4,332(sp)
 5c0:	00e680a3          	sb	a4,1(a3)
 5c4:	cb15                	beqz	a4,5f8 <.L941>
 5c6:	eb8d                	bnez	a5,5f8 <.L941>
 5c8:	0054c783          	lbu	a5,5(s1)
 5cc:	e795                	bnez	a5,5f8 <.L941>
 5ce:	0044c783          	lbu	a5,4(s1)
 5d2:	e39d                	bnez	a5,5f8 <.L941>
 5d4:	0034c783          	lbu	a5,3(s1)
 5d8:	e385                	bnez	a5,5f8 <.L941>
 5da:	000007b7          	lui	a5,0x0
 5de:	0007c783          	lbu	a5,0(a5) # 0 <esp_mesh_scan_done>
 5e2:	eb99                	bnez	a5,5f8 <.L941>
 5e4:	00000637          	lui	a2,0x0
 5e8:	00060613          	mv	a2,a2
 5ec:	4585                	li	a1,1
 5ee:	1188                	add	a0,sp,224
 5f0:	00000097          	auipc	ra,0x0
 5f4:	000080e7          	jalr	ra # 5f0 <.L911+0x5a>

000005f8 <.L941>:
 5f8:	000007b7          	lui	a5,0x0
 5fc:	0007a703          	lw	a4,0(a5) # 0 <esp_mesh_scan_done>
 600:	000009b7          	lui	s3,0x0
 604:	4789                	li	a5,2
 606:	00098a13          	mv	s4,s3
 60a:	0ce7fd63          	bgeu	a5,a4,6e4 <.L942>
 60e:	000007b7          	lui	a5,0x0
 612:	0007a783          	lw	a5,0(a5) # 0 <esp_mesh_scan_done>
 616:	c7f9                	beqz	a5,6e4 <.L942>
 618:	14c7a403          	lw	s0,332(a5)
 61c:	c461                	beqz	s0,6e4 <.L942>
 61e:	1547a783          	lw	a5,340(a5)
 622:	9782                	jalr	a5
 624:	00000737          	lui	a4,0x0
 628:	86aa                	mv	a3,a0
 62a:	00474503          	lbu	a0,4(a4) # 4 <esp_mesh_scan_done+0x4>
 62e:	00000737          	lui	a4,0x0
 632:	00474883          	lbu	a7,4(a4) # 4 <esp_mesh_scan_done+0x4>
 636:	00000737          	lui	a4,0x0
 63a:	00075e03          	lhu	t3,0(a4) # 0 <esp_mesh_scan_done>
 63e:	00000737          	lui	a4,0x0
 642:	00070713          	mv	a4,a4
 646:	0be74e83          	lbu	t4,190(a4) # be <.L902+0x30>
 64a:	0bf74f03          	lbu	t5,191(a4)
 64e:	0c074f83          	lbu	t6,192(a4)
 652:	0c174283          	lbu	t0,193(a4)
 656:	0c274383          	lbu	t2,194(a4)
 65a:	0c374a83          	lbu	s5,195(a4)
 65e:	14c14703          	lbu	a4,332(sp)
 662:	0074c783          	lbu	a5,7(s1)
 666:	0004d303          	lhu	t1,0(s1)
 66a:	e75d                	bnez	a4,718 <.L955>
 66c:	00000737          	lui	a4,0x0
 670:	00070713          	mv	a4,a4

00000674 <.L943>:
 674:	01ea4583          	lbu	a1,30(s4)
 678:	0025f613          	and	a2,a1,2
 67c:	e25d                	bnez	a2,722 <.L956>
 67e:	00000637          	lui	a2,0x0
 682:	00060613          	mv	a2,a2

00000686 <.L944>:
 686:	0405f593          	and	a1,a1,64
 68a:	e1cd                	bnez	a1,72c <.L957>
 68c:	000005b7          	lui	a1,0x0
 690:	00058593          	mv	a1,a1

00000694 <.L945>:
 694:	0054c803          	lbu	a6,5(s1)
 698:	08081f63          	bnez	a6,736 <.L958>
 69c:	00000837          	lui	a6,0x0
 6a0:	00080813          	mv	a6,a6

000006a4 <.L946>:
 6a4:	c646                	sw	a7,12(sp)
 6a6:	48d6                	lw	a7,84(sp)
 6a8:	c0ae                	sw	a1,64(sp)
 6aa:	de32                	sw	a2,60(sp)
 6ac:	000005b7          	lui	a1,0x0
 6b0:	00000637          	lui	a2,0x0
 6b4:	c2c2                	sw	a6,68(sp)
 6b6:	dc3a                	sw	a4,56(sp)
 6b8:	c42a                	sw	a0,8(sp)
 6ba:	00058713          	mv	a4,a1
 6be:	da56                	sw	s5,52(sp)
 6c0:	d81e                	sw	t2,48(sp)
 6c2:	d616                	sw	t0,44(sp)
 6c4:	d47e                	sw	t6,40(sp)
 6c6:	d27a                	sw	t5,36(sp)
 6c8:	d076                	sw	t4,32(sp)
 6ca:	ce72                	sw	t3,28(sp)
 6cc:	cc1a                	sw	t1,24(sp)
 6ce:	ca66                	sw	s9,20(sp)
 6d0:	c862                	sw	s8,16(sp)
 6d2:	c24a                	sw	s2,4(sp)
 6d4:	c05e                	sw	s7,0(sp)
 6d6:	886e                	mv	a6,s11
 6d8:	00060613          	mv	a2,a2
 6dc:	00058593          	mv	a1,a1
 6e0:	450d                	li	a0,3
 6e2:	9402                	jalr	s0

000006e4 <.L942>:
 6e4:	01ba4783          	lbu	a5,27(s4)
 6e8:	01aa4703          	lbu	a4,26(s4)
 6ec:	4401                	li	s0,0
 6ee:	07a2                	sll	a5,a5,0x8
 6f0:	8fd9                	or	a5,a5,a4
 6f2:	99278ee3          	beq	a5,s2,8e <.L902>
 6f6:	000005b7          	lui	a1,0x0
 6fa:	012a0d23          	sb	s2,26(s4)
 6fe:	00058593          	mv	a1,a1
 702:	00895913          	srl	s2,s2,0x8
 706:	00098513          	mv	a0,s3
 70a:	012a0da3          	sb	s2,27(s4)
 70e:	00000097          	auipc	ra,0x0
 712:	000080e7          	jalr	ra # 70e <.L942+0x2a>
 716:	baa5                	j	8e <.L902>

00000718 <.L955>:
 718:	00000737          	lui	a4,0x0
 71c:	00070713          	mv	a4,a4
 720:	bf91                	j	674 <.L943>

00000722 <.L956>:
 722:	00000637          	lui	a2,0x0
 726:	00060613          	mv	a2,a2
 72a:	bfb1                	j	686 <.L944>

0000072c <.L957>:
 72c:	000005b7          	lui	a1,0x0
 730:	00058593          	mv	a1,a1
 734:	b785                	j	694 <.L945>

00000736 <.L958>:
 736:	00000837          	lui	a6,0x0
 73a:	00080813          	mv	a6,a6
 73e:	b79d                	j	6a4 <.L946>

00000740 <.L950>:
 740:	6411                	lui	s0,0x4
 742:	0421                	add	s0,s0,8 # 4008 <.L3353+0xab0>
 744:	b2a9                	j	8e <.L902>

Disassembly of section .text.mesh_update_current_parent:

00000000 <mesh_update_current_parent>:
   0:	1101                	add	sp,sp,-32
   2:	ce06                	sw	ra,28(sp)
   4:	cc22                	sw	s0,24(sp)
   6:	ca26                	sw	s1,20(sp)
   8:	c84a                	sw	s2,16(sp)
   a:	c64e                	sw	s3,12(sp)
   c:	e135                	bnez	a0,70 <.L1037>
   e:	000007b7          	lui	a5,0x0
  12:	0007a703          	lw	a4,0(a5) # 0 <mesh_update_current_parent>
  16:	4789                	li	a5,2
  18:	10e7fb63          	bgeu	a5,a4,12e <.L1041>
  1c:	000007b7          	lui	a5,0x0
  20:	0007a783          	lw	a5,0(a5) # 0 <mesh_update_current_parent>
  24:	6411                	lui	s0,0x4
  26:	0421                	add	s0,s0,8 # 4008 <.L3353+0xab0>
  28:	8522                	mv	a0,s0
  2a:	cf85                	beqz	a5,62 <.L1036>
  2c:	14c7a483          	lw	s1,332(a5)
  30:	c88d                	beqz	s1,62 <.L1036>
  32:	1547a783          	lw	a5,340(a5)
  36:	9782                	jalr	a5
  38:	000005b7          	lui	a1,0x0
  3c:	6809                	lui	a6,0x2
  3e:	000007b7          	lui	a5,0x0
  42:	00000637          	lui	a2,0x0
  46:	86aa                	mv	a3,a0
  48:	00058713          	mv	a4,a1
  4c:	450d                	li	a0,3
  4e:	90080813          	add	a6,a6,-1792 # 1900 <.L3234+0x10>
  52:	00078793          	mv	a5,a5
  56:	00060613          	mv	a2,a2
  5a:	00058593          	mv	a1,a1
  5e:	9482                	jalr	s1
  60:	8522                	mv	a0,s0

00000062 <.L1036>:
  62:	40f2                	lw	ra,28(sp)
  64:	4462                	lw	s0,24(sp)
  66:	44d2                	lw	s1,20(sp)
  68:	4942                	lw	s2,16(sp)
  6a:	49b2                	lw	s3,12(sp)
  6c:	6105                	add	sp,sp,32
  6e:	8082                	ret

00000070 <.L1037>:
  70:	842a                	mv	s0,a0
  72:	00000537          	lui	a0,0x0
  76:	00050913          	mv	s2,a0
  7a:	4619                	li	a2,6
  7c:	85a2                	mv	a1,s0
  7e:	00050513          	mv	a0,a0
  82:	00000097          	auipc	ra,0x0
  86:	000080e7          	jalr	ra # 82 <.L1037+0x12>
  8a:	00640493          	add	s1,s0,6
  8e:	02000613          	li	a2,32
  92:	85a6                	mv	a1,s1
  94:	00690513          	add	a0,s2,6
  98:	00000097          	auipc	ra,0x0
  9c:	000080e7          	jalr	ra # 98 <.L1037+0x28>
  a0:	581c                	lw	a5,48(s0)
  a2:	02c40983          	lb	s3,44(s0)
  a6:	00000537          	lui	a0,0x0
  aa:	02f92823          	sw	a5,48(s2)
  ae:	03390623          	sb	s3,44(s2)
  b2:	4619                	li	a2,6
  b4:	00050913          	mv	s2,a0
  b8:	85a2                	mv	a1,s0
  ba:	00050513          	mv	a0,a0
  be:	00000097          	auipc	ra,0x0
  c2:	000080e7          	jalr	ra # be <.L1037+0x4e>
  c6:	02000613          	li	a2,32
  ca:	85a6                	mv	a1,s1
  cc:	00690513          	add	a0,s2,6
  d0:	00000097          	auipc	ra,0x0
  d4:	000080e7          	jalr	ra # d0 <.L1037+0x60>
  d8:	4c70                	lw	a2,92(s0)
  da:	03390623          	sb	s3,44(s2)
  de:	4501                	li	a0,0
  e0:	d249                	beqz	a2,62 <.L1036>
  e2:	00000737          	lui	a4,0x0
  e6:	00072683          	lw	a3,0(a4) # 0 <mesh_update_current_parent>
  ea:	000007b7          	lui	a5,0x0
  ee:	00000737          	lui	a4,0x0
  f2:	0007d783          	lhu	a5,0(a5) # 0 <mesh_update_current_parent>
  f6:	00070713          	mv	a4,a4
  fa:	ee91                	bnez	a3,116 <.L1039>
  fc:	00f64683          	lbu	a3,15(a2) # f <mesh_update_current_parent+0xf>
 100:	8f95                	sub	a5,a5,a3
 102:	00f70723          	sb	a5,14(a4) # e <mesh_update_current_parent+0xe>
 106:	00d707a3          	sb	a3,15(a4)

0000010a <.L1040>:
 10a:	01164783          	lbu	a5,17(a2)
 10e:	4501                	li	a0,0
 110:	00f708a3          	sb	a5,17(a4)
 114:	b7b9                	j	62 <.L1036>

00000116 <.L1039>:
 116:	06645583          	lhu	a1,102(s0)
 11a:	000006b7          	lui	a3,0x0
 11e:	00068693          	mv	a3,a3
 122:	8f8d                	sub	a5,a5,a1
 124:	00f69023          	sh	a5,0(a3) # 0 <mesh_update_current_parent>
 128:	00b69123          	sh	a1,2(a3)
 12c:	bff9                	j	10a <.L1040>

0000012e <.L1041>:
 12e:	6511                	lui	a0,0x4
 130:	0521                	add	a0,a0,8 # 4008 <.L3353+0xab0>
 132:	bf05                	j	62 <.L1036>

Disassembly of section .text.mesh_set_root_candidate:

00000000 <mesh_set_root_candidate>:
   0:	1101                	add	sp,sp,-32
   2:	cc22                	sw	s0,24(sp)
   4:	c64e                	sw	s3,12(sp)
   6:	ce06                	sw	ra,28(sp)
   8:	000009b7          	lui	s3,0x0
   c:	ca26                	sw	s1,20(sp)
   e:	c84a                	sw	s2,16(sp)
  10:	00098413          	mv	s0,s3
  14:	e11d                	bnez	a0,3a <.L1047>
  16:	00042223          	sw	zero,4(s0)
  1a:	f8800793          	li	a5,-120
  1e:	00042023          	sw	zero,0(s0)
  22:	00041423          	sh	zero,8(s0)
  26:	00f40323          	sb	a5,6(s0)

0000002a <.L1048>:
  2a:	40f2                	lw	ra,28(sp)
  2c:	4462                	lw	s0,24(sp)
  2e:	44d2                	lw	s1,20(sp)
  30:	4942                	lw	s2,16(sp)
  32:	49b2                	lw	s3,12(sp)
  34:	4501                	li	a0,0
  36:	6105                	add	sp,sp,32
  38:	8082                	ret

0000003a <.L1047>:
  3a:	84aa                	mv	s1,a0
  3c:	8932                	mv	s2,a2
  3e:	00b40323          	sb	a1,6(s0)
  42:	00d41423          	sh	a3,8(s0)
  46:	00000097          	auipc	ra,0x0
  4a:	000080e7          	jalr	ra # 46 <.L1047+0xc>
  4e:	cd11                	beqz	a0,6a <.L1049>
  50:	f8000793          	li	a5,-128
  54:	4619                	li	a2,6
  56:	85a6                	mv	a1,s1
  58:	00098513          	mv	a0,s3
  5c:	00f403a3          	sb	a5,7(s0)
  60:	00000097          	auipc	ra,0x0
  64:	000080e7          	jalr	ra # 60 <.L1047+0x26>
  68:	b7c9                	j	2a <.L1048>

0000006a <.L1049>:
  6a:	4619                	li	a2,6
  6c:	85a6                	mv	a1,s1
  6e:	00098513          	mv	a0,s3
  72:	00000097          	auipc	ra,0x0
  76:	000080e7          	jalr	ra # 72 <.L1049+0x8>
  7a:	e911                	bnez	a0,8e <.L1050>
  7c:	00744703          	lbu	a4,7(s0)
  80:	87ba                	mv	a5,a4
  82:	01277363          	bgeu	a4,s2,88 <.L1051>
  86:	87ca                	mv	a5,s2

00000088 <.L1051>:
  88:	00f403a3          	sb	a5,7(s0)
  8c:	bf79                	j	2a <.L1048>

0000008e <.L1050>:
  8e:	4619                	li	a2,6
  90:	85a6                	mv	a1,s1
  92:	00098513          	mv	a0,s3
  96:	00000097          	auipc	ra,0x0
  9a:	000080e7          	jalr	ra # 96 <.L1050+0x8>
  9e:	012403a3          	sb	s2,7(s0)
  a2:	b761                	j	2a <.L1048>

Disassembly of section .text.mesh_update_ie_rssi:

00000000 <mesh_update_ie_rssi>:
   0:	711d                	add	sp,sp,-96
   2:	caa6                	sw	s1,84(sp)
   4:	c8ca                	sw	s2,80(sp)
   6:	c6ce                	sw	s3,76(sp)
   8:	892e                	mv	s2,a1
   a:	89aa                	mv	s3,a0
   c:	4581                	li	a1,0
   e:	84b2                	mv	s1,a2
  10:	0048                	add	a0,sp,4
  12:	03a00613          	li	a2,58
  16:	cca2                	sw	s0,88(sp)
  18:	ce86                	sw	ra,92(sp)
  1a:	8436                	mv	s0,a3
  1c:	00000097          	auipc	ra,0x0
  20:	000080e7          	jalr	ra # 1c <mesh_update_ie_rssi+0x1c>
  24:	4581                	li	a1,0
  26:	0048                	add	a0,sp,4
  28:	00000097          	auipc	ra,0x0
  2c:	000080e7          	jalr	ra # 28 <mesh_update_ie_rssi+0x28>
  30:	e10d                	bnez	a0,52 <.L1055>
  32:	854a                	mv	a0,s2
  34:	00000097          	auipc	ra,0x0
  38:	000080e7          	jalr	ra # 34 <mesh_update_ie_rssi+0x34>
  3c:	c11d                	beqz	a0,62 <.L1056>
  3e:	02110783          	lb	a5,33(sp)
  42:	f8800713          	li	a4,-120
  46:	00e78663          	beq	a5,a4,52 <.L1055>

0000004a <.L1062>:
  4a:	00978463          	beq	a5,s1,52 <.L1055>
  4e:	00f40023          	sb	a5,0(s0)

00000052 <.L1055>:
  52:	40f6                	lw	ra,92(sp)
  54:	4466                	lw	s0,88(sp)
  56:	44d6                	lw	s1,84(sp)
  58:	4946                	lw	s2,80(sp)
  5a:	49b6                	lw	s3,76(sp)
  5c:	4501                	li	a0,0
  5e:	6125                	add	sp,sp,96
  60:	8082                	ret

00000062 <.L1056>:
  62:	4619                	li	a2,6
  64:	00099d63          	bnez	s3,7e <.L1058>
  68:	02310593          	add	a1,sp,35
  6c:	854a                	mv	a0,s2
  6e:	00000097          	auipc	ra,0x0
  72:	000080e7          	jalr	ra # 6e <.L1056+0xc>
  76:	fd71                	bnez	a0,52 <.L1055>
  78:	02910783          	lb	a5,41(sp)
  7c:	b7f9                	j	4a <.L1062>

0000007e <.L1058>:
  7e:	02a10593          	add	a1,sp,42
  82:	854a                	mv	a0,s2
  84:	00000097          	auipc	ra,0x0
  88:	000080e7          	jalr	ra # 84 <.L1058+0x6>
  8c:	f179                	bnez	a0,52 <.L1055>
  8e:	03010783          	lb	a5,48(sp)
  92:	bf65                	j	4a <.L1062>

Disassembly of section .text.mesh_set_root_candidate_ie:

00000000 <mesh_set_root_candidate_ie>:
   0:	7179                	add	sp,sp,-48
   2:	d422                	sw	s0,40(sp)
   4:	d04a                	sw	s2,32(sp)
   6:	ce4e                	sw	s3,28(sp)
   8:	00000437          	lui	s0,0x0
   c:	d606                	sw	ra,44(sp)
   e:	d226                	sw	s1,36(sp)
  10:	00b107a3          	sb	a1,15(sp)
  14:	89b2                	mv	s3,a2
  16:	8936                	mv	s2,a3
  18:	00040413          	mv	s0,s0
  1c:	e539                	bnez	a0,6a <.L1065>
  1e:	4619                	li	a2,6
  20:	4581                	li	a1,0
  22:	c69d                	beqz	a3,50 <.L1066>
  24:	00000537          	lui	a0,0x0
  28:	02650513          	add	a0,a0,38 # 26 <mesh_set_root_candidate_ie+0x26>
  2c:	00000097          	auipc	ra,0x0
  30:	000080e7          	jalr	ra # 2c <mesh_set_root_candidate_ie+0x2c>
  34:	f8800793          	li	a5,-120

00000038 <.L1071>:
  38:	02f40623          	sb	a5,44(s0) # 2c <mesh_set_root_candidate_ie+0x2c>

0000003c <.L1067>:
  3c:	033406a3          	sb	s3,45(s0)
  40:	50b2                	lw	ra,44(sp)
  42:	5422                	lw	s0,40(sp)
  44:	5492                	lw	s1,36(sp)
  46:	5902                	lw	s2,32(sp)
  48:	49f2                	lw	s3,28(sp)
  4a:	4501                	li	a0,0
  4c:	6145                	add	sp,sp,48
  4e:	8082                	ret

00000050 <.L1066>:
  50:	00000537          	lui	a0,0x0
  54:	01f50513          	add	a0,a0,31 # 1f <mesh_set_root_candidate_ie+0x1f>
  58:	00000097          	auipc	ra,0x0
  5c:	000080e7          	jalr	ra # 58 <.L1066+0x8>
  60:	f8800793          	li	a5,-120

00000064 <.L1072>:
  64:	02f402a3          	sb	a5,37(s0)
  68:	bfd1                	j	3c <.L1067>

0000006a <.L1065>:
  6a:	00f10603          	lb	a2,15(sp)
  6e:	85aa                	mv	a1,a0
  70:	84aa                	mv	s1,a0
  72:	00f10693          	add	a3,sp,15
  76:	854a                	mv	a0,s2
  78:	00000097          	auipc	ra,0x0
  7c:	000080e7          	jalr	ra # 78 <.L1065+0xe>
  80:	4619                	li	a2,6
  82:	85a6                	mv	a1,s1
  84:	00090b63          	beqz	s2,9a <.L1068>
  88:	02640513          	add	a0,s0,38
  8c:	00000097          	auipc	ra,0x0
  90:	000080e7          	jalr	ra # 8c <.L1065+0x22>
  94:	00f14783          	lbu	a5,15(sp)
  98:	b745                	j	38 <.L1071>

0000009a <.L1068>:
  9a:	01f40513          	add	a0,s0,31
  9e:	00000097          	auipc	ra,0x0
  a2:	000080e7          	jalr	ra # 9e <.L1068+0x4>
  a6:	00f14783          	lbu	a5,15(sp)
  aa:	bf6d                	j	64 <.L1072>

Disassembly of section .text.mesh_check_rc_expire:

00000000 <mesh_check_rc_expire>:
   0:	7151                	add	sp,sp,-240
   2:	d786                	sw	ra,236(sp)
   4:	d5a2                	sw	s0,232(sp)
   6:	d3a6                	sw	s1,228(sp)
   8:	d1ca                	sw	s2,224(sp)
   a:	cfce                	sw	s3,220(sp)
   c:	cdd2                	sw	s4,216(sp)
   e:	e1b5                	bnez	a1,72 <.L1074>
  10:	000007b7          	lui	a5,0x0
  14:	0007a703          	lw	a4,0(a5) # 0 <mesh_check_rc_expire>
  18:	4789                	li	a5,2
  1a:	38e7fe63          	bgeu	a5,a4,3b6 <.L1094>
  1e:	000007b7          	lui	a5,0x0
  22:	0007a783          	lw	a5,0(a5) # 0 <mesh_check_rc_expire>
  26:	6411                	lui	s0,0x4
  28:	0421                	add	s0,s0,8 # 4008 <.L3353+0xab0>
  2a:	8522                	mv	a0,s0
  2c:	cb9d                	beqz	a5,62 <.L1073>
  2e:	14c7a483          	lw	s1,332(a5)
  32:	c885                	beqz	s1,62 <.L1073>
  34:	1547a783          	lw	a5,340(a5)
  38:	9782                	jalr	a5
  3a:	86aa                	mv	a3,a0
  3c:	31000813          	li	a6,784

00000040 <.L1123>:
  40:	000005b7          	lui	a1,0x0
  44:	000007b7          	lui	a5,0x0
  48:	00000637          	lui	a2,0x0
  4c:	00058713          	mv	a4,a1
  50:	450d                	li	a0,3
  52:	00078793          	mv	a5,a5
  56:	00060613          	mv	a2,a2
  5a:	00058593          	mv	a1,a1
  5e:	9482                	jalr	s1
  60:	8522                	mv	a0,s0

00000062 <.L1073>:
  62:	50be                	lw	ra,236(sp)
  64:	542e                	lw	s0,232(sp)
  66:	549e                	lw	s1,228(sp)
  68:	590e                	lw	s2,224(sp)
  6a:	49fe                	lw	s3,220(sp)
  6c:	4a6e                	lw	s4,216(sp)
  6e:	616d                	add	sp,sp,240
  70:	8082                	ret

00000072 <.L1074>:
  72:	84b2                	mv	s1,a2
  74:	ea15                	bnez	a2,a8 <.L1076>
  76:	000007b7          	lui	a5,0x0
  7a:	0007a703          	lw	a4,0(a5) # 0 <mesh_check_rc_expire>
  7e:	4789                	li	a5,2
  80:	32e7fb63          	bgeu	a5,a4,3b6 <.L1094>
  84:	000007b7          	lui	a5,0x0
  88:	0007a783          	lw	a5,0(a5) # 0 <mesh_check_rc_expire>
  8c:	6411                	lui	s0,0x4
  8e:	0421                	add	s0,s0,8 # 4008 <.L3353+0xab0>
  90:	8522                	mv	a0,s0
  92:	dbe1                	beqz	a5,62 <.L1073>
  94:	14c7a483          	lw	s1,332(a5)
  98:	d4e9                	beqz	s1,62 <.L1073>
  9a:	1547a783          	lw	a5,340(a5)
  9e:	9782                	jalr	a5
  a0:	86aa                	mv	a3,a0
  a2:	31100813          	li	a6,785
  a6:	bf69                	j	40 <.L1123>

000000a8 <.L1076>:
  a8:	01e64783          	lbu	a5,30(a2) # 1e <mesh_check_rc_expire+0x1e>
  ac:	892a                	mv	s2,a0
  ae:	852e                	mv	a0,a1
  b0:	9bbd                	and	a5,a5,-17
  b2:	00f60f23          	sb	a5,30(a2)
  b6:	842e                	mv	s0,a1
  b8:	00000097          	auipc	ra,0x0
  bc:	000080e7          	jalr	ra # b8 <.L1076+0x10>
  c0:	c519                	beqz	a0,ce <.L1077>
  c2:	f8000793          	li	a5,-128
  c6:	02f486a3          	sb	a5,45(s1)

000000ca <.L1124>:
  ca:	4501                	li	a0,0
  cc:	bf59                	j	62 <.L1073>

000000ce <.L1077>:
  ce:	06800613          	li	a2,104
  d2:	4581                	li	a1,0
  d4:	10a8                	add	a0,sp,104
  d6:	00000097          	auipc	ra,0x0
  da:	000080e7          	jalr	ra # d6 <.L1077+0x8>
  de:	4619                	li	a2,6
  e0:	85a2                	mv	a1,s0
  e2:	000009b7          	lui	s3,0x0
  e6:	10c8                	add	a0,sp,100
  e8:	00000097          	auipc	ra,0x0
  ec:	000080e7          	jalr	ra # e8 <.L1077+0x1a>
  f0:	00098a13          	mv	s4,s3
  f4:	4619                	li	a2,6
  f6:	002a0593          	add	a1,s4,2
  fa:	8522                	mv	a0,s0
  fc:	00000097          	auipc	ra,0x0
 100:	000080e7          	jalr	ra # fc <.L1077+0x2e>
 104:	00098993          	mv	s3,s3
 108:	1c051563          	bnez	a0,2d2 <.L1078>
 10c:	000a4783          	lbu	a5,0(s4)
 110:	8b89                	and	a5,a5,2
 112:	c791                	beqz	a5,11e <.L1079>
 114:	07f00793          	li	a5,127
 118:	02f486a3          	sb	a5,45(s1)
 11c:	b799                	j	62 <.L1073>

0000011e <.L1079>:
 11e:	02d4c783          	lbu	a5,45(s1)
 122:	07f00713          	li	a4,127
 126:	10e78a63          	beq	a5,a4,23a <.L1080>
 12a:	0099c703          	lbu	a4,9(s3) # 9 <mesh_check_rc_expire+0x9>
 12e:	10f76663          	bltu	a4,a5,23a <.L1080>
 132:	000007b7          	lui	a5,0x0
 136:	0007a703          	lw	a4,0(a5) # 0 <mesh_check_rc_expire>
 13a:	4789                	li	a5,2
 13c:	06e7fa63          	bgeu	a5,a4,1b0 <.L1081>
 140:	000007b7          	lui	a5,0x0
 144:	0007a783          	lw	a5,0(a5) # 0 <mesh_check_rc_expire>
 148:	c7a5                	beqz	a5,1b0 <.L1081>
 14a:	14c7aa03          	lw	s4,332(a5)
 14e:	060a0163          	beqz	s4,1b0 <.L1081>
 152:	1547a783          	lw	a5,340(a5)
 156:	9782                	jalr	a5
 158:	86aa                	mv	a3,a0
 15a:	0c091b63          	bnez	s2,230 <.L1097>
 15e:	00000837          	lui	a6,0x0
 162:	00080813          	mv	a6,a6

00000166 <.L1082>:
 166:	0099c783          	lbu	a5,9(s3)
 16a:	000005b7          	lui	a1,0x0
 16e:	00000637          	lui	a2,0x0
 172:	cc3e                	sw	a5,24(sp)
 174:	02d4c783          	lbu	a5,45(s1)
 178:	00058713          	mv	a4,a1
 17c:	00060613          	mv	a2,a2
 180:	ca3e                	sw	a5,20(sp)
 182:	00544783          	lbu	a5,5(s0)
 186:	00058593          	mv	a1,a1
 18a:	450d                	li	a0,3
 18c:	c83e                	sw	a5,16(sp)
 18e:	00444783          	lbu	a5,4(s0)
 192:	c63e                	sw	a5,12(sp)
 194:	00344783          	lbu	a5,3(s0)
 198:	c43e                	sw	a5,8(sp)
 19a:	00244783          	lbu	a5,2(s0)
 19e:	c23e                	sw	a5,4(sp)
 1a0:	00144783          	lbu	a5,1(s0)
 1a4:	c03e                	sw	a5,0(sp)
 1a6:	00044883          	lbu	a7,0(s0)
 1aa:	32d00793          	li	a5,813
 1ae:	9a02                	jalr	s4

000001b0 <.L1081>:
 1b0:	01e4c783          	lbu	a5,30(s1)
 1b4:	00000537          	lui	a0,0x0
 1b8:	10cc                	add	a1,sp,100
 1ba:	0107e793          	or	a5,a5,16
 1be:	00f48f23          	sb	a5,30(s1)
 1c2:	103c                	add	a5,sp,40
 1c4:	c1be                	sw	a5,192(sp)
 1c6:	0099c783          	lbu	a5,9(s3)
 1ca:	00050513          	mv	a0,a0
 1ce:	04f10aa3          	sb	a5,85(sp)
 1d2:	00000097          	auipc	ra,0x0
 1d6:	000080e7          	jalr	ra # 1d2 <.L1081+0x22>

000001da <.L1122>:
 1da:	000007b7          	lui	a5,0x0
 1de:	0007c783          	lbu	a5,0(a5) # 0 <mesh_check_rc_expire>
 1e2:	ee0794e3          	bnez	a5,ca <.L1124>
 1e6:	000007b7          	lui	a5,0x0
 1ea:	00078793          	mv	a5,a5
 1ee:	0007a223          	sw	zero,4(a5) # 4 <mesh_check_rc_expire+0x4>
 1f2:	0007a023          	sw	zero,0(a5)
 1f6:	00079423          	sh	zero,8(a5)
 1fa:	f8800713          	li	a4,-120
 1fe:	86ca                	mv	a3,s2
 200:	4601                	li	a2,0
 202:	4581                	li	a1,0
 204:	4501                	li	a0,0
 206:	00e78323          	sb	a4,6(a5)
 20a:	00000097          	auipc	ra,0x0
 20e:	000080e7          	jalr	ra # 20a <.L1122+0x30>
 212:	000007b7          	lui	a5,0x0
 216:	00078793          	mv	a5,a5
 21a:	02078723          	sb	zero,46(a5) # 2e <mesh_check_rc_expire+0x2e>
 21e:	020787a3          	sb	zero,47(a5)
 222:	02078823          	sb	zero,48(a5)
 226:	020788a3          	sb	zero,49(a5)
 22a:	020786a3          	sb	zero,45(a5)
 22e:	bd71                	j	ca <.L1124>

00000230 <.L1097>:
 230:	00000837          	lui	a6,0x0
 234:	00080813          	mv	a6,a6
 238:	b73d                	j	166 <.L1082>

0000023a <.L1080>:
 23a:	fff78713          	add	a4,a5,-1
 23e:	17f9                	add	a5,a5,-2
 240:	07e2                	sll	a5,a5,0x18
 242:	02e486a3          	sb	a4,45(s1)
 246:	87e1                	sra	a5,a5,0x18
 248:	e807d1e3          	bgez	a5,ca <.L1124>
 24c:	000007b7          	lui	a5,0x0
 250:	0007a783          	lw	a5,0(a5) # 0 <mesh_check_rc_expire>
 254:	d3d9                	beqz	a5,1da <.L1122>
 256:	14c7a983          	lw	s3,332(a5)
 25a:	f80980e3          	beqz	s3,1da <.L1122>
 25e:	1547a783          	lw	a5,340(a5)
 262:	9782                	jalr	a5
 264:	86aa                	mv	a3,a0
 266:	06091163          	bnez	s2,2c8 <.L1098>
 26a:	000007b7          	lui	a5,0x0
 26e:	00078793          	mv	a5,a5

00000272 <.L1086>:
 272:	02d4c703          	lbu	a4,45(s1)
 276:	000005b7          	lui	a1,0x0
 27a:	00000637          	lui	a2,0x0
 27e:	ce3a                	sw	a4,28(sp)
 280:	00544703          	lbu	a4,5(s0)
 284:	33e00893          	li	a7,830
 288:	33e00813          	li	a6,830
 28c:	cc3a                	sw	a4,24(sp)
 28e:	00444703          	lbu	a4,4(s0)
 292:	00060613          	mv	a2,a2
 296:	4509                	li	a0,2
 298:	ca3a                	sw	a4,20(sp)
 29a:	00344703          	lbu	a4,3(s0)
 29e:	c83a                	sw	a4,16(sp)
 2a0:	00244703          	lbu	a4,2(s0)
 2a4:	c63a                	sw	a4,12(sp)
 2a6:	00144703          	lbu	a4,1(s0)
 2aa:	c43a                	sw	a4,8(sp)
 2ac:	00044703          	lbu	a4,0(s0)
 2b0:	c03e                	sw	a5,0(sp)
 2b2:	000007b7          	lui	a5,0x0
 2b6:	c23a                	sw	a4,4(sp)
 2b8:	00078793          	mv	a5,a5
 2bc:	00058713          	mv	a4,a1
 2c0:	00058593          	mv	a1,a1
 2c4:	9982                	jalr	s3
 2c6:	bf11                	j	1da <.L1122>

000002c8 <.L1098>:
 2c8:	000007b7          	lui	a5,0x0
 2cc:	00078793          	mv	a5,a5
 2d0:	b74d                	j	272 <.L1086>

000002d2 <.L1078>:
 2d2:	00000537          	lui	a0,0x0
 2d6:	4601                	li	a2,0
 2d8:	10cc                	add	a1,sp,100
 2da:	00050513          	mv	a0,a0
 2de:	00000097          	auipc	ra,0x0
 2e2:	000080e7          	jalr	ra # 2de <.L1078+0xc>
 2e6:	cd19                	beqz	a0,304 <.L1087>

000002e8 <.L1088>:
 2e8:	07f00793          	li	a5,127
 2ec:	00000537          	lui	a0,0x0
 2f0:	02f486a3          	sb	a5,45(s1)
 2f4:	10cc                	add	a1,sp,100
 2f6:	00050513          	mv	a0,a0
 2fa:	00000097          	auipc	ra,0x0
 2fe:	000080e7          	jalr	ra # 2fa <.L1088+0x12>
 302:	b3e1                	j	ca <.L1124>

00000304 <.L1087>:
 304:	00000537          	lui	a0,0x0
 308:	4601                	li	a2,0
 30a:	10cc                	add	a1,sp,100
 30c:	00050513          	mv	a0,a0
 310:	00000097          	auipc	ra,0x0
 314:	000080e7          	jalr	ra # 310 <.L1087+0xc>
 318:	f961                	bnez	a0,2e8 <.L1088>
 31a:	02d4c783          	lbu	a5,45(s1)
 31e:	fff78713          	add	a4,a5,-1 # ffffffff <.L3353+0xffffcaa7>
 322:	17f9                	add	a5,a5,-2
 324:	07e2                	sll	a5,a5,0x18
 326:	02e486a3          	sb	a4,45(s1)
 32a:	87e1                	sra	a5,a5,0x18
 32c:	d807dfe3          	bgez	a5,ca <.L1124>
 330:	000007b7          	lui	a5,0x0
 334:	0007a703          	lw	a4,0(a5) # 0 <mesh_check_rc_expire>
 338:	4789                	li	a5,2
 33a:	eae7f0e3          	bgeu	a5,a4,1da <.L1122>
 33e:	000007b7          	lui	a5,0x0
 342:	0007a783          	lw	a5,0(a5) # 0 <mesh_check_rc_expire>
 346:	e8078ae3          	beqz	a5,1da <.L1122>
 34a:	14c7a983          	lw	s3,332(a5)
 34e:	e80986e3          	beqz	s3,1da <.L1122>
 352:	1547a783          	lw	a5,340(a5)
 356:	9782                	jalr	a5
 358:	86aa                	mv	a3,a0
 35a:	04091963          	bnez	s2,3ac <.L1099>
 35e:	00000837          	lui	a6,0x0
 362:	00080813          	mv	a6,a6

00000366 <.L1090>:
 366:	02d4c783          	lbu	a5,45(s1)
 36a:	000005b7          	lui	a1,0x0
 36e:	00000637          	lui	a2,0x0
 372:	ca3e                	sw	a5,20(sp)
 374:	00544783          	lbu	a5,5(s0)
 378:	00058713          	mv	a4,a1
 37c:	00060613          	mv	a2,a2
 380:	c83e                	sw	a5,16(sp)
 382:	00444783          	lbu	a5,4(s0)
 386:	00058593          	mv	a1,a1
 38a:	450d                	li	a0,3
 38c:	c63e                	sw	a5,12(sp)
 38e:	00344783          	lbu	a5,3(s0)
 392:	c43e                	sw	a5,8(sp)
 394:	00244783          	lbu	a5,2(s0)
 398:	c23e                	sw	a5,4(sp)
 39a:	00144783          	lbu	a5,1(s0)
 39e:	c03e                	sw	a5,0(sp)
 3a0:	00044883          	lbu	a7,0(s0)
 3a4:	35700793          	li	a5,855
 3a8:	9982                	jalr	s3
 3aa:	bd05                	j	1da <.L1122>

000003ac <.L1099>:
 3ac:	00000837          	lui	a6,0x0
 3b0:	00080813          	mv	a6,a6
 3b4:	bf4d                	j	366 <.L1090>

000003b6 <.L1094>:
 3b6:	6511                	lui	a0,0x4
 3b8:	0521                	add	a0,a0,8 # 4008 <.L3353+0xab0>
 3ba:	b165                	j	62 <.L1073>

Disassembly of section .text.mesh_nwk_process_vote_done:

00000000 <mesh_nwk_process_vote_done>:
   0:	000007b7          	lui	a5,0x0
   4:	0007c783          	lbu	a5,0(a5) # 0 <mesh_nwk_process_vote_done>
   8:	1101                	add	sp,sp,-32
   a:	cc22                	sw	s0,24(sp)
   c:	ca26                	sw	s1,20(sp)
   e:	c84a                	sw	s2,16(sp)
  10:	c64e                	sw	s3,12(sp)
  12:	000004b7          	lui	s1,0x0
  16:	000009b7          	lui	s3,0x0
  1a:	ce06                	sw	ra,28(sp)
  1c:	892a                	mv	s2,a0
  1e:	00098413          	mv	s0,s3
  22:	00048493          	mv	s1,s1
  26:	e3a5                	bnez	a5,86 <.L1126>
  28:	0004c783          	lbu	a5,0(s1) # 0 <mesh_nwk_process_vote_done>
  2c:	01e44703          	lbu	a4,30(s0)
  30:	4685                	li	a3,1
  32:	9be1                	and	a5,a5,-8
  34:	0047e793          	or	a5,a5,4
  38:	00f48023          	sb	a5,0(s1)
  3c:	ffd77793          	and	a5,a4,-3
  40:	00f40f23          	sb	a5,30(s0)
  44:	000007b7          	lui	a5,0x0
  48:	00078793          	mv	a5,a5
  4c:	0007a223          	sw	zero,4(a5) # 4 <mesh_nwk_process_vote_done+0x4>
  50:	f8800713          	li	a4,-120
  54:	0007a023          	sw	zero,0(a5)
  58:	00079423          	sh	zero,8(a5)
  5c:	4601                	li	a2,0
  5e:	4581                	li	a1,0
  60:	4501                	li	a0,0
  62:	02040923          	sb	zero,50(s0)
  66:	00e78323          	sb	a4,6(a5)
  6a:	00000097          	auipc	ra,0x0
  6e:	000080e7          	jalr	ra # 6a <mesh_nwk_process_vote_done+0x6a>
  72:	02040723          	sb	zero,46(s0)
  76:	020407a3          	sb	zero,47(s0)
  7a:	02040823          	sb	zero,48(s0)
  7e:	020408a3          	sb	zero,49(s0)
  82:	020406a3          	sb	zero,45(s0)

00000086 <.L1126>:
  86:	01e44783          	lbu	a5,30(s0)
  8a:	000005b7          	lui	a1,0x0
  8e:	00058593          	mv	a1,a1
  92:	9bbd                	and	a5,a5,-17
  94:	00098513          	mv	a0,s3
  98:	00f40f23          	sb	a5,30(s0)
  9c:	00000097          	auipc	ra,0x0
  a0:	000080e7          	jalr	ra # 9c <.L1126+0x16>
  a4:	000007b7          	lui	a5,0x0
  a8:	4661                	li	a2,24
  aa:	4581                	li	a1,0
  ac:	00448513          	add	a0,s1,4
  b0:	0007a023          	sw	zero,0(a5) # 0 <mesh_nwk_process_vote_done>
  b4:	00000097          	auipc	ra,0x0
  b8:	000080e7          	jalr	ra # b4 <.L1126+0x2e>
  bc:	00492703          	lw	a4,4(s2)
  c0:	4799                	li	a5,6
  c2:	00f70963          	beq	a4,a5,d4 <.L1127>
  c6:	4581                	li	a1,0
  c8:	02000513          	li	a0,32
  cc:	00000097          	auipc	ra,0x0
  d0:	000080e7          	jalr	ra # cc <.L1126+0x46>

000000d4 <.L1127>:
  d4:	40f2                	lw	ra,28(sp)
  d6:	4462                	lw	s0,24(sp)
  d8:	44d2                	lw	s1,20(sp)
  da:	4942                	lw	s2,16(sp)
  dc:	49b2                	lw	s3,12(sp)
  de:	4501                	li	a0,0
  e0:	6105                	add	sp,sp,32
  e2:	8082                	ret

Disassembly of section .text.mesh_nwk_process_rootless:

00000000 <mesh_nwk_process_rootless>:
   0:	1101                	add	sp,sp,-32
   2:	c84a                	sw	s2,16(sp)
   4:	00000937          	lui	s2,0x0
   8:	ce06                	sw	ra,28(sp)
   a:	cc22                	sw	s0,24(sp)
   c:	ca26                	sw	s1,20(sp)
   e:	00090793          	mv	a5,s2
  12:	01e7c783          	lbu	a5,30(a5)
  16:	878d                	sra	a5,a5,0x3
  18:	8b85                	and	a5,a5,1
  1a:	08a78e63          	beq	a5,a0,b6 <.L1130>
  1e:	00a10623          	sb	a0,12(sp)
  22:	84aa                	mv	s1,a0
  24:	4605                	li	a2,1
  26:	006c                	add	a1,sp,12
  28:	4551                	li	a0,20
  2a:	00000097          	auipc	ra,0x0
  2e:	000080e7          	jalr	ra # 2a <mesh_nwk_process_rootless+0x2a>
  32:	00090413          	mv	s0,s2
  36:	01e44703          	lbu	a4,30(s0)
  3a:	0f777793          	and	a5,a4,247
  3e:	c099                	beqz	s1,44 <.L1132>
  40:	00876793          	or	a5,a4,8

00000044 <.L1132>:
  44:	00f40f23          	sb	a5,30(s0)
  48:	000007b7          	lui	a5,0x0
  4c:	0007c783          	lbu	a5,0(a5) # 0 <mesh_nwk_process_rootless>
  50:	eba9                	bnez	a5,a2 <.L1133>
  52:	000007b7          	lui	a5,0x0
  56:	00078793          	mv	a5,a5
  5a:	0007a223          	sw	zero,4(a5) # 4 <mesh_nwk_process_rootless+0x4>
  5e:	f8800713          	li	a4,-120
  62:	0007a023          	sw	zero,0(a5)
  66:	00079423          	sh	zero,8(a5)
  6a:	4681                	li	a3,0
  6c:	4601                	li	a2,0
  6e:	4581                	li	a1,0
  70:	4501                	li	a0,0
  72:	00e78323          	sb	a4,6(a5)
  76:	00000097          	auipc	ra,0x0
  7a:	000080e7          	jalr	ra # 76 <.L1132+0x32>
  7e:	4685                	li	a3,1
  80:	4601                	li	a2,0
  82:	4581                	li	a1,0
  84:	4501                	li	a0,0
  86:	00000097          	auipc	ra,0x0
  8a:	000080e7          	jalr	ra # 86 <.L1132+0x42>
  8e:	02040723          	sb	zero,46(s0)
  92:	020407a3          	sb	zero,47(s0)
  96:	02040823          	sb	zero,48(s0)
  9a:	020408a3          	sb	zero,49(s0)
  9e:	020406a3          	sb	zero,45(s0)

000000a2 <.L1133>:
  a2:	000005b7          	lui	a1,0x0
  a6:	00058593          	mv	a1,a1
  aa:	00090513          	mv	a0,s2
  ae:	00000097          	auipc	ra,0x0
  b2:	000080e7          	jalr	ra # ae <.L1133+0xc>

000000b6 <.L1130>:
  b6:	40f2                	lw	ra,28(sp)
  b8:	4462                	lw	s0,24(sp)
  ba:	44d2                	lw	s1,20(sp)
  bc:	4942                	lw	s2,16(sp)
  be:	4501                	li	a0,0
  c0:	6105                	add	sp,sp,32
  c2:	8082                	ret

Disassembly of section .text.esp_mesh_clear_parent.part.0:

00000000 <esp_mesh_clear_parent.part.0>:
   0:	7179                	add	sp,sp,-48
   2:	d226                	sw	s1,36(sp)
   4:	d04a                	sw	s2,32(sp)
   6:	000004b7          	lui	s1,0x0
   a:	6909                	lui	s2,0x2
   c:	f1890613          	add	a2,s2,-232 # 1f18 <.L3268+0xc>
  10:	00048593          	mv	a1,s1
  14:	0b800513          	li	a0,184
  18:	d606                	sw	ra,44(sp)
  1a:	d422                	sw	s0,40(sp)
  1c:	00000097          	auipc	ra,0x0
  20:	000080e7          	jalr	ra # 1c <esp_mesh_clear_parent.part.0+0x1c>
  24:	e125                	bnez	a0,84 <.L1136>
  26:	000004b7          	lui	s1,0x0
  2a:	0004a783          	lw	a5,0(s1) # 0 <esp_mesh_clear_parent.part.0>
  2e:	557d                	li	a0,-1
  30:	c7a1                	beqz	a5,78 <.L1135>
  32:	14c7a403          	lw	s0,332(a5)
  36:	c029                	beqz	s0,78 <.L1135>
  38:	1547a783          	lw	a5,340(a5)
  3c:	9782                	jalr	a5
  3e:	0004a783          	lw	a5,0(s1)
  42:	ce2a                	sw	a0,28(sp)
  44:	0b87a783          	lw	a5,184(a5)
  48:	9782                	jalr	a5
  4a:	46f2                	lw	a3,28(sp)
  4c:	000005b7          	lui	a1,0x0
  50:	000007b7          	lui	a5,0x0
  54:	00000637          	lui	a2,0x0
  58:	c02a                	sw	a0,0(sp)
  5a:	00058713          	mv	a4,a1
  5e:	4505                	li	a0,1
  60:	0b800893          	li	a7,184
  64:	f1a90813          	add	a6,s2,-230
  68:	00078793          	mv	a5,a5
  6c:	00060613          	mv	a2,a2
  70:	00058593          	mv	a1,a1
  74:	9402                	jalr	s0
  76:	557d                	li	a0,-1

00000078 <.L1135>:
  78:	50b2                	lw	ra,44(sp)
