In archive /Users/dimajolkin/GolandProjects/espradio/blobs/libs/esp32c3/libnet80211.a:

ieee80211_crypto_sms4.o:     file format elf32-littleriscv


Disassembly of section .text.sms4_decap:

00000000 <sms4_decap>:
   0:	41dc                	lw	a5,4(a1)
   2:	1101                	add	sp,sp,-32
   4:	c452                	sw	s4,8(sp)
   6:	8a2a                	mv	s4,a0
   8:	43c8                	lw	a0,4(a5)
   a:	cc22                	sw	s0,24(sp)
   c:	ca26                	sw	s1,20(sp)
   e:	c84a                	sw	s2,16(sp)
  10:	c64e                	sw	s3,12(sp)
  12:	c256                	sw	s5,4(sp)
  14:	842e                	mv	s0,a1
  16:	84b2                	mv	s1,a2
  18:	ce06                	sw	ra,28(sp)
  1a:	00000097          	auipc	ra,0x0
  1e:	000080e7          	jalr	ra # 1a <sms4_decap+0x1a>
  22:	405c                	lw	a5,4(s0)
  24:	00351913          	sll	s2,a0,0x3
  28:	9952                	add	s2,s2,s4
  2a:	43dc                	lw	a5,4(a5)
  2c:	577d                	li	a4,-1
  2e:	00c92683          	lw	a3,12(s2)
  32:	97a6                	add	a5,a5,s1
  34:	0027a983          	lw	s3,2(a5)
  38:	0067aa83          	lw	s5,6(a5)
  3c:	00892783          	lw	a5,8(s2)
  40:	882a                	mv	a6,a0
  42:	00e79463          	bne	a5,a4,4a <.L7>
  46:	02f68c63          	beq	a3,a5,7e <.L2>

0000004a <.L7>:
  4a:	01379463          	bne	a5,s3,52 <.L8>
  4e:	01568c63          	beq	a3,s5,66 <.L4>

00000052 <.L8>:
  52:	40f98733          	sub	a4,s3,a5
  56:	00e9b733          	sltu	a4,s3,a4
  5a:	40da86b3          	sub	a3,s5,a3
  5e:	8e99                	sub	a3,a3,a4
  60:	6721                	lui	a4,0x8
  62:	8f75                	and	a4,a4,a3
  64:	cf09                	beqz	a4,7e <.L2>

00000066 <.L4>:
  66:	000006b7          	lui	a3,0x0
  6a:	874e                	mv	a4,s3
  6c:	00068693          	mv	a3,a3
  70:	4609                	li	a2,2
  72:	4591                	li	a1,4
  74:	4505                	li	a0,1
  76:	00000097          	auipc	ra,0x0
  7a:	000080e7          	jalr	ra # 76 <.L4+0x10>

0000007e <.L2>:
  7e:	01392423          	sw	s3,8(s2)
  82:	01592623          	sw	s5,12(s2)
  86:	0a0a2703          	lw	a4,160(s4)
  8a:	4050                	lw	a2,4(s0)
  8c:	40f2                	lw	ra,28(sp)
  8e:	4354                	lw	a3,4(a4)
  90:	425c                	lw	a5,4(a2)
  92:	4718                	lw	a4,8(a4)
  94:	94b6                	add	s1,s1,a3
  96:	97a6                	add	a5,a5,s1
  98:	c25c                	sw	a5,4(a2)
  9a:	01645783          	lhu	a5,22(s0)
  9e:	9736                	add	a4,a4,a3
  a0:	44d2                	lw	s1,20(sp)
  a2:	8f99                	sub	a5,a5,a4
  a4:	00f41b23          	sh	a5,22(s0)
  a8:	4462                	lw	s0,24(sp)
  aa:	4942                	lw	s2,16(sp)
  ac:	49b2                	lw	s3,12(sp)
  ae:	4a22                	lw	s4,8(sp)
  b0:	4a92                	lw	s5,4(sp)
  b2:	4505                	li	a0,1
  b4:	6105                	add	sp,sp,32
  b6:	8082                	ret

Disassembly of section .text.sms4_encap:

00000000 <sms4_encap>:
   0:	c9d5                	beqz	a1,b4 <.L17>
   2:	0045a803          	lw	a6,4(a1)
   6:	000007b7          	lui	a5,0x0
   a:	00078793          	mv	a5,a5
   e:	43d4                	lw	a3,4(a5)
  10:	00482703          	lw	a4,4(a6)
  14:	0165d783          	lhu	a5,22(a1)
  18:	1141                	add	sp,sp,-16
  1a:	8f15                	sub	a4,a4,a3
  1c:	97b6                	add	a5,a5,a3
  1e:	55d4                	lw	a3,44(a1)
  20:	c606                	sw	ra,12(sp)
  22:	00e82223          	sw	a4,4(a6)
  26:	4294                	lw	a3,0(a3)
  28:	00f59b23          	sh	a5,22(a1)
  2c:	09c52803          	lw	a6,156(a0)
  30:	8a89                	and	a3,a3,2
  32:	09852783          	lw	a5,152(a0)
  36:	cea5                	beqz	a3,ae <.L15>
  38:	00178693          	add	a3,a5,1 # 1 <sms4_encap+0x1>

0000003c <.L22>:
  3c:	00f6b7b3          	sltu	a5,a3,a5
  40:	010785b3          	add	a1,a5,a6
  44:	08050793          	add	a5,a0,128
  48:	cfcc                	sw	a1,28(a5)
  4a:	cf94                	sw	a3,24(a5)
  4c:	00c70023          	sb	a2,0(a4) # 8000 <.L17+0x7f4c>
  50:	000700a3          	sb	zero,1(a4)
  54:	4f94                	lw	a3,24(a5)
  56:	000005b7          	lui	a1,0x0
  5a:	4621                	li	a2,8
  5c:	00d70123          	sb	a3,2(a4)
  60:	4f94                	lw	a3,24(a5)
  62:	00058593          	mv	a1,a1
  66:	82a1                	srl	a3,a3,0x8
  68:	00d701a3          	sb	a3,3(a4)
  6c:	09a55683          	lhu	a3,154(a0)
  70:	00d70223          	sb	a3,4(a4)
  74:	09b54683          	lbu	a3,155(a0)
  78:	00d702a3          	sb	a3,5(a4)
  7c:	4fd4                	lw	a3,28(a5)
  7e:	00d70323          	sb	a3,6(a4)
  82:	4fd4                	lw	a3,28(a5)
  84:	82a1                	srl	a3,a3,0x8
  86:	00d703a3          	sb	a3,7(a4)
  8a:	09e55683          	lhu	a3,158(a0)
  8e:	00d70423          	sb	a3,8(a4)
  92:	09f54783          	lbu	a5,159(a0)
  96:	00a70513          	add	a0,a4,10
  9a:	00f704a3          	sb	a5,9(a4)
  9e:	00000097          	auipc	ra,0x0
  a2:	000080e7          	jalr	ra # 9e <.L22+0x62>
  a6:	40b2                	lw	ra,12(sp)
  a8:	4505                	li	a0,1
  aa:	0141                	add	sp,sp,16
  ac:	8082                	ret

000000ae <.L15>:
  ae:	00278693          	add	a3,a5,2
  b2:	b769                	j	3c <.L22>

000000b4 <.L17>:
  b4:	4501                	li	a0,0
  b6:	8082                	ret

ieee80211_btwt.o:     file format elf32-littleriscv


ieee80211_regdomain.o:     file format elf32-littleriscv


Disassembly of section .text.ieee80211_regdomain_max_tx_power:

00000000 <ieee80211_regdomain_max_tx_power>:
   0:	1141                	add	sp,sp,-16
   2:	c606                	sw	ra,12(sp)
   4:	00000097          	auipc	ra,0x0
   8:	000080e7          	jalr	ra # 4 <ieee80211_regdomain_max_tx_power+0x4>
   c:	00000737          	lui	a4,0x0
  10:	00070693          	mv	a3,a4
  14:	4781                	li	a5,0
  16:	00070713          	mv	a4,a4
  1a:	4631                	li	a2,12

0000001c <.L4>:
  1c:	00068583          	lb	a1,0(a3)
  20:	00a5c963          	blt	a1,a0,32 <.L2>
  24:	0786                	sll	a5,a5,0x1
  26:	973e                	add	a4,a4,a5
  28:	00170503          	lb	a0,1(a4) # 1 <ieee80211_regdomain_max_tx_power+0x1>

0000002c <.L3>:
  2c:	40b2                	lw	ra,12(sp)
  2e:	0141                	add	sp,sp,16
  30:	8082                	ret

00000032 <.L2>:
  32:	0785                	add	a5,a5,1
  34:	0689                	add	a3,a3,2
  36:	fec793e3          	bne	a5,a2,1c <.L4>
  3a:	4551                	li	a0,20
  3c:	bfc5                	j	2c <.L3>

Disassembly of section .text.ieee80211_regdomain_get_country:

00000000 <ieee80211_regdomain_get_country>:
   0:	000007b7          	lui	a5,0x0
   4:	0007a783          	lw	a5,0(a5) # 0 <ieee80211_regdomain_get_country>
   8:	40478513          	add	a0,a5,1028
   c:	40c7a783          	lw	a5,1036(a5)
  10:	e785                	bnez	a5,38 <.L7>
  12:	000007b7          	lui	a5,0x0
  16:	00078793          	mv	a5,a5
  1a:	4b9c                	lw	a5,16(a5)
  1c:	cf91                	beqz	a5,38 <.L7>
  1e:	0987a683          	lw	a3,152(a5) # 98 <.L114+0x8>
  22:	4715                	li	a4,5
  24:	00e69a63          	bne	a3,a4,38 <.L7>
  28:	0e47a783          	lw	a5,228(a5)
  2c:	c791                	beqz	a5,38 <.L7>
  2e:	2af7c703          	lbu	a4,687(a5)
  32:	c319                	beqz	a4,38 <.L7>
  34:	2ac78513          	add	a0,a5,684

00000038 <.L7>:
  38:	8082                	ret

Disassembly of section .text.ieee80211_update_phy_country:

00000000 <ieee80211_update_phy_country>:
   0:	000007b7          	lui	a5,0x0
   4:	1e97c703          	lbu	a4,489(a5) # 1e9 <.L34+0xc1>
   8:	4785                	li	a5,1
   a:	02e7f363          	bgeu	a5,a4,30 <.L21>
   e:	1141                	add	sp,sp,-16
  10:	c606                	sw	ra,12(sp)
  12:	00000097          	auipc	ra,0x0
  16:	000080e7          	jalr	ra # 12 <ieee80211_update_phy_country+0x12>
  1a:	000007b7          	lui	a5,0x0
  1e:	0007a783          	lw	a5,0(a5) # 0 <ieee80211_update_phy_country>
  22:	0d87a783          	lw	a5,216(a5)
  26:	9782                	jalr	a5
  28:	40b2                	lw	ra,12(sp)
  2a:	4501                	li	a0,0
  2c:	0141                	add	sp,sp,16
  2e:	8082                	ret

00000030 <.L21>:
  30:	4501                	li	a0,0
  32:	8082                	ret

Disassembly of section .text.ieee80211_regdomain_update:

00000000 <ieee80211_regdomain_update>:
   0:	7139                	add	sp,sp,-64
   2:	da26                	sw	s1,52(sp)
   4:	000007b7          	lui	a5,0x0
   8:	000004b7          	lui	s1,0x0
   c:	d84a                	sw	s2,48(sp)
   e:	d64e                	sw	s3,44(sp)
  10:	892a                	mv	s2,a0
  12:	0007a983          	lw	s3,0(a5) # 0 <ieee80211_regdomain_update>
  16:	00048793          	mv	a5,s1
  1a:	dc22                	sw	s0,56(sp)
  1c:	d452                	sw	s4,40(sp)
  1e:	de06                	sw	ra,60(sp)
  20:	d256                	sw	s5,36(sp)
  22:	d05a                	sw	s6,32(sp)
  24:	ce5e                	sw	s7,28(sp)
  26:	0107aa03          	lw	s4,16(a5)
  2a:	842e                	mv	s0,a1
  2c:	00000097          	auipc	ra,0x0
  30:	000080e7          	jalr	ra # 2c <ieee80211_regdomain_update+0x2c>
  34:	00091e63          	bnez	s2,50 <.L25>

00000038 <.L27>:
  38:	4501                	li	a0,0

0000003a <.L26>:
  3a:	50f2                	lw	ra,60(sp)
  3c:	5462                	lw	s0,56(sp)
  3e:	54d2                	lw	s1,52(sp)
  40:	5942                	lw	s2,48(sp)
  42:	59b2                	lw	s3,44(sp)
  44:	5a22                	lw	s4,40(sp)
  46:	5a92                	lw	s5,36(sp)
  48:	5b02                	lw	s6,32(sp)
  4a:	4bf2                	lw	s7,28(sp)
  4c:	6121                	add	sp,sp,64
  4e:	8082                	ret

00000050 <.L25>:
  50:	d465                	beqz	s0,38 <.L27>
  52:	00144783          	lbu	a5,1(s0)
  56:	470d                	li	a4,3
  58:	4a81                	li	s5,0
  5a:	17f5                	add	a5,a5,-3
  5c:	02e7c7b3          	div	a5,a5,a4
  60:	4705                	li	a4,1
  62:	4b01                	li	s6,0
  64:	4b81                	li	s7,0
  66:	00048493          	mv	s1,s1
  6a:	0ff7f793          	zext.b	a5,a5
  6e:	00e51463          	bne	a0,a4,76 <.L28>
  72:	fcf563e3          	bltu	a0,a5,38 <.L27>

00000076 <.L28>:
  76:	00244703          	lbu	a4,2(s0)
  7a:	c202                	sw	zero,4(sp)
  7c:	c402                	sw	zero,8(sp)
  7e:	00e10223          	sb	a4,4(sp)
  82:	00344703          	lbu	a4,3(s0)
  86:	c602                	sw	zero,12(sp)
  88:	0415                	add	s0,s0,5
  8a:	00e102a3          	sb	a4,5(sp)
  8e:	fff44703          	lbu	a4,-1(s0)
  92:	4601                	li	a2,0
  94:	4805                	li	a6,1
  96:	00e10323          	sb	a4,6(sp)
  9a:	48b9                	li	a7,14
  9c:	4701                	li	a4,0
  9e:	433d                	li	t1,15

000000a0 <.L29>:
  a0:	04f71e63          	bne	a4,a5,fc <.L31>
  a4:	c619                	beqz	a2,b2 <.L32>
  a6:	017104a3          	sb	s7,9(sp)
  aa:	01610423          	sb	s6,8(sp)
  ae:	015103a3          	sb	s5,7(sp)

000000b2 <.L32>:
  b2:	00714783          	lbu	a5,7(sp)
  b6:	d3c9                	beqz	a5,38 <.L27>
  b8:	40c9a783          	lw	a5,1036(s3)
  bc:	e795                	bnez	a5,e8 <.L33>
  be:	098a2783          	lw	a5,152(s4)
  c2:	17f5                	add	a5,a5,-3
  c4:	9bf5                	and	a5,a5,-3
  c6:	e38d                	bnez	a5,e8 <.L33>
  c8:	4631                	li	a2,12
  ca:	004c                	add	a1,sp,4
  cc:	40498513          	add	a0,s3,1028
  d0:	00000097          	auipc	ra,0x0
  d4:	000080e7          	jalr	ra # d0 <.L32+0x1e>
  d8:	c901                	beqz	a0,e8 <.L33>
  da:	00000097          	auipc	ra,0x0
  de:	000080e7          	jalr	ra # da <.L32+0x28>
  e2:	4785                	li	a5,1
  e4:	20f48a23          	sb	a5,532(s1) # 214 <.L34+0xec>

000000e8 <.L33>:
  e8:	4631                	li	a2,12
  ea:	004c                	add	a1,sp,4
  ec:	854a                	mv	a0,s2
  ee:	00000097          	auipc	ra,0x0
  f2:	000080e7          	jalr	ra # ee <.L33+0x6>
  f6:	e90d                	bnez	a0,128 <.L34>

000000f8 <.L49>:
  f8:	4505                	li	a0,1
  fa:	b781                	j	3a <.L26>

000000fc <.L31>:
  fc:	03051163          	bne	a0,a6,11e <.L30>
 100:	00044683          	lbu	a3,0(s0)
 104:	00d8ed63          	bltu	a7,a3,11e <.L30>
 108:	00144583          	lbu	a1,1(s0)
 10c:	00d58e33          	add	t3,a1,a3
 110:	01c34763          	blt	t1,t3,11e <.L30>
 114:	00240b83          	lb	s7,2(s0)
 118:	8b2e                	mv	s6,a1
 11a:	8ab6                	mv	s5,a3
 11c:	4605                	li	a2,1

0000011e <.L30>:
 11e:	0705                	add	a4,a4,1
 120:	0ff77713          	zext.b	a4,a4
 124:	040d                	add	s0,s0,3
 126:	bfad                	j	a0 <.L29>

00000128 <.L34>:
 128:	4631                	li	a2,12
 12a:	004c                	add	a1,sp,4
 12c:	854a                	mv	a0,s2
 12e:	00000097          	auipc	ra,0x0
 132:	000080e7          	jalr	ra # 12e <.L34+0x6>
 136:	40c9a703          	lw	a4,1036(s3)
 13a:	4785                	li	a5,1
 13c:	20f48a23          	sb	a5,532(s1)
 140:	faf70ce3          	beq	a4,a5,f8 <.L49>
 144:	098a2783          	lw	a5,152(s4)
 148:	17f5                	add	a5,a5,-3
 14a:	9bf5                	and	a5,a5,-3
 14c:	f7d5                	bnez	a5,f8 <.L49>
 14e:	00000097          	auipc	ra,0x0
 152:	000080e7          	jalr	ra # 14e <.L34+0x26>
 156:	b74d                	j	f8 <.L49>

Disassembly of section .text.ieee80211_regdomain_update_in_scan:

00000000 <ieee80211_regdomain_update_in_scan>:
   0:	05050513          	add	a0,a0,80
   4:	00000317          	auipc	t1,0x0
   8:	00030067          	jr	t1 # 4 <ieee80211_regdomain_update_in_scan+0x4>

Disassembly of section .text.ieee80211_regdomain_update_in_connect:

00000000 <ieee80211_regdomain_update_in_connect>:
   0:	2ac50513          	add	a0,a0,684
   4:	00000317          	auipc	t1,0x0
   8:	00030067          	jr	t1 # 4 <ieee80211_regdomain_update_in_connect+0x4>

Disassembly of section .text.ieee80211_add_countryie:

00000000 <ieee80211_add_countryie>:
   0:	1141                	add	sp,sp,-16
   2:	c422                	sw	s0,8(sp)
   4:	c226                	sw	s1,4(sp)
   6:	c606                	sw	ra,12(sp)
   8:	842a                	mv	s0,a0
   a:	00000097          	auipc	ra,0x0
   e:	000080e7          	jalr	ra # a <ieee80211_add_countryie+0xa>
  12:	000005b7          	lui	a1,0x0
  16:	4609                	li	a2,2
  18:	00058593          	mv	a1,a1
  1c:	84aa                	mv	s1,a0
  1e:	00000097          	auipc	ra,0x0
  22:	000080e7          	jalr	ra # 1e <ieee80211_add_countryie+0x1e>
  26:	c121                	beqz	a0,66 <.L53>
  28:	479d                	li	a5,7
  2a:	00f40023          	sb	a5,0(s0)
  2e:	0004c783          	lbu	a5,0(s1)
  32:	0421                	add	s0,s0,8
  34:	fef40d23          	sb	a5,-6(s0)
  38:	0014c783          	lbu	a5,1(s1)
  3c:	fef40da3          	sb	a5,-5(s0)
  40:	0024c783          	lbu	a5,2(s1)
  44:	fef40e23          	sb	a5,-4(s0)
  48:	4799                	li	a5,6
  4a:	fef40ca3          	sb	a5,-7(s0)
  4e:	0034c783          	lbu	a5,3(s1)
  52:	fef40ea3          	sb	a5,-3(s0)
  56:	0044c783          	lbu	a5,4(s1)
  5a:	fef40f23          	sb	a5,-2(s0)
  5e:	0054c783          	lbu	a5,5(s1)
  62:	fef40fa3          	sb	a5,-1(s0)

00000066 <.L53>:
  66:	40b2                	lw	ra,12(sp)
  68:	8522                	mv	a0,s0
  6a:	4422                	lw	s0,8(sp)
  6c:	4492                	lw	s1,4(sp)
  6e:	0141                	add	sp,sp,16
  70:	8082                	ret

Disassembly of section .text.ieee80211_regdomain_max_chan:

00000000 <ieee80211_regdomain_max_chan>:
   0:	000007b7          	lui	a5,0x0
   4:	0007a783          	lw	a5,0(a5) # 0 <ieee80211_regdomain_max_chan>
   8:	40c7a783          	lw	a5,1036(a5)
   c:	c39d                	beqz	a5,32 <.L61>
   e:	1141                	add	sp,sp,-16
  10:	c606                	sw	ra,12(sp)
  12:	00000097          	auipc	ra,0x0
  16:	000080e7          	jalr	ra # 12 <ieee80211_regdomain_max_chan+0x12>
  1a:	00354783          	lbu	a5,3(a0)
  1e:	00454703          	lbu	a4,4(a0)
  22:	40b2                	lw	ra,12(sp)
  24:	00e78533          	add	a0,a5,a4
  28:	157d                	add	a0,a0,-1
  2a:	0ff57513          	zext.b	a0,a0
  2e:	0141                	add	sp,sp,16
  30:	8082                	ret

00000032 <.L61>:
  32:	4539                	li	a0,14
  34:	8082                	ret

Disassembly of section .text.ieee80211_regdomain_ap_max_chan:

00000000 <ieee80211_regdomain_ap_max_chan>:
   0:	1141                	add	sp,sp,-16
   2:	c606                	sw	ra,12(sp)
   4:	00000097          	auipc	ra,0x0
   8:	000080e7          	jalr	ra # 4 <ieee80211_regdomain_ap_max_chan+0x4>
   c:	00354783          	lbu	a5,3(a0)
  10:	00454703          	lbu	a4,4(a0)
  14:	00e7e533          	or	a0,a5,a4
  18:	c509                	beqz	a0,22 <.L67>
  1a:	97ba                	add	a5,a5,a4
  1c:	17fd                	add	a5,a5,-1
  1e:	0ff7f513          	zext.b	a0,a5

00000022 <.L67>:
  22:	40b2                	lw	ra,12(sp)
  24:	0141                	add	sp,sp,16
  26:	8082                	ret

Disassembly of section .text.ieee80211_regdomain_min_chan:

00000000 <ieee80211_regdomain_min_chan>:
   0:	000007b7          	lui	a5,0x0
   4:	0007a783          	lw	a5,0(a5) # 0 <ieee80211_regdomain_min_chan>
   8:	40c7a783          	lw	a5,1036(a5)
   c:	cf81                	beqz	a5,24 <.L75>
   e:	1141                	add	sp,sp,-16
  10:	c606                	sw	ra,12(sp)
  12:	00000097          	auipc	ra,0x0
  16:	000080e7          	jalr	ra # 12 <ieee80211_regdomain_min_chan+0x12>
  1a:	40b2                	lw	ra,12(sp)
  1c:	00354503          	lbu	a0,3(a0)
  20:	0141                	add	sp,sp,16
  22:	8082                	ret

00000024 <.L75>:
  24:	4505                	li	a0,1
  26:	8082                	ret

Disassembly of section .text.ieee80211_regdomain_ap_min_chan:

00000000 <ieee80211_regdomain_ap_min_chan>:
   0:	1141                	add	sp,sp,-16
   2:	c606                	sw	ra,12(sp)
   4:	00000097          	auipc	ra,0x0
   8:	000080e7          	jalr	ra # 4 <ieee80211_regdomain_ap_min_chan+0x4>
   c:	00354503          	lbu	a0,3(a0)
  10:	e519                	bnez	a0,1e <.L81>
  12:	000007b7          	lui	a5,0x0
  16:	0007a783          	lw	a5,0(a5) # 0 <ieee80211_regdomain_ap_min_chan>
  1a:	4077c503          	lbu	a0,1031(a5)

0000001e <.L81>:
  1e:	40b2                	lw	ra,12(sp)
  20:	0141                	add	sp,sp,16
  22:	8082                	ret

Disassembly of section .text.ieee80211_regdomain_chan_num:

00000000 <ieee80211_regdomain_chan_num>:
   0:	1141                	add	sp,sp,-16
   2:	c606                	sw	ra,12(sp)
   4:	00000097          	auipc	ra,0x0
   8:	000080e7          	jalr	ra # 4 <ieee80211_regdomain_chan_num+0x4>
   c:	40b2                	lw	ra,12(sp)
   e:	00454503          	lbu	a0,4(a0)
  12:	0141                	add	sp,sp,16
  14:	8082                	ret

Disassembly of section .text.ieee80211_regdomain_policy:

00000000 <ieee80211_regdomain_policy>:
   0:	1141                	add	sp,sp,-16
   2:	c606                	sw	ra,12(sp)
   4:	00000097          	auipc	ra,0x0
   8:	000080e7          	jalr	ra # 4 <ieee80211_regdomain_policy+0x4>
   c:	40b2                	lw	ra,12(sp)
   e:	4508                	lw	a0,8(a0)
  10:	0141                	add	sp,sp,16
  12:	8082                	ret

Disassembly of section .text.ieee80211_regdomain_chan_in_range:

00000000 <ieee80211_regdomain_chan_in_range>:
   0:	1141                	add	sp,sp,-16
   2:	c422                	sw	s0,8(sp)
   4:	c226                	sw	s1,4(sp)
   6:	c606                	sw	ra,12(sp)
   8:	842a                	mv	s0,a0
   a:	00000097          	auipc	ra,0x0
   e:	000080e7          	jalr	ra # a <ieee80211_regdomain_chan_in_range+0xa>
  12:	84aa                	mv	s1,a0
  14:	00000097          	auipc	ra,0x0
  18:	000080e7          	jalr	ra # 14 <ieee80211_regdomain_chan_in_range+0x14>
  1c:	02856063          	bltu	a0,s0,3c <.L89>
  20:	8526                	mv	a0,s1
  22:	00000097          	auipc	ra,0x0
  26:	000080e7          	jalr	ra # 22 <ieee80211_regdomain_chan_in_range+0x22>
  2a:	00a43533          	sltu	a0,s0,a0
  2e:	00154513          	xor	a0,a0,1

00000032 <.L88>:
  32:	40b2                	lw	ra,12(sp)
  34:	4422                	lw	s0,8(sp)
  36:	4492                	lw	s1,4(sp)
  38:	0141                	add	sp,sp,16
  3a:	8082                	ret

0000003c <.L89>:
  3c:	4501                	li	a0,0
  3e:	bfd5                	j	32 <.L88>

Disassembly of section .text.ieee80211_regdomain_check_channel:

00000000 <ieee80211_regdomain_check_channel>:
   0:	1141                	add	sp,sp,-16
   2:	c422                	sw	s0,8(sp)
   4:	c606                	sw	ra,12(sp)
   6:	842a                	mv	s0,a0
   8:	00000097          	auipc	ra,0x0
   c:	000080e7          	jalr	ra # 8 <ieee80211_regdomain_check_channel+0x8>
  10:	c919                	beqz	a0,26 <.L93>
  12:	8522                	mv	a0,s0
  14:	00000097          	auipc	ra,0x0
  18:	000080e7          	jalr	ra # 14 <ieee80211_regdomain_check_channel+0x14>

0000001c <.L92>:
  1c:	40b2                	lw	ra,12(sp)
  1e:	4422                	lw	s0,8(sp)
  20:	8905                	and	a0,a0,1
  22:	0141                	add	sp,sp,16
  24:	8082                	ret

00000026 <.L93>:
  26:	4501                	li	a0,0
  28:	bfd5                	j	1c <.L92>

Disassembly of section .text.ieee80211_regdomain_check_ap_channel:

00000000 <ieee80211_regdomain_check_ap_channel>:
   0:	1141                	add	sp,sp,-16
   2:	c226                	sw	s1,4(sp)
   4:	c606                	sw	ra,12(sp)
   6:	c422                	sw	s0,8(sp)
   8:	c04a                	sw	s2,0(sp)
   a:	84aa                	mv	s1,a0
   c:	00000097          	auipc	ra,0x0
  10:	000080e7          	jalr	ra # c <ieee80211_regdomain_check_ap_channel+0xc>
  14:	c50d                	beqz	a0,3e <.L96>
  16:	842a                	mv	s0,a0
  18:	8526                	mv	a0,s1
  1a:	00000097          	auipc	ra,0x0
  1e:	000080e7          	jalr	ra # 1a <ieee80211_regdomain_check_ap_channel+0x1a>
  22:	892a                	mv	s2,a0
  24:	00000097          	auipc	ra,0x0
  28:	000080e7          	jalr	ra # 24 <ieee80211_regdomain_check_ap_channel+0x24>
  2c:	00956963          	bltu	a0,s1,3e <.L96>
  30:	854a                	mv	a0,s2
  32:	00000097          	auipc	ra,0x0
  36:	000080e7          	jalr	ra # 32 <ieee80211_regdomain_check_ap_channel+0x32>
  3a:	00a4f363          	bgeu	s1,a0,40 <.L97>

0000003e <.L96>:
  3e:	4401                	li	s0,0

00000040 <.L97>:
  40:	40b2                	lw	ra,12(sp)
  42:	8522                	mv	a0,s0
  44:	4422                	lw	s0,8(sp)
  46:	4492                	lw	s1,4(sp)
  48:	4902                	lw	s2,0(sp)
  4a:	0141                	add	sp,sp,16
  4c:	8082                	ret

Disassembly of section .text.ieee80211_regdomain_is_active_scan:

00000000 <ieee80211_regdomain_is_active_scan>:
   0:	000007b7          	lui	a5,0x0
   4:	0007a783          	lw	a5,0(a5) # 0 <ieee80211_regdomain_is_active_scan>
   8:	40c7a783          	lw	a5,1036(a5)
   c:	e781                	bnez	a5,14 <.L104>
   e:	00c53513          	sltiu	a0,a0,12
  12:	8082                	ret

00000014 <.L104>:
  14:	4505                	li	a0,1
  16:	8082                	ret

Disassembly of section .text.ieee80211_get_regdomain:

00000000 <ieee80211_get_regdomain>:
   0:	1101                	add	sp,sp,-32
   2:	000007b7          	lui	a5,0x0
   6:	cc22                	sw	s0,24(sp)
   8:	ca26                	sw	s1,20(sp)
   a:	c84a                	sw	s2,16(sp)
   c:	c64e                	sw	s3,12(sp)
   e:	c452                	sw	s4,8(sp)
  10:	ce06                	sw	ra,28(sp)
  12:	89aa                	mv	s3,a0
  14:	00078913          	mv	s2,a5
  18:	4401                	li	s0,0
  1a:	00078493          	mv	s1,a5
  1e:	0b000a13          	li	s4,176

00000022 <.L108>:
  22:	4609                	li	a2,2
  24:	85ca                	mv	a1,s2
  26:	854e                	mv	a0,s3
  28:	00000097          	auipc	ra,0x0
  2c:	000080e7          	jalr	ra # 28 <.L108+0x6>
  30:	e905                	bnez	a0,60 <.L106>
  32:	478d                	li	a5,3
  34:	02f40433          	mul	s0,s0,a5
  38:	008487b3          	add	a5,s1,s0
  3c:	0027c503          	lbu	a0,2(a5) # 2 <ieee80211_get_regdomain+0x2>
  40:	47a9                	li	a5,10
  42:	02f50533          	mul	a0,a0,a5
  46:	000007b7          	lui	a5,0x0
  4a:	00078793          	mv	a5,a5
  4e:	953e                	add	a0,a0,a5

00000050 <.L105>:
  50:	40f2                	lw	ra,28(sp)
  52:	4462                	lw	s0,24(sp)
  54:	44d2                	lw	s1,20(sp)
  56:	4942                	lw	s2,16(sp)
  58:	49b2                	lw	s3,12(sp)
  5a:	4a22                	lw	s4,8(sp)
  5c:	6105                	add	sp,sp,32
  5e:	8082                	ret

00000060 <.L106>:
  60:	0405                	add	s0,s0,1
  62:	090d                	add	s2,s2,3
  64:	fb441fe3          	bne	s0,s4,22 <.L108>
  68:	4501                	li	a0,0
  6a:	b7dd                	j	50 <.L105>

Disassembly of section .text.get_channel_max_bandwidth:

00000000 <get_channel_max_bandwidth>:
   0:	1141                	add	sp,sp,-16
   2:	c606                	sw	ra,12(sp)
   4:	c422                	sw	s0,8(sp)
   6:	c226                	sw	s1,4(sp)
   8:	c9b1                	beqz	a1,5c <.L112>
   a:	0005c603          	lbu	a2,0(a1) # 0 <get_channel_max_bandwidth>
   e:	00258493          	add	s1,a1,2
  12:	842e                	mv	s0,a1
  14:	8726                	mv	a4,s1
  16:	4781                	li	a5,0

00000018 <.L113>:
  18:	0ff7f693          	zext.b	a3,a5
  1c:	04c6ed63          	bltu	a3,a2,76 <.L116>
  20:	4739                	li	a4,14
  22:	4785                	li	a5,1
  24:	06e50663          	beq	a0,a4,90 <.L114>
  28:	00000097          	auipc	ra,0x0
  2c:	000080e7          	jalr	ra # 28 <.L113+0x10>
  30:	00000097          	auipc	ra,0x0
  34:	000080e7          	jalr	ra # 30 <.L113+0x18>
  38:	00044683          	lbu	a3,0(s0)
  3c:	4781                	li	a5,0

0000003e <.L117>:
  3e:	0ff7f713          	zext.b	a4,a5
  42:	02d77863          	bgeu	a4,a3,72 <.L122>
  46:	0004c703          	lbu	a4,0(s1)
  4a:	00e56663          	bltu	a0,a4,56 <.L118>
  4e:	0014c703          	lbu	a4,1(s1)
  52:	02a77a63          	bgeu	a4,a0,86 <.L123>

00000056 <.L118>:
  56:	0785                	add	a5,a5,1 # 1 <get_channel_max_bandwidth+0x1>
  58:	0491                	add	s1,s1,4
  5a:	b7d5                	j	3e <.L117>

0000005c <.L112>:
  5c:	000006b7          	lui	a3,0x0
  60:	00068693          	mv	a3,a3
  64:	4605                	li	a2,1
  66:	4585                	li	a1,1
  68:	4505                	li	a0,1
  6a:	00000097          	auipc	ra,0x0
  6e:	000080e7          	jalr	ra # 6a <.L112+0xe>

00000072 <.L122>:
  72:	4781                	li	a5,0
  74:	a831                	j	90 <.L114>

00000076 <.L116>:
  76:	00074683          	lbu	a3,0(a4)
  7a:	02d56163          	bltu	a0,a3,9c <.L115>
  7e:	00174683          	lbu	a3,1(a4)
  82:	00a6ed63          	bltu	a3,a0,9c <.L115>

00000086 <.L123>:
  86:	078a                	sll	a5,a5,0x2
  88:	943e                	add	s0,s0,a5
  8a:	00445783          	lhu	a5,4(s0)
  8e:	8b9d                	and	a5,a5,7

00000090 <.L114>:
  90:	40b2                	lw	ra,12(sp)
  92:	4422                	lw	s0,8(sp)
  94:	4492                	lw	s1,4(sp)
  96:	853e                	mv	a0,a5
  98:	0141                	add	sp,sp,16
  9a:	8082                	ret

0000009c <.L115>:
  9c:	0785                	add	a5,a5,1
  9e:	0711                	add	a4,a4,4
  a0:	bfa5                	j	18 <.L113>

Disassembly of section .text.ieee80211_is_40mhz_valid_bw:

00000000 <ieee80211_is_40mhz_valid_bw>:
   0:	1141                	add	sp,sp,-16
   2:	c606                	sw	ra,12(sp)
   4:	c422                	sw	s0,8(sp)
   6:	842a                	mv	s0,a0
   8:	00000097          	auipc	ra,0x0
   c:	000080e7          	jalr	ra # 8 <ieee80211_is_40mhz_valid_bw+0x8>
  10:	00000097          	auipc	ra,0x0
  14:	000080e7          	jalr	ra # 10 <ieee80211_is_40mhz_valid_bw+0x10>
  18:	cd19                	beqz	a0,36 <.L126>
  1a:	85aa                	mv	a1,a0
  1c:	8522                	mv	a0,s0
  1e:	00000097          	auipc	ra,0x0
  22:	000080e7          	jalr	ra # 1e <ieee80211_is_40mhz_valid_bw+0x1e>
  26:	00253513          	sltiu	a0,a0,2
  2a:	00154513          	xor	a0,a0,1

0000002e <.L125>:
  2e:	40b2                	lw	ra,12(sp)
  30:	4422                	lw	s0,8(sp)
  32:	0141                	add	sp,sp,16
  34:	8082                	ret

00000036 <.L126>:
  36:	4505                	li	a0,1
  38:	bfdd                	j	2e <.L125>

Disassembly of section .text.ieee80211_regdomain_get_country_info:

00000000 <ieee80211_regdomain_get_country_info>:
   0:	7179                	add	sp,sp,-48
   2:	d422                	sw	s0,40(sp)
   4:	d226                	sw	s1,36(sp)
   6:	ce4e                	sw	s3,28(sp)
   8:	d606                	sw	ra,44(sp)
   a:	d04a                	sw	s2,32(sp)
   c:	cc52                	sw	s4,24(sp)
   e:	ca56                	sw	s5,20(sp)
  10:	c85a                	sw	s6,16(sp)
  12:	c65e                	sw	s7,12(sp)
  14:	84aa                	mv	s1,a0
  16:	842e                	mv	s0,a1
  18:	89b2                	mv	s3,a2
  1a:	00000097          	auipc	ra,0x0
  1e:	000080e7          	jalr	ra # 1a <ieee80211_regdomain_get_country_info+0x1a>
  22:	c549                	beqz	a0,ac <.L134>
  24:	85a6                	mv	a1,s1
  26:	892a                	mv	s2,a0
  28:	460d                	li	a2,3
  2a:	8522                	mv	a0,s0
  2c:	00000097          	auipc	ra,0x0
  30:	000080e7          	jalr	ra # 2c <ieee80211_regdomain_get_country_info+0x2c>
  34:	4481                	li	s1,0
  36:	4b85                	li	s7,1

00000038 <.L130>:
  38:	00094783          	lbu	a5,0(s2)
  3c:	00f4ee63          	bltu	s1,a5,58 <.L133>
  40:	4501                	li	a0,0

00000042 <.L128>:
  42:	50b2                	lw	ra,44(sp)
  44:	5422                	lw	s0,40(sp)
  46:	5492                	lw	s1,36(sp)
  48:	5902                	lw	s2,32(sp)
  4a:	49f2                	lw	s3,28(sp)
  4c:	4a62                	lw	s4,24(sp)
  4e:	4ad2                	lw	s5,20(sp)
  50:	4b42                	lw	s6,16(sp)
  52:	4bb2                	lw	s7,12(sp)
  54:	6145                	add	sp,sp,48
  56:	8082                	ret

00000058 <.L133>:
  58:	00249a13          	sll	s4,s1,0x2
  5c:	014907b3          	add	a5,s2,s4
  60:	0037ca83          	lbu	s5,3(a5)
  64:	0027cb03          	lbu	s6,2(a5)
  68:	8556                	mv	a0,s5
  6a:	00000097          	auipc	ra,0x0
  6e:	000080e7          	jalr	ra # 6a <.L133+0x12>
  72:	03751963          	bne	a0,s7,a4 <.L131>
  76:	00344783          	lbu	a5,3(s0)
  7a:	e399                	bnez	a5,80 <.L132>
  7c:	016401a3          	sb	s6,3(s0)

00000080 <.L132>:
  80:	00444783          	lbu	a5,4(s0)
  84:	9a4a                	add	s4,s4,s2
  86:	0785                	add	a5,a5,1
  88:	97d6                	add	a5,a5,s5
  8a:	416787b3          	sub	a5,a5,s6
  8e:	00f40223          	sb	a5,4(s0)
  92:	01598023          	sb	s5,0(s3)
  96:	004a5783          	lhu	a5,4(s4)
  9a:	838d                	srl	a5,a5,0x3
  9c:	03f7f793          	and	a5,a5,63
  a0:	00f402a3          	sb	a5,5(s0)

000000a4 <.L131>:
  a4:	0485                	add	s1,s1,1
  a6:	0ff4f493          	zext.b	s1,s1
  aa:	b779                	j	38 <.L130>

000000ac <.L134>:
  ac:	557d                	li	a0,-1
  ae:	bf51                	j	42 <.L128>

ieee80211_nan_sd.o:     file format elf32-littleriscv


ieee80211.o:     file format elf32-littleriscv


Disassembly of section .text.ieee80211_send_sa_query:

00000000 <ieee80211_send_sa_query>:
   0:	7179                	add	sp,sp,-48
   2:	d422                	sw	s0,40(sp)
   4:	d226                	sw	s1,36(sp)
   6:	d04a                	sw	s2,32(sp)
   8:	84aa                	mv	s1,a0
   a:	892e                	mv	s2,a1
   c:	8432                	mv	s0,a2
   e:	86aa                	mv	a3,a0
  10:	4611                	li	a2,4
  12:	45e1                	li	a1,24
  14:	0868                	add	a0,sp,28
  16:	d606                	sw	ra,44(sp)
  18:	00000097          	auipc	ra,0x0
  1c:	000080e7          	jalr	ra # 18 <ieee80211_send_sa_query+0x18>
  20:	e50d                	bnez	a0,4a <.L2>
  22:	000006b7          	lui	a3,0x0
  26:	00068693          	mv	a3,a3
  2a:	4605                	li	a2,1
  2c:	04000593          	li	a1,64
  30:	4505                	li	a0,1
  32:	00000097          	auipc	ra,0x0
  36:	000080e7          	jalr	ra # 32 <ieee80211_send_sa_query+0x32>
  3a:	4405                	li	s0,1

0000003c <.L1>:
  3c:	50b2                	lw	ra,44(sp)
  3e:	8522                	mv	a0,s0
  40:	5422                	lw	s0,40(sp)
  42:	5492                	lw	s1,36(sp)
  44:	5902                	lw	s2,32(sp)
  46:	6145                	add	sp,sp,48
  48:	8082                	ret

0000004a <.L2>:
  4a:	5558                	lw	a4,44(a0)
  4c:	85aa                	mv	a1,a0
  4e:	4681                	li	a3,0
  50:	431c                	lw	a5,0(a4)
  52:	461d                	li	a2,7
  54:	c62a                	sw	a0,12(sp)
  56:	0017e793          	or	a5,a5,1
  5a:	c31c                	sw	a5,0(a4)
  5c:	47e1                	li	a5,24
  5e:	00f51a23          	sh	a5,20(a0)
  62:	47f2                	lw	a5,28(sp)
  64:	4721                	li	a4,8
  66:	00878123          	sb	s0,2(a5)
  6a:	8021                	srl	s0,s0,0x8
  6c:	00e78023          	sb	a4,0(a5)
  70:	008781a3          	sb	s0,3(a5)
  74:	012780a3          	sb	s2,1(a5)
  78:	4791                	li	a5,4
  7a:	00f51b23          	sh	a5,22(a0)
  7e:	4701                	li	a4,0
  80:	8526                	mv	a0,s1
  82:	00000097          	auipc	ra,0x0
  86:	000080e7          	jalr	ra # 82 <.L2+0x38>
  8a:	45b2                	lw	a1,12(sp)
  8c:	0d000613          	li	a2,208
  90:	8526                	mv	a0,s1
  92:	00000097          	auipc	ra,0x0
  96:	000080e7          	jalr	ra # 92 <.L2+0x48>
  9a:	842a                	mv	s0,a0
  9c:	f145                	bnez	a0,3c <.L1>
  9e:	02090a63          	beqz	s2,d2 <.L5>
  a2:	00000737          	lui	a4,0x0
  a6:	00070713          	mv	a4,a4

000000aa <.L4>:
  aa:	46f2                	lw	a3,28(sp)
  ac:	04000593          	li	a1,64
  b0:	4505                	li	a0,1
  b2:	0036c783          	lbu	a5,3(a3) # 3 <ieee80211_send_sa_query+0x3>
  b6:	0026c603          	lbu	a2,2(a3)
  ba:	000006b7          	lui	a3,0x0
  be:	07a2                	sll	a5,a5,0x8
  c0:	8fd1                	or	a5,a5,a2
  c2:	00068693          	mv	a3,a3
  c6:	460d                	li	a2,3
  c8:	00000097          	auipc	ra,0x0
  cc:	000080e7          	jalr	ra # c8 <.L4+0x1e>
  d0:	b7b5                	j	3c <.L1>

000000d2 <.L5>:
  d2:	00000737          	lui	a4,0x0
  d6:	00070713          	mv	a4,a4
  da:	bfc1                	j	aa <.L4>

Disassembly of section .text.ieee80211_send_sa_query_resp:

00000000 <ieee80211_send_sa_query_resp>:
   0:	2fb54703          	lbu	a4,763(a0)
   4:	cb19                	beqz	a4,1a <.L7>
   6:	455c                	lw	a5,12(a0)
   8:	8b85                	and	a5,a5,1
   a:	cb81                	beqz	a5,1a <.L7>
   c:	0006d603          	lhu	a2,0(a3) # 0 <ieee80211_send_sa_query_resp>
  10:	4585                	li	a1,1
  12:	00000317          	auipc	t1,0x0
  16:	00030067          	jr	t1 # 12 <ieee80211_send_sa_query_resp+0x12>

0000001a <.L7>:
  1a:	557d                	li	a0,-1
  1c:	8082                	ret

Disassembly of section .text.ieee80211_send_sa_query_req:

00000000 <ieee80211_send_sa_query_req>:
   0:	2fb54703          	lbu	a4,763(a0)
   4:	cb19                	beqz	a4,1a <.L13>
   6:	455c                	lw	a5,12(a0)
   8:	8b85                	and	a5,a5,1
   a:	cb81                	beqz	a5,1a <.L13>
   c:	0006d603          	lhu	a2,0(a3)
  10:	4581                	li	a1,0
  12:	00000317          	auipc	t1,0x0
  16:	00030067          	jr	t1 # 12 <ieee80211_send_sa_query_req+0x12>

0000001a <.L13>:
  1a:	557d                	li	a0,-1
  1c:	8082                	ret

Disassembly of section .text.ieee80211_recv_sa_query_req:

00000000 <ieee80211_recv_sa_query_req>:
   0:	2fb54703          	lbu	a4,763(a0)
   4:	cf01                	beqz	a4,1c <.L19>
   6:	455c                	lw	a5,12(a0)
   8:	8b85                	and	a5,a5,1
   a:	cb89                	beqz	a5,1c <.L19>
   c:	00260693          	add	a3,a2,2
  10:	45a1                	li	a1,8
  12:	4605                	li	a2,1
  14:	00000317          	auipc	t1,0x0
  18:	00030067          	jr	t1 # 14 <ieee80211_recv_sa_query_req+0x14>

0000001c <.L19>:
  1c:	557d                	li	a0,-1
  1e:	8082                	ret

Disassembly of section .text.ieee80211_recv_sa_query_resp:

00000000 <ieee80211_recv_sa_query_resp>:
   0:	2fb54783          	lbu	a5,763(a0)
   4:	cfed                	beqz	a5,fe <.L29>
   6:	455c                	lw	a5,12(a0)
   8:	7179                	add	sp,sp,-48
   a:	d422                	sw	s0,40(sp)
   c:	d606                	sw	ra,44(sp)
   e:	d226                	sw	s1,36(sp)
  10:	8b85                	and	a5,a5,1
  12:	842a                	mv	s0,a0
  14:	557d                	li	a0,-1
  16:	c789                	beqz	a5,20 <.L25>
  18:	2fc44783          	lbu	a5,764(s0)
  1c:	e799                	bnez	a5,2a <.L27>

0000001e <.L38>:
  1e:	4501                	li	a0,0

00000020 <.L25>:
  20:	50b2                	lw	ra,44(sp)
  22:	5422                	lw	s0,40(sp)
  24:	5492                	lw	s1,36(sp)
  26:	6145                	add	sp,sp,48
  28:	8082                	ret

0000002a <.L27>:
  2a:	00364703          	lbu	a4,3(a2)
  2e:	00264783          	lbu	a5,2(a2)
  32:	2fe45683          	lhu	a3,766(s0)
  36:	0722                	sll	a4,a4,0x8
  38:	8f5d                	or	a4,a4,a5
  3a:	30042783          	lw	a5,768(s0)
  3e:	97ba                	add	a5,a5,a4
  40:	8f95                	sub	a5,a5,a3
  42:	fcf05ee3          	blez	a5,1e <.L38>
  46:	fce6cce3          	blt	a3,a4,1e <.L38>
  4a:	000006b7          	lui	a3,0x0
  4e:	00068693          	mv	a3,a3
  52:	460d                	li	a2,3
  54:	04000593          	li	a1,64
  58:	4505                	li	a0,1
  5a:	00000097          	auipc	ra,0x0
  5e:	000080e7          	jalr	ra # 5a <.L27+0x30>
  62:	000004b7          	lui	s1,0x0
  66:	0004a783          	lw	a5,0(s1) # 0 <ieee80211_recv_sa_query_resp>
  6a:	30440513          	add	a0,s0,772
  6e:	ce2a                	sw	a0,28(sp)
  70:	0e47a783          	lw	a5,228(a5)
  74:	9782                	jalr	a5
  76:	0004a783          	lw	a5,0(s1)
  7a:	4572                	lw	a0,28(sp)
  7c:	0e87a783          	lw	a5,232(a5)
  80:	9782                	jalr	a5
  82:	0004a783          	lw	a5,0(s1)
  86:	31840513          	add	a0,s0,792
  8a:	ce2a                	sw	a0,28(sp)
  8c:	0e47a783          	lw	a5,228(a5)
  90:	0411                	add	s0,s0,4
  92:	9782                	jalr	a5
  94:	0004a783          	lw	a5,0(s1)
  98:	4572                	lw	a0,28(sp)
  9a:	0e87a783          	lw	a5,232(a5)
  9e:	9782                	jalr	a5
  a0:	2fc42783          	lw	a5,764(s0)
  a4:	000006b7          	lui	a3,0x0
  a8:	04000593          	li	a1,64
  ac:	c43e                	sw	a5,8(sp)
  ae:	00544783          	lbu	a5,5(s0)
  b2:	4505                	li	a0,1
  b4:	00068693          	mv	a3,a3
  b8:	c23e                	sw	a5,4(sp)
  ba:	00444783          	lbu	a5,4(s0)
  be:	4609                	li	a2,2
  c0:	c03e                	sw	a5,0(sp)
  c2:	00344883          	lbu	a7,3(s0)
  c6:	00244803          	lbu	a6,2(s0)
  ca:	00144783          	lbu	a5,1(s0)
  ce:	00044703          	lbu	a4,0(s0)
  d2:	00000097          	auipc	ra,0x0
  d6:	000080e7          	jalr	ra # d2 <.L27+0xa8>
  da:	4585                	li	a1,1
  dc:	2e040c23          	sb	zero,760(s0)
  e0:	2e042e23          	sw	zero,764(s0)
  e4:	8522                	mv	a0,s0
  e6:	00000097          	auipc	ra,0x0
  ea:	000080e7          	jalr	ra # e6 <.L27+0xbc>
  ee:	d905                	beqz	a0,1e <.L38>
  f0:	4585                	li	a1,1
  f2:	8522                	mv	a0,s0
  f4:	00000097          	auipc	ra,0x0
  f8:	000080e7          	jalr	ra # f4 <.L27+0xca>
  fc:	b70d                	j	1e <.L38>

000000fe <.L29>:
  fe:	557d                	li	a0,-1
 100:	8082                	ret

Disassembly of section .text.ieee80211_rate_ref_init:

00000000 <ieee80211_rate_ref_init>:
   0:	000007b7          	lui	a5,0x0
   4:	00078793          	mv	a5,a5
   8:	4705                	li	a4,1
   a:	1ce788a3          	sb	a4,465(a5) # 1d1 <.L122+0x97>
   e:	1c078923          	sb	zero,466(a5)
  12:	1c078a23          	sb	zero,468(a5)
  16:	8082                	ret

Disassembly of section .text.ieee80211_get_tx_info_from_eb:

00000000 <ieee80211_get_tx_info_from_eb>:
   0:	5554                	lw	a3,44(a0)
   2:	4a9c                	lw	a5,16(a3)
   4:	83cd                	srl	a5,a5,0x13
   6:	8b85                	and	a5,a5,1
   8:	c59c                	sw	a5,8(a1)
   a:	01655783          	lhu	a5,22(a0)
   e:	17f1                	add	a5,a5,-4
  10:	00f58823          	sb	a5,16(a1)
  14:	0136c703          	lbu	a4,19(a3) # 13 <ieee80211_get_tx_info_from_eb+0x13>
  18:	415c                	lw	a5,4(a0)
  1a:	177d                	add	a4,a4,-1 # ffffffff <.L122+0xfffffec5>
  1c:	00e03733          	snez	a4,a4
  20:	43dc                	lw	a5,4(a5)
  22:	cd98                	sw	a4,24(a1)
  24:	00c6c703          	lbu	a4,12(a3)
  28:	4294                	lw	a3,0(a3)
  2a:	c5dc                	sw	a5,12(a1)
  2c:	c9d8                	sw	a4,20(a1)
  2e:	00040737          	lui	a4,0x40
  32:	8f75                	and	a4,a4,a3
  34:	c311                	beqz	a4,38 <.L41>
  36:	07a1                	add	a5,a5,8

00000038 <.L41>:
  38:	00478713          	add	a4,a5,4
  3c:	07a9                	add	a5,a5,10
  3e:	c198                	sw	a4,0(a1)
  40:	c1dc                	sw	a5,4(a1)
  42:	8082                	ret

Disassembly of section .text.ieee80211_freedom_inside_cb:

00000000 <ieee80211_freedom_inside_cb>:
   0:	7179                	add	sp,sp,-48
   2:	d422                	sw	s0,40(sp)
   4:	4671                	li	a2,28
   6:	842a                	mv	s0,a0
   8:	4581                	li	a1,0
   a:	0048                	add	a0,sp,4
   c:	d226                	sw	s1,36(sp)
   e:	d606                	sw	ra,44(sp)
  10:	00000097          	auipc	ra,0x0
  14:	000080e7          	jalr	ra # 10 <ieee80211_freedom_inside_cb+0x10>
  18:	000007b7          	lui	a5,0x0
  1c:	1c07a483          	lw	s1,448(a5) # 1c0 <.L122+0x86>
  20:	c889                	beqz	s1,32 <.L45>
  22:	8522                	mv	a0,s0
  24:	004c                	add	a1,sp,4
  26:	00000097          	auipc	ra,0x0
  2a:	000080e7          	jalr	ra # 26 <ieee80211_freedom_inside_cb+0x26>
  2e:	0048                	add	a0,sp,4
  30:	9482                	jalr	s1

00000032 <.L45>:
  32:	50b2                	lw	ra,44(sp)
  34:	5422                	lw	s0,40(sp)
  36:	5492                	lw	s1,36(sp)
  38:	6145                	add	sp,sp,48
  3a:	8082                	ret

Disassembly of section .text.ieee80211_freedom_init:

00000000 <ieee80211_freedom_init>:
   0:	00000537          	lui	a0,0x0
   4:	000007b7          	lui	a5,0x0
   8:	4601                	li	a2,0
   a:	45a1                	li	a1,8
   c:	00050513          	mv	a0,a0
  10:	1c07a023          	sw	zero,448(a5) # 1c0 <.L122+0x86>
  14:	00000317          	auipc	t1,0x0
  18:	00030067          	jr	t1 # 14 <ieee80211_freedom_init+0x14>

Disassembly of section .text.ieee80211_freedom_deinit:

00000000 <ieee80211_freedom_deinit>:
   0:	000007b7          	lui	a5,0x0
   4:	4521                	li	a0,8
   6:	1c07a023          	sw	zero,448(a5) # 1c0 <.L122+0x86>
   a:	00000317          	auipc	t1,0x0
   e:	00030067          	jr	t1 # a <ieee80211_freedom_deinit+0xa>

Disassembly of section .text.ieee80211_user_ie_init:

00000000 <ieee80211_user_ie_init>:
   0:	1141                	add	sp,sp,-16
   2:	c422                	sw	s0,8(sp)
   4:	00000437          	lui	s0,0x0
   8:	00040413          	mv	s0,s0
   c:	0a040513          	add	a0,s0,160 # a0 <.L127+0xa>
  10:	02800613          	li	a2,40
  14:	4581                	li	a1,0
  16:	c606                	sw	ra,12(sp)
  18:	08042423          	sw	zero,136(s0)
  1c:	08042623          	sw	zero,140(s0)
  20:	08042823          	sw	zero,144(s0)
  24:	08042a23          	sw	zero,148(s0)
  28:	08042c23          	sw	zero,152(s0)
  2c:	08042e23          	sw	zero,156(s0)
  30:	00000097          	auipc	ra,0x0
  34:	000080e7          	jalr	ra # 30 <ieee80211_user_ie_init+0x30>
  38:	40b2                	lw	ra,12(sp)
  3a:	0c042423          	sw	zero,200(s0)
  3e:	0c042623          	sw	zero,204(s0)
  42:	4422                	lw	s0,8(sp)
  44:	0141                	add	sp,sp,16
  46:	8082                	ret

Disassembly of section .text.ieee80211_ifattach:

00000000 <ieee80211_ifattach>:
   0:	1101                	add	sp,sp,-32
   2:	ca26                	sw	s1,20(sp)
   4:	000004b7          	lui	s1,0x0
   8:	00048793          	mv	a5,s1
   c:	c64e                	sw	s3,12(sp)
   e:	0107a983          	lw	s3,16(a5)
  12:	cc22                	sw	s0,24(sp)
  14:	c84a                	sw	s2,16(sp)
  16:	ce06                	sw	ra,28(sp)
  18:	0147a903          	lw	s2,20(a5)
  1c:	00048413          	mv	s0,s1
  20:	08099863          	bnez	s3,b0 <.L56>

00000024 <.L60>:
  24:	0a091863          	bnez	s2,d4 <.L57>

00000028 <.L58>:
  28:	06400793          	li	a5,100
  2c:	00048513          	mv	a0,s1
  30:	02f41023          	sh	a5,32(s0)
  34:	00000097          	auipc	ra,0x0
  38:	000080e7          	jalr	ra # 34 <.L58+0xc>
  3c:	00048513          	mv	a0,s1
  40:	00000097          	auipc	ra,0x0
  44:	000080e7          	jalr	ra # 40 <.L58+0x18>
  48:	0a099263          	bnez	s3,ec <.L61>

0000004c <.L62>:
  4c:	00090c63          	beqz	s2,64 <.L63>
  50:	2a244703          	lbu	a4,674(s0)
  54:	478d                	li	a5,3
  56:	00f71763          	bne	a4,a5,64 <.L63>
  5a:	854a                	mv	a0,s2
  5c:	00000097          	auipc	ra,0x0
  60:	000080e7          	jalr	ra # 5c <.L62+0x10>

00000064 <.L63>:
  64:	00000097          	auipc	ra,0x0
  68:	000080e7          	jalr	ra # 64 <.L63>
  6c:	00048513          	mv	a0,s1
  70:	00000097          	auipc	ra,0x0
  74:	000080e7          	jalr	ra # 70 <.L63+0xc>
  78:	00000097          	auipc	ra,0x0
  7c:	000080e7          	jalr	ra # 78 <.L63+0x14>
  80:	00000097          	auipc	ra,0x0
  84:	000080e7          	jalr	ra # 80 <.L63+0x1c>
  88:	06042a23          	sw	zero,116(s0)
  8c:	2a042423          	sw	zero,680(s0)
  90:	2a042623          	sw	zero,684(s0)
  94:	00000097          	auipc	ra,0x0
  98:	000080e7          	jalr	ra # 94 <.L63+0x30>
  9c:	00000097          	auipc	ra,0x0
  a0:	000080e7          	jalr	ra # 9c <.L63+0x38>
  a4:	00000097          	auipc	ra,0x0
  a8:	000080e7          	jalr	ra # a4 <.L63+0x40>
  ac:	4501                	li	a0,0
  ae:	a821                	j	c6 <.L55>

000000b0 <.L56>:
  b0:	1409a223          	sw	zero,324(s3)
  b4:	2a444603          	lbu	a2,676(s0)
  b8:	4585                	li	a1,1
  ba:	854e                	mv	a0,s3
  bc:	00000097          	auipc	ra,0x0
  c0:	000080e7          	jalr	ra # bc <.L56+0xc>
  c4:	d125                	beqz	a0,24 <.L60>

000000c6 <.L55>:
  c6:	40f2                	lw	ra,28(sp)
  c8:	4462                	lw	s0,24(sp)
  ca:	44d2                	lw	s1,20(sp)
  cc:	4942                	lw	s2,16(sp)
  ce:	49b2                	lw	s3,12(sp)
  d0:	6105                	add	sp,sp,32
  d2:	8082                	ret

000000d4 <.L57>:
  d4:	14092223          	sw	zero,324(s2)
  d8:	2a244603          	lbu	a2,674(s0)
  dc:	4585                	li	a1,1
  de:	854a                	mv	a0,s2
  e0:	00000097          	auipc	ra,0x0
  e4:	000080e7          	jalr	ra # e0 <.L57+0xc>
  e8:	d121                	beqz	a0,28 <.L58>
  ea:	bff1                	j	c6 <.L55>

000000ec <.L61>:
  ec:	2a444703          	lbu	a4,676(s0)
  f0:	478d                	li	a5,3
  f2:	f4f71de3          	bne	a4,a5,4c <.L62>
  f6:	854e                	mv	a0,s3
  f8:	00000097          	auipc	ra,0x0
  fc:	000080e7          	jalr	ra # f8 <.L61+0xc>
 100:	b7b1                	j	4c <.L62>

Disassembly of section .text.ieee80211_ifdetach:

00000000 <ieee80211_ifdetach>:
   0:	1141                	add	sp,sp,-16
   2:	c606                	sw	ra,12(sp)
   4:	00000097          	auipc	ra,0x0
   8:	000080e7          	jalr	ra # 4 <ieee80211_ifdetach+0x4>
   c:	00000097          	auipc	ra,0x0
  10:	000080e7          	jalr	ra # c <ieee80211_ifdetach+0xc>
  14:	00000097          	auipc	ra,0x0
  18:	000080e7          	jalr	ra # 14 <ieee80211_ifdetach+0x14>
  1c:	00000097          	auipc	ra,0x0
  20:	000080e7          	jalr	ra # 1c <ieee80211_ifdetach+0x1c>
  24:	40b2                	lw	ra,12(sp)
  26:	4501                	li	a0,0
  28:	0141                	add	sp,sp,16
  2a:	8082                	ret

Disassembly of section .text.wifi_destroy_softap:

00000000 <wifi_destroy_softap>:
   0:	1101                	add	sp,sp,-32
   2:	cc22                	sw	s0,24(sp)
   4:	00000437          	lui	s0,0x0
   8:	00040793          	mv	a5,s0
   c:	ca26                	sw	s1,20(sp)
   e:	4bc4                	lw	s1,20(a5)
  10:	ce06                	sw	ra,28(sp)
  12:	c84a                	sw	s2,16(sp)
  14:	c64e                	sw	s3,12(sp)
  16:	00040413          	mv	s0,s0
  1a:	c0a5                	beqz	s1,7a <.L71>
  1c:	1544c703          	lbu	a4,340(s1) # 154 <.L122+0x1a>
  20:	478d                	li	a5,3
  22:	00f71763          	bne	a4,a5,30 <.L72>
  26:	8526                	mv	a0,s1
  28:	00000097          	auipc	ra,0x0
  2c:	000080e7          	jalr	ra # 28 <wifi_destroy_softap+0x28>

00000030 <.L72>:
  30:	00000937          	lui	s2,0x0
  34:	00092783          	lw	a5,0(s2) # 0 <wifi_destroy_softap>
  38:	000009b7          	lui	s3,0x0
  3c:	0009a503          	lw	a0,0(s3) # 0 <wifi_destroy_softap>
  40:	4bfc                	lw	a5,84(a5)
  42:	9782                	jalr	a5
  44:	00092783          	lw	a5,0(s2)
  48:	0009a503          	lw	a0,0(s3)
  4c:	00042a23          	sw	zero,20(s0) # 14 <wifi_destroy_softap+0x14>
  50:	4fbc                	lw	a5,88(a5)
  52:	9782                	jalr	a5
  54:	00092783          	lw	a5,0(s2)
  58:	0ec4a503          	lw	a0,236(s1)
  5c:	0b07a783          	lw	a5,176(a5)
  60:	9782                	jalr	a5
  62:	00092783          	lw	a5,0(s2)
  66:	8526                	mv	a0,s1
  68:	0b07a783          	lw	a5,176(a5)
  6c:	9782                	jalr	a5
  6e:	4585                	li	a1,1
  70:	4501                	li	a0,0
  72:	00000097          	auipc	ra,0x0
  76:	000080e7          	jalr	ra # 72 <.L72+0x42>

0000007a <.L71>:
  7a:	484c                	lw	a1,20(s0)
  7c:	4505                	li	a0,1
  7e:	00000097          	auipc	ra,0x0
  82:	000080e7          	jalr	ra # 7e <.L71+0x4>
  86:	4462                	lw	s0,24(sp)
  88:	40f2                	lw	ra,28(sp)
  8a:	44d2                	lw	s1,20(sp)
  8c:	4942                	lw	s2,16(sp)
  8e:	49b2                	lw	s3,12(sp)
  90:	6105                	add	sp,sp,32
  92:	00000317          	auipc	t1,0x0
  96:	00030067          	jr	t1 # 92 <.L71+0x18>

Disassembly of section .text.wifi_destroy_sta:

00000000 <wifi_destroy_sta>:
   0:	1101                	add	sp,sp,-32
   2:	cc22                	sw	s0,24(sp)
   4:	00000437          	lui	s0,0x0
   8:	00040793          	mv	a5,s0
   c:	ca26                	sw	s1,20(sp)
   e:	4b84                	lw	s1,16(a5)
  10:	ce06                	sw	ra,28(sp)
  12:	c84a                	sw	s2,16(sp)
  14:	c64e                	sw	s3,12(sp)
  16:	00040413          	mv	s0,s0
  1a:	c8a5                	beqz	s1,8a <.L78>
  1c:	1544c703          	lbu	a4,340(s1)
  20:	478d                	li	a5,3
  22:	00f71763          	bne	a4,a5,30 <.L79>
  26:	8526                	mv	a0,s1
  28:	00000097          	auipc	ra,0x0
  2c:	000080e7          	jalr	ra # 28 <wifi_destroy_sta+0x28>

00000030 <.L79>:
  30:	00000937          	lui	s2,0x0
  34:	00092783          	lw	a5,0(s2) # 0 <wifi_destroy_sta>
  38:	000009b7          	lui	s3,0x0
  3c:	0009a503          	lw	a0,0(s3) # 0 <wifi_destroy_sta>
  40:	4bfc                	lw	a5,84(a5)
  42:	9782                	jalr	a5
  44:	00092783          	lw	a5,0(s2)
  48:	0009a503          	lw	a0,0(s3)
  4c:	00042823          	sw	zero,16(s0) # 10 <wifi_destroy_sta+0x10>
  50:	4fbc                	lw	a5,88(a5)
  52:	9782                	jalr	a5
  54:	00092783          	lw	a5,0(s2)
  58:	0e84a503          	lw	a0,232(s1)
  5c:	0b07a783          	lw	a5,176(a5)
  60:	9782                	jalr	a5
  62:	00092783          	lw	a5,0(s2)
  66:	8526                	mv	a0,s1
  68:	0b07a783          	lw	a5,176(a5)
  6c:	9782                	jalr	a5
  6e:	00000097          	auipc	ra,0x0
  72:	000080e7          	jalr	ra # 6e <.L79+0x3e>
  76:	00000097          	auipc	ra,0x0
  7a:	000080e7          	jalr	ra # 76 <.L79+0x46>
  7e:	4581                	li	a1,0
  80:	4501                	li	a0,0
  82:	00000097          	auipc	ra,0x0
  86:	000080e7          	jalr	ra # 82 <.L79+0x52>

0000008a <.L78>:
  8a:	480c                	lw	a1,16(s0)
  8c:	4462                	lw	s0,24(sp)
  8e:	40f2                	lw	ra,28(sp)
  90:	44d2                	lw	s1,20(sp)
  92:	4942                	lw	s2,16(sp)
  94:	49b2                	lw	s3,12(sp)
  96:	4501                	li	a0,0
  98:	6105                	add	sp,sp,32
  9a:	00000317          	auipc	t1,0x0
  9e:	00030067          	jr	t1 # 9a <.L78+0x10>

Disassembly of section .text.wifi_recycle_rx_pkt:

00000000 <wifi_recycle_rx_pkt>:
   0:	00000317          	auipc	t1,0x0
   4:	00030067          	jr	t1 # 0 <wifi_recycle_rx_pkt>

Disassembly of section .text.wifi_get_rand_macaddr:

00000000 <wifi_get_rand_macaddr>:
   0:	000007b7          	lui	a5,0x0
   4:	0007a783          	lw	a5,0(a5) # 0 <wifi_get_rand_macaddr>
   8:	1141                	add	sp,sp,-16
   a:	c422                	sw	s0,8(sp)
   c:	13c7a783          	lw	a5,316(a5)
  10:	c606                	sw	ra,12(sp)
  12:	4599                	li	a1,6
  14:	842a                	mv	s0,a0
  16:	9782                	jalr	a5
  18:	00044783          	lbu	a5,0(s0)
  1c:	40b2                	lw	ra,12(sp)
  1e:	9bf9                	and	a5,a5,-2
  20:	0027e793          	or	a5,a5,2
  24:	00f40023          	sb	a5,0(s0)
  28:	4422                	lw	s0,8(sp)
  2a:	0141                	add	sp,sp,16
  2c:	8082                	ret

Disassembly of section .text.wifi_get_rand_macaddr_keep_oui:

00000000 <wifi_get_rand_macaddr_keep_oui>:
   0:	000007b7          	lui	a5,0x0
   4:	0007a783          	lw	a5,0(a5) # 0 <wifi_get_rand_macaddr_keep_oui>
   8:	1141                	add	sp,sp,-16
   a:	c422                	sw	s0,8(sp)
   c:	13c7a783          	lw	a5,316(a5)
  10:	c606                	sw	ra,12(sp)
  12:	842a                	mv	s0,a0
  14:	458d                	li	a1,3
  16:	050d                	add	a0,a0,3 # 3 <wifi_get_rand_macaddr_keep_oui+0x3>
  18:	9782                	jalr	a5
  1a:	00044783          	lbu	a5,0(s0)
  1e:	40b2                	lw	ra,12(sp)
  20:	9bf9                	and	a5,a5,-2
  22:	0027e793          	or	a5,a5,2
  26:	00f40023          	sb	a5,0(s0)
  2a:	4422                	lw	s0,8(sp)
  2c:	0141                	add	sp,sp,16
  2e:	8082                	ret

Disassembly of section .text.ieee80211_find_elem_match:

00000000 <ieee80211_find_elem_match>:
   0:	7179                	add	sp,sp,-48
   2:	d422                	sw	s0,40(sp)
   4:	d226                	sw	s1,36(sp)
   6:	d04a                	sw	s2,32(sp)
   8:	cc52                	sw	s4,24(sp)
   a:	ca56                	sw	s5,20(sp)
   c:	c85a                	sw	s6,16(sp)
   e:	c462                	sw	s8,8(sp)
  10:	c266                	sw	s9,4(sp)
  12:	d606                	sw	ra,44(sp)
  14:	ce4e                	sw	s3,28(sp)
  16:	c65e                	sw	s7,12(sp)
  18:	8a2a                	mv	s4,a0
  1a:	8ab6                	mv	s5,a3
  1c:	84ba                	mv	s1,a4
  1e:	893e                	mv	s2,a5
  20:	842e                	mv	s0,a1
  22:	00c58b33          	add	s6,a1,a2
  26:	4c05                	li	s8,1
  28:	00e78cb3          	add	s9,a5,a4

0000002c <.L90>:
  2c:	408b07b3          	sub	a5,s6,s0
  30:	00fc5863          	bge	s8,a5,40 <.L94>
  34:	00144983          	lbu	s3,1(s0)
  38:	00198713          	add	a4,s3,1
  3c:	02f74163          	blt	a4,a5,5e <.L93>

00000040 <.L94>:
  40:	4401                	li	s0,0

00000042 <.L89>:
  42:	50b2                	lw	ra,44(sp)
  44:	8522                	mv	a0,s0
  46:	5422                	lw	s0,40(sp)
  48:	5492                	lw	s1,36(sp)
  4a:	5902                	lw	s2,32(sp)
  4c:	49f2                	lw	s3,28(sp)
  4e:	4a62                	lw	s4,24(sp)
  50:	4ad2                	lw	s5,20(sp)
  52:	4b42                	lw	s6,16(sp)
  54:	4bb2                	lw	s7,12(sp)
  56:	4c22                	lw	s8,8(sp)
  58:	4c92                	lw	s9,4(sp)
  5a:	6145                	add	sp,sp,48
  5c:	8082                	ret

0000005e <.L93>:
  5e:	00044783          	lbu	a5,0(s0)
  62:	00240b93          	add	s7,s0,2
  66:	01479d63          	bne	a5,s4,80 <.L91>
  6a:	0199cb63          	blt	s3,s9,80 <.L91>
  6e:	8626                	mv	a2,s1
  70:	85d6                	mv	a1,s5
  72:	012b8533          	add	a0,s7,s2
  76:	00000097          	auipc	ra,0x0
  7a:	000080e7          	jalr	ra # 76 <.L93+0x18>
  7e:	d171                	beqz	a0,42 <.L89>

00000080 <.L91>:
  80:	013b8433          	add	s0,s7,s3
  84:	b765                	j	2c <.L90>

Disassembly of section .text.ieee80211_find_ie_match:

00000000 <ieee80211_find_ie_match>:
   0:	c391                	beqz	a5,4 <.L100>
   2:	17f9                	add	a5,a5,-2

00000004 <.L100>:
   4:	00000317          	auipc	t1,0x0
   8:	00030067          	jr	t1 # 4 <.L100>

Disassembly of section .text.ieee80211_find_elem:

00000000 <ieee80211_find_elem>:
   0:	4781                	li	a5,0
   2:	4701                	li	a4,0
   4:	4681                	li	a3,0
   6:	00000317          	auipc	t1,0x0
   a:	00030067          	jr	t1 # 6 <ieee80211_find_elem+0x6>

Disassembly of section .text.ieee80211_find_ext_elem:

00000000 <ieee80211_find_ext_elem>:
   0:	1101                	add	sp,sp,-32
   2:	00a107a3          	sb	a0,15(sp)
   6:	00f10693          	add	a3,sp,15
   a:	4781                	li	a5,0
   c:	4705                	li	a4,1
   e:	0ff00513          	li	a0,255
  12:	ce06                	sw	ra,28(sp)
  14:	00000097          	auipc	ra,0x0
  18:	000080e7          	jalr	ra # 14 <ieee80211_find_ext_elem+0x14>
  1c:	40f2                	lw	ra,28(sp)
  1e:	6105                	add	sp,sp,32
  20:	8082                	ret

Disassembly of section .text.ieee80211_find_ie:

00000000 <ieee80211_find_ie>:
   0:	00000317          	auipc	t1,0x0
   4:	00030067          	jr	t1 # 0 <ieee80211_find_ie>

Disassembly of section .text.ieee80211_find_ext_ie:

00000000 <ieee80211_find_ext_ie>:
   0:	00000317          	auipc	t1,0x0
   4:	00030067          	jr	t1 # 0 <ieee80211_find_ext_ie>

Disassembly of section .text.ieee80211_setup_pmf:

00000000 <ieee80211_setup_pmf>:
   0:	00000637          	lui	a2,0x0
   4:	1141                	add	sp,sp,-16
   6:	00060613          	mv	a2,a2
   a:	4581                	li	a1,0
   c:	4521                	li	a0,8
   e:	c606                	sw	ra,12(sp)
  10:	00000097          	auipc	ra,0x0
  14:	000080e7          	jalr	ra # 10 <ieee80211_setup_pmf+0x10>
  18:	00000637          	lui	a2,0x0
  1c:	00060613          	mv	a2,a2
  20:	4585                	li	a1,1
  22:	4521                	li	a0,8
  24:	00000097          	auipc	ra,0x0
  28:	000080e7          	jalr	ra # 24 <ieee80211_setup_pmf+0x24>
  2c:	00000637          	lui	a2,0x0
  30:	00060613          	mv	a2,a2
  34:	4581                	li	a1,0
  36:	4521                	li	a0,8
  38:	00000097          	auipc	ra,0x0
  3c:	000080e7          	jalr	ra # 38 <ieee80211_setup_pmf+0x38>
  40:	40b2                	lw	ra,12(sp)
  42:	00000637          	lui	a2,0x0
  46:	00060613          	mv	a2,a2
  4a:	4585                	li	a1,1
  4c:	4521                	li	a0,8
  4e:	0141                	add	sp,sp,16
  50:	00000317          	auipc	t1,0x0
  54:	00030067          	jr	t1 # 50 <ieee80211_setup_pmf+0x50>

Disassembly of section .text.wifi_create_softap:

00000000 <wifi_create_softap>:
   0:	1101                	add	sp,sp,-32
   2:	ca26                	sw	s1,20(sp)
   4:	000004b7          	lui	s1,0x0
   8:	00048793          	mv	a5,s1
   c:	4bdc                	lw	a5,20(a5)
   e:	ce06                	sw	ra,28(sp)
  10:	cc22                	sw	s0,24(sp)
  12:	c84a                	sw	s2,16(sp)
  14:	c64e                	sw	s3,12(sp)
  16:	c452                	sw	s4,8(sp)
  18:	c256                	sw	s5,4(sp)
  1a:	00048493          	mv	s1,s1
  1e:	ebe1                	bnez	a5,ee <.L112>
  20:	00000a37          	lui	s4,0x0
  24:	000a2783          	lw	a5,0(s4) # 0 <wifi_create_softap>
  28:	23000513          	li	a0,560
  2c:	1747a783          	lw	a5,372(a5)
  30:	9782                	jalr	a5
  32:	842a                	mv	s0,a0
  34:	10100513          	li	a0,257
  38:	c865                	beqz	s0,128 <.L111>
  3a:	00000ab7          	lui	s5,0x0
  3e:	000aa783          	lw	a5,0(s5) # 0 <wifi_create_softap>
  42:	4905                	li	s2,1
  44:	13242c23          	sw	s2,312(s0)
  48:	3fa7c783          	lbu	a5,1018(a5)
  4c:	c8c0                	sw	s0,20(s1)
  4e:	3b800513          	li	a0,952
  52:	2af48123          	sb	a5,674(s1) # 2a2 <.L122+0x168>
  56:	14f40a23          	sb	a5,340(s0)
  5a:	12c00793          	li	a5,300
  5e:	22f41323          	sh	a5,550(s0)
  62:	000a2783          	lw	a5,0(s4)
  66:	1747a783          	lw	a5,372(a5)
  6a:	9782                	jalr	a5
  6c:	0ea42623          	sw	a0,236(s0)
  70:	00000097          	auipc	ra,0x0
  74:	000080e7          	jalr	ra # 70 <wifi_create_softap+0x70>
  78:	000aa783          	lw	a5,0(s5)
  7c:	89aa                	mv	s3,a0
  7e:	3fb7c783          	lbu	a5,1019(a5)
  82:	28f48d23          	sb	a5,666(s1)
  86:	48dc                	lw	a5,20(s1)
  88:	07251e63          	bne	a0,s2,104 <.L114>
  8c:	06879963          	bne	a5,s0,fe <.L115>
  90:	2a24c903          	lbu	s2,674(s1)

00000094 <.L116>:
  94:	0ec42503          	lw	a0,236(s0)
  98:	cd35                	beqz	a0,114 <.L118>
  9a:	000005b7          	lui	a1,0x0
  9e:	4619                	li	a2,6
  a0:	00058593          	mv	a1,a1
  a4:	0511                	add	a0,a0,4
  a6:	00000097          	auipc	ra,0x0
  aa:	000080e7          	jalr	ra # a6 <.L116+0x12>
  ae:	0ec42783          	lw	a5,236(s0)
  b2:	864a                	mv	a2,s2
  b4:	0ff9f593          	zext.b	a1,s3
  b8:	c380                	sw	s0,0(a5)
  ba:	8522                	mv	a0,s0
  bc:	00000097          	auipc	ra,0x0
  c0:	000080e7          	jalr	ra # bc <.L116+0x28>
  c4:	478d                	li	a5,3
  c6:	00f91763          	bne	s2,a5,d4 <.L119>
  ca:	8522                	mv	a0,s0
  cc:	00000097          	auipc	ra,0x0
  d0:	000080e7          	jalr	ra # cc <.L116+0x38>

000000d4 <.L119>:
  d4:	00000537          	lui	a0,0x0
  d8:	4585                	li	a1,1
  da:	00050513          	mv	a0,a0
  de:	00000097          	auipc	ra,0x0
  e2:	000080e7          	jalr	ra # de <.L119+0xa>
  e6:	00000097          	auipc	ra,0x0
  ea:	000080e7          	jalr	ra # e6 <.L119+0x12>

000000ee <.L112>:
  ee:	48cc                	lw	a1,20(s1)
  f0:	4505                	li	a0,1
  f2:	00000097          	auipc	ra,0x0
  f6:	000080e7          	jalr	ra # f2 <.L112+0x4>
  fa:	4501                	li	a0,0
  fc:	a035                	j	128 <.L111>

000000fe <.L115>:
  fe:	2a44c903          	lbu	s2,676(s1)
 102:	bf49                	j	94 <.L116>

00000104 <.L114>:
 104:	00879563          	bne	a5,s0,10e <.L117>
 108:	2a34c903          	lbu	s2,675(s1)
 10c:	b761                	j	94 <.L116>

0000010e <.L117>:
 10e:	2a54c903          	lbu	s2,677(s1)
 112:	b749                	j	94 <.L116>

00000114 <.L118>:
 114:	000a2783          	lw	a5,0(s4)
 118:	8522                	mv	a0,s0
 11a:	0b07a783          	lw	a5,176(a5)
 11e:	9782                	jalr	a5
 120:	10100513          	li	a0,257
 124:	0004aa23          	sw	zero,20(s1)

00000128 <.L111>:
 128:	40f2                	lw	ra,28(sp)
 12a:	4462                	lw	s0,24(sp)
 12c:	44d2                	lw	s1,20(sp)
 12e:	4942                	lw	s2,16(sp)
 130:	49b2                	lw	s3,12(sp)
 132:	4a22                	lw	s4,8(sp)
 134:	4a92                	lw	s5,4(sp)
 136:	6105                	add	sp,sp,32
 138:	8082                	ret

Disassembly of section .text.wifi_create_sta:

00000000 <wifi_create_sta>:
   0:	1101                	add	sp,sp,-32
   2:	ca26                	sw	s1,20(sp)
   4:	000004b7          	lui	s1,0x0
   8:	00048793          	mv	a5,s1
   c:	4b9c                	lw	a5,16(a5)
   e:	ce06                	sw	ra,28(sp)
  10:	cc22                	sw	s0,24(sp)
  12:	c84a                	sw	s2,16(sp)
  14:	c64e                	sw	s3,12(sp)
  16:	c452                	sw	s4,8(sp)
  18:	00048493          	mv	s1,s1
  1c:	e3f5                	bnez	a5,100 <.L123>
  1e:	00000a37          	lui	s4,0x0
  22:	000a2783          	lw	a5,0(s4) # 0 <wifi_create_sta>
  26:	23000513          	li	a0,560
  2a:	1747a783          	lw	a5,372(a5)
  2e:	9782                	jalr	a5
  30:	842a                	mv	s0,a0
  32:	10100513          	li	a0,257
  36:	10040263          	beqz	s0,13a <.L122>
  3a:	00000937          	lui	s2,0x0
  3e:	00092783          	lw	a5,0(s2) # 0 <wifi_create_sta>
  42:	12042c23          	sw	zero,312(s0)
  46:	08042c23          	sw	zero,152(s0)
  4a:	09c7c783          	lbu	a5,156(a5)
  4e:	c880                	sw	s0,16(s1)
  50:	3b800513          	li	a0,952
  54:	2af48223          	sb	a5,676(s1) # 2a4 <.L122+0x16a>
  58:	14f40a23          	sb	a5,340(s0)
  5c:	4799                	li	a5,6
  5e:	22f41323          	sh	a5,550(s0)
  62:	000a2783          	lw	a5,0(s4)
  66:	1747a783          	lw	a5,372(a5)
  6a:	9782                	jalr	a5
  6c:	0ea42423          	sw	a0,232(s0)
  70:	00000097          	auipc	ra,0x0
  74:	000080e7          	jalr	ra # 70 <wifi_create_sta+0x70>
  78:	00092783          	lw	a5,0(s2)
  7c:	4705                	li	a4,1
  7e:	89aa                	mv	s3,a0
  80:	09d7c783          	lbu	a5,157(a5)
  84:	28f48f23          	sb	a5,670(s1)
  88:	48dc                	lw	a5,20(s1)
  8a:	08e51663          	bne	a0,a4,116 <.L125>
  8e:	08879163          	bne	a5,s0,110 <.L126>
  92:	2a24c903          	lbu	s2,674(s1)

00000096 <.L127>:
  96:	0e842503          	lw	a0,232(s0)
  9a:	c551                	beqz	a0,126 <.L129>
  9c:	000005b7          	lui	a1,0x0
  a0:	4619                	li	a2,6
  a2:	00058593          	mv	a1,a1
  a6:	0511                	add	a0,a0,4 # 4 <wifi_create_sta+0x4>
  a8:	00000097          	auipc	ra,0x0
  ac:	000080e7          	jalr	ra # a8 <.L127+0x12>
  b0:	864a                	mv	a2,s2
  b2:	0ff9f593          	zext.b	a1,s3
  b6:	8522                	mv	a0,s0
  b8:	00000097          	auipc	ra,0x0
  bc:	000080e7          	jalr	ra # b8 <.L127+0x22>
  c0:	0e842783          	lw	a5,232(s0)
  c4:	c380                	sw	s0,0(a5)
  c6:	478d                	li	a5,3
  c8:	00f91763          	bne	s2,a5,d6 <.L130>
  cc:	8522                	mv	a0,s0
  ce:	00000097          	auipc	ra,0x0
  d2:	000080e7          	jalr	ra # ce <.L127+0x38>

000000d6 <.L130>:
  d6:	00000537          	lui	a0,0x0
  da:	4581                	li	a1,0
  dc:	00050513          	mv	a0,a0
  e0:	00000097          	auipc	ra,0x0
  e4:	000080e7          	jalr	ra # e0 <.L130+0xa>
  e8:	00000537          	lui	a0,0x0
  ec:	00050513          	mv	a0,a0
  f0:	00000097          	auipc	ra,0x0
  f4:	000080e7          	jalr	ra # f0 <.L130+0x1a>
  f8:	00000097          	auipc	ra,0x0
  fc:	000080e7          	jalr	ra # f8 <.L130+0x22>

00000100 <.L123>:
 100:	488c                	lw	a1,16(s1)
 102:	4501                	li	a0,0
 104:	00000097          	auipc	ra,0x0
 108:	000080e7          	jalr	ra # 104 <.L123+0x4>
 10c:	4501                	li	a0,0
 10e:	a035                	j	13a <.L122>

00000110 <.L126>:
 110:	2a44c903          	lbu	s2,676(s1)
 114:	b749                	j	96 <.L127>

00000116 <.L125>:
 116:	00879563          	bne	a5,s0,120 <.L128>
 11a:	2a34c903          	lbu	s2,675(s1)
 11e:	bfa5                	j	96 <.L127>

00000120 <.L128>:
 120:	2a54c903          	lbu	s2,677(s1)
 124:	bf8d                	j	96 <.L127>

00000126 <.L129>:
 126:	000a2783          	lw	a5,0(s4)
 12a:	8522                	mv	a0,s0
 12c:	0b07a783          	lw	a5,176(a5)
 130:	9782                	jalr	a5
 132:	10100513          	li	a0,257
 136:	0004a823          	sw	zero,16(s1)

0000013a <.L122>:
 13a:	40f2                	lw	ra,28(sp)
 13c:	4462                	lw	s0,24(sp)
 13e:	44d2                	lw	s1,20(sp)
 140:	4942                	lw	s2,16(sp)
 142:	49b2                	lw	s3,12(sp)
 144:	4a22                	lw	s4,8(sp)
 146:	6105                	add	sp,sp,32
 148:	8082                	ret

Disassembly of section .text.wifi_mode_set:

00000000 <wifi_mode_set>:
   0:	7179                	add	sp,sp,-48
   2:	d226                	sw	s1,36(sp)
   4:	d606                	sw	ra,44(sp)
   6:	d422                	sw	s0,40(sp)
   8:	4789                	li	a5,2
   a:	84aa                	mv	s1,a0
   c:	0af50963          	beq	a0,a5,be <.L134>
  10:	06a7e363          	bltu	a5,a0,76 <.L135>
  14:	cd25                	beqz	a0,8c <.L136>

00000016 <.L137>:
  16:	00000097          	auipc	ra,0x0
  1a:	000080e7          	jalr	ra # 16 <.L137>
  1e:	842a                	mv	s0,a0
  20:	e125                	bnez	a0,80 <.L133>
  22:	000007b7          	lui	a5,0x0
  26:	4705                	li	a4,1
  28:	0007a783          	lw	a5,0(a5) # 0 <wifi_mode_set>
  2c:	08e49963          	bne	s1,a4,be <.L134>
  30:	0c47a783          	lw	a5,196(a5)
  34:	c391                	beqz	a5,38 <.L142>
  36:	9782                	jalr	a5

00000038 <.L142>:
  38:	00000737          	lui	a4,0x0
  3c:	00070713          	mv	a4,a4
  40:	21374783          	lbu	a5,531(a4) # 213 <.L122+0xd9>
  44:	000006b7          	lui	a3,0x0
  48:	00068693          	mv	a3,a3
  4c:	c23e                	sw	a5,4(sp)
  4e:	21274783          	lbu	a5,530(a4)
  52:	460d                	li	a2,3
  54:	4585                	li	a1,1
  56:	c03e                	sw	a5,0(sp)
  58:	21174883          	lbu	a7,529(a4)
  5c:	21074803          	lbu	a6,528(a4)
  60:	20f74783          	lbu	a5,527(a4)
  64:	20e74703          	lbu	a4,526(a4)
  68:	4505                	li	a0,1
  6a:	4401                	li	s0,0
  6c:	00000097          	auipc	ra,0x0
  70:	000080e7          	jalr	ra # 6c <.L142+0x34>
  74:	a031                	j	80 <.L133>

00000076 <.L135>:
  76:	478d                	li	a5,3
  78:	10200413          	li	s0,258
  7c:	f8f50de3          	beq	a0,a5,16 <.L137>

00000080 <.L133>:
  80:	50b2                	lw	ra,44(sp)
  82:	8522                	mv	a0,s0
  84:	5422                	lw	s0,40(sp)
  86:	5492                	lw	s1,36(sp)
  88:	6145                	add	sp,sp,48
  8a:	8082                	ret

0000008c <.L136>:
  8c:	000006b7          	lui	a3,0x0
  90:	00068693          	mv	a3,a3
  94:	460d                	li	a2,3
  96:	4585                	li	a1,1
  98:	4505                	li	a0,1
  9a:	00000097          	auipc	ra,0x0
  9e:	000080e7          	jalr	ra # 9a <.L136+0xe>
  a2:	00000097          	auipc	ra,0x0
  a6:	000080e7          	jalr	ra # a2 <.L136+0x16>
  aa:	000007b7          	lui	a5,0x0
  ae:	0007a783          	lw	a5,0(a5) # 0 <wifi_mode_set>
  b2:	4401                	li	s0,0
  b4:	0c47a783          	lw	a5,196(a5)
  b8:	d7e1                	beqz	a5,80 <.L133>
  ba:	9782                	jalr	a5
  bc:	b7d1                	j	80 <.L133>

000000be <.L134>:
  be:	000007b7          	lui	a5,0x0
  c2:	0007a783          	lw	a5,0(a5) # 0 <wifi_mode_set>
  c6:	10200413          	li	s0,258
  ca:	0c07a783          	lw	a5,192(a5)
  ce:	dbcd                	beqz	a5,80 <.L133>
  d0:	9782                	jalr	a5
  d2:	842a                	mv	s0,a0
  d4:	f555                	bnez	a0,80 <.L133>
  d6:	4789                	li	a5,2
  d8:	04f49463          	bne	s1,a5,120 <.L140>
  dc:	00000097          	auipc	ra,0x0
  e0:	000080e7          	jalr	ra # dc <.L134+0x1e>
  e4:	00000737          	lui	a4,0x0
  e8:	00070713          	mv	a4,a4
  ec:	20d74783          	lbu	a5,525(a4) # 20d <.L122+0xd3>
  f0:	000006b7          	lui	a3,0x0
  f4:	00068693          	mv	a3,a3
  f8:	c23e                	sw	a5,4(sp)
  fa:	20c74783          	lbu	a5,524(a4)
  fe:	460d                	li	a2,3
 100:	4585                	li	a1,1
 102:	c03e                	sw	a5,0(sp)
 104:	20b74883          	lbu	a7,523(a4)
 108:	20a74803          	lbu	a6,522(a4)
 10c:	20974783          	lbu	a5,521(a4)
 110:	20874703          	lbu	a4,520(a4)
 114:	4505                	li	a0,1
 116:	00000097          	auipc	ra,0x0
 11a:	000080e7          	jalr	ra # 116 <.L134+0x58>
 11e:	b78d                	j	80 <.L133>

00000120 <.L140>:
 120:	478d                	li	a5,3
 122:	00f48663          	beq	s1,a5,12e <.L141>
 126:	4785                	li	a5,1
 128:	f4f49ce3          	bne	s1,a5,80 <.L133>
 12c:	b731                	j	38 <.L142>

0000012e <.L141>:
 12e:	00000737          	lui	a4,0x0
 132:	00070713          	mv	a4,a4
 136:	20d74783          	lbu	a5,525(a4) # 20d <.L122+0xd3>
 13a:	000006b7          	lui	a3,0x0
 13e:	00068693          	mv	a3,a3
 142:	ce3e                	sw	a5,28(sp)
 144:	20c74783          	lbu	a5,524(a4)
 148:	460d                	li	a2,3
 14a:	4585                	li	a1,1
 14c:	cc3e                	sw	a5,24(sp)
 14e:	20b74783          	lbu	a5,523(a4)
 152:	4505                	li	a0,1
 154:	ca3e                	sw	a5,20(sp)
 156:	20a74783          	lbu	a5,522(a4)
 15a:	c83e                	sw	a5,16(sp)
 15c:	20974783          	lbu	a5,521(a4)
 160:	c63e                	sw	a5,12(sp)
 162:	20874783          	lbu	a5,520(a4)
 166:	c43e                	sw	a5,8(sp)
 168:	21374783          	lbu	a5,531(a4)
 16c:	c23e                	sw	a5,4(sp)
 16e:	21274783          	lbu	a5,530(a4)
 172:	c03e                	sw	a5,0(sp)
 174:	21174883          	lbu	a7,529(a4)
 178:	21074803          	lbu	a6,528(a4)
 17c:	20f74783          	lbu	a5,527(a4)
 180:	20e74703          	lbu	a4,526(a4)
 184:	00000097          	auipc	ra,0x0
 188:	000080e7          	jalr	ra # 184 <.L141+0x56>
 18c:	bdd5                	j	80 <.L133>

Disassembly of section .text.ieee80211_is_robust_mgmt_frm:

00000000 <ieee80211_is_robust_mgmt_frm>:
   0:	f6050713          	add	a4,a0,-160 # ffffff60 <.L122+0xfffffe26>
   4:	fdf77713          	and	a4,a4,-33
   8:	87aa                	mv	a5,a0
   a:	cf05                	beqz	a4,42 <.L152>
   c:	0d000713          	li	a4,208
  10:	4501                	li	a0,0
  12:	02e79963          	bne	a5,a4,44 <.L150>
  16:	47d9                	li	a5,22
  18:	02b7c063          	blt	a5,a1,38 <.L151>
  1c:	478d                	li	a5,3
  1e:	4505                	li	a0,1
  20:	02b7d263          	bge	a5,a1,44 <.L150>
  24:	00709537          	lui	a0,0x709
  28:	89050513          	add	a0,a0,-1904 # 708890 <.L122+0x708756>
  2c:	00b55533          	srl	a0,a0,a1
  30:	8905                	and	a0,a0,1
  32:	00154513          	xor	a0,a0,1
  36:	8082                	ret

00000038 <.L151>:
  38:	f8158593          	add	a1,a1,-127 # ffffff81 <.L122+0xfffffe47>
  3c:	00b03533          	snez	a0,a1
  40:	8082                	ret

00000042 <.L152>:
  42:	4505                	li	a0,1

00000044 <.L150>:
  44:	8082                	ret

ieee80211_mbssid.o:     file format elf32-littleriscv


ieee80211_crypto.o:     file format elf32-littleriscv


Disassembly of section .text.ieee80211_crypto_attach:

00000000 <ieee80211_crypto_attach>:
   0:	8082                	ret

Disassembly of section .text.ieee80211_crypto_available:

00000000 <ieee80211_crypto_available>:
   0:	4501                	li	a0,0
   2:	8082                	ret

Disassembly of section .text.ieee80211_crypto_setkey:

00000000 <ieee80211_crypto_setkey>:
   0:	4501                	li	a0,0
   2:	8082                	ret

Disassembly of section .text.ieee80211_crypto_encap:

00000000 <ieee80211_crypto_encap>:
   0:	1141                	add	sp,sp,-16
   2:	c606                	sw	ra,12(sp)
   4:	c422                	sw	s0,8(sp)
   6:	e50d                	bnez	a0,30 <.L5>
   8:	00000737          	lui	a4,0x0
   c:	000006b7          	lui	a3,0x0
  10:	6585                	lui	a1,0x1
  12:	06b00793          	li	a5,107
  16:	00070713          	mv	a4,a4
  1a:	00068693          	mv	a3,a3
  1e:	4605                	li	a2,1
  20:	80058593          	add	a1,a1,-2048 # 800 <.L56+0x5fa>
  24:	4505                	li	a0,1
  26:	00000097          	auipc	ra,0x0
  2a:	000080e7          	jalr	ra # 26 <ieee80211_crypto_encap+0x26>

0000002e <.L6>:
  2e:	a001                	j	2e <.L6>

00000030 <.L5>:
  30:	55dc                	lw	a5,44(a1)
  32:	4398                	lw	a4,0(a5)
  34:	000007b7          	lui	a5,0x0
  38:	00078793          	mv	a5,a5
  3c:	8b09                	and	a4,a4,2
  3e:	c331                	beqz	a4,82 <.L7>
  40:	13554703          	lbu	a4,309(a0)
  44:	4685                	li	a3,1
  46:	fff70613          	add	a2,a4,-1 # ffffffff <.L56+0xfffffdf9>
  4a:	00e6e463          	bltu	a3,a4,52 <.L20>
  4e:	00170613          	add	a2,a4,1

00000052 <.L20>:
  52:	05070713          	add	a4,a4,80
  56:	070a                	sll	a4,a4,0x2
  58:	97ba                	add	a5,a5,a4
  5a:	4380                	lw	s0,0(a5)
  5c:	0ff67613          	zext.b	a2,a2

00000060 <.L10>:
  60:	c819                	beqz	s0,76 <.L11>
  62:	0a042783          	lw	a5,160(s0)
  66:	cb81                	beqz	a5,76 <.L11>
  68:	4b9c                	lw	a5,16(a5)
  6a:	061a                	sll	a2,a2,0x6
  6c:	0c067613          	and	a2,a2,192
  70:	8522                	mv	a0,s0
  72:	9782                	jalr	a5
  74:	e111                	bnez	a0,78 <.L4>

00000076 <.L11>:
  76:	4401                	li	s0,0

00000078 <.L4>:
  78:	40b2                	lw	ra,12(sp)
  7a:	8522                	mv	a0,s0
  7c:	4422                	lw	s0,8(sp)
  7e:	0141                	add	sp,sp,16
  80:	8082                	ret

00000082 <.L7>:
  82:	13454703          	lbu	a4,308(a0)
  86:	4601                	li	a2,0
  88:	05070713          	add	a4,a4,80
  8c:	070a                	sll	a4,a4,0x2
  8e:	97ba                	add	a5,a5,a4
  90:	4380                	lw	s0,0(a5)
  92:	b7f9                	j	60 <.L10>

Disassembly of section .text.ieee80211_crypto_decap:

00000000 <ieee80211_crypto_decap>:
   0:	1141                	add	sp,sp,-16
   2:	c606                	sw	ra,12(sp)
   4:	c422                	sw	s0,8(sp)
   6:	e50d                	bnez	a0,30 <.L22>
   8:	00000737          	lui	a4,0x0
   c:	000006b7          	lui	a3,0x0
  10:	6585                	lui	a1,0x1
  12:	09a00793          	li	a5,154
  16:	00070713          	mv	a4,a4
  1a:	00068693          	mv	a3,a3
  1e:	4605                	li	a2,1
  20:	80058593          	add	a1,a1,-2048 # 800 <.L56+0x5fa>
  24:	4505                	li	a0,1
  26:	00000097          	auipc	ra,0x0
  2a:	000080e7          	jalr	ra # 26 <ieee80211_crypto_decap+0x26>

0000002e <.L23>:
  2e:	a001                	j	2e <.L23>

00000030 <.L22>:
  30:	0145d703          	lhu	a4,20(a1)
  34:	0165d783          	lhu	a5,22(a1)
  38:	28b54683          	lbu	a3,651(a0)
  3c:	97ba                	add	a5,a5,a4
  3e:	477d                	li	a4,31
  40:	02f75a63          	bge	a4,a5,74 <.L24>
  44:	41dc                	lw	a5,4(a1)
  46:	43dc                	lw	a5,4(a5)
  48:	0047c703          	lbu	a4,4(a5) # 4 <ieee80211_crypto_decap+0x4>
  4c:	8b05                	and	a4,a4,1
  4e:	c335                	beqz	a4,b2 <.L25>
  50:	97b2                	add	a5,a5,a2
  52:	0037c703          	lbu	a4,3(a5)
  56:	02077813          	and	a6,a4,32
  5a:	00080f63          	beqz	a6,78 <.L26>
  5e:	4821                	li	a6,8
  60:	01068f63          	beq	a3,a6,7e <.L27>
  64:	8319                	srl	a4,a4,0x6
  66:	953a                	add	a0,a0,a4
  68:	13754783          	lbu	a5,311(a0)
  6c:	0ff00713          	li	a4,255
  70:	00e79963          	bne	a5,a4,82 <.L28>

00000074 <.L24>:
  74:	4401                	li	s0,0
  76:	a035                	j	a2 <.L21>

00000078 <.L26>:
  78:	4721                	li	a4,8
  7a:	02e69963          	bne	a3,a4,ac <.L29>

0000007e <.L27>:
  7e:	0007c783          	lbu	a5,0(a5)

00000082 <.L28>:
  82:	00000737          	lui	a4,0x0
  86:	05078793          	add	a5,a5,80
  8a:	078a                	sll	a5,a5,0x2
  8c:	00070713          	mv	a4,a4

00000090 <.L36>:
  90:	97ba                	add	a5,a5,a4
  92:	4380                	lw	s0,0(a5)
  94:	d065                	beqz	s0,74 <.L24>
  96:	0a042783          	lw	a5,160(s0)
  9a:	8522                	mv	a0,s0
  9c:	4bdc                	lw	a5,20(a5)
  9e:	9782                	jalr	a5
  a0:	d971                	beqz	a0,74 <.L24>

000000a2 <.L21>:
  a2:	40b2                	lw	ra,12(sp)
  a4:	8522                	mv	a0,s0
  a6:	4422                	lw	s0,8(sp)
  a8:	0141                	add	sp,sp,16
  aa:	8082                	ret

000000ac <.L29>:
  ac:	13554783          	lbu	a5,309(a0)
  b0:	bfc9                	j	82 <.L28>

000000b2 <.L25>:
  b2:	13454703          	lbu	a4,308(a0)
  b6:	000007b7          	lui	a5,0x0
  ba:	00078793          	mv	a5,a5
  be:	05070713          	add	a4,a4,80 # 50 <.L22+0x20>
  c2:	070a                	sll	a4,a4,0x2
  c4:	b7f1                	j	90 <.L36>

Disassembly of section .text.ieee80211_crypto_bip_encrypt:

00000000 <ieee80211_crypto_bip_encrypt>:
   0:	711d                	add	sp,sp,-96
   2:	cca2                	sw	s0,88(sp)
   4:	caa6                	sw	s1,84(sp)
   6:	c6ce                	sw	s3,76(sp)
   8:	c4d2                	sw	s4,72(sp)
   a:	ce86                	sw	ra,92(sp)
   c:	c8ca                	sw	s2,80(sp)
   e:	c2d6                	sw	s5,68(sp)
  10:	c0da                	sw	s6,64(sp)
  12:	de5e                	sw	s7,60(sp)
  14:	dc62                	sw	s8,56(sp)
  16:	da66                	sw	s9,52(sp)
  18:	d86a                	sw	s10,48(sp)
  1a:	47a5                	li	a5,9
  1c:	842a                	mv	s0,a0
  1e:	84ae                	mv	s1,a1
  20:	8a32                	mv	s4,a2
  22:	49c1                	li	s3,16
  24:	00f61363          	bne	a2,a5,2a <.L38>
  28:	49a1                	li	s3,8

0000002a <.L38>:
  2a:	40dc                	lw	a5,4(s1)
  2c:	8522                	mv	a0,s0
  2e:	0047aa83          	lw	s5,4(a5) # 4 <ieee80211_crypto_bip_encrypt+0x4>
  32:	0164d783          	lhu	a5,22(s1)
  36:	018a8b93          	add	s7,s5,24
  3a:	00fb8933          	add	s2,s7,a5
  3e:	07a9                	add	a5,a5,10
  40:	97ce                	add	a5,a5,s3
  42:	00f49b23          	sh	a5,22(s1)
  46:	04c00793          	li	a5,76
  4a:	00f90023          	sb	a5,0(s2)
  4e:	00898793          	add	a5,s3,8
  52:	00f900a3          	sb	a5,1(s2)
  56:	00000097          	auipc	ra,0x0
  5a:	000080e7          	jalr	ra # 56 <.L38+0x2c>
  5e:	00855793          	srl	a5,a0,0x8
  62:	00f901a3          	sb	a5,3(s2)
  66:	ffc50793          	add	a5,a0,-4
  6a:	07c2                	sll	a5,a5,0x10
  6c:	00a90123          	sb	a0,2(s2)
  70:	83c1                	srl	a5,a5,0x10
  72:	4705                	li	a4,1
  74:	85aa                	mv	a1,a0
  76:	18f76763          	bltu	a4,a5,204 <.L39>
  7a:	8522                	mv	a0,s0
  7c:	00000097          	auipc	ra,0x0
  80:	000080e7          	jalr	ra # 7c <.L38+0x52>
  84:	842a                	mv	s0,a0
  86:	16050f63          	beqz	a0,204 <.L39>
  8a:	00250593          	add	a1,a0,2
  8e:	872e                	mv	a4,a1
  90:	862a                	mv	a2,a0
  92:	00850b13          	add	s6,a0,8
  96:	4781                	li	a5,0
  98:	4681                	li	a3,0

0000009a <.L40>:
  9a:	00074803          	lbu	a6,0(a4)
  9e:	0187d513          	srl	a0,a5,0x18
  a2:	06a2                	sll	a3,a3,0x8
  a4:	07a2                	sll	a5,a5,0x8
  a6:	0705                	add	a4,a4,1
  a8:	00f867b3          	or	a5,a6,a5
  ac:	8ec9                	or	a3,a3,a0
  ae:	ff6716e3          	bne	a4,s6,9a <.L40>
  b2:	00178713          	add	a4,a5,1
  b6:	00f737b3          	sltu	a5,a4,a5
  ba:	97b6                	add	a5,a5,a3
  bc:	ffa40693          	add	a3,s0,-6

000000c0 <.L41>:
  c0:	00e603a3          	sb	a4,7(a2)
  c4:	01879513          	sll	a0,a5,0x18
  c8:	8321                	srl	a4,a4,0x8
  ca:	167d                	add	a2,a2,-1
  cc:	8f49                	or	a4,a4,a0
  ce:	83a1                	srl	a5,a5,0x8
  d0:	fec698e3          	bne	a3,a2,c0 <.L41>
  d4:	4619                	li	a2,6
  d6:	00490513          	add	a0,s2,4
  da:	00000097          	auipc	ra,0x0
  de:	000080e7          	jalr	ra # da <.L41+0x1a>
  e2:	00000d37          	lui	s10,0x0
  e6:	000d2783          	lw	a5,0(s10) # 0 <ieee80211_crypto_bip_encrypt>
  ea:	0164d503          	lhu	a0,22(s1)
  ee:	10100c93          	li	s9,257
  f2:	1747a783          	lw	a5,372(a5)
  f6:	0551                	add	a0,a0,20
  f8:	9782                	jalr	a5
  fa:	8c2a                	mv	s8,a0
  fc:	10050563          	beqz	a0,206 <.L56>
 100:	000ac783          	lbu	a5,0(s5)
 104:	4649                	li	a2,18
 106:	004a8593          	add	a1,s5,4
 10a:	00f50023          	sb	a5,0(a0)
 10e:	001ac783          	lbu	a5,1(s5)
 112:	0509                	add	a0,a0,2
 114:	fc77f793          	and	a5,a5,-57
 118:	fef50fa3          	sb	a5,-1(a0)
 11c:	00000097          	auipc	ra,0x0
 120:	000080e7          	jalr	ra # 11c <.L41+0x5c>
 124:	0164d603          	lhu	a2,22(s1)
 128:	014c0793          	add	a5,s8,20
 12c:	853e                	mv	a0,a5
 12e:	41360633          	sub	a2,a2,s3
 132:	85de                	mv	a1,s7
 134:	00000097          	auipc	ra,0x0
 138:	000080e7          	jalr	ra # 134 <.L41+0x74>
 13c:	0164d703          	lhu	a4,22(s1)
 140:	000004b7          	lui	s1,0x0
 144:	00048493          	mv	s1,s1
 148:	00e507b3          	add	a5,a0,a4
 14c:	4725                	li	a4,9
 14e:	418787b3          	sub	a5,a5,s8
 152:	02ea1e63          	bne	s4,a4,18e <.L43>
 156:	4c98                	lw	a4,24(s1)
 158:	1014                	add	a3,sp,32
 15a:	863e                	mv	a2,a5
 15c:	85e2                	mv	a1,s8
 15e:	855a                	mv	a0,s6
 160:	9702                	jalr	a4

00000162 <.L59>:
 162:	8caa                	mv	s9,a0
 164:	c559                	beqz	a0,1f2 <.L46>
 166:	000006b7          	lui	a3,0x0
 16a:	872a                	mv	a4,a0
 16c:	00068693          	mv	a3,a3
 170:	4605                	li	a2,1
 172:	02000593          	li	a1,32
 176:	4505                	li	a0,1
 178:	00000097          	auipc	ra,0x0
 17c:	000080e7          	jalr	ra # 178 <.L59+0x16>

00000180 <.L47>:
 180:	000d2783          	lw	a5,0(s10)
 184:	8562                	mv	a0,s8
 186:	0b07a783          	lw	a5,176(a5)
 18a:	9782                	jalr	a5
 18c:	a8ad                	j	206 <.L56>

0000018e <.L43>:
 18e:	00aa8593          	add	a1,s5,10
 192:	4619                	li	a2,6
 194:	0848                	add	a0,sp,20
 196:	c63e                	sw	a5,12(sp)
 198:	00000097          	auipc	ra,0x0
 19c:	000080e7          	jalr	ra # 198 <.L43+0xa>
 1a0:	00744703          	lbu	a4,7(s0)
 1a4:	0244a883          	lw	a7,36(s1) # 24 <ieee80211_crypto_bip_encrypt+0x24>
 1a8:	47b2                	lw	a5,12(sp)
 1aa:	00e10d23          	sb	a4,26(sp)
 1ae:	00644703          	lbu	a4,6(s0)
 1b2:	02000593          	li	a1,32
 1b6:	00e10da3          	sb	a4,27(sp)
 1ba:	00544703          	lbu	a4,5(s0)
 1be:	00e10e23          	sb	a4,28(sp)
 1c2:	00444703          	lbu	a4,4(s0)
 1c6:	00e10ea3          	sb	a4,29(sp)
 1ca:	00344703          	lbu	a4,3(s0)
 1ce:	00e10f23          	sb	a4,30(sp)
 1d2:	00244703          	lbu	a4,2(s0)
 1d6:	00e10fa3          	sb	a4,31(sp)
 1da:	4739                	li	a4,14
 1dc:	00ea0363          	beq	s4,a4,1e2 <.L45>
 1e0:	45c1                	li	a1,16

000001e2 <.L45>:
 1e2:	02010813          	add	a6,sp,32
 1e6:	8762                	mv	a4,s8
 1e8:	46b1                	li	a3,12
 1ea:	0850                	add	a2,sp,20
 1ec:	855a                	mv	a0,s6
 1ee:	9882                	jalr	a7
 1f0:	bf8d                	j	162 <.L59>

000001f2 <.L46>:
 1f2:	864e                	mv	a2,s3
 1f4:	100c                	add	a1,sp,32
 1f6:	00a90513          	add	a0,s2,10
 1fa:	00000097          	auipc	ra,0x0
 1fe:	000080e7          	jalr	ra # 1fa <.L46+0x8>
 202:	bfbd                	j	180 <.L47>

00000204 <.L39>:
 204:	5cfd                	li	s9,-1

00000206 <.L56>:
 206:	40f6                	lw	ra,92(sp)
 208:	4466                	lw	s0,88(sp)
 20a:	44d6                	lw	s1,84(sp)
 20c:	4946                	lw	s2,80(sp)
 20e:	49b6                	lw	s3,76(sp)
 210:	4a26                	lw	s4,72(sp)
 212:	4a96                	lw	s5,68(sp)
 214:	4b06                	lw	s6,64(sp)
 216:	5bf2                	lw	s7,60(sp)
 218:	5c62                	lw	s8,56(sp)
 21a:	5d42                	lw	s10,48(sp)
 21c:	8566                	mv	a0,s9
 21e:	5cd2                	lw	s9,52(sp)
 220:	6125                	add	sp,sp,96
 222:	8082                	ret

Disassembly of section .text.ieee80211_crypto_aes_128_cmac_decrypt:

00000000 <ieee80211_crypto_aes_128_cmac_decrypt>:
   0:	7139                	add	sp,sp,-64
   2:	d84a                	sw	s2,48(sp)
   4:	0165d903          	lhu	s2,22(a1)
   8:	dc22                	sw	s0,56(sp)
   a:	de06                	sw	ra,60(sp)
   c:	da26                	sw	s1,52(sp)
   e:	d64e                	sw	s3,44(sp)
  10:	d452                	sw	s4,40(sp)
  12:	d256                	sw	s5,36(sp)
  14:	d05a                	sw	s6,32(sp)
  16:	ce5e                	sw	s7,28(sp)
  18:	cc62                	sw	s8,24(sp)
  1a:	ca66                	sw	s9,20(sp)
  1c:	c86a                	sw	s10,16(sp)
  1e:	47cd                	li	a5,19
  20:	10400413          	li	s0,260
  24:	0527fe63          	bgeu	a5,s2,80 <.L70>
  28:	41dc                	lw	a5,4(a1)
  2a:	89ae                	mv	s3,a1
  2c:	0047ad03          	lw	s10,4(a5)
  30:	04c00793          	li	a5,76
  34:	018d0c13          	add	s8,s10,24
  38:	9962                	add	s2,s2,s8
  3a:	fee94703          	lbu	a4,-18(s2)
  3e:	02f71463          	bne	a4,a5,66 <.L62>
  42:	fef94703          	lbu	a4,-17(s2)
  46:	47c1                	li	a5,16
  48:	00f71f63          	bne	a4,a5,66 <.L62>
  4c:	ff194583          	lbu	a1,-15(s2)
  50:	ff094783          	lbu	a5,-16(s2)
  54:	4705                	li	a4,1
  56:	05a2                	sll	a1,a1,0x8
  58:	8ddd                	or	a1,a1,a5
  5a:	ffc58793          	add	a5,a1,-4
  5e:	07c2                	sll	a5,a5,0x10
  60:	83c1                	srl	a5,a5,0x10
  62:	02f77e63          	bgeu	a4,a5,9e <.L63>

00000066 <.L62>:
  66:	000006b7          	lui	a3,0x0
  6a:	00068693          	mv	a3,a3

0000006e <.L73>:
  6e:	4605                	li	a2,1
  70:	02000593          	li	a1,32
  74:	4505                	li	a0,1
  76:	00000097          	auipc	ra,0x0
  7a:	000080e7          	jalr	ra # 76 <.L73+0x8>
  7e:	547d                	li	s0,-1

00000080 <.L70>:
  80:	50f2                	lw	ra,60(sp)
  82:	8522                	mv	a0,s0
  84:	5462                	lw	s0,56(sp)
  86:	54d2                	lw	s1,52(sp)
  88:	5942                	lw	s2,48(sp)
  8a:	59b2                	lw	s3,44(sp)
  8c:	5a22                	lw	s4,40(sp)
  8e:	5a92                	lw	s5,36(sp)
  90:	5b02                	lw	s6,32(sp)
  92:	4bf2                	lw	s7,28(sp)
  94:	4c62                	lw	s8,24(sp)
  96:	4cd2                	lw	s9,20(sp)
  98:	4d42                	lw	s10,16(sp)
  9a:	6121                	add	sp,sp,64
  9c:	8082                	ret

0000009e <.L63>:
  9e:	00000097          	auipc	ra,0x0
  a2:	000080e7          	jalr	ra # 9e <.L63>
  a6:	00250b93          	add	s7,a0,2
  aa:	ff290c93          	add	s9,s2,-14
  ae:	8a2a                	mv	s4,a0
  b0:	4619                	li	a2,6
  b2:	85de                	mv	a1,s7
  b4:	8566                	mv	a0,s9
  b6:	00000097          	auipc	ra,0x0
  ba:	000080e7          	jalr	ra # b6 <.L63+0x18>
  be:	00a04763          	bgtz	a0,cc <.L64>
  c2:	000006b7          	lui	a3,0x0
  c6:	00068693          	mv	a3,a3
  ca:	b755                	j	6e <.L73>

000000cc <.L64>:
  cc:	00000b37          	lui	s6,0x0
  d0:	000b2783          	lw	a5,0(s6) # 0 <ieee80211_crypto_aes_128_cmac_decrypt>
  d4:	0169da83          	lhu	s5,22(s3)
  d8:	10100413          	li	s0,257
  dc:	1747a783          	lw	a5,372(a5)
  e0:	0ad1                	add	s5,s5,20
  e2:	8556                	mv	a0,s5
  e4:	9782                	jalr	a5
  e6:	84aa                	mv	s1,a0
  e8:	dd41                	beqz	a0,80 <.L70>
  ea:	000d4783          	lbu	a5,0(s10)
  ee:	4649                	li	a2,18
  f0:	004d0593          	add	a1,s10,4
  f4:	00f50023          	sb	a5,0(a0)
  f8:	001d4783          	lbu	a5,1(s10)
  fc:	0509                	add	a0,a0,2
  fe:	fc77f793          	and	a5,a5,-57
 102:	fef50fa3          	sb	a5,-1(a0)
 106:	00000097          	auipc	ra,0x0
 10a:	000080e7          	jalr	ra # 106 <.L64+0x3a>
 10e:	0169d603          	lhu	a2,22(s3)
 112:	85e2                	mv	a1,s8
 114:	01448513          	add	a0,s1,20
 118:	1661                	add	a2,a2,-8
 11a:	00000097          	auipc	ra,0x0
 11e:	000080e7          	jalr	ra # 11a <.L64+0x4e>
 122:	000007b7          	lui	a5,0x0
 126:	00078793          	mv	a5,a5
 12a:	4f9c                	lw	a5,24(a5)
 12c:	868a                	mv	a3,sp
 12e:	8656                	mv	a2,s5
 130:	85a6                	mv	a1,s1
 132:	008a0513          	add	a0,s4,8
 136:	9782                	jalr	a5
 138:	842a                	mv	s0,a0
 13a:	c50d                	beqz	a0,164 <.L65>
 13c:	000006b7          	lui	a3,0x0
 140:	872a                	mv	a4,a0
 142:	00068693          	mv	a3,a3

00000146 <.L72>:
 146:	4605                	li	a2,1
 148:	02000593          	li	a1,32
 14c:	4505                	li	a0,1
 14e:	00000097          	auipc	ra,0x0
 152:	000080e7          	jalr	ra # 14e <.L72+0x8>

00000156 <.L66>:
 156:	000b2783          	lw	a5,0(s6)
 15a:	8526                	mv	a0,s1
 15c:	0b07a783          	lw	a5,176(a5) # b0 <.L63+0x12>
 160:	9782                	jalr	a5
 162:	bf39                	j	80 <.L70>

00000164 <.L65>:
 164:	4621                	li	a2,8
 166:	ff890593          	add	a1,s2,-8
 16a:	850a                	mv	a0,sp
 16c:	00000097          	auipc	ra,0x0
 170:	000080e7          	jalr	ra # 16c <.L65+0x8>
 174:	842a                	mv	s0,a0
 176:	c519                	beqz	a0,184 <.L67>
 178:	000006b7          	lui	a3,0x0
 17c:	872a                	mv	a4,a0
 17e:	00068693          	mv	a3,a3
 182:	b7d1                	j	146 <.L72>

00000184 <.L67>:
 184:	4619                	li	a2,6
 186:	85e6                	mv	a1,s9
 188:	855e                	mv	a0,s7
 18a:	00000097          	auipc	ra,0x0
 18e:	000080e7          	jalr	ra # 18a <.L67+0x6>
 192:	b7d1                	j	156 <.L66>

Disassembly of section .text.ieee80211_crypto_gmac_decrypt:

00000000 <ieee80211_crypto_gmac_decrypt>:
   0:	715d                	add	sp,sp,-80
   2:	c4a2                	sw	s0,72(sp)
   4:	0165d403          	lhu	s0,22(a1)
   8:	c2a6                	sw	s1,68(sp)
   a:	c686                	sw	ra,76(sp)
   c:	c0ca                	sw	s2,64(sp)
   e:	de4e                	sw	s3,60(sp)
  10:	dc52                	sw	s4,56(sp)
  12:	da56                	sw	s5,52(sp)
  14:	d85a                	sw	s6,48(sp)
  16:	d65e                	sw	s7,44(sp)
  18:	d462                	sw	s8,40(sp)
  1a:	d266                	sw	s9,36(sp)
  1c:	d06a                	sw	s10,32(sp)
  1e:	47ed                	li	a5,27
  20:	10400493          	li	s1,260
  24:	0487fe63          	bgeu	a5,s0,80 <.L86>
  28:	41dc                	lw	a5,4(a1)
  2a:	8a2e                	mv	s4,a1
  2c:	0047aa83          	lw	s5,4(a5)
  30:	04c00793          	li	a5,76
  34:	018a8c13          	add	s8,s5,24
  38:	9462                	add	s0,s0,s8
  3a:	fe644703          	lbu	a4,-26(s0)
  3e:	02f71463          	bne	a4,a5,66 <.L76>
  42:	fe744703          	lbu	a4,-25(s0)
  46:	47e1                	li	a5,24
  48:	00f71f63          	bne	a4,a5,66 <.L76>
  4c:	fe944583          	lbu	a1,-23(s0)
  50:	fe844783          	lbu	a5,-24(s0)
  54:	4705                	li	a4,1
  56:	05a2                	sll	a1,a1,0x8
  58:	8ddd                	or	a1,a1,a5
  5a:	ffc58793          	add	a5,a1,-4
  5e:	07c2                	sll	a5,a5,0x10
  60:	83c1                	srl	a5,a5,0x10
  62:	02f77e63          	bgeu	a4,a5,9e <.L77>

00000066 <.L76>:
  66:	000006b7          	lui	a3,0x0
  6a:	00068693          	mv	a3,a3

0000006e <.L89>:
  6e:	4605                	li	a2,1
  70:	02000593          	li	a1,32
  74:	4505                	li	a0,1
  76:	00000097          	auipc	ra,0x0
  7a:	000080e7          	jalr	ra # 76 <.L89+0x8>
  7e:	54fd                	li	s1,-1

00000080 <.L86>:
  80:	40b6                	lw	ra,76(sp)
  82:	4426                	lw	s0,72(sp)
  84:	4906                	lw	s2,64(sp)
  86:	59f2                	lw	s3,60(sp)
  88:	5a62                	lw	s4,56(sp)
  8a:	5ad2                	lw	s5,52(sp)
  8c:	5b42                	lw	s6,48(sp)
  8e:	5bb2                	lw	s7,44(sp)
  90:	5c22                	lw	s8,40(sp)
  92:	5c92                	lw	s9,36(sp)
  94:	5d02                	lw	s10,32(sp)
  96:	8526                	mv	a0,s1
  98:	4496                	lw	s1,68(sp)
  9a:	6161                	add	sp,sp,80
  9c:	8082                	ret

0000009e <.L77>:
  9e:	00000097          	auipc	ra,0x0
  a2:	000080e7          	jalr	ra # 9e <.L77>
  a6:	00250b93          	add	s7,a0,2
  aa:	fea40c93          	add	s9,s0,-22
  ae:	89aa                	mv	s3,a0
  b0:	4619                	li	a2,6
  b2:	85de                	mv	a1,s7
  b4:	8566                	mv	a0,s9
  b6:	00000097          	auipc	ra,0x0
  ba:	000080e7          	jalr	ra # b6 <.L77+0x18>
  be:	00a04763          	bgtz	a0,cc <.L78>
  c2:	000006b7          	lui	a3,0x0
  c6:	00068693          	mv	a3,a3
  ca:	b755                	j	6e <.L89>

000000cc <.L78>:
  cc:	00000b37          	lui	s6,0x0
  d0:	000b2783          	lw	a5,0(s6) # 0 <ieee80211_crypto_gmac_decrypt>
  d4:	016a5d03          	lhu	s10,22(s4)
  d8:	10100493          	li	s1,257
  dc:	1747a783          	lw	a5,372(a5)
  e0:	0d51                	add	s10,s10,20
  e2:	856a                	mv	a0,s10
  e4:	9782                	jalr	a5
  e6:	892a                	mv	s2,a0
  e8:	dd41                	beqz	a0,80 <.L86>
  ea:	000ac783          	lbu	a5,0(s5)
  ee:	4649                	li	a2,18
  f0:	004a8593          	add	a1,s5,4
  f4:	00f50023          	sb	a5,0(a0)
  f8:	001ac783          	lbu	a5,1(s5)
  fc:	0509                	add	a0,a0,2
  fe:	fc77f793          	and	a5,a5,-57
 102:	fef50fa3          	sb	a5,-1(a0)
 106:	00000097          	auipc	ra,0x0
 10a:	000080e7          	jalr	ra # 106 <.L78+0x3a>
 10e:	016a5603          	lhu	a2,22(s4)
 112:	85e2                	mv	a1,s8
 114:	01490513          	add	a0,s2,20
 118:	1641                	add	a2,a2,-16
 11a:	00000097          	auipc	ra,0x0
 11e:	000080e7          	jalr	ra # 11a <.L78+0x4e>
 122:	00aa8593          	add	a1,s5,10
 126:	4619                	li	a2,6
 128:	0048                	add	a0,sp,4
 12a:	00000097          	auipc	ra,0x0
 12e:	000080e7          	jalr	ra # 12a <.L78+0x5e>
 132:	fef44783          	lbu	a5,-17(s0)
 136:	00898513          	add	a0,s3,8
 13a:	02000593          	li	a1,32
 13e:	00f10523          	sb	a5,10(sp)
 142:	fee44783          	lbu	a5,-18(s0)
 146:	00f105a3          	sb	a5,11(sp)
 14a:	fed44783          	lbu	a5,-19(s0)
 14e:	00f10623          	sb	a5,12(sp)
 152:	fec44783          	lbu	a5,-20(s0)
 156:	00f106a3          	sb	a5,13(sp)
 15a:	feb44783          	lbu	a5,-21(s0)
 15e:	00f10723          	sb	a5,14(sp)
 162:	fea44783          	lbu	a5,-22(s0)
 166:	00f107a3          	sb	a5,15(sp)
 16a:	000007b7          	lui	a5,0x0
 16e:	00078793          	mv	a5,a5
 172:	0247a883          	lw	a7,36(a5) # 24 <ieee80211_crypto_gmac_decrypt+0x24>
 176:	000007b7          	lui	a5,0x0
 17a:	2067c703          	lbu	a4,518(a5) # 206 <.L56>
 17e:	47b9                	li	a5,14
 180:	00f70363          	beq	a4,a5,186 <.L79>
 184:	45c1                	li	a1,16

00000186 <.L79>:
 186:	01010813          	add	a6,sp,16
 18a:	87ea                	mv	a5,s10
 18c:	874a                	mv	a4,s2
 18e:	46b1                	li	a3,12
 190:	0050                	add	a2,sp,4
 192:	9882                	jalr	a7
 194:	84aa                	mv	s1,a0
 196:	c50d                	beqz	a0,1c0 <.L80>
 198:	000006b7          	lui	a3,0x0
 19c:	872a                	mv	a4,a0
 19e:	00068693          	mv	a3,a3

000001a2 <.L88>:
 1a2:	4605                	li	a2,1
 1a4:	02000593          	li	a1,32
 1a8:	4505                	li	a0,1
 1aa:	00000097          	auipc	ra,0x0
 1ae:	000080e7          	jalr	ra # 1aa <.L88+0x8>

000001b2 <.L81>:
 1b2:	000b2783          	lw	a5,0(s6)
 1b6:	854a                	mv	a0,s2
 1b8:	0b07a783          	lw	a5,176(a5)
 1bc:	9782                	jalr	a5
 1be:	b5c9                	j	80 <.L86>

000001c0 <.L80>:
 1c0:	4641                	li	a2,16
 1c2:	ff040593          	add	a1,s0,-16
 1c6:	0808                	add	a0,sp,16
 1c8:	00000097          	auipc	ra,0x0
 1cc:	000080e7          	jalr	ra # 1c8 <.L80+0x8>
 1d0:	84aa                	mv	s1,a0
 1d2:	c519                	beqz	a0,1e0 <.L82>
 1d4:	000006b7          	lui	a3,0x0
 1d8:	872a                	mv	a4,a0
 1da:	00068693          	mv	a3,a3
 1de:	b7d1                	j	1a2 <.L88>

000001e0 <.L82>:
 1e0:	4619                	li	a2,6
 1e2:	85e6                	mv	a1,s9
 1e4:	855e                	mv	a0,s7
 1e6:	00000097          	auipc	ra,0x0
 1ea:	000080e7          	jalr	ra # 1e6 <.L82+0x6>
 1ee:	b7d1                	j	1b2 <.L81>

Disassembly of section .text.ieee80211_get_cipher_mic_len:

00000000 <ieee80211_get_cipher_mic_len>:
   0:	1575                	add	a0,a0,-3
   2:	0ff57513          	zext.b	a0,a0
   6:	4799                	li	a5,6
   8:	00a7ea63          	bltu	a5,a0,1c <.L92>
   c:	000007b7          	lui	a5,0x0
  10:	00078793          	mv	a5,a5
  14:	97aa                	add	a5,a5,a0
  16:	0007c503          	lbu	a0,0(a5) # 0 <ieee80211_get_cipher_mic_len>
  1a:	8082                	ret

0000001c <.L92>:
  1c:	4501                	li	a0,0
  1e:	8082                	ret

ieee80211_crypto_ccmp.o:     file format elf32-littleriscv


Disassembly of section .text.ccmp_encap:

00000000 <ccmp_encap>:
   0:	41d8                	lw	a4,4(a1)
   2:	000007b7          	lui	a5,0x0
   6:	00078793          	mv	a5,a5
   a:	43d4                	lw	a3,4(a5)
   c:	435c                	lw	a5,4(a4)
   e:	08050513          	add	a0,a0,128
  12:	02066613          	or	a2,a2,32
  16:	8f95                	sub	a5,a5,a3
  18:	c35c                	sw	a5,4(a4)
  1a:	0165d703          	lhu	a4,22(a1)
  1e:	9736                	add	a4,a4,a3
  20:	00e59b23          	sh	a4,22(a1)
  24:	4d18                	lw	a4,24(a0)
  26:	4d4c                	lw	a1,28(a0)
  28:	00370693          	add	a3,a4,3
  2c:	00e6b733          	sltu	a4,a3,a4
  30:	972e                	add	a4,a4,a1
  32:	cd14                	sw	a3,24(a0)
  34:	cd58                	sw	a4,28(a0)
  36:	00d78023          	sb	a3,0(a5) # 0 <ccmp_encap>
  3a:	4d18                	lw	a4,24(a0)
  3c:	00078123          	sb	zero,2(a5)
  40:	00c781a3          	sb	a2,3(a5)
  44:	8321                	srl	a4,a4,0x8
  46:	00e780a3          	sb	a4,1(a5)
  4a:	01a55703          	lhu	a4,26(a0)
  4e:	00e78223          	sb	a4,4(a5)
  52:	01b54703          	lbu	a4,27(a0)
  56:	00e782a3          	sb	a4,5(a5)
  5a:	4d58                	lw	a4,28(a0)
  5c:	00e78323          	sb	a4,6(a5)
  60:	4d58                	lw	a4,28(a0)
  62:	4505                	li	a0,1
  64:	8321                	srl	a4,a4,0x8
  66:	00e783a3          	sb	a4,7(a5)
  6a:	8082                	ret

Disassembly of section .text.ccmp_decap:

00000000 <ccmp_decap>:
   0:	41dc                	lw	a5,4(a1)
   2:	1101                	add	sp,sp,-32
   4:	c64e                	sw	s3,12(sp)
   6:	89aa                	mv	s3,a0
   8:	43c8                	lw	a0,4(a5)
   a:	cc22                	sw	s0,24(sp)
   c:	ce06                	sw	ra,28(sp)
   e:	ca26                	sw	s1,20(sp)
  10:	c84a                	sw	s2,16(sp)
  12:	00c50433          	add	s0,a0,a2
  16:	00344783          	lbu	a5,3(s0)
  1a:	0207f793          	and	a5,a5,32
  1e:	eb89                	bnez	a5,30 <.L3>

00000020 <.L7>:
  20:	4501                	li	a0,0

00000022 <.L2>:
  22:	40f2                	lw	ra,28(sp)
  24:	4462                	lw	s0,24(sp)
  26:	44d2                	lw	s1,20(sp)
  28:	4942                	lw	s2,16(sp)
  2a:	49b2                	lw	s3,12(sp)
  2c:	6105                	add	sp,sp,32
  2e:	8082                	ret

00000030 <.L3>:
  30:	8932                	mv	s2,a2
  32:	84ae                	mv	s1,a1
  34:	00000097          	auipc	ra,0x0
  38:	000080e7          	jalr	ra # 34 <.L3+0x4>
  3c:	00144783          	lbu	a5,1(s0)
  40:	00444703          	lbu	a4,4(s0)
  44:	00744803          	lbu	a6,7(s0)
  48:	07a2                	sll	a5,a5,0x8
  4a:	0742                	sll	a4,a4,0x10
  4c:	8fd9                	or	a5,a5,a4
  4e:	00044703          	lbu	a4,0(s0)
  52:	0822                	sll	a6,a6,0x8
  54:	567d                	li	a2,-1
  56:	8fd9                	or	a5,a5,a4
  58:	00544703          	lbu	a4,5(s0)
  5c:	0762                	sll	a4,a4,0x18
  5e:	8fd9                	or	a5,a5,a4
  60:	00644703          	lbu	a4,6(s0)
  64:	00e86833          	or	a6,a6,a4
  68:	00351713          	sll	a4,a0,0x3
  6c:	974e                	add	a4,a4,s3
  6e:	4714                	lw	a3,8(a4)
  70:	00c72883          	lw	a7,12(a4)
  74:	00c69463          	bne	a3,a2,7c <.L9>
  78:	02d88263          	beq	a7,a3,9c <.L5>

0000007c <.L9>:
  7c:	00f69463          	bne	a3,a5,84 <.L10>
  80:	fb0880e3          	beq	a7,a6,20 <.L7>

00000084 <.L10>:
  84:	40d786b3          	sub	a3,a5,a3
  88:	00d7b6b3          	sltu	a3,a5,a3
  8c:	411808b3          	sub	a7,a6,a7
  90:	40d888b3          	sub	a7,a7,a3
  94:	66a1                	lui	a3,0x8
  96:	0116f6b3          	and	a3,a3,a7
  9a:	f2d9                	bnez	a3,20 <.L7>

0000009c <.L5>:
  9c:	c71c                	sw	a5,8(a4)
  9e:	01072623          	sw	a6,12(a4)
  a2:	0a09a703          	lw	a4,160(s3)
  a6:	40d0                	lw	a2,4(s1)
  a8:	4505                	li	a0,1
  aa:	4354                	lw	a3,4(a4)
  ac:	425c                	lw	a5,4(a2)
  ae:	4718                	lw	a4,8(a4)
  b0:	9936                	add	s2,s2,a3
  b2:	97ca                	add	a5,a5,s2
  b4:	c25c                	sw	a5,4(a2)
  b6:	0164d783          	lhu	a5,22(s1)
  ba:	9736                	add	a4,a4,a3
  bc:	8f99                	sub	a5,a5,a4
  be:	00f49b23          	sh	a5,22(s1)
  c2:	b785                	j	22 <.L2>

Disassembly of section .text.ieee80211_decrypt_espnow_pkt:

00000000 <ieee80211_decrypt_espnow_pkt>:
   0:	415c                	lw	a5,4(a0)
   2:	1141                	add	sp,sp,-16
   4:	c226                	sw	s1,4(sp)
   6:	43c4                	lw	s1,4(a5)
   8:	c422                	sw	s0,8(sp)
   a:	842a                	mv	s0,a0
   c:	00a48513          	add	a0,s1,10
  10:	c606                	sw	ra,12(sp)
  12:	00000097          	auipc	ra,0x0
  16:	000080e7          	jalr	ra # 12 <ieee80211_decrypt_espnow_pkt+0x12>
  1a:	c515                	beqz	a0,46 <.L14>
  1c:	0a052703          	lw	a4,160(a0)
  20:	4054                	lw	a3,4(s0)
  22:	4501                	li	a0,0
  24:	435c                	lw	a5,4(a4)
  26:	4718                	lw	a4,8(a4)
  28:	01878613          	add	a2,a5,24
  2c:	973e                	add	a4,a4,a5
  2e:	01645783          	lhu	a5,22(s0)
  32:	94b2                	add	s1,s1,a2
  34:	c2c4                	sw	s1,4(a3)
  36:	8f99                	sub	a5,a5,a4
  38:	00f41b23          	sh	a5,22(s0)

0000003c <.L12>:
  3c:	40b2                	lw	ra,12(sp)
  3e:	4422                	lw	s0,8(sp)
  40:	4492                	lw	s1,4(sp)
  42:	0141                	add	sp,sp,16
  44:	8082                	ret

00000046 <.L14>:
  46:	557d                	li	a0,-1
  48:	bfd5                	j	3c <.L12>

Disassembly of section .text.ieee80211_ccmp_decrypt:

00000000 <ieee80211_ccmp_decrypt>:
   0:	18058e63          	beqz	a1,19c <.L25>
   4:	01455703          	lhu	a4,20(a0)
   8:	01655783          	lhu	a5,22(a0)
   c:	715d                	add	sp,sp,-80
   e:	c2a6                	sw	s1,68(sp)
  10:	97ba                	add	a5,a5,a4
  12:	c686                	sw	ra,76(sp)
  14:	c4a2                	sw	s0,72(sp)
  16:	c0ca                	sw	s2,64(sp)
  18:	477d                	li	a4,31
  1a:	84aa                	mv	s1,a0
  1c:	10400513          	li	a0,260
  20:	04f75463          	bge	a4,a5,68 <.L16>
  24:	40dc                	lw	a5,4(s1)
  26:	43c0                	lw	s0,4(a5)
  28:	01b44783          	lbu	a5,27(s0)
  2c:	0207f713          	and	a4,a5,32
  30:	e331                	bnez	a4,74 <.L18>
  32:	00f44683          	lbu	a3,15(s0)
  36:	00d44883          	lbu	a7,13(s0)
  3a:	00c44803          	lbu	a6,12(s0)
  3e:	00b44783          	lbu	a5,11(s0)
  42:	00a44703          	lbu	a4,10(s0)
  46:	c236                	sw	a3,4(sp)
  48:	00e44683          	lbu	a3,14(s0)
  4c:	c036                	sw	a3,0(sp)
  4e:	000006b7          	lui	a3,0x0
  52:	00068693          	mv	a3,a3

00000056 <.L36>:
  56:	4605                	li	a2,1
  58:	02000593          	li	a1,32
  5c:	4505                	li	a0,1
  5e:	00000097          	auipc	ra,0x0
  62:	000080e7          	jalr	ra # 5e <.L36+0x8>

00000066 <.L37>:
  66:	557d                	li	a0,-1

00000068 <.L16>:
  68:	40b6                	lw	ra,76(sp)
  6a:	4426                	lw	s0,72(sp)
  6c:	4496                	lw	s1,68(sp)
  6e:	4906                	lw	s2,64(sp)
  70:	6161                	add	sp,sp,80
  72:	8082                	ret

00000074 <.L18>:
  74:	01a44703          	lbu	a4,26(s0)
  78:	8bfd                	and	a5,a5,31
  7a:	8fd9                	or	a5,a5,a4
  7c:	c785                	beqz	a5,a4 <.L19>
  7e:	00f44683          	lbu	a3,15(s0)
  82:	00d44883          	lbu	a7,13(s0)
  86:	00c44803          	lbu	a6,12(s0)
  8a:	00b44783          	lbu	a5,11(s0)
  8e:	00a44703          	lbu	a4,10(s0)
  92:	c236                	sw	a3,4(sp)
  94:	00e44683          	lbu	a3,14(s0)
  98:	c036                	sw	a3,0(sp)
  9a:	000006b7          	lui	a3,0x0
  9e:	00068693          	mv	a3,a3
  a2:	bf55                	j	56 <.L36>

000000a4 <.L19>:
  a4:	8522                	mv	a0,s0
  a6:	892e                	mv	s2,a1
  a8:	00000097          	auipc	ra,0x0
  ac:	000080e7          	jalr	ra # a8 <.L19+0x4>
  b0:	01944683          	lbu	a3,25(s0)
  b4:	01c44783          	lbu	a5,28(s0)
  b8:	01f44603          	lbu	a2,31(s0)
  bc:	06a2                	sll	a3,a3,0x8
  be:	07c2                	sll	a5,a5,0x10
  c0:	8edd                	or	a3,a3,a5
  c2:	01844783          	lbu	a5,24(s0)
  c6:	0622                	sll	a2,a2,0x8
  c8:	577d                	li	a4,-1
  ca:	8edd                	or	a3,a3,a5
  cc:	01d44783          	lbu	a5,29(s0)
  d0:	07e2                	sll	a5,a5,0x18
  d2:	8edd                	or	a3,a3,a5
  d4:	01e44783          	lbu	a5,30(s0)
  d8:	8e5d                	or	a2,a2,a5
  da:	00351793          	sll	a5,a0,0x3
  de:	97ca                	add	a5,a5,s2
  e0:	4788                	lw	a0,8(a5)
  e2:	00c7a303          	lw	t1,12(a5)
  e6:	00e51463          	bne	a0,a4,ee <.L27>
  ea:	08a30663          	beq	t1,a0,176 <.L20>

000000ee <.L27>:
  ee:	00d51463          	bne	a0,a3,f6 <.L28>
  f2:	00c30e63          	beq	t1,a2,10e <.L22>

000000f6 <.L28>:
  f6:	40a68733          	sub	a4,a3,a0
  fa:	00e6b733          	sltu	a4,a3,a4
  fe:	40660833          	sub	a6,a2,t1
 102:	40e80833          	sub	a6,a6,a4
 106:	6721                	lui	a4,0x8
 108:	01077733          	and	a4,a4,a6
 10c:	c72d                	beqz	a4,176 <.L20>

0000010e <.L22>:
 10e:	01645583          	lhu	a1,22(s0)
 112:	00744883          	lbu	a7,7(s0)
 116:	00644803          	lbu	a6,6(s0)
 11a:	00544783          	lbu	a5,5(s0)
 11e:	00444703          	lbu	a4,4(s0)
 122:	d82e                	sw	a1,48(sp)
 124:	d42a                	sw	a0,40(sp)
 126:	d232                	sw	a2,36(sp)
 128:	d61a                	sw	t1,44(sp)
 12a:	d036                	sw	a3,32(sp)
 12c:	00f44683          	lbu	a3,15(s0)
 130:	4605                	li	a2,1
 132:	02000593          	li	a1,32
 136:	ce36                	sw	a3,28(sp)
 138:	00e44683          	lbu	a3,14(s0)
 13c:	4505                	li	a0,1
 13e:	cc36                	sw	a3,24(sp)
 140:	00d44683          	lbu	a3,13(s0)
 144:	ca36                	sw	a3,20(sp)
 146:	00c44683          	lbu	a3,12(s0)
 14a:	c836                	sw	a3,16(sp)
 14c:	00b44683          	lbu	a3,11(s0)
 150:	c636                	sw	a3,12(sp)
 152:	00a44683          	lbu	a3,10(s0)
 156:	c436                	sw	a3,8(sp)
 158:	00944683          	lbu	a3,9(s0)
 15c:	c236                	sw	a3,4(sp)
 15e:	00844683          	lbu	a3,8(s0)
 162:	c036                	sw	a3,0(sp)
 164:	000006b7          	lui	a3,0x0
 168:	00068693          	mv	a3,a3
 16c:	00000097          	auipc	ra,0x0
 170:	000080e7          	jalr	ra # 16c <.L22+0x5e>
 174:	bdcd                	j	66 <.L37>

00000176 <.L20>:
 176:	0a092583          	lw	a1,160(s2)
 17a:	40c8                	lw	a0,4(s1)
 17c:	41d8                	lw	a4,4(a1)
 17e:	458c                	lw	a1,8(a1)
 180:	01870813          	add	a6,a4,24 # 8018 <.L25+0x7e7c>
 184:	95ba                	add	a1,a1,a4
 186:	0164d703          	lhu	a4,22(s1)
 18a:	9442                	add	s0,s0,a6
 18c:	c140                	sw	s0,4(a0)
 18e:	8f0d                	sub	a4,a4,a1
 190:	00e49b23          	sh	a4,22(s1)
 194:	c794                	sw	a3,8(a5)
 196:	c7d0                	sw	a2,12(a5)
 198:	4501                	li	a0,0
 19a:	b5f9                	j	68 <.L16>

0000019c <.L25>:
 19c:	557d                	li	a0,-1
 19e:	8082                	ret

Disassembly of section .text.ieee80211_ccmp_encrypt:

00000000 <ieee80211_ccmp_encrypt>:
   0:	08058693          	add	a3,a1,128
   4:	4e9c                	lw	a5,24(a3)
   6:	4ed0                	lw	a2,28(a3)
   8:	1101                	add	sp,sp,-32
   a:	00178713          	add	a4,a5,1
   e:	00f737b3          	sltu	a5,a4,a5
  12:	cc22                	sw	s0,24(sp)
  14:	c84a                	sw	s2,16(sp)
  16:	ce06                	sw	ra,28(sp)
  18:	ca26                	sw	s1,20(sp)
  1a:	842a                	mv	s0,a0
  1c:	97b2                	add	a5,a5,a2
  1e:	ce98                	sw	a4,24(a3)
  20:	cedc                	sw	a5,28(a3)
  22:	4054                	lw	a3,4(s0)
  24:	c402                	sw	zero,8(sp)
  26:	00011623          	sh	zero,12(sp)
  2a:	0046a903          	lw	s2,4(a3) # 4 <ieee80211_ccmp_encrypt+0x4>
  2e:	00f766b3          	or	a3,a4,a5
  32:	852e                	mv	a0,a1
  34:	cebd                	beqz	a3,b2 <.L39>
  36:	01071613          	sll	a2,a4,0x10
  3a:	8241                	srl	a2,a2,0x10
  3c:	00871693          	sll	a3,a4,0x8
  40:	8221                	srl	a2,a2,0x8
  42:	8ed1                	or	a3,a3,a2
  44:	00d11623          	sh	a3,12(sp)
  48:	00f104a3          	sb	a5,9(sp)
  4c:	01075693          	srl	a3,a4,0x10
  50:	83a1                	srl	a5,a5,0x8
  52:	8361                	srl	a4,a4,0x18
  54:	00d105a3          	sb	a3,11(sp)
  58:	00e10523          	sb	a4,10(sp)
  5c:	00f10423          	sb	a5,8(sp)

00000060 <.L41>:
  60:	000007b7          	lui	a5,0x0
  64:	01645583          	lhu	a1,22(s0)
  68:	01445603          	lhu	a2,20(s0)
  6c:	00078793          	mv	a5,a5
  70:	0207a883          	lw	a7,32(a5) # 20 <ieee80211_ccmp_encrypt+0x20>
  74:	962e                	add	a2,a2,a1
  76:	00410813          	add	a6,sp,4
  7a:	4781                	li	a5,0
  7c:	0038                	add	a4,sp,8
  7e:	46e1                	li	a3,24
  80:	85ca                	mv	a1,s2
  82:	0a850513          	add	a0,a0,168
  86:	9882                	jalr	a7
  88:	84aa                	mv	s1,a0
  8a:	e905                	bnez	a0,ba <.L42>
  8c:	000006b7          	lui	a3,0x0
  90:	00068693          	mv	a3,a3
  94:	4605                	li	a2,1
  96:	04000593          	li	a1,64
  9a:	4505                	li	a0,1
  9c:	00000097          	auipc	ra,0x0
  a0:	000080e7          	jalr	ra # 9c <.L41+0x3c>

000000a4 <.L43>:
  a4:	40f2                	lw	ra,28(sp)
  a6:	4462                	lw	s0,24(sp)
  a8:	44d2                	lw	s1,20(sp)
  aa:	4942                	lw	s2,16(sp)
  ac:	4501                	li	a0,0
  ae:	6105                	add	sp,sp,32
  b0:	8082                	ret

000000b2 <.L39>:
  b2:	4785                	li	a5,1
  b4:	00f106a3          	sb	a5,13(sp)
  b8:	b765                	j	60 <.L41>

000000ba <.L42>:
  ba:	4612                	lw	a2,4(sp)
  bc:	85aa                	mv	a1,a0
  be:	854a                	mv	a0,s2
  c0:	00000097          	auipc	ra,0x0
  c4:	000080e7          	jalr	ra # c0 <.L42+0x6>
  c8:	000007b7          	lui	a5,0x0
  cc:	0007a783          	lw	a5,0(a5) # 0 <ieee80211_ccmp_encrypt>
  d0:	8526                	mv	a0,s1
  d2:	0b07a783          	lw	a5,176(a5)
  d6:	9782                	jalr	a5
  d8:	01645783          	lhu	a5,22(s0)
  dc:	5458                	lw	a4,44(s0)
  de:	76fd                	lui	a3,0xfffff
  e0:	07c1                	add	a5,a5,16
  e2:	00f41b23          	sh	a5,22(s0)
  e6:	431c                	lw	a5,0(a4)
  e8:	9bf9                	and	a5,a5,-2
  ea:	c31c                	sw	a5,0(a4)
  ec:	01075783          	lhu	a5,16(a4)
  f0:	8ff5                	and	a5,a5,a3
  f2:	0c07e793          	or	a5,a5,192
  f6:	00f71823          	sh	a5,16(a4)
  fa:	b76d                	j	a4 <.L43>

ieee80211_action.o:     file format elf32-littleriscv


Disassembly of section .text.send_inval:

00000000 <send_inval>:
   0:	557d                	li	a0,-1
   2:	8082                	ret

Disassembly of section .text.recv_inval:

00000000 <recv_inval>:
   0:	557d                	li	a0,-1
   2:	8082                	ret

Disassembly of section .text.ieee80211_send_action_register:

00000000 <ieee80211_send_action_register>:
   0:	87aa                	mv	a5,a0
   2:	471d                	li	a4,7
   4:	852e                	mv	a0,a1
   6:	04e78663          	beq	a5,a4,52 <.L4>
   a:	00f74a63          	blt	a4,a5,1e <.L5>
   e:	470d                	li	a4,3
  10:	02e78463          	beq	a5,a4,38 <.L6>
  14:	4711                	li	a4,4
  16:	04e78e63          	beq	a5,a4,72 <.L7>

0000001a <.L15>:
  1a:	557d                	li	a0,-1
  1c:	8082                	ret

0000001e <.L5>:
  1e:	4721                	li	a4,8
  20:	02e78f63          	beq	a5,a4,5e <.L9>
  24:	07f00713          	li	a4,127
  28:	fee799e3          	bne	a5,a4,1a <.L15>
  2c:	f5fd                	bnez	a1,1a <.L15>
  2e:	000007b7          	lui	a5,0x0
  32:	00c7a023          	sw	a2,0(a5) # 0 <ieee80211_send_action_register>
  36:	8082                	ret

00000038 <.L6>:
  38:	4789                	li	a5,2
  3a:	feb7e0e3          	bltu	a5,a1,1a <.L15>
  3e:	000007b7          	lui	a5,0x0
  42:	00259513          	sll	a0,a1,0x2
  46:	00078793          	mv	a5,a5

0000004a <.L16>:
  4a:	97aa                	add	a5,a5,a0
  4c:	c390                	sw	a2,0(a5)
  4e:	4501                	li	a0,0
  50:	8082                	ret

00000052 <.L4>:
  52:	f5e1                	bnez	a1,1a <.L15>
  54:	000007b7          	lui	a5,0x0
  58:	00c7a023          	sw	a2,0(a5) # 0 <ieee80211_send_action_register>
  5c:	8082                	ret

0000005e <.L9>:
  5e:	4785                	li	a5,1
  60:	fab7ede3          	bltu	a5,a1,1a <.L15>
  64:	000007b7          	lui	a5,0x0
  68:	00259513          	sll	a0,a1,0x2
  6c:	00078793          	mv	a5,a5
  70:	bfe9                	j	4a <.L16>

00000072 <.L7>:
  72:	02100793          	li	a5,33
  76:	fab7e2e3          	bltu	a5,a1,1a <.L15>
  7a:	000007b7          	lui	a5,0x0
  7e:	00259513          	sll	a0,a1,0x2
  82:	00078793          	mv	a5,a5
  86:	b7d1                	j	4a <.L16>

Disassembly of section .text.ieee80211_send_action_unregister:

00000000 <ieee80211_send_action_unregister>:
   0:	00000637          	lui	a2,0x0
   4:	00060613          	mv	a2,a2
   8:	00000317          	auipc	t1,0x0
   c:	00030067          	jr	t1 # 8 <ieee80211_send_action_unregister+0x8>

Disassembly of section .text.ieee80211_send_action:

00000000 <ieee80211_send_action>:
   0:	479d                	li	a5,7
   2:	04f58963          	beq	a1,a5,54 <.L19>
   6:	00b7ce63          	blt	a5,a1,22 <.L20>
   a:	478d                	li	a5,3
   c:	02f58863          	beq	a1,a5,3c <.L21>
  10:	4791                	li	a5,4
  12:	06f58363          	beq	a1,a5,78 <.L22>

00000016 <.L23>:
  16:	cd25                	beqz	a0,8e <.L18>
  18:	000007b7          	lui	a5,0x0
  1c:	00078793          	mv	a5,a5
  20:	a089                	j	62 <.L28>

00000022 <.L20>:
  22:	47a1                	li	a5,8
  24:	04f58063          	beq	a1,a5,64 <.L24>
  28:	07f00793          	li	a5,127
  2c:	fef595e3          	bne	a1,a5,16 <.L23>
  30:	f27d                	bnez	a2,16 <.L23>
  32:	000007b7          	lui	a5,0x0
  36:	0007a783          	lw	a5,0(a5) # 0 <ieee80211_send_action>
  3a:	a015                	j	5e <.L26>

0000003c <.L21>:
  3c:	4789                	li	a5,2
  3e:	fcc7ece3          	bltu	a5,a2,16 <.L23>
  42:	000007b7          	lui	a5,0x0
  46:	00261713          	sll	a4,a2,0x2
  4a:	00078793          	mv	a5,a5

0000004e <.L35>:
  4e:	97ba                	add	a5,a5,a4
  50:	439c                	lw	a5,0(a5)
  52:	a031                	j	5e <.L26>

00000054 <.L19>:
  54:	f269                	bnez	a2,16 <.L23>
  56:	000007b7          	lui	a5,0x0
  5a:	0007a783          	lw	a5,0(a5) # 0 <ieee80211_send_action>

0000005e <.L26>:
  5e:	c905                	beqz	a0,8e <.L18>
  60:	c79d                	beqz	a5,8e <.L18>

00000062 <.L28>:
  62:	8782                	jr	a5

00000064 <.L24>:
  64:	4785                	li	a5,1
  66:	fac7e8e3          	bltu	a5,a2,16 <.L23>
  6a:	000007b7          	lui	a5,0x0
  6e:	00261713          	sll	a4,a2,0x2
  72:	00078793          	mv	a5,a5
  76:	bfe1                	j	4e <.L35>

00000078 <.L22>:
  78:	02100793          	li	a5,33
  7c:	f8c7ede3          	bltu	a5,a2,16 <.L23>
  80:	000007b7          	lui	a5,0x0
  84:	00261713          	sll	a4,a2,0x2
  88:	00078793          	mv	a5,a5
  8c:	b7c9                	j	4e <.L35>

0000008e <.L18>:
  8e:	4505                	li	a0,1
  90:	8082                	ret

Disassembly of section .text.ieee80211_recv_action_register:

00000000 <ieee80211_recv_action_register>:
   0:	87aa                	mv	a5,a0
   2:	471d                	li	a4,7
   4:	852e                	mv	a0,a1
   6:	04e78663          	beq	a5,a4,52 <.L37>
   a:	00f74a63          	blt	a4,a5,1e <.L38>
   e:	470d                	li	a4,3
  10:	02e78463          	beq	a5,a4,38 <.L39>
  14:	4711                	li	a4,4
  16:	04e78e63          	beq	a5,a4,72 <.L40>

0000001a <.L48>:
  1a:	557d                	li	a0,-1
  1c:	8082                	ret

0000001e <.L38>:
  1e:	4721                	li	a4,8
  20:	02e78f63          	beq	a5,a4,5e <.L42>
  24:	07f00713          	li	a4,127
  28:	fee799e3          	bne	a5,a4,1a <.L48>
  2c:	f5fd                	bnez	a1,1a <.L48>
  2e:	000007b7          	lui	a5,0x0
  32:	00c7a023          	sw	a2,0(a5) # 0 <ieee80211_recv_action_register>
  36:	8082                	ret

00000038 <.L39>:
  38:	4789                	li	a5,2
  3a:	feb7e0e3          	bltu	a5,a1,1a <.L48>
  3e:	000007b7          	lui	a5,0x0
  42:	00259513          	sll	a0,a1,0x2
  46:	00078793          	mv	a5,a5

0000004a <.L49>:
  4a:	97aa                	add	a5,a5,a0
  4c:	c390                	sw	a2,0(a5)
  4e:	4501                	li	a0,0
  50:	8082                	ret

00000052 <.L37>:
  52:	f5e1                	bnez	a1,1a <.L48>
  54:	000007b7          	lui	a5,0x0
  58:	00c7a023          	sw	a2,0(a5) # 0 <ieee80211_recv_action_register>
  5c:	8082                	ret

0000005e <.L42>:
  5e:	4785                	li	a5,1
  60:	fab7ede3          	bltu	a5,a1,1a <.L48>
  64:	000007b7          	lui	a5,0x0
  68:	00259513          	sll	a0,a1,0x2
  6c:	00078793          	mv	a5,a5
  70:	bfe9                	j	4a <.L49>

00000072 <.L40>:
  72:	02100793          	li	a5,33
  76:	fab7e2e3          	bltu	a5,a1,1a <.L48>
  7a:	000007b7          	lui	a5,0x0
  7e:	00259513          	sll	a0,a1,0x2
  82:	00078793          	mv	a5,a5
  86:	b7d1                	j	4a <.L49>

Disassembly of section .text.ieee80211_recv_action_unregister:

00000000 <ieee80211_recv_action_unregister>:
   0:	00000637          	lui	a2,0x0
   4:	00060613          	mv	a2,a2
   8:	00000317          	auipc	t1,0x0
   c:	00030067          	jr	t1 # 8 <ieee80211_recv_action_unregister+0x8>

Disassembly of section .text.ieee80211_recv_action:

00000000 <ieee80211_recv_action>:
   0:	e51d                	bnez	a0,2e <.L52>
   2:	00000737          	lui	a4,0x0
   6:	000006b7          	lui	a3,0x0
   a:	6585                	lui	a1,0x1
   c:	1141                	add	sp,sp,-16
   e:	1b500793          	li	a5,437
  12:	00070713          	mv	a4,a4
  16:	00068693          	mv	a3,a3
  1a:	4605                	li	a2,1
  1c:	80058593          	add	a1,a1,-2048 # 800 <.L57+0x74e>
  20:	4505                	li	a0,1
  22:	c606                	sw	ra,12(sp)
  24:	00000097          	auipc	ra,0x0
  28:	000080e7          	jalr	ra # 24 <ieee80211_recv_action+0x24>

0000002c <.L53>:
  2c:	a001                	j	2c <.L53>

0000002e <.L52>:
  2e:	00064783          	lbu	a5,0(a2) # 0 <ieee80211_recv_action>
  32:	471d                	li	a4,7
  34:	04e78963          	beq	a5,a4,86 <.L54>
  38:	00f76d63          	bltu	a4,a5,52 <.L55>
  3c:	470d                	li	a4,3
  3e:	02e78663          	beq	a5,a4,6a <.L56>
  42:	4711                	li	a4,4
  44:	06e78763          	beq	a5,a4,b2 <.L57>

00000048 <.L66>:
  48:	000007b7          	lui	a5,0x0
  4c:	00078793          	mv	a5,a5

00000050 <.L58>:
  50:	8782                	jr	a5

00000052 <.L55>:
  52:	4721                	li	a4,8
  54:	04e78363          	beq	a5,a4,9a <.L59>
  58:	07f00713          	li	a4,127
  5c:	fee796e3          	bne	a5,a4,48 <.L66>
  60:	000007b7          	lui	a5,0x0
  64:	0007a783          	lw	a5,0(a5) # 0 <ieee80211_recv_action>
  68:	a035                	j	94 <.L61>

0000006a <.L56>:
  6a:	00164783          	lbu	a5,1(a2)
  6e:	4709                	li	a4,2
  70:	fcf76ce3          	bltu	a4,a5,48 <.L66>
  74:	00279713          	sll	a4,a5,0x2
  78:	000007b7          	lui	a5,0x0
  7c:	00078793          	mv	a5,a5

00000080 <.L70>:
  80:	97ba                	add	a5,a5,a4
  82:	439c                	lw	a5,0(a5)
  84:	a801                	j	94 <.L61>

00000086 <.L54>:
  86:	00164783          	lbu	a5,1(a2)
  8a:	ffdd                	bnez	a5,48 <.L66>
  8c:	000007b7          	lui	a5,0x0
  90:	0007a783          	lw	a5,0(a5) # 0 <ieee80211_recv_action>

00000094 <.L61>:
  94:	ffd5                	bnez	a5,50 <.L58>
  96:	4501                	li	a0,0
  98:	8082                	ret

0000009a <.L59>:
  9a:	00164783          	lbu	a5,1(a2)
  9e:	4705                	li	a4,1
  a0:	faf764e3          	bltu	a4,a5,48 <.L66>
  a4:	00279713          	sll	a4,a5,0x2
  a8:	000007b7          	lui	a5,0x0
  ac:	00078793          	mv	a5,a5
  b0:	bfc1                	j	80 <.L70>

000000b2 <.L57>:
  b2:	00164783          	lbu	a5,1(a2)
  b6:	02100713          	li	a4,33
  ba:	f8f767e3          	bltu	a4,a5,48 <.L66>
  be:	00279713          	sll	a4,a5,0x2
  c2:	000007b7          	lui	a5,0x0
  c6:	00078793          	mv	a5,a5
  ca:	bf5d                	j	80 <.L70>

ieee80211_he.o:     file format elf32-littleriscv


ieee80211_output.o:     file format elf32-littleriscv


Disassembly of section .text.add_appie:

00000000 <add_appie>:
   0:	0005d603          	lhu	a2,0(a1)
   4:	1141                	add	sp,sp,-16
   6:	c422                	sw	s0,8(sp)
   8:	842e                	mv	s0,a1
   a:	0589                	add	a1,a1,2
   c:	c226                	sw	s1,4(sp)
   e:	c606                	sw	ra,12(sp)
  10:	84aa                	mv	s1,a0
  12:	00000097          	auipc	ra,0x0
  16:	000080e7          	jalr	ra # 12 <add_appie+0x12>
  1a:	00045503          	lhu	a0,0(s0)
  1e:	40b2                	lw	ra,12(sp)
  20:	4422                	lw	s0,8(sp)
  22:	9526                	add	a0,a0,s1
  24:	4492                	lw	s1,4(sp)
  26:	0141                	add	sp,sp,16
  28:	8082                	ret

Disassembly of section .text.ieee80211_vnd_ie_size.part.0:

00000000 <ieee80211_vnd_ie_size.part.0>:
   0:	000007b7          	lui	a5,0x0
   4:	01450613          	add	a2,a0,20
   8:	00078693          	mv	a3,a5
   c:	060e                	sll	a2,a2,0x3
   e:	96b2                	add	a3,a3,a2
  10:	4294                	lw	a3,0(a3)
  12:	872a                	mv	a4,a0
  14:	00078793          	mv	a5,a5
  18:	4501                	li	a0,0
  1a:	c689                	beqz	a3,24 <.L4>
  1c:	42d0                	lw	a2,4(a3)
  1e:	c219                	beqz	a2,24 <.L4>
  20:	0086c503          	lbu	a0,8(a3)

00000024 <.L4>:
  24:	070e                	sll	a4,a4,0x3
  26:	97ba                	add	a5,a5,a4
  28:	0a47a783          	lw	a5,164(a5) # a4 <.L1085>
  2c:	c791                	beqz	a5,38 <.L3>
  2e:	43d8                	lw	a4,4(a5)
  30:	c701                	beqz	a4,38 <.L3>
  32:	0087c783          	lbu	a5,8(a5)
  36:	953e                	add	a0,a0,a5

00000038 <.L3>:
  38:	8082                	ret

Disassembly of section .text.ieee80211_add_tie_param:

00000000 <ieee80211_add_tie_param>:
   0:	2fc5c703          	lbu	a4,764(a1)
   4:	5dc00793          	li	a5,1500
   8:	c305                	beqz	a4,28 <.L15>
   a:	600357b7          	lui	a5,0x60035
   e:	4398                	lw	a4,0(a5)
  10:	3a05a783          	lw	a5,928(a1)
  14:	5dc00693          	li	a3,1500
  18:	8f1d                	sub	a4,a4,a5
  1a:	8329                	srl	a4,a4,0xa
  1c:	06400793          	li	a5,100
  20:	00e6e463          	bltu	a3,a4,28 <.L15>
  24:	40e687b3          	sub	a5,a3,a4

00000028 <.L15>:
  28:	03800713          	li	a4,56
  2c:	00e50023          	sb	a4,0(a0)
  30:	4715                	li	a4,5
  32:	00e500a3          	sb	a4,1(a0)
  36:	470d                	li	a4,3
  38:	00e50123          	sb	a4,2(a0)
  3c:	0087d713          	srl	a4,a5,0x8
  40:	00f501a3          	sb	a5,3(a0)
  44:	00e50223          	sb	a4,4(a0)
  48:	0107d713          	srl	a4,a5,0x10
  4c:	83e1                	srl	a5,a5,0x18
  4e:	00e502a3          	sb	a4,5(a0)
  52:	00f50323          	sb	a5,6(a0)
  56:	051d                	add	a0,a0,7
  58:	8082                	ret

Disassembly of section .text.esp_wifi_internal_tx_is_stop:

00000000 <esp_wifi_internal_tx_is_stop>:
   0:	4501                	li	a0,0
   2:	8082                	ret

Disassembly of section .text.ieee80211_reg_encap_amsdu_cb:

00000000 <ieee80211_reg_encap_amsdu_cb>:
   0:	000007b7          	lui	a5,0x0
   4:	00a7a023          	sw	a0,0(a5) # 0 <ieee80211_reg_encap_amsdu_cb>
   8:	8082                	ret

Disassembly of section .text.ieee80211_reg_netstack_buf_cb:

00000000 <ieee80211_reg_netstack_buf_cb>:
   0:	000007b7          	lui	a5,0x0
   4:	00a7a023          	sw	a0,0(a5) # 0 <ieee80211_reg_netstack_buf_cb>
   8:	000007b7          	lui	a5,0x0
   c:	00b7a023          	sw	a1,0(a5) # 0 <ieee80211_reg_netstack_buf_cb>
  10:	8082                	ret

Disassembly of section .text.ieee80211_set_hmac_stop:

00000000 <ieee80211_set_hmac_stop>:
   0:	1141                	add	sp,sp,-16
   2:	c04a                	sw	s2,0(sp)
   4:	00000937          	lui	s2,0x0
   8:	00092783          	lw	a5,0(s2) # 0 <ieee80211_set_hmac_stop>
   c:	c226                	sw	s1,4(sp)
   e:	000004b7          	lui	s1,0x0
  12:	c422                	sw	s0,8(sp)
  14:	4bfc                	lw	a5,84(a5)
  16:	842a                	mv	s0,a0
  18:	0004a503          	lw	a0,0(s1) # 0 <ieee80211_set_hmac_stop>
  1c:	c606                	sw	ra,12(sp)
  1e:	9782                	jalr	a5
  20:	000007b7          	lui	a5,0x0
  24:	24878223          	sb	s0,580(a5) # 244 <.L679+0x4>
  28:	00092783          	lw	a5,0(s2)
  2c:	4422                	lw	s0,8(sp)
  2e:	0004a503          	lw	a0,0(s1)
  32:	40b2                	lw	ra,12(sp)
  34:	4492                	lw	s1,4(sp)
  36:	4902                	lw	s2,0(sp)
  38:	4fbc                	lw	a5,88(a5)
  3a:	0141                	add	sp,sp,16
  3c:	8782                	jr	a5

Disassembly of section .text.wifi_is_started:

00000000 <wifi_is_started>:
   0:	000007b7          	lui	a5,0x0
   4:	2447c503          	lbu	a0,580(a5) # 244 <.L679+0x4>
   8:	00154513          	xor	a0,a0,1
   c:	8082                	ret

Disassembly of section .wifiextrairam.3:

00000000 <ieee80211_alloc_tx_buf>:
   0:	1141                	add	sp,sp,-16
   2:	c422                	sw	s0,8(sp)
   4:	c226                	sw	s1,4(sp)
   6:	c04a                	sw	s2,0(sp)
   8:	842e                	mv	s0,a1
   a:	8932                	mv	s2,a2
   c:	c606                	sw	ra,12(sp)
   e:	84aa                	mv	s1,a0
  10:	00000097          	auipc	ra,0x0
  14:	000080e7          	jalr	ra # 10 <ieee80211_alloc_tx_buf+0x10>
  18:	8622                	mv	a2,s0
  1a:	c539                	beqz	a0,68 <.L26>
  1c:	45a5                	li	a1,9
  1e:	02090b63          	beqz	s2,54 <.L27>
  22:	4501                	li	a0,0
  24:	00000097          	auipc	ra,0x0
  28:	000080e7          	jalr	ra # 24 <ieee80211_alloc_tx_buf+0x24>
  2c:	842a                	mv	s0,a0
  2e:	cd01                	beqz	a0,46 <.L25>
  30:	415c                	lw	a5,4(a0)
  32:	01252023          	sw	s2,0(a0)
  36:	c3c4                	sw	s1,4(a5)
  38:	000007b7          	lui	a5,0x0
  3c:	0007a783          	lw	a5,0(a5) # 0 <ieee80211_alloc_tx_buf>
  40:	c399                	beqz	a5,46 <.L25>
  42:	854a                	mv	a0,s2
  44:	9782                	jalr	a5

00000046 <.L25>:
  46:	40b2                	lw	ra,12(sp)
  48:	8522                	mv	a0,s0
  4a:	4422                	lw	s0,8(sp)
  4c:	4492                	lw	s1,4(sp)
  4e:	4902                	lw	s2,0(sp)
  50:	0141                	add	sp,sp,16
  52:	8082                	ret

00000054 <.L27>:
  54:	8526                	mv	a0,s1
  56:	00000097          	auipc	ra,0x0
  5a:	000080e7          	jalr	ra # 56 <.L27+0x2>
  5e:	842a                	mv	s0,a0
  60:	d17d                	beqz	a0,46 <.L25>
  62:	00052023          	sw	zero,0(a0)
  66:	b7c5                	j	46 <.L25>

00000068 <.L26>:
  68:	4422                	lw	s0,8(sp)
  6a:	40b2                	lw	ra,12(sp)
  6c:	4902                	lw	s2,0(sp)
  6e:	8526                	mv	a0,s1
  70:	4492                	lw	s1,4(sp)
  72:	4585                	li	a1,1
  74:	0141                	add	sp,sp,16
  76:	00000317          	auipc	t1,0x0
  7a:	00030067          	jr	t1 # 76 <.L26+0xe>

Disassembly of section .text.ieee80211_recycle_cache_eb:

00000000 <ieee80211_recycle_cache_eb>:
   0:	1141                	add	sp,sp,-16
   2:	c422                	sw	s0,8(sp)
   4:	842a                	mv	s0,a0
   6:	4108                	lw	a0,0(a0)
   8:	c606                	sw	ra,12(sp)
   a:	cd01                	beqz	a0,22 <.L41>
   c:	481c                	lw	a5,16(s0)
   e:	4058                	lw	a4,4(s0)
  10:	02478793          	add	a5,a5,36
  14:	c35c                	sw	a5,4(a4)
  16:	000007b7          	lui	a5,0x0
  1a:	0007a783          	lw	a5,0(a5) # 0 <ieee80211_recycle_cache_eb>
  1e:	c391                	beqz	a5,22 <.L41>
  20:	9782                	jalr	a5

00000022 <.L41>:
  22:	8522                	mv	a0,s0
  24:	4422                	lw	s0,8(sp)
  26:	40b2                	lw	ra,12(sp)
  28:	0141                	add	sp,sp,16
  2a:	00000317          	auipc	t1,0x0
  2e:	00030067          	jr	t1 # 2a <.L41+0x8>

Disassembly of section .text.ieee80211_empty_txq:

00000000 <ieee80211_empty_txq>:
   0:	7179                	add	sp,sp,-48
   2:	ce4e                	sw	s3,28(sp)
   4:	003c                	add	a5,sp,8
   6:	000009b7          	lui	s3,0x0
   a:	c63e                	sw	a5,12(sp)
   c:	0009a783          	lw	a5,0(s3) # 0 <ieee80211_empty_txq>
  10:	d04a                	sw	s2,32(sp)
  12:	00000937          	lui	s2,0x0
  16:	d226                	sw	s1,36(sp)
  18:	4bfc                	lw	a5,84(a5)
  1a:	84aa                	mv	s1,a0
  1c:	00092503          	lw	a0,0(s2) # 0 <ieee80211_empty_txq>
  20:	d422                	sw	s0,40(sp)
  22:	d606                	sw	ra,44(sp)
  24:	00000437          	lui	s0,0x0
  28:	c402                	sw	zero,8(sp)
  2a:	00040413          	mv	s0,s0
  2e:	9782                	jalr	a5

00000030 <.L48>:
  30:	4008                	lw	a0,0(s0)
  32:	ed09                	bnez	a0,4c <.L52>
  34:	47a2                	lw	a5,8(sp)

00000036 <.L60>:
  36:	c3b1                	beqz	a5,7a <.L53>
  38:	4054                	lw	a3,4(s0)
  3a:	873e                	mv	a4,a5
  3c:	579c                	lw	a5,40(a5)
  3e:	02072423          	sw	zero,40(a4)
  42:	c298                	sw	a4,0(a3)
  44:	02870713          	add	a4,a4,40
  48:	c058                	sw	a4,4(s0)
  4a:	b7f5                	j	36 <.L60>

0000004c <.L52>:
  4c:	551c                	lw	a5,40(a0)
  4e:	c01c                	sw	a5,0(s0)
  50:	e391                	bnez	a5,54 <.L49>
  52:	c040                	sw	s0,4(s0)

00000054 <.L49>:
  54:	555c                	lw	a5,44(a0)
  56:	4b9c                	lw	a5,16(a5)
  58:	83cd                	srl	a5,a5,0x13
  5a:	8b85                	and	a5,a5,1
  5c:	00979763          	bne	a5,s1,6a <.L50>
  60:	00000097          	auipc	ra,0x0
  64:	000080e7          	jalr	ra # 60 <.L49+0xc>
  68:	b7e1                	j	30 <.L48>

0000006a <.L50>:
  6a:	47b2                	lw	a5,12(sp)
  6c:	02052423          	sw	zero,40(a0)
  70:	c388                	sw	a0,0(a5)
  72:	02850793          	add	a5,a0,40
  76:	c63e                	sw	a5,12(sp)
  78:	bf65                	j	30 <.L48>

0000007a <.L53>:
  7a:	0009a783          	lw	a5,0(s3)
  7e:	00092503          	lw	a0,0(s2)
  82:	4fbc                	lw	a5,88(a5)
  84:	9782                	jalr	a5
  86:	50b2                	lw	ra,44(sp)
  88:	5422                	lw	s0,40(sp)
  8a:	5492                	lw	s1,36(sp)
  8c:	5902                	lw	s2,32(sp)
  8e:	49f2                	lw	s3,28(sp)
  90:	4501                	li	a0,0
  92:	6145                	add	sp,sp,48
  94:	8082                	ret

Disassembly of section .wifiextrairam.2:

00000000 <ieee80211_post_hmac_tx>:
   0:	00000737          	lui	a4,0x0
   4:	24474703          	lbu	a4,580(a4) # 244 <.L679+0x4>
   8:	1141                	add	sp,sp,-16
   a:	c606                	sw	ra,12(sp)
   c:	cb19                	beqz	a4,22 <.L62>
   e:	00000097          	auipc	ra,0x0
  12:	000080e7          	jalr	ra # e <ieee80211_post_hmac_tx+0xe>
  16:	678d                	lui	a5,0x3
  18:	0789                	add	a5,a5,2 # 3002 <.L463+0x2b00>

0000001a <.L61>:
  1a:	40b2                	lw	ra,12(sp)
  1c:	853e                	mv	a0,a5
  1e:	0141                	add	sp,sp,16
  20:	8082                	ret

00000022 <.L62>:
  22:	00000737          	lui	a4,0x0
  26:	00070713          	mv	a4,a4
  2a:	4354                	lw	a3,4(a4)
  2c:	02052423          	sw	zero,40(a0)
  30:	02850793          	add	a5,a0,40
  34:	c288                	sw	a0,0(a3)
  36:	4581                	li	a1,0
  38:	4515                	li	a0,5
  3a:	c35c                	sw	a5,4(a4)
  3c:	00000097          	auipc	ra,0x0
  40:	000080e7          	jalr	ra # 3c <.L62+0x1a>
  44:	4781                	li	a5,0
  46:	d971                	beqz	a0,1a <.L61>
  48:	678d                	lui	a5,0x3
  4a:	07c9                	add	a5,a5,18 # 3012 <.L463+0x2b10>
  4c:	b7f9                	j	1a <.L61>

Disassembly of section .text.is_wapi_alloc_tx_buf:

00000000 <is_wapi_alloc_tx_buf>:
   0:	455c                	lw	a5,12(a0)
   2:	8b85                	and	a5,a5,1
   4:	c78d                	beqz	a5,2e <.L69>
   6:	13454703          	lbu	a4,308(a0)
   a:	000007b7          	lui	a5,0x0
   e:	00078793          	mv	a5,a5
  12:	05070713          	add	a4,a4,80 # 50 <.L1392>
  16:	070a                	sll	a4,a4,0x2
  18:	97ba                	add	a5,a5,a4
  1a:	439c                	lw	a5,0(a5)
  1c:	4501                	li	a0,0
  1e:	cb89                	beqz	a5,30 <.L68>
  20:	0a07a783          	lw	a5,160(a5) # a0 <.L1030>
  24:	4388                	lw	a0,0(a5)
  26:	1571                	add	a0,a0,-4
  28:	00153513          	seqz	a0,a0
  2c:	8082                	ret

0000002e <.L69>:
  2e:	4501                	li	a0,0

00000030 <.L68>:
  30:	8082                	ret

Disassembly of section .text.ieee80211_wapi_alloc_tx_buf:

00000000 <ieee80211_wapi_alloc_tx_buf>:
   0:	1141                	add	sp,sp,-16
   2:	01258613          	add	a2,a1,18
   6:	1539                	add	a0,a0,-18
   8:	4585                	li	a1,1
   a:	c606                	sw	ra,12(sp)
   c:	00000097          	auipc	ra,0x0
  10:	000080e7          	jalr	ra # c <ieee80211_wapi_alloc_tx_buf+0xc>
  14:	c90d                	beqz	a0,46 <.L71>
  16:	4158                	lw	a4,4(a0)
  18:	6685                	lui	a3,0x1
  1a:	16fd                	add	a3,a3,-1 # fff <.L463+0xafd>
  1c:	435c                	lw	a5,4(a4)
  1e:	767d                	lui	a2,0xfffff
  20:	07c9                	add	a5,a5,18
  22:	c35c                	sw	a5,4(a4)
  24:	01655783          	lhu	a5,22(a0)
  28:	17b9                	add	a5,a5,-18
  2a:	00f51b23          	sh	a5,22(a0)
  2e:	431c                	lw	a5,0(a4)
  30:	8ff5                	and	a5,a5,a3
  32:	07c2                	sll	a5,a5,0x10
  34:	83c1                	srl	a5,a5,0x10
  36:	17b9                	add	a5,a5,-18
  38:	8ff5                	and	a5,a5,a3
  3a:	4314                	lw	a3,0(a4)
  3c:	07c2                	sll	a5,a5,0x10
  3e:	83c1                	srl	a5,a5,0x10
  40:	8ef1                	and	a3,a3,a2
  42:	8fd5                	or	a5,a5,a3
  44:	c31c                	sw	a5,0(a4)

00000046 <.L71>:
  46:	40b2                	lw	ra,12(sp)
  48:	0141                	add	sp,sp,16
  4a:	8082                	ret

Disassembly of section .text.get_wifi_internal_state:

00000000 <get_wifi_internal_state>:
   0:	1101                	add	sp,sp,-32
   2:	c64e                	sw	s3,12(sp)
   4:	000009b7          	lui	s3,0x0
   8:	0009a783          	lw	a5,0(s3) # 0 <get_wifi_internal_state>
   c:	c84a                	sw	s2,16(sp)
   e:	00000937          	lui	s2,0x0
  12:	ca26                	sw	s1,20(sp)
  14:	4bfc                	lw	a5,84(a5)
  16:	84aa                	mv	s1,a0
  18:	00092503          	lw	a0,0(s2) # 0 <get_wifi_internal_state>
  1c:	ce06                	sw	ra,28(sp)
  1e:	cc22                	sw	s0,24(sp)
  20:	9782                	jalr	a5
  22:	ec95                	bnez	s1,5e <.L78>
  24:	000007b7          	lui	a5,0x0
  28:	00078793          	mv	a5,a5
  2c:	4b9c                	lw	a5,16(a5)

0000002e <.L79>:
  2e:	05600413          	li	s0,86
  32:	cb81                	beqz	a5,42 <.L80>
  34:	0987a783          	lw	a5,152(a5) # 98 <.L1286>
  38:	4715                	li	a4,5
  3a:	00e78463          	beq	a5,a4,42 <.L80>
  3e:	05a78413          	add	s0,a5,90

00000042 <.L80>:
  42:	0009a783          	lw	a5,0(s3)
  46:	00092503          	lw	a0,0(s2)
  4a:	4fbc                	lw	a5,88(a5)
  4c:	9782                	jalr	a5
  4e:	40f2                	lw	ra,28(sp)
  50:	8522                	mv	a0,s0
  52:	4462                	lw	s0,24(sp)
  54:	44d2                	lw	s1,20(sp)
  56:	4942                	lw	s2,16(sp)
  58:	49b2                	lw	s3,12(sp)
  5a:	6105                	add	sp,sp,32
  5c:	8082                	ret

0000005e <.L78>:
  5e:	4785                	li	a5,1
  60:	05600413          	li	s0,86
  64:	fcf49fe3          	bne	s1,a5,42 <.L80>
  68:	000007b7          	lui	a5,0x0
  6c:	00078793          	mv	a5,a5
  70:	4bdc                	lw	a5,20(a5)
  72:	bf75                	j	2e <.L79>

Disassembly of section .text.ieee80211_output_pending_eb:

00000000 <ieee80211_output_pending_eb>:
   0:	1141                	add	sp,sp,-16
   2:	c422                	sw	s0,8(sp)
   4:	00000437          	lui	s0,0x0
   8:	00040793          	mv	a5,s0
   c:	1a47a783          	lw	a5,420(a5) # 1a4 <.L858+0x2>
  10:	c606                	sw	ra,12(sp)
  12:	c226                	sw	s1,4(sp)
  14:	cf8d                	beqz	a5,4e <.L86>
  16:	000004b7          	lui	s1,0x0
  1a:	00040413          	mv	s0,s0
  1e:	1a448493          	add	s1,s1,420 # 1a4 <.L858+0x2>

00000022 <.L88>:
  22:	00000097          	auipc	ra,0x0
  26:	000080e7          	jalr	ra # 22 <.L88>
  2a:	c115                	beqz	a0,4e <.L86>
  2c:	1a442503          	lw	a0,420(s0) # 1a4 <.L858+0x2>
  30:	cd19                	beqz	a0,4e <.L86>
  32:	551c                	lw	a5,40(a0)
  34:	1af42223          	sw	a5,420(s0)
  38:	e399                	bnez	a5,3e <.L87>
  3a:	1a942423          	sw	s1,424(s0)

0000003e <.L87>:
  3e:	4585                	li	a1,1
  40:	02052423          	sw	zero,40(a0)
  44:	00000097          	auipc	ra,0x0
  48:	000080e7          	jalr	ra # 44 <.L87+0x6>
  4c:	bfd9                	j	22 <.L88>

0000004e <.L86>:
  4e:	40b2                	lw	ra,12(sp)
  50:	4422                	lw	s0,8(sp)
  52:	4492                	lw	s1,4(sp)
  54:	4501                	li	a0,0
  56:	0141                	add	sp,sp,16
  58:	8082                	ret

Disassembly of section .text.ieee80211_copy_eb_header:

00000000 <ieee80211_copy_eb_header>:
   0:	55d0                	lw	a2,44(a1)
   2:	1141                	add	sp,sp,-16
   4:	c226                	sw	s1,4(sp)
   6:	4a18                	lw	a4,16(a2)
   8:	84ae                	mv	s1,a1
   a:	554c                	lw	a1,44(a0)
   c:	c606                	sw	ra,12(sp)
   e:	c422                	sw	s0,8(sp)
  10:	000807b7          	lui	a5,0x80
  14:	8f7d                	and	a4,a4,a5
  16:	499c                	lw	a5,16(a1)
  18:	fff806b7          	lui	a3,0xfff80
  1c:	16fd                	add	a3,a3,-1 # fff7ffff <.L463+0xfff7fafd>
  1e:	8ff5                	and	a5,a5,a3
  20:	8fd9                	or	a5,a5,a4
  22:	c99c                	sw	a5,16(a1)
  24:	01e4d703          	lhu	a4,30(s1)
  28:	4d5c                	lw	a5,28(a0)
  2a:	76c1                	lui	a3,0xffff0
  2c:	8b05                	and	a4,a4,1
  2e:	16fd                	add	a3,a3,-1 # fffeffff <.L463+0xfffefafd>
  30:	0742                	sll	a4,a4,0x10
  32:	8ff5                	and	a5,a5,a3
  34:	8fd9                	or	a5,a5,a4
  36:	cd5c                	sw	a5,28(a0)
  38:	4218                	lw	a4,0(a2)
  3a:	6791                	lui	a5,0x4
  3c:	8ff9                	and	a5,a5,a4
  3e:	cb9d                	beqz	a5,74 <.L99>
  40:	842a                	mv	s0,a0
  42:	40cc                	lw	a1,4(s1)
  44:	4148                	lw	a0,4(a0)
  46:	4611                	li	a2,4
  48:	00000097          	auipc	ra,0x0
  4c:	000080e7          	jalr	ra # 48 <ieee80211_copy_eb_header+0x48>
  50:	54cc                	lw	a1,44(s1)
  52:	5448                	lw	a0,44(s0)
  54:	02400613          	li	a2,36
  58:	00000097          	auipc	ra,0x0
  5c:	000080e7          	jalr	ra # 58 <ieee80211_copy_eb_header+0x58>
  60:	0144d783          	lhu	a5,20(s1)
  64:	00f41a23          	sh	a5,20(s0)
  68:	0164d783          	lhu	a5,22(s1)
  6c:	00f41b23          	sh	a5,22(s0)
  70:	50dc                	lw	a5,36(s1)
  72:	d05c                	sw	a5,36(s0)

00000074 <.L99>:
  74:	40b2                	lw	ra,12(sp)
  76:	4422                	lw	s0,8(sp)
  78:	4492                	lw	s1,4(sp)
  7a:	0141                	add	sp,sp,16
  7c:	8082                	ret

Disassembly of section .text.ieee80211_amsdu_adjust_head:

00000000 <ieee80211_amsdu_adjust_head>:
   0:	41dc                	lw	a5,4(a1)
   2:	7179                	add	sp,sp,-48
   4:	ce4e                	sw	s3,28(sp)
   6:	0047a983          	lw	s3,4(a5) # 4004 <.L463+0x3b02>
   a:	d422                	sw	s0,40(sp)
   c:	d226                	sw	s1,36(sp)
   e:	842a                	mv	s0,a0
  10:	d04a                	sw	s2,32(sp)
  12:	84ae                	mv	s1,a1
  14:	0165d903          	lhu	s2,22(a1)
  18:	4639                	li	a2,14
  1a:	85ce                	mv	a1,s3
  1c:	850a                	mv	a0,sp
  1e:	d606                	sw	ra,44(sp)
  20:	00000097          	auipc	ra,0x0
  24:	000080e7          	jalr	ra # 20 <ieee80211_amsdu_adjust_head+0x20>
  28:	00d9c783          	lbu	a5,13(s3)
  2c:	00c9c703          	lbu	a4,12(s3)
  30:	07a2                	sll	a5,a5,0x8
  32:	8fd9                	or	a5,a5,a4
  34:	faa00713          	li	a4,-86
  38:	00e407a3          	sb	a4,15(s0)
  3c:	00e40723          	sb	a4,14(s0)
  40:	470d                	li	a4,3
  42:	00e40823          	sb	a4,16(s0)
  46:	00000737          	lui	a4,0x0
  4a:	00070713          	mv	a4,a4
  4e:	5b78                	lw	a4,116(a4)
  50:	cf59                	beqz	a4,ee <.L108>
  52:	4cd4                	lw	a3,28(s1)
  54:	6741                	lui	a4,0x10
  56:	8f75                	and	a4,a4,a3
  58:	cb59                	beqz	a4,ee <.L108>
  5a:	4661                	li	a2,24
  5c:	0fe00693          	li	a3,254
  60:	03400713          	li	a4,52

00000064 <.L106>:
  64:	00f40a23          	sb	a5,20(s0)
  68:	83a1                	srl	a5,a5,0x8
  6a:	00d40923          	sb	a3,18(s0)
  6e:	00e409a3          	sb	a4,19(s0)
  72:	00f40aa3          	sb	a5,21(s0)
  76:	00c408a3          	sb	a2,17(s0)
  7a:	858a                	mv	a1,sp
  7c:	4619                	li	a2,6
  7e:	8522                	mv	a0,s0
  80:	00000097          	auipc	ra,0x0
  84:	000080e7          	jalr	ra # 80 <.L106+0x1c>
  88:	00610593          	add	a1,sp,6
  8c:	4619                	li	a2,6
  8e:	00640513          	add	a0,s0,6
  92:	00000097          	auipc	ra,0x0
  96:	000080e7          	jalr	ra # 92 <.L106+0x2e>
  9a:	ffa90793          	add	a5,s2,-6
  9e:	00879713          	sll	a4,a5,0x8
  a2:	07c2                	sll	a5,a5,0x10
  a4:	83c1                	srl	a5,a5,0x10
  a6:	83a1                	srl	a5,a5,0x8
  a8:	8fd9                	or	a5,a5,a4
  aa:	01079713          	sll	a4,a5,0x10
  ae:	8341                	srl	a4,a4,0x10
  b0:	00f40623          	sb	a5,12(s0)
  b4:	00875793          	srl	a5,a4,0x8
  b8:	40d8                	lw	a4,4(s1)
  ba:	0164d503          	lhu	a0,22(s1)
  be:	00f406a3          	sb	a5,13(s0)
  c2:	435c                	lw	a5,4(a4)
  c4:	0521                	add	a0,a0,8
  c6:	0542                	sll	a0,a0,0x10
  c8:	17e1                	add	a5,a5,-8
  ca:	c35c                	sw	a5,4(a4)
  cc:	8141                	srl	a0,a0,0x10
  ce:	00a49b23          	sh	a0,22(s1)
  d2:	4591                	li	a1,4
  d4:	00000097          	auipc	ra,0x0
  d8:	000080e7          	jalr	ra # d4 <.L106+0x70>
  dc:	50b2                	lw	ra,44(sp)
  de:	5422                	lw	s0,40(sp)
  e0:	00a49b23          	sh	a0,22(s1)
  e4:	5902                	lw	s2,32(sp)
  e6:	5492                	lw	s1,36(sp)
  e8:	49f2                	lw	s3,28(sp)
  ea:	6145                	add	sp,sp,48
  ec:	8082                	ret

000000ee <.L108>:
  ee:	4601                	li	a2,0
  f0:	4681                	li	a3,0
  f2:	4701                	li	a4,0
  f4:	bf85                	j	64 <.L106>

Disassembly of section .text.ieee80211_amsdu_adjust_last_length:

00000000 <ieee80211_amsdu_adjust_last_length>:
   0:	1141                	add	sp,sp,-16
   2:	c04a                	sw	s2,0(sp)
   4:	892e                	mv	s2,a1
   6:	c226                	sw	s1,4(sp)
   8:	4591                	li	a1,4
   a:	84aa                	mv	s1,a0
   c:	854a                	mv	a0,s2
   e:	c422                	sw	s0,8(sp)
  10:	c606                	sw	ra,12(sp)
  12:	8432                	mv	s0,a2
  14:	00000097          	auipc	ra,0x0
  18:	000080e7          	jalr	ra # 14 <ieee80211_amsdu_adjust_last_length+0x14>
  1c:	0164d703          	lhu	a4,22(s1)
  20:	412507b3          	sub	a5,a0,s2
  24:	0ff7f793          	zext.b	a5,a5
  28:	40b2                	lw	ra,12(sp)
  2a:	40f40533          	sub	a0,s0,a5
  2e:	4422                	lw	s0,8(sp)
  30:	8f1d                	sub	a4,a4,a5
  32:	00e49b23          	sh	a4,22(s1)
  36:	0542                	sll	a0,a0,0x10
  38:	4492                	lw	s1,4(sp)
  3a:	4902                	lw	s2,0(sp)
  3c:	8141                	srl	a0,a0,0x10
  3e:	0141                	add	sp,sp,16
  40:	8082                	ret

Disassembly of section .text.ieee80211_amsdu_length_check:

00000000 <ieee80211_amsdu_length_check>:
   0:	01655503          	lhu	a0,22(a0)
   4:	1141                	add	sp,sp,-16
   6:	c422                	sw	s0,8(sp)
   8:	0521                	add	a0,a0,8
   a:	842e                	mv	s0,a1
   c:	4591                	li	a1,4
   e:	c606                	sw	ra,12(sp)
  10:	00000097          	auipc	ra,0x0
  14:	000080e7          	jalr	ra # 10 <ieee80211_amsdu_length_check+0x10>
  18:	40b2                	lw	ra,12(sp)
  1a:	9522                	add	a0,a0,s0
  1c:	4422                	lw	s0,8(sp)
  1e:	0542                	sll	a0,a0,0x10
  20:	8141                	srl	a0,a0,0x10
  22:	60f53513          	sltiu	a0,a0,1551
  26:	0141                	add	sp,sp,16
  28:	8082                	ret

Disassembly of section .text.ieee80211_output_init:

00000000 <ieee80211_output_init>:
   0:	1141                	add	sp,sp,-16
   2:	000007b7          	lui	a5,0x0
   6:	00000537          	lui	a0,0x0
   a:	c606                	sw	ra,12(sp)
   c:	00078793          	mv	a5,a5
  10:	00050513          	mv	a0,a0
  14:	0007a023          	sw	zero,0(a5) # 0 <ieee80211_output_init>
  18:	c3dc                	sw	a5,4(a5)
  1a:	00000097          	auipc	ra,0x0
  1e:	000080e7          	jalr	ra # 1a <ieee80211_output_init+0x1a>
  22:	40b2                	lw	ra,12(sp)
  24:	000007b7          	lui	a5,0x0
  28:	00000737          	lui	a4,0x0
  2c:	00078793          	mv	a5,a5
  30:	00f72023          	sw	a5,0(a4) # 0 <ieee80211_output_init>
  34:	4501                	li	a0,0
  36:	0141                	add	sp,sp,16
  38:	8082                	ret

Disassembly of section .text.ieee80211_send_setup:

00000000 <ieee80211_send_setup>:
   0:	1101                	add	sp,sp,-32
   2:	c84a                	sw	s2,16(sp)
   4:	893e                	mv	s2,a5
   6:	41dc                	lw	a5,4(a1)
   8:	cc22                	sw	s0,24(sp)
   a:	ce06                	sw	ra,28(sp)
   c:	ca26                	sw	s1,20(sp)
   e:	c64e                	sw	s3,12(sp)
  10:	c452                	sw	s4,8(sp)
  12:	c256                	sw	s5,4(sp)
  14:	c05a                	sw	s6,0(sp)
  16:	43c0                	lw	s0,4(a5)
  18:	e50d                	bnez	a0,42 <.L117>
  1a:	00000737          	lui	a4,0x0
  1e:	000006b7          	lui	a3,0x0
  22:	6585                	lui	a1,0x1
  24:	57400793          	li	a5,1396
  28:	00070713          	mv	a4,a4
  2c:	00068693          	mv	a3,a3
  30:	4605                	li	a2,1
  32:	80058593          	add	a1,a1,-2048 # 800 <.L463+0x2fe>
  36:	4505                	li	a0,1
  38:	00000097          	auipc	ra,0x0
  3c:	000080e7          	jalr	ra # 38 <ieee80211_send_setup+0x38>

00000040 <.L118>:
  40:	a001                	j	40 <.L118>

00000042 <.L117>:
  42:	411c                	lw	a5,0(a0)
  44:	84aa                	mv	s1,a0
  46:	e78d                	bnez	a5,70 <.L119>
  48:	00000737          	lui	a4,0x0
  4c:	000006b7          	lui	a3,0x0
  50:	6585                	lui	a1,0x1
  52:	57500793          	li	a5,1397
  56:	00070713          	mv	a4,a4
  5a:	00068693          	mv	a3,a3
  5e:	4605                	li	a2,1
  60:	80058593          	add	a1,a1,-2048 # 800 <.L463+0x2fe>
  64:	4505                	li	a0,1
  66:	00000097          	auipc	ra,0x0
  6a:	000080e7          	jalr	ra # 66 <.L117+0x24>

0000006e <.L120>:
  6e:	a001                	j	6e <.L120>

00000070 <.L119>:
  70:	8aba                	mv	s5,a4
  72:	00c40023          	sb	a2,0(s0)
  76:	4721                	li	a4,8
  78:	8a31                	and	a2,a2,12
  7a:	8b2e                	mv	s6,a1
  7c:	89b6                	mv	s3,a3
  7e:	8a42                	mv	s4,a6
  80:	0ae61b63          	bne	a2,a4,136 <.L121>
  84:	1387a783          	lw	a5,312(a5) # 138 <.L121+0x2>
  88:	c7a9                	beqz	a5,d2 <.L122>
  8a:	4705                	li	a4,1
  8c:	06e78f63          	beq	a5,a4,10a <.L123>

00000090 <.L124>:
  90:	0986                	sll	s3,s3,0x1
  92:	00041123          	sh	zero,2(s0)
  96:	94ce                	add	s1,s1,s3
  98:	0ae4d783          	lhu	a5,174(s1)
  9c:	00178713          	add	a4,a5,1
  a0:	0ae49723          	sh	a4,174(s1)
  a4:	0792                	sll	a5,a5,0x4
  a6:	00f41b23          	sh	a5,22(s0)
  aa:	00094783          	lbu	a5,0(s2)
  ae:	8b85                	and	a5,a5,1
  b0:	c799                	beqz	a5,be <.L116>
  b2:	02cb2703          	lw	a4,44(s6)
  b6:	431c                	lw	a5,0(a4)
  b8:	4027e793          	or	a5,a5,1026
  bc:	c31c                	sw	a5,0(a4)

000000be <.L116>:
  be:	40f2                	lw	ra,28(sp)
  c0:	4462                	lw	s0,24(sp)
  c2:	44d2                	lw	s1,20(sp)
  c4:	4942                	lw	s2,16(sp)
  c6:	49b2                	lw	s3,12(sp)
  c8:	4a22                	lw	s4,8(sp)
  ca:	4a92                	lw	s5,4(sp)
  cc:	4b02                	lw	s6,0(sp)
  ce:	6105                	add	sp,sp,32
  d0:	8082                	ret

000000d2 <.L122>:
  d2:	4785                	li	a5,1
  d4:	85c2                	mv	a1,a6
  d6:	00f400a3          	sb	a5,1(s0)
  da:	4619                	li	a2,6
  dc:	00440513          	add	a0,s0,4
  e0:	00000097          	auipc	ra,0x0
  e4:	000080e7          	jalr	ra # e0 <.L122+0xe>
  e8:	4619                	li	a2,6
  ea:	85d6                	mv	a1,s5
  ec:	00a40513          	add	a0,s0,10
  f0:	00000097          	auipc	ra,0x0
  f4:	000080e7          	jalr	ra # f0 <.L122+0x1e>
  f8:	4619                	li	a2,6
  fa:	85ca                	mv	a1,s2

000000fc <.L130>:
  fc:	01040513          	add	a0,s0,16
 100:	00000097          	auipc	ra,0x0
 104:	000080e7          	jalr	ra # 100 <.L130+0x4>
 108:	b761                	j	90 <.L124>

0000010a <.L123>:
 10a:	4789                	li	a5,2
 10c:	00f400a3          	sb	a5,1(s0)
 110:	4619                	li	a2,6
 112:	85ca                	mv	a1,s2
 114:	00440513          	add	a0,s0,4
 118:	00000097          	auipc	ra,0x0
 11c:	000080e7          	jalr	ra # 118 <.L123+0xe>
 120:	4619                	li	a2,6
 122:	85d2                	mv	a1,s4
 124:	00a40513          	add	a0,s0,10
 128:	00000097          	auipc	ra,0x0
 12c:	000080e7          	jalr	ra # 128 <.L123+0x1e>
 130:	4619                	li	a2,6
 132:	85d6                	mv	a1,s5
 134:	b7e1                	j	fc <.L130>

00000136 <.L121>:
 136:	4619                	li	a2,6
 138:	85ca                	mv	a1,s2
 13a:	000400a3          	sb	zero,1(s0)
 13e:	00440513          	add	a0,s0,4
 142:	00000097          	auipc	ra,0x0
 146:	000080e7          	jalr	ra # 142 <.L121+0xc>
 14a:	4619                	li	a2,6
 14c:	85d6                	mv	a1,s5
 14e:	00a40513          	add	a0,s0,10
 152:	00000097          	auipc	ra,0x0
 156:	000080e7          	jalr	ra # 152 <.L121+0x1c>
 15a:	4619                	li	a2,6
 15c:	85d2                	mv	a1,s4
 15e:	bf79                	j	fc <.L130>

Disassembly of section .text.ieee80211_tx_mgt_cb:

00000000 <ieee80211_tx_mgt_cb>:
   0:	415c                	lw	a5,4(a0)
   2:	1101                	add	sp,sp,-32
   4:	cc22                	sw	s0,24(sp)
   6:	43c0                	lw	s0,4(a5)
   8:	ce06                	sw	ra,28(sp)
   a:	ca26                	sw	s1,20(sp)
   c:	c84a                	sw	s2,16(sp)
   e:	c64e                	sw	s3,12(sp)
  10:	c452                	sw	s4,8(sp)
  12:	c256                	sw	s5,4(sp)
  14:	00044483          	lbu	s1,0(s0)
  18:	00c4f793          	and	a5,s1,12
  1c:	1c079b63          	bnez	a5,1f2 <.L131>
  20:	555c                	lw	a5,44(a0)
  22:	892a                	mv	s2,a0
  24:	0f04f493          	and	s1,s1,240
  28:	4b98                	lw	a4,16(a5)
  2a:	000807b7          	lui	a5,0x80
  2e:	8ff9                	and	a5,a5,a4
  30:	ebb9                	bnez	a5,86 <.L134>

00000032 <.L152>:
  32:	00000437          	lui	s0,0x0
  36:	00040793          	mv	a5,s0
  3a:	2047d783          	lhu	a5,516(a5) # 80204 <.L463+0x7fd02>
  3e:	00040413          	mv	s0,s0
  42:	10079963          	bnez	a5,154 <.L135>

00000046 <.L138>:
  46:	00000097          	auipc	ra,0x0
  4a:	000080e7          	jalr	ra # 46 <.L138>
  4e:	1a050263          	beqz	a0,1f2 <.L131>
  52:	0d000793          	li	a5,208
  56:	18f49e63          	bne	s1,a5,1f2 <.L131>
  5a:	02c92783          	lw	a5,44(s2)
  5e:	4462                	lw	s0,24(sp)
  60:	40f2                	lw	ra,28(sp)
  62:	0137c583          	lbu	a1,19(a5)
  66:	4b88                	lw	a0,16(a5)
  68:	44d2                	lw	s1,20(sp)
  6a:	4942                	lw	s2,16(sp)
  6c:	49b2                	lw	s3,12(sp)
  6e:	4a22                	lw	s4,8(sp)
  70:	4a92                	lw	s5,4(sp)
  72:	15fd                	add	a1,a1,-1
  74:	814d                	srl	a0,a0,0x13
  76:	00b035b3          	snez	a1,a1
  7a:	8905                	and	a0,a0,1
  7c:	6105                	add	sp,sp,32
  7e:	00000317          	auipc	t1,0x0
  82:	00030067          	jr	t1 # 7e <.L138+0x38>

00000086 <.L134>:
  86:	06048793          	add	a5,s1,96
  8a:	0d07f793          	and	a5,a5,208
  8e:	ffc5                	bnez	a5,46 <.L138>
  90:	000007b7          	lui	a5,0x0
  94:	00078713          	mv	a4,a5
  98:	4b58                	lw	a4,20(a4)
  9a:	00078993          	mv	s3,a5
  9e:	14070a63          	beqz	a4,1f2 <.L131>
  a2:	0c000793          	li	a5,192
  a6:	02f49163          	bne	s1,a5,c8 <.L141>
  aa:	00440a13          	add	s4,s0,4 # 4 <ieee80211_tx_mgt_cb+0x4>
  ae:	4581                	li	a1,0
  b0:	8552                	mv	a0,s4
  b2:	00000097          	auipc	ra,0x0
  b6:	000080e7          	jalr	ra # b2 <.L134+0x2c>
  ba:	c519                	beqz	a0,c8 <.L141>
  bc:	4581                	li	a1,0
  be:	8552                	mv	a0,s4
  c0:	00000097          	auipc	ra,0x0
  c4:	000080e7          	jalr	ra # c0 <.L134+0x3a>

000000c8 <.L141>:
  c8:	00444783          	lbu	a5,4(s0)
  cc:	8b85                	and	a5,a5,1
  ce:	c7bd                	beqz	a5,13c <.L143>
  d0:	0149a983          	lw	s3,20(s3)
  d4:	4a05                	li	s4,1
  d6:	00000ab7          	lui	s5,0x0
  da:	0f098993          	add	s3,s3,240

000000de <.L144>:
  de:	000aa783          	lw	a5,0(s5) # 0 <ieee80211_tx_mgt_cb>
  e2:	3f67c783          	lbu	a5,1014(a5) # 3f6 <.L486+0x1e>
  e6:	0547d163          	bge	a5,s4,128 <.L146>

000000ea <.L147>:
  ea:	0a000793          	li	a5,160
  ee:	02f49563          	bne	s1,a5,118 <.L150>
  f2:	0411                	add	s0,s0,4
  f4:	4585                	li	a1,1
  f6:	8522                	mv	a0,s0
  f8:	00000097          	auipc	ra,0x0
  fc:	000080e7          	jalr	ra # f8 <.L147+0xe>
 100:	cd01                	beqz	a0,118 <.L150>
 102:	8522                	mv	a0,s0
 104:	00000097          	auipc	ra,0x0
 108:	000080e7          	jalr	ra # 104 <.L147+0x1a>
 10c:	4585                	li	a1,1
 10e:	8522                	mv	a0,s0
 110:	00000097          	auipc	ra,0x0
 114:	000080e7          	jalr	ra # 110 <.L147+0x26>

00000118 <.L150>:
 118:	02c92783          	lw	a5,44(s2)
 11c:	4b98                	lw	a4,16(a5)
 11e:	000807b7          	lui	a5,0x80
 122:	8ff9                	and	a5,a5,a4
 124:	f38d                	bnez	a5,46 <.L138>
 126:	b731                	j	32 <.L152>

00000128 <.L146>:
 128:	0009a503          	lw	a0,0(s3)
 12c:	c509                	beqz	a0,136 <.L145>
 12e:	00000097          	auipc	ra,0x0
 132:	000080e7          	jalr	ra # 12e <.L146+0x6>

00000136 <.L145>:
 136:	0a05                	add	s4,s4,1
 138:	0991                	add	s3,s3,4
 13a:	b755                	j	de <.L144>

0000013c <.L143>:
 13c:	00440513          	add	a0,s0,4
 140:	00000097          	auipc	ra,0x0
 144:	000080e7          	jalr	ra # 140 <.L143+0x4>
 148:	d14d                	beqz	a0,ea <.L147>
 14a:	00000097          	auipc	ra,0x0
 14e:	000080e7          	jalr	ra # 14a <.L143+0xe>
 152:	bf61                	j	ea <.L147>

00000154 <.L135>:
 154:	4818                	lw	a4,16(s0)
 156:	c711                	beqz	a4,162 <.L153>
 158:	14074683          	lbu	a3,320(a4) # 140 <.L143+0x4>
 15c:	4799                	li	a5,6
 15e:	eef694e3          	bne	a3,a5,46 <.L138>

00000162 <.L153>:
 162:	06048793          	add	a5,s1,96
 166:	0d07f793          	and	a5,a5,208
 16a:	ec079ee3          	bnez	a5,46 <.L138>
 16e:	20041223          	sh	zero,516(s0)
 172:	20040323          	sb	zero,518(s0)
 176:	c30d                	beqz	a4,198 <.L154>
 178:	14074703          	lbu	a4,320(a4)
 17c:	000006b7          	lui	a3,0x0
 180:	00068693          	mv	a3,a3
 184:	4611                	li	a2,4
 186:	4591                	li	a1,4
 188:	4505                	li	a0,1
 18a:	00000097          	auipc	ra,0x0
 18e:	000080e7          	jalr	ra # 18a <.L153+0x28>
 192:	481c                	lw	a5,16(s0)
 194:	14078023          	sb	zero,320(a5) # 80140 <.L463+0x7fc3e>

00000198 <.L154>:
 198:	1c842583          	lw	a1,456(s0)
 19c:	4501                	li	a0,0
 19e:	00000097          	auipc	ra,0x0
 1a2:	000080e7          	jalr	ra # 19e <.L154+0x6>
 1a6:	15042503          	lw	a0,336(s0)
 1aa:	c911                	beqz	a0,1be <.L155>
 1ac:	000007b7          	lui	a5,0x0
 1b0:	0007a783          	lw	a5,0(a5) # 0 <ieee80211_tx_mgt_cb>
 1b4:	0b07a783          	lw	a5,176(a5)
 1b8:	9782                	jalr	a5
 1ba:	14042823          	sw	zero,336(s0)

000001be <.L155>:
 1be:	14042503          	lw	a0,320(s0)
 1c2:	c911                	beqz	a0,1d6 <.L156>
 1c4:	000007b7          	lui	a5,0x0
 1c8:	0007a783          	lw	a5,0(a5) # 0 <ieee80211_tx_mgt_cb>
 1cc:	0b07a783          	lw	a5,176(a5)
 1d0:	9782                	jalr	a5
 1d2:	14042023          	sw	zero,320(s0)

000001d6 <.L156>:
 1d6:	14442503          	lw	a0,324(s0)
 1da:	e60506e3          	beqz	a0,46 <.L138>
 1de:	000007b7          	lui	a5,0x0
 1e2:	0007a783          	lw	a5,0(a5) # 0 <ieee80211_tx_mgt_cb>
 1e6:	0b07a783          	lw	a5,176(a5)
 1ea:	9782                	jalr	a5
 1ec:	14042223          	sw	zero,324(s0)
 1f0:	bd99                	j	46 <.L138>

000001f2 <.L131>:
 1f2:	40f2                	lw	ra,28(sp)
 1f4:	4462                	lw	s0,24(sp)
 1f6:	44d2                	lw	s1,20(sp)
 1f8:	4942                	lw	s2,16(sp)
 1fa:	49b2                	lw	s3,12(sp)
 1fc:	4a22                	lw	s4,8(sp)
 1fe:	4a92                	lw	s5,4(sp)
 200:	6105                	add	sp,sp,32
 202:	8082                	ret

Disassembly of section .wifiextrairam.18:

00000000 <ieee80211_align_eb>:
   0:	415c                	lw	a5,4(a0)
   2:	01455683          	lhu	a3,20(a0) # 14 <ieee80211_align_eb+0x14>
   6:	80000637          	lui	a2,0x80000
   a:	43d8                	lw	a4,4(a5)
   c:	8f0d                	sub	a4,a4,a1
   e:	c3d8                	sw	a4,4(a5)
  10:	01655703          	lhu	a4,22(a0)
  14:	9736                	add	a4,a4,a3
  16:	4394                	lw	a3,0(a5)
  18:	0752                	sll	a4,a4,0x14
  1a:	8321                	srl	a4,a4,0x8
  1c:	8ed1                	or	a3,a3,a2
  1e:	c394                	sw	a3,0(a5)
  20:	4394                	lw	a3,0(a5)
  22:	40000637          	lui	a2,0x40000
  26:	8ed1                	or	a3,a3,a2
  28:	c394                	sw	a3,0(a5)
  2a:	4394                	lw	a3,0(a5)
  2c:	e0000637          	lui	a2,0xe0000
  30:	167d                	add	a2,a2,-1 # dfffffff <.L463+0xdffffafd>
  32:	8ef1                	and	a3,a3,a2
  34:	c394                	sw	a3,0(a5)
  36:	4394                	lw	a3,0(a5)
  38:	ff001637          	lui	a2,0xff001
  3c:	167d                	add	a2,a2,-1 # ff000fff <.L463+0xff000afd>
  3e:	8ef1                	and	a3,a3,a2
  40:	8f55                	or	a4,a4,a3
  42:	c398                	sw	a4,0(a5)
  44:	8082                	ret

Disassembly of section .wifiextrairam.19:

00000000 <ieee80211_set_tx_pti>:
   0:	000007b7          	lui	a5,0x0
   4:	0007a783          	lw	a5,0(a5) # 0 <ieee80211_set_tx_pti>
   8:	1101                	add	sp,sp,-32
   a:	cc22                	sw	s0,24(sp)
   c:	1a87a783          	lw	a5,424(a5)
  10:	ce06                	sw	ra,28(sp)
  12:	842a                	mv	s0,a0
  14:	000107a3          	sb	zero,15(sp)
  18:	852e                	mv	a0,a1
  1a:	00f10593          	add	a1,sp,15
  1e:	9782                	jalr	a5
  20:	545c                	lw	a5,44(s0)
  22:	00f14703          	lbu	a4,15(sp)
  26:	02e78023          	sb	a4,32(a5)
  2a:	40f2                	lw	ra,28(sp)
  2c:	4462                	lw	s0,24(sp)
  2e:	4705                	li	a4,1
  30:	02e79123          	sh	a4,34(a5)
  34:	6105                	add	sp,sp,32
  36:	8082                	ret

Disassembly of section .text.ieee80211_classify:

00000000 <ieee80211_classify>:
   0:	41dc                	lw	a5,4(a1)
   2:	1101                	add	sp,sp,-32
   4:	cc22                	sw	s0,24(sp)
   6:	43c0                	lw	s0,4(a5)
   8:	55dc                	lw	a5,44(a1)
   a:	6721                	lui	a4,0x8
   c:	ca26                	sw	s1,20(sp)
   e:	439c                	lw	a5,0(a5)
  10:	c84a                	sw	s2,16(sp)
  12:	ce06                	sw	ra,28(sp)
  14:	8f7d                	and	a4,a4,a5
  16:	892a                	mv	s2,a0
  18:	84ae                	mv	s1,a1
  1a:	c731                	beqz	a4,66 <.L198>
  1c:	01444683          	lbu	a3,20(s0)
  20:	01544783          	lbu	a5,21(s0)

00000024 <.L221>:
  24:	07a2                	sll	a5,a5,0x8
  26:	8fd5                	or	a5,a5,a3
  28:	66a5                	lui	a3,0x9
  2a:	e8868693          	add	a3,a3,-376 # 8e88 <.L463+0x8986>
  2e:	02d78463          	beq	a5,a3,56 <.L222>
  32:	66ad                	lui	a3,0xb
  34:	48868693          	add	a3,a3,1160 # b488 <.L463+0xaf86>
  38:	00d78f63          	beq	a5,a3,56 <.L222>
  3c:	000006b7          	lui	a3,0x0
  40:	00068693          	mv	a3,a3
  44:	00092603          	lw	a2,0(s2)
  48:	4a94                	lw	a3,16(a3)
  4a:	02d61363          	bne	a2,a3,70 <.L201>
  4e:	60800693          	li	a3,1544
  52:	00d79f63          	bne	a5,a3,70 <.L201>

00000056 <.L222>:
  56:	4585                	li	a1,1
  58:	8526                	mv	a0,s1
  5a:	00000097          	auipc	ra,0x0
  5e:	000080e7          	jalr	ra # 5a <.L222+0x4>

00000062 <.L216>:
  62:	451d                	li	a0,7
  64:	a079                	j	f2 <.L202>

00000066 <.L198>:
  66:	00c44683          	lbu	a3,12(s0)
  6a:	00d44783          	lbu	a5,13(s0)
  6e:	bf5d                	j	24 <.L221>

00000070 <.L201>:
  70:	46a1                	li	a3,8
  72:	0cd79a63          	bne	a5,a3,146 <.L203>
  76:	01640613          	add	a2,s0,22
  7a:	e325                	bnez	a4,da <.L205>
  7c:	01744703          	lbu	a4,23(s0)
  80:	47c5                	li	a5,17
  82:	00e40613          	add	a2,s0,14
  86:	04f71a63          	bne	a4,a5,da <.L205>
  8a:	02245783          	lhu	a5,34(s0)
  8e:	02445683          	lhu	a3,36(s0)
  92:	00879713          	sll	a4,a5,0x8
  96:	83a1                	srl	a5,a5,0x8
  98:	8f5d                	or	a4,a4,a5
  9a:	0742                	sll	a4,a4,0x10
  9c:	00869793          	sll	a5,a3,0x8
  a0:	82a1                	srl	a3,a3,0x8
  a2:	8fd5                	or	a5,a5,a3
  a4:	8341                	srl	a4,a4,0x10
  a6:	07c2                	sll	a5,a5,0x10
  a8:	fbd70593          	add	a1,a4,-67 # 7fbd <.L463+0x7abb>
  ac:	4685                	li	a3,1
  ae:	83c1                	srl	a5,a5,0x10
  b0:	00b6f863          	bgeu	a3,a1,c0 <.L206>
  b4:	03500693          	li	a3,53
  b8:	00d70463          	beq	a4,a3,c0 <.L206>
  bc:	00d79f63          	bne	a5,a3,da <.L205>

000000c0 <.L206>:
  c0:	000006b7          	lui	a3,0x0
  c4:	00068693          	mv	a3,a3
  c8:	4611                	li	a2,4
  ca:	04000593          	li	a1,64
  ce:	4505                	li	a0,1
  d0:	00000097          	auipc	ra,0x0
  d4:	000080e7          	jalr	ra # d0 <.L206+0x10>
  d8:	bfbd                	j	56 <.L222>

000000da <.L205>:
  da:	00164783          	lbu	a5,1(a2)
  de:	0057d513          	srl	a0,a5,0x5

000000e2 <.L207>:
  e2:	00044783          	lbu	a5,0(s0)
  e6:	8b85                	and	a5,a5,1
  e8:	ffad                	bnez	a5,62 <.L216>
  ea:	00c92783          	lw	a5,12(s2)
  ee:	8b89                	and	a5,a5,2
  f0:	dbad                	beqz	a5,62 <.L216>

000000f2 <.L202>:
  f2:	000207b7          	lui	a5,0x20
  f6:	50178793          	add	a5,a5,1281 # 20501 <.L463+0x1ffff>
  fa:	c43e                	sw	a5,8(sp)
  fc:	010307b7          	lui	a5,0x1030
 100:	10378793          	add	a5,a5,259 # 1030103 <.L463+0x102fc01>
 104:	c63e                	sw	a5,12(sp)
 106:	cd25                	beqz	a0,17e <.L218>
 108:	478d                	li	a5,3
 10a:	06f50a63          	beq	a0,a5,17e <.L218>
 10e:	4789                	li	a5,2
 110:	02a7d563          	bge	a5,a0,13a <.L197>
 114:	00652793          	slti	a5,a0,6

00000118 <.L211>:
 118:	469d                	li	a3,7
 11a:	460d                	li	a2,3

0000011c <.L213>:
 11c:	02d78733          	mul	a4,a5,a3
 120:	974a                	add	a4,a4,s2
 122:	08974703          	lbu	a4,137(a4)
 126:	cb11                	beqz	a4,13a <.L197>
 128:	0786                	sll	a5,a5,0x1
 12a:	07c1                	add	a5,a5,16
 12c:	978a                	add	a5,a5,sp
 12e:	ff97c503          	lbu	a0,-7(a5)
 132:	ff87c783          	lbu	a5,-8(a5)
 136:	fec793e3          	bne	a5,a2,11c <.L213>

0000013a <.L197>:
 13a:	40f2                	lw	ra,28(sp)
 13c:	4462                	lw	s0,24(sp)
 13e:	44d2                	lw	s1,20(sp)
 140:	4942                	lw	s2,16(sp)
 142:	6105                	add	sp,sp,32
 144:	8082                	ret

00000146 <.L203>:
 146:	66b9                	lui	a3,0xe
 148:	d8668693          	add	a3,a3,-634 # dd86 <.L463+0xd884>
 14c:	02d79163          	bne	a5,a3,16e <.L208>
 150:	00e40793          	add	a5,s0,14
 154:	c319                	beqz	a4,15a <.L210>
 156:	01640793          	add	a5,s0,22

0000015a <.L210>:
 15a:	4388                	lw	a0,0(a5)
 15c:	00000097          	auipc	ra,0x0
 160:	000080e7          	jalr	ra # 15c <.L210+0x2>
 164:	01955793          	srl	a5,a0,0x19
 168:	0077f513          	and	a0,a5,7
 16c:	bf9d                	j	e2 <.L207>

0000016e <.L208>:
 16e:	673d                	lui	a4,0xf
 170:	eee70713          	add	a4,a4,-274 # eeee <.L463+0xe9ec>
 174:	4515                	li	a0,5
 176:	f6e786e3          	beq	a5,a4,e2 <.L207>
 17a:	4501                	li	a0,0
 17c:	b79d                	j	e2 <.L207>

0000017e <.L218>:
 17e:	4789                	li	a5,2
 180:	bf61                	j	118 <.L211>

Disassembly of section .text.ieee80211_add_rates:

00000000 <ieee80211_add_rates>:
   0:	1141                	add	sp,sp,-16
   2:	c606                	sw	ra,12(sp)
   4:	c422                	sw	s0,8(sp)
   6:	0005c403          	lbu	s0,0(a1)
   a:	47a1                	li	a5,8
   c:	0287e663          	bltu	a5,s0,38 <.L226>
  10:	c005                	beqz	s0,30 <.L225>

00000012 <.L224>:
  12:	4785                	li	a5,1
  14:	00f50023          	sb	a5,0(a0)
  18:	00250793          	add	a5,a0,2
  1c:	008500a3          	sb	s0,1(a0)
  20:	8622                	mv	a2,s0
  22:	0585                	add	a1,a1,1
  24:	853e                	mv	a0,a5
  26:	00000097          	auipc	ra,0x0
  2a:	000080e7          	jalr	ra # 26 <.L224+0x14>
  2e:	9522                	add	a0,a0,s0

00000030 <.L225>:
  30:	40b2                	lw	ra,12(sp)
  32:	4422                	lw	s0,8(sp)
  34:	0141                	add	sp,sp,16
  36:	8082                	ret

00000038 <.L226>:
  38:	4421                	li	s0,8
  3a:	bfe1                	j	12 <.L224>

Disassembly of section .text.ieee80211_add_dsparams:

00000000 <ieee80211_add_dsparams>:
   0:	c185                	beqz	a1,20 <.L232>
   2:	459c                	lw	a5,8(a1)
   4:	0807f793          	and	a5,a5,128
   8:	cf81                	beqz	a5,20 <.L232>
   a:	478d                	li	a5,3
   c:	00f50023          	sb	a5,0(a0)
  10:	4785                	li	a5,1
  12:	00f500a3          	sb	a5,1(a0)
  16:	0005c783          	lbu	a5,0(a1)
  1a:	050d                	add	a0,a0,3
  1c:	fef50fa3          	sb	a5,-1(a0)

00000020 <.L232>:
  20:	8082                	ret

Disassembly of section .text.ieee80211_add_xrates:

00000000 <ieee80211_add_xrates>:
   0:	0005c783          	lbu	a5,0(a1)
   4:	4721                	li	a4,8
   6:	04f77d63          	bgeu	a4,a5,60 <.L244>
   a:	1141                	add	sp,sp,-16
   c:	c422                	sw	s0,8(sp)
   e:	c606                	sw	ra,12(sp)
  10:	03200713          	li	a4,50
  14:	00e50023          	sb	a4,0(a0)
  18:	00000737          	lui	a4,0x0
  1c:	00072703          	lw	a4,0(a4) # 0 <ieee80211_add_xrates>
  20:	ff878413          	add	s0,a5,-8
  24:	47c74683          	lbu	a3,1148(a4)
  28:	4705                	li	a4,1
  2a:	02e69663          	bne	a3,a4,56 <.L241>
  2e:	17e5                	add	a5,a5,-7
  30:	576d                	li	a4,-5
  32:	00f500a3          	sb	a5,1(a0)
  36:	00e50123          	sb	a4,2(a0)
  3a:	00350793          	add	a5,a0,3

0000003e <.L242>:
  3e:	8622                	mv	a2,s0
  40:	05a5                	add	a1,a1,9
  42:	853e                	mv	a0,a5
  44:	00000097          	auipc	ra,0x0
  48:	000080e7          	jalr	ra # 44 <.L242+0x6>
  4c:	40b2                	lw	ra,12(sp)
  4e:	9522                	add	a0,a0,s0
  50:	4422                	lw	s0,8(sp)
  52:	0141                	add	sp,sp,16
  54:	8082                	ret

00000056 <.L241>:
  56:	00250793          	add	a5,a0,2
  5a:	008500a3          	sb	s0,1(a0)
  5e:	b7c5                	j	3e <.L242>

00000060 <.L244>:
  60:	8082                	ret

Disassembly of section .text.ieee80211_add_probe_resp_app_ies:

00000000 <ieee80211_add_probe_resp_app_ies>:
   0:	1141                	add	sp,sp,-16
   2:	c226                	sw	s1,4(sp)
   4:	84ae                	mv	s1,a1
   6:	2805a583          	lw	a1,640(a1)
   a:	c422                	sw	s0,8(sp)
   c:	c606                	sw	ra,12(sp)
   e:	842a                	mv	s0,a0
  10:	cd89                	beqz	a1,2a <.L248>
  12:	0005d603          	lhu	a2,0(a1)
  16:	0589                	add	a1,a1,2
  18:	00000097          	auipc	ra,0x0
  1c:	000080e7          	jalr	ra # 18 <ieee80211_add_probe_resp_app_ies+0x18>
  20:	2804a783          	lw	a5,640(s1)
  24:	0007d783          	lhu	a5,0(a5)
  28:	943e                	add	s0,s0,a5

0000002a <.L248>:
  2a:	40b2                	lw	ra,12(sp)
  2c:	8522                	mv	a0,s0
  2e:	4422                	lw	s0,8(sp)
  30:	4492                	lw	s1,4(sp)
  32:	0141                	add	sp,sp,16
  34:	8082                	ret

Disassembly of section .text.ieee80211_add_beacon_app_ies:

00000000 <ieee80211_add_beacon_app_ies>:
   0:	1141                	add	sp,sp,-16
   2:	c226                	sw	s1,4(sp)
   4:	84ae                	mv	s1,a1
   6:	27c5a583          	lw	a1,636(a1)
   a:	c422                	sw	s0,8(sp)
   c:	c606                	sw	ra,12(sp)
   e:	842a                	mv	s0,a0
  10:	cd89                	beqz	a1,2a <.L254>
  12:	0005d603          	lhu	a2,0(a1)
  16:	0589                	add	a1,a1,2
  18:	00000097          	auipc	ra,0x0
  1c:	000080e7          	jalr	ra # 18 <ieee80211_add_beacon_app_ies+0x18>
  20:	27c4a783          	lw	a5,636(s1)
  24:	0007d783          	lhu	a5,0(a5)
  28:	943e                	add	s0,s0,a5

0000002a <.L254>:
  2a:	40b2                	lw	ra,12(sp)
  2c:	8522                	mv	a0,s0
  2e:	4422                	lw	s0,8(sp)
  30:	4492                	lw	s1,4(sp)
  32:	0141                	add	sp,sp,16
  34:	8082                	ret

Disassembly of section .text.ieee80211_add_assoc_resp_ies:

00000000 <ieee80211_add_assoc_resp_ies>:
   0:	1141                	add	sp,sp,-16
   2:	c226                	sw	s1,4(sp)
   4:	84ae                	mv	s1,a1
   6:	598c                	lw	a1,48(a1)
   8:	c422                	sw	s0,8(sp)
   a:	c606                	sw	ra,12(sp)
   c:	842a                	mv	s0,a0
   e:	cd81                	beqz	a1,26 <.L260>
  10:	0005d603          	lhu	a2,0(a1)
  14:	0589                	add	a1,a1,2
  16:	00000097          	auipc	ra,0x0
  1a:	000080e7          	jalr	ra # 16 <ieee80211_add_assoc_resp_ies+0x16>
  1e:	589c                	lw	a5,48(s1)
  20:	0007d783          	lhu	a5,0(a5)
  24:	943e                	add	s0,s0,a5

00000026 <.L260>:
  26:	40b2                	lw	ra,12(sp)
  28:	8522                	mv	a0,s0
  2a:	4422                	lw	s0,8(sp)
  2c:	4492                	lw	s1,4(sp)
  2e:	0141                	add	sp,sp,16
  30:	8082                	ret

Disassembly of section .text.ieee80211_add_assoc_req_ies:

00000000 <ieee80211_add_assoc_req_ies>:
   0:	1141                	add	sp,sp,-16
   2:	c226                	sw	s1,4(sp)
   4:	84ae                	mv	s1,a1
   6:	55cc                	lw	a1,44(a1)
   8:	c422                	sw	s0,8(sp)
   a:	c606                	sw	ra,12(sp)
   c:	842a                	mv	s0,a0
   e:	cd81                	beqz	a1,26 <.L266>
  10:	0005d603          	lhu	a2,0(a1)
  14:	0589                	add	a1,a1,2
  16:	00000097          	auipc	ra,0x0
  1a:	000080e7          	jalr	ra # 16 <ieee80211_add_assoc_req_ies+0x16>
  1e:	54dc                	lw	a5,44(s1)
  20:	0007d783          	lhu	a5,0(a5)
  24:	943e                	add	s0,s0,a5

00000026 <.L266>:
  26:	40b2                	lw	ra,12(sp)
  28:	8522                	mv	a0,s0
  2a:	4422                	lw	s0,8(sp)
  2c:	4492                	lw	s1,4(sp)
  2e:	0141                	add	sp,sp,16
  30:	8082                	ret

Disassembly of section .text.ieee80211_add_probe_req_ies:

00000000 <ieee80211_add_probe_req_ies>:
   0:	1141                	add	sp,sp,-16
   2:	c226                	sw	s1,4(sp)
   4:	84ae                	mv	s1,a1
   6:	558c                	lw	a1,40(a1)
   8:	c422                	sw	s0,8(sp)
   a:	c606                	sw	ra,12(sp)
   c:	842a                	mv	s0,a0
   e:	cd81                	beqz	a1,26 <.L272>
  10:	0005d603          	lhu	a2,0(a1)
  14:	0589                	add	a1,a1,2
  16:	00000097          	auipc	ra,0x0
  1a:	000080e7          	jalr	ra # 16 <ieee80211_add_probe_req_ies+0x16>
  1e:	549c                	lw	a5,40(s1)
  20:	0007d783          	lhu	a5,0(a5)
  24:	943e                	add	s0,s0,a5

00000026 <.L272>:
  26:	40b2                	lw	ra,12(sp)
  28:	8522                	mv	a0,s0
  2a:	4422                	lw	s0,8(sp)
  2c:	4492                	lw	s1,4(sp)
  2e:	0141                	add	sp,sp,16
  30:	8082                	ret

Disassembly of section .text.ieee80211_add_wme_param:

00000000 <ieee80211_add_wme_param>:
   0:	000005b7          	lui	a1,0x0
   4:	1141                	add	sp,sp,-16
   6:	4625                	li	a2,9
   8:	00058593          	mv	a1,a1
   c:	c422                	sw	s0,8(sp)
   e:	c606                	sw	ra,12(sp)
  10:	842a                	mv	s0,a0
  12:	00000097          	auipc	ra,0x0
  16:	000080e7          	jalr	ra # 12 <ieee80211_add_wme_param+0x12>
  1a:	4791                	li	a5,4
  1c:	00f40423          	sb	a5,8(s0)
  20:	000007b7          	lui	a5,0x0
  24:	00a40613          	add	a2,s0,10
  28:	000404a3          	sb	zero,9(s0)
  2c:	00078793          	mv	a5,a5
  30:	4681                	li	a3,0
  32:	08000513          	li	a0,128

00000036 <.L278>:
  36:	0027c703          	lbu	a4,2(a5) # 2 <ieee80211_add_wme_param+0x2>
  3a:	0017c583          	lbu	a1,1(a5)
  3e:	0611                	add	a2,a2,4
  40:	8b3d                	and	a4,a4,15
  42:	0592                	sll	a1,a1,0x4
  44:	8f55                	or	a4,a4,a3
  46:	89c1                	and	a1,a1,16
  48:	8f4d                	or	a4,a4,a1
  4a:	fee60e23          	sb	a4,-4(a2)
  4e:	0047c703          	lbu	a4,4(a5)
  52:	0037c583          	lbu	a1,3(a5)
  56:	02068693          	add	a3,a3,32
  5a:	0712                	sll	a4,a4,0x4
  5c:	89bd                	and	a1,a1,15
  5e:	8f4d                	or	a4,a4,a1
  60:	fee60ea3          	sb	a4,-3(a2)
  64:	0057c703          	lbu	a4,5(a5)
  68:	0ff6f693          	zext.b	a3,a3
  6c:	fe060fa3          	sb	zero,-1(a2)
  70:	fee60f23          	sb	a4,-2(a2)
  74:	079d                	add	a5,a5,7
  76:	fca690e3          	bne	a3,a0,36 <.L278>
  7a:	40b2                	lw	ra,12(sp)
  7c:	01a40513          	add	a0,s0,26
  80:	4422                	lw	s0,8(sp)
  82:	0141                	add	sp,sp,16
  84:	8082                	ret

Disassembly of section .text.ieee80211_add_dh_param:

00000000 <ieee80211_add_dh_param>:
   0:	000007b7          	lui	a5,0x0
   4:	1b47a783          	lw	a5,436(a5) # 1b4 <.L674+0x4>
   8:	1141                	add	sp,sp,-16
   a:	c422                	sw	s0,8(sp)
   c:	4ffc                	lw	a5,92(a5)
   e:	c606                	sw	ra,12(sp)
  10:	c226                	sw	s1,4(sp)
  12:	842a                	mv	s0,a0
  14:	454d                	li	a0,19
  16:	9782                	jalr	a5
  18:	e11d                	bnez	a0,3e <.L282>
  1a:	000006b7          	lui	a3,0x0
  1e:	00068693          	mv	a3,a3
  22:	4605                	li	a2,1
  24:	20000593          	li	a1,512
  28:	4505                	li	a0,1
  2a:	00000097          	auipc	ra,0x0
  2e:	000080e7          	jalr	ra # 2a <ieee80211_add_dh_param+0x2a>

00000032 <.L283>:
  32:	40b2                	lw	ra,12(sp)
  34:	8522                	mv	a0,s0
  36:	4422                	lw	s0,8(sp)
  38:	4492                	lw	s1,4(sp)
  3a:	0141                	add	sp,sp,16
  3c:	8082                	ret

0000003e <.L282>:
  3e:	000004b7          	lui	s1,0x0
  42:	00048493          	mv	s1,s1
  46:	0004c603          	lbu	a2,0(s1) # 0 <ieee80211_add_dh_param>
  4a:	85aa                	mv	a1,a0
  4c:	8522                	mv	a0,s0
  4e:	00000097          	auipc	ra,0x0
  52:	000080e7          	jalr	ra # 4e <.L282+0x10>
  56:	0004c783          	lbu	a5,0(s1)
  5a:	943e                	add	s0,s0,a5
  5c:	bfd9                	j	32 <.L283>

Disassembly of section .text.ieee80211_add_csa:

00000000 <ieee80211_add_csa>:
   0:	02500793          	li	a5,37
   4:	00f50023          	sb	a5,0(a0)
   8:	478d                	li	a5,3
   a:	00f500a3          	sb	a5,1(a0)
   e:	4785                	li	a5,1
  10:	00f50123          	sb	a5,2(a0)
  14:	000007b7          	lui	a5,0x0
  18:	00078793          	mv	a5,a5
  1c:	1e47c703          	lbu	a4,484(a5) # 1e4 <.L1002+0x2>
  20:	0515                	add	a0,a0,5
  22:	fee50f23          	sb	a4,-2(a0)
  26:	1e87c783          	lbu	a5,488(a5)
  2a:	fef50fa3          	sb	a5,-1(a0)
  2e:	8082                	ret

Disassembly of section .text.ieee80211_add_supportedchannels:

00000000 <ieee80211_add_supportedchannels>:
   0:	1141                	add	sp,sp,-16
   2:	000007b7          	lui	a5,0x0
   6:	c422                	sw	s0,8(sp)
   8:	c226                	sw	s1,4(sp)
   a:	c606                	sw	ra,12(sp)
   c:	0007a483          	lw	s1,0(a5) # 0 <ieee80211_add_supportedchannels>
  10:	02400793          	li	a5,36
  14:	00f50023          	sb	a5,0(a0)
  18:	000500a3          	sb	zero,1(a0)
  1c:	842a                	mv	s0,a0
  1e:	00000097          	auipc	ra,0x0
  22:	000080e7          	jalr	ra # 1e <ieee80211_add_supportedchannels+0x1e>
  26:	4785                	li	a5,1
  28:	00f51f63          	bne	a0,a5,46 <.L287>
  2c:	4074c783          	lbu	a5,1031(s1)
  30:	00f40123          	sb	a5,2(s0)
  34:	4084c783          	lbu	a5,1032(s1)
  38:	00f401a3          	sb	a5,3(s0)
  3c:	00144783          	lbu	a5,1(s0)
  40:	0789                	add	a5,a5,2
  42:	00f400a3          	sb	a5,1(s0)

00000046 <.L287>:
  46:	00144503          	lbu	a0,1(s0)
  4a:	40b2                	lw	ra,12(sp)
  4c:	4492                	lw	s1,4(sp)
  4e:	0509                	add	a0,a0,2
  50:	9522                	add	a0,a0,s0
  52:	4422                	lw	s0,8(sp)
  54:	0141                	add	sp,sp,16
  56:	8082                	ret

Disassembly of section .text.ieee80211_add_extcap:

00000000 <ieee80211_add_extcap>:
   0:	7179                	add	sp,sp,-48
   2:	d606                	sw	ra,44(sp)
   4:	d422                	sw	s0,40(sp)
   6:	d226                	sw	s1,36(sp)
   8:	d04a                	sw	s2,32(sp)
   a:	ce4e                	sw	s3,28(sp)
   c:	cc52                	sw	s4,24(sp)
   e:	c202                	sw	zero,4(sp)
  10:	c402                	sw	zero,8(sp)
  12:	00011623          	sh	zero,12(sp)
  16:	00010723          	sb	zero,14(sp)
  1a:	e58d                	bnez	a1,44 <.L290>
  1c:	6585                	lui	a1,0x1
  1e:	00000737          	lui	a4,0x0
  22:	000006b7          	lui	a3,0x0
  26:	c8e58793          	add	a5,a1,-882 # c8e <.L463+0x78c>
  2a:	00070713          	mv	a4,a4
  2e:	00068693          	mv	a3,a3
  32:	4605                	li	a2,1
  34:	80058593          	add	a1,a1,-2048
  38:	4505                	li	a0,1
  3a:	00000097          	auipc	ra,0x0
  3e:	000080e7          	jalr	ra # 3a <ieee80211_add_extcap+0x3a>

00000042 <.L291>:
  42:	a001                	j	42 <.L291>

00000044 <.L290>:
  44:	000004b7          	lui	s1,0x0
  48:	00048793          	mv	a5,s1
  4c:	0005aa03          	lw	s4,0(a1)
  50:	4bdc                	lw	a5,20(a5)
  52:	892a                	mv	s2,a0
  54:	00048493          	mv	s1,s1
  58:	09478463          	beq	a5,s4,e0 <.L292>

0000005c <.L294>:
  5c:	4981                	li	s3,0
  5e:	4401                	li	s0,0

00000060 <.L293>:
  60:	489c                	lw	a5,16(s1)
  62:	01479a63          	bne	a5,s4,76 <.L295>
  66:	00000097          	auipc	ra,0x0
  6a:	000080e7          	jalr	ra # 66 <.L293+0x6>
  6e:	c501                	beqz	a0,76 <.L295>
  70:	0809e993          	or	s3,s3,128
  74:	842a                	mv	s0,a0

00000076 <.L295>:
  76:	23c4a783          	lw	a5,572(s1) # 23c <.L395+0xa>
  7a:	4701                	li	a4,0
  7c:	8b85                	and	a5,a5,1
  7e:	c399                	beqz	a5,84 <.L296>
  80:	4705                	li	a4,1
  82:	4405                	li	s0,1

00000084 <.L296>:
  84:	48dc                	lw	a5,20(s1)
  86:	01479963          	bne	a5,s4,98 <.L297>
  8a:	29a4c683          	lbu	a3,666(s1)
  8e:	478d                	li	a5,3
  90:	00f69463          	bne	a3,a5,98 <.L297>
  94:	4705                	li	a4,1
  96:	4405                	li	s0,1

00000098 <.L297>:
  98:	000007b7          	lui	a5,0x0
  9c:	0007a783          	lw	a5,0(a5) # 0 <ieee80211_add_extcap>
  a0:	3637c783          	lbu	a5,867(a5)
  a4:	e7b9                	bnez	a5,f2 <.L301>
  a6:	c405                	beqz	s0,ce <.L299>

000000a8 <.L298>:
  a8:	6685                	lui	a3,0x1
  aa:	97f68693          	add	a3,a3,-1665 # 97f <.L463+0x47d>
  ae:	854a                	mv	a0,s2
  b0:	462d                	li	a2,11
  b2:	004c                	add	a1,sp,4
  b4:	00d11223          	sh	a3,4(sp)
  b8:	00e10323          	sb	a4,6(sp)
  bc:	00f10423          	sb	a5,8(sp)
  c0:	01310723          	sb	s3,14(sp)
  c4:	092d                	add	s2,s2,11
  c6:	00000097          	auipc	ra,0x0
  ca:	000080e7          	jalr	ra # c6 <.L298+0x1e>

000000ce <.L299>:
  ce:	50b2                	lw	ra,44(sp)
  d0:	5422                	lw	s0,40(sp)
  d2:	5492                	lw	s1,36(sp)
  d4:	49f2                	lw	s3,28(sp)
  d6:	4a62                	lw	s4,24(sp)
  d8:	854a                	mv	a0,s2
  da:	5902                	lw	s2,32(sp)
  dc:	6145                	add	sp,sp,48
  de:	8082                	ret

000000e0 <.L292>:
  e0:	00000097          	auipc	ra,0x0
  e4:	000080e7          	jalr	ra # e0 <.L292>
  e8:	842a                	mv	s0,a0
  ea:	d92d                	beqz	a0,5c <.L294>
  ec:	04000993          	li	s3,64
  f0:	bf85                	j	60 <.L293>

000000f2 <.L301>:
  f2:	47a1                	li	a5,8
  f4:	bf55                	j	a8 <.L298>

Disassembly of section .text.ieee80211_vnd_ie_size:

00000000 <ieee80211_vnd_ie_size>:
   0:	4795                	li	a5,5
   2:	00a7e663          	bltu	a5,a0,e <.L314>
   6:	00000317          	auipc	t1,0x0
   a:	00030067          	jr	t1 # 6 <ieee80211_vnd_ie_size+0x6>

0000000e <.L314>:
   e:	4501                	li	a0,0
  10:	8082                	ret

Disassembly of section .text.ieee80211_vnd_ie_set:

00000000 <ieee80211_vnd_ie_set>:
   0:	1101                	add	sp,sp,-32
   2:	cc22                	sw	s0,24(sp)
   4:	ce06                	sw	ra,28(sp)
   6:	ca26                	sw	s1,20(sp)
   8:	c84a                	sw	s2,16(sp)
   a:	c64e                	sw	s3,12(sp)
   c:	842a                	mv	s0,a0
   e:	c135                	beqz	a0,72 <.L316>
  10:	4795                	li	a5,5
  12:	892e                	mv	s2,a1
  14:	04b7ef63          	bltu	a5,a1,72 <.L316>
  18:	000004b7          	lui	s1,0x0
  1c:	01458793          	add	a5,a1,20
  20:	00048993          	mv	s3,s1
  24:	078e                	sll	a5,a5,0x3
  26:	99be                	add	s3,s3,a5
  28:	0009a783          	lw	a5,0(s3)
  2c:	00048493          	mv	s1,s1
  30:	cf91                	beqz	a5,4c <.L317>
  32:	43cc                	lw	a1,4(a5)
  34:	cd81                	beqz	a1,4c <.L317>
  36:	0087c603          	lbu	a2,8(a5)
  3a:	00000097          	auipc	ra,0x0
  3e:	000080e7          	jalr	ra # 3a <ieee80211_vnd_ie_set+0x3a>
  42:	0009a783          	lw	a5,0(s3)
  46:	0087c783          	lbu	a5,8(a5)
  4a:	943e                	add	s0,s0,a5

0000004c <.L317>:
  4c:	090e                	sll	s2,s2,0x3
  4e:	94ca                	add	s1,s1,s2
  50:	0a44a783          	lw	a5,164(s1) # a4 <.L1085>
  54:	cf99                	beqz	a5,72 <.L316>
  56:	43cc                	lw	a1,4(a5)
  58:	cd89                	beqz	a1,72 <.L316>
  5a:	0087c603          	lbu	a2,8(a5)
  5e:	8522                	mv	a0,s0
  60:	00000097          	auipc	ra,0x0
  64:	000080e7          	jalr	ra # 60 <.L317+0x14>
  68:	0a44a783          	lw	a5,164(s1)
  6c:	0087c783          	lbu	a5,8(a5)
  70:	943e                	add	s0,s0,a5

00000072 <.L316>:
  72:	40f2                	lw	ra,28(sp)
  74:	8522                	mv	a0,s0
  76:	4462                	lw	s0,24(sp)
  78:	44d2                	lw	s1,20(sp)
  7a:	4942                	lw	s2,16(sp)
  7c:	49b2                	lw	s3,12(sp)
  7e:	6105                	add	sp,sp,32
  80:	8082                	ret

Disassembly of section .text.ieee80211_vnd_lora_ie_size:

00000000 <ieee80211_vnd_lora_ie_size>:
   0:	1141                	add	sp,sp,-16
   2:	c422                	sw	s0,8(sp)
   4:	c606                	sw	ra,12(sp)
   6:	842a                	mv	s0,a0
   8:	00000097          	auipc	ra,0x0
   c:	000080e7          	jalr	ra # 8 <ieee80211_vnd_lora_ie_size+0x8>
  10:	4785                	li	a5,1
  12:	04f51263          	bne	a0,a5,56 <.L338>
  16:	000007b7          	lui	a5,0x0
  1a:	00078713          	mv	a4,a5
  1e:	2a872703          	lw	a4,680(a4) # 2a8 <.L901+0x4>
  22:	00078793          	mv	a5,a5
  26:	cb01                	beqz	a4,36 <.L337>
  28:	ffd47693          	and	a3,s0,-3
  2c:	00a69563          	bne	a3,a0,36 <.L337>

00000030 <.L347>:
  30:	00075503          	lhu	a0,0(a4)
  34:	a829                	j	4e <.L335>

00000036 <.L337>:
  36:	2ac7a703          	lw	a4,684(a5) # 2ac <.L682>
  3a:	4501                	li	a0,0
  3c:	cb09                	beqz	a4,4e <.L335>
  3e:	4791                	li	a5,4
  40:	0087e763          	bltu	a5,s0,4e <.L335>
  44:	47d5                	li	a5,21
  46:	0087d7b3          	srl	a5,a5,s0
  4a:	8b85                	and	a5,a5,1
  4c:	f3f5                	bnez	a5,30 <.L347>

0000004e <.L335>:
  4e:	40b2                	lw	ra,12(sp)
  50:	4422                	lw	s0,8(sp)
  52:	0141                	add	sp,sp,16
  54:	8082                	ret

00000056 <.L338>:
  56:	4501                	li	a0,0
  58:	bfdd                	j	4e <.L335>

Disassembly of section .text.ieee80211_vnd_lora_ie_set:

00000000 <ieee80211_vnd_lora_ie_set>:
   0:	1141                	add	sp,sp,-16
   2:	c226                	sw	s1,4(sp)
   4:	000004b7          	lui	s1,0x0
   8:	00048793          	mv	a5,s1
   c:	2a87a783          	lw	a5,680(a5)
  10:	c422                	sw	s0,8(sp)
  12:	c04a                	sw	s2,0(sp)
  14:	c606                	sw	ra,12(sp)
  16:	842a                	mv	s0,a0
  18:	892e                	mv	s2,a1
  1a:	00048493          	mv	s1,s1
  1e:	e781                	bnez	a5,26 <.L349>
  20:	2ac4a783          	lw	a5,684(s1) # 2ac <.L682>
  24:	c3a1                	beqz	a5,64 <.L350>

00000026 <.L349>:
  26:	cc1d                	beqz	s0,64 <.L350>
  28:	4791                	li	a5,4
  2a:	0327ed63          	bltu	a5,s2,64 <.L350>
  2e:	00000097          	auipc	ra,0x0
  32:	000080e7          	jalr	ra # 2e <.L349+0x8>
  36:	4785                	li	a5,1
  38:	02f51663          	bne	a0,a5,64 <.L350>
  3c:	2a84a583          	lw	a1,680(s1)
  40:	c98d                	beqz	a1,72 <.L352>
  42:	ffd97793          	and	a5,s2,-3
  46:	02a79663          	bne	a5,a0,72 <.L352>
  4a:	0005d603          	lhu	a2,0(a1)
  4e:	8522                	mv	a0,s0
  50:	0589                	add	a1,a1,2
  52:	00000097          	auipc	ra,0x0
  56:	000080e7          	jalr	ra # 52 <.L349+0x2c>
  5a:	2a84a783          	lw	a5,680(s1)

0000005e <.L366>:
  5e:	0007d783          	lhu	a5,0(a5)
  62:	943e                	add	s0,s0,a5

00000064 <.L350>:
  64:	40b2                	lw	ra,12(sp)
  66:	8522                	mv	a0,s0
  68:	4422                	lw	s0,8(sp)
  6a:	4492                	lw	s1,4(sp)
  6c:	4902                	lw	s2,0(sp)
  6e:	0141                	add	sp,sp,16
  70:	8082                	ret

00000072 <.L352>:
  72:	2ac4a583          	lw	a1,684(s1)
  76:	d5fd                	beqz	a1,64 <.L350>
  78:	47d5                	li	a5,21
  7a:	0127d7b3          	srl	a5,a5,s2
  7e:	8b85                	and	a5,a5,1
  80:	d3f5                	beqz	a5,64 <.L350>
  82:	0005d603          	lhu	a2,0(a1)
  86:	8522                	mv	a0,s0
  88:	0589                	add	a1,a1,2
  8a:	00000097          	auipc	ra,0x0
  8e:	000080e7          	jalr	ra # 8a <.L352+0x18>
  92:	2ac4a783          	lw	a5,684(s1)
  96:	b7e1                	j	5e <.L366>

Disassembly of section .text.ieee80211_setup_robust_mgmtframe:

00000000 <ieee80211_setup_robust_mgmtframe>:
   0:	41d8                	lw	a4,4(a1)
   2:	1141                	add	sp,sp,-16
   4:	0145d783          	lhu	a5,20(a1)
   8:	c226                	sw	s1,4(sp)
   a:	4344                	lw	s1,4(a4)
   c:	07a1                	add	a5,a5,8
   e:	c422                	sw	s0,8(sp)
  10:	c606                	sw	ra,12(sp)
  12:	97a6                	add	a5,a5,s1
  14:	c35c                	sw	a5,4(a4)
  16:	842e                	mv	s0,a1
  18:	00000097          	auipc	ra,0x0
  1c:	000080e7          	jalr	ra # 18 <ieee80211_setup_robust_mgmtframe+0x18>
  20:	5458                	lw	a4,44(s0)
  22:	e531                	bnez	a0,6e <.L368>
  24:	431c                	lw	a5,0(a4)
  26:	9bf9                	and	a5,a5,-2
  28:	c31c                	sw	a5,0(a4)
  2a:	0014c783          	lbu	a5,1(s1)
  2e:	fbf7f793          	and	a5,a5,-65
  32:	00f480a3          	sb	a5,1(s1)
  36:	405c                	lw	a5,4(s0)
  38:	01645603          	lhu	a2,22(s0)
  3c:	43cc                	lw	a1,4(a5)
  3e:	ff858513          	add	a0,a1,-8
  42:	00000097          	auipc	ra,0x0
  46:	000080e7          	jalr	ra # 42 <ieee80211_setup_robust_mgmtframe+0x42>
  4a:	01445783          	lhu	a5,20(s0)
  4e:	4054                	lw	a3,4(s0)
  50:	5761                	li	a4,-8
  52:	8f1d                	sub	a4,a4,a5
  54:	42dc                	lw	a5,4(a3)
  56:	97ba                	add	a5,a5,a4
  58:	5458                	lw	a4,44(s0)
  5a:	c2dc                	sw	a5,4(a3)

0000005c <.L371>:
  5c:	4b5c                	lw	a5,20(a4)
  5e:	40b2                	lw	ra,12(sp)
  60:	4422                	lw	s0,8(sp)
  62:	0047e793          	or	a5,a5,4
  66:	cb5c                	sw	a5,20(a4)
  68:	4492                	lw	s1,4(sp)
  6a:	0141                	add	sp,sp,16
  6c:	8082                	ret

0000006e <.L368>:
  6e:	4054                	lw	a3,4(s0)
  70:	01445603          	lhu	a2,20(s0)
  74:	42dc                	lw	a5,4(a3)
  76:	8f91                	sub	a5,a5,a2
  78:	c2dc                	sw	a5,4(a3)
  7a:	0a052783          	lw	a5,160(a0)
  7e:	767d                	lui	a2,0xfffff
  80:	0ff60613          	add	a2,a2,255 # fffff0ff <.L463+0xffffebfd>
  84:	4394                	lw	a3,0(a5)
  86:	4b1c                	lw	a5,16(a4)
  88:	8abd                	and	a3,a3,15
  8a:	06a2                	sll	a3,a3,0x8
  8c:	8ff1                	and	a5,a5,a2
  8e:	8fd5                	or	a5,a5,a3
  90:	4314                	lw	a3,0(a4)
  92:	cb1c                	sw	a5,16(a4)
  94:	83b5                	srl	a5,a5,0xd
  96:	9af9                	and	a3,a3,-2
  98:	c314                	sw	a3,0(a4)
  9a:	00055683          	lhu	a3,0(a0)
  9e:	0407f793          	and	a5,a5,64
  a2:	8fd5                	or	a5,a5,a3
  a4:	00f70823          	sb	a5,16(a4)
  a8:	bf55                	j	5c <.L371>

Disassembly of section .text.ieee80211_mgmt_output:

00000000 <ieee80211_mgmt_output>:
   0:	7139                	add	sp,sp,-64
   2:	de06                	sw	ra,60(sp)
   4:	dc22                	sw	s0,56(sp)
   6:	da26                	sw	s1,52(sp)
   8:	d84a                	sw	s2,48(sp)
   a:	d64e                	sw	s3,44(sp)
   c:	d452                	sw	s4,40(sp)
   e:	d256                	sw	s5,36(sp)
  10:	d05a                	sw	s6,32(sp)
  12:	c511                	beqz	a0,1e <.L373>
  14:	00052903          	lw	s2,0(a0)
  18:	84aa                	mv	s1,a0
  1a:	02091663          	bnez	s2,46 <.L374>

0000001e <.L373>:
  1e:	00000737          	lui	a4,0x0
  22:	000006b7          	lui	a3,0x0
  26:	6585                	lui	a1,0x1
  28:	5fb00793          	li	a5,1531
  2c:	00070713          	mv	a4,a4
  30:	00068693          	mv	a3,a3
  34:	4605                	li	a2,1
  36:	80058593          	add	a1,a1,-2048 # 800 <.L463+0x2fe>
  3a:	4505                	li	a0,1
  3c:	00000097          	auipc	ra,0x0
  40:	000080e7          	jalr	ra # 3c <.L373+0x1e>

00000044 <.L375>:
  44:	a001                	j	44 <.L375>

00000046 <.L374>:
  46:	00000a37          	lui	s4,0x0
  4a:	000a0793          	mv	a5,s4
  4e:	4b88                	lw	a0,16(a5)
  50:	842e                	mv	s0,a1
  52:	082c                	add	a1,sp,24
  54:	41250533          	sub	a0,a0,s2
  58:	00a03533          	snez	a0,a0
  5c:	89b2                	mv	s3,a2
  5e:	00000097          	auipc	ra,0x0
  62:	000080e7          	jalr	ra # 5e <.L374+0x18>
  66:	405c                	lw	a5,4(s0)
  68:	13892703          	lw	a4,312(s2)
  6c:	000a0a13          	mv	s4,s4
  70:	0047aa83          	lw	s5,4(a5)
  74:	00448793          	add	a5,s1,4
  78:	e779                	bnez	a4,146 <.L376>
  7a:	883e                	mv	a6,a5
  7c:	0838                	add	a4,sp,24

0000007e <.L416>:
  7e:	46c1                	li	a3,16
  80:	864e                	mv	a2,s3
  82:	85a2                	mv	a1,s0
  84:	8526                	mv	a0,s1
  86:	00000097          	auipc	ra,0x0
  8a:	000080e7          	jalr	ra # 86 <.L416+0x8>
  8e:	13892703          	lw	a4,312(s2)
  92:	4785                	li	a5,1
  94:	4b01                	li	s6,0
  96:	00f71863          	bne	a4,a5,a6 <.L378>
  9a:	8522                	mv	a0,s0
  9c:	00000097          	auipc	ra,0x0
  a0:	000080e7          	jalr	ra # 9c <.L416+0x1e>
  a4:	8b2a                	mv	s6,a0

000000a6 <.L378>:
  a6:	5450                	lw	a2,44(s0)
  a8:	4218                	lw	a4,0(a2)
  aa:	00177793          	and	a5,a4,1
  ae:	c78d                	beqz	a5,d8 <.L380>
  b0:	001ac783          	lbu	a5,1(s5)
  b4:	0407e693          	or	a3,a5,64
  b8:	00da80a3          	sb	a3,1(s5)
  bc:	408c                	lw	a1,0(s1)
  be:	010a2683          	lw	a3,16(s4) # 10 <ieee80211_mgmt_output+0x10>
  c2:	08d59663          	bne	a1,a3,14e <.L381>
  c6:	204a5683          	lhu	a3,516(s4)
  ca:	c2d1                	beqz	a3,14e <.L381>

000000cc <.L383>:
  cc:	85a2                	mv	a1,s0
  ce:	8526                	mv	a0,s1
  d0:	00000097          	auipc	ra,0x0
  d4:	000080e7          	jalr	ra # d0 <.L383+0x4>

000000d8 <.L380>:
  d8:	405c                	lw	a5,4(s0)
  da:	01445683          	lhu	a3,20(s0)
  de:	01645703          	lhu	a4,22(s0)
  e2:	80000637          	lui	a2,0x80000
  e6:	9736                	add	a4,a4,a3
  e8:	4394                	lw	a3,0(a5)
  ea:	0752                	sll	a4,a4,0x14
  ec:	8321                	srl	a4,a4,0x8
  ee:	8ed1                	or	a3,a3,a2
  f0:	c394                	sw	a3,0(a5)
  f2:	4394                	lw	a3,0(a5)
  f4:	40000637          	lui	a2,0x40000
  f8:	8ed1                	or	a3,a3,a2
  fa:	c394                	sw	a3,0(a5)
  fc:	4394                	lw	a3,0(a5)
  fe:	e0000637          	lui	a2,0xe0000
 102:	167d                	add	a2,a2,-1 # dfffffff <.L463+0xdffffafd>
 104:	8ef1                	and	a3,a3,a2
 106:	c394                	sw	a3,0(a5)
 108:	4394                	lw	a3,0(a5)
 10a:	ff001637          	lui	a2,0xff001
 10e:	167d                	add	a2,a2,-1 # ff000fff <.L463+0xff000afd>
 110:	8ef1                	and	a3,a3,a2
 112:	8f55                	or	a4,a4,a3
 114:	c398                	sw	a4,0(a5)
 116:	13892703          	lw	a4,312(s2)
 11a:	4785                	li	a5,1
 11c:	00f71a63          	bne	a4,a5,130 <.L385>
 120:	f6098993          	add	s3,s3,-160
 124:	fdf9f993          	and	s3,s3,-33
 128:	06098a63          	beqz	s3,19c <.L386>

0000012c <.L392>:
 12c:	0e0b1963          	bnez	s6,21e <.L387>

00000130 <.L385>:
 130:	00000097          	auipc	ra,0x0
 134:	000080e7          	jalr	ra # 130 <.L385>
 138:	cd6d                	beqz	a0,232 <.L395>
 13a:	8522                	mv	a0,s0
 13c:	00000097          	auipc	ra,0x0
 140:	000080e7          	jalr	ra # 13c <.L385+0xc>
 144:	a091                	j	188 <.L372>

00000146 <.L376>:
 146:	01810813          	add	a6,sp,24
 14a:	8742                	mv	a4,a6
 14c:	bf0d                	j	7e <.L416>

0000014e <.L381>:
 14e:	014a2683          	lw	a3,20(s4)
 152:	f8d913e3          	bne	s2,a3,d8 <.L380>
 156:	2fb4c683          	lbu	a3,763(s1)
 15a:	debd                	beqz	a3,d8 <.L380>
 15c:	004ac683          	lbu	a3,4(s5)
 160:	8a85                	and	a3,a3,1
 162:	d6ad                	beqz	a3,cc <.L383>
 164:	9b79                	and	a4,a4,-2
 166:	c218                	sw	a4,0(a2)
 168:	fbf7f793          	and	a5,a5,-65
 16c:	00fa80a3          	sb	a5,1(s5)
 170:	8522                	mv	a0,s0
 172:	00000097          	auipc	ra,0x0
 176:	000080e7          	jalr	ra # 172 <.L381+0x24>
 17a:	dd39                	beqz	a0,d8 <.L380>
 17c:	8522                	mv	a0,s0
 17e:	00000097          	auipc	ra,0x0
 182:	000080e7          	jalr	ra # 17e <.L381+0x30>
 186:	557d                	li	a0,-1

00000188 <.L372>:
 188:	50f2                	lw	ra,60(sp)
 18a:	5462                	lw	s0,56(sp)
 18c:	54d2                	lw	s1,52(sp)
 18e:	5942                	lw	s2,48(sp)
 190:	59b2                	lw	s3,44(sp)
 192:	5a22                	lw	s4,40(sp)
 194:	5a92                	lw	s5,36(sp)
 196:	5b02                	lw	s6,32(sp)
 198:	6121                	add	sp,sp,64
 19a:	8082                	ret

0000019c <.L386>:
 19c:	004ac783          	lbu	a5,4(s5)
 1a0:	0ec92683          	lw	a3,236(s2)
 1a4:	8b85                	and	a5,a5,1
 1a6:	cb99                	beqz	a5,1bc <.L388>

000001a8 <.L394>:
 1a8:	0ec92783          	lw	a5,236(s2)
 1ac:	06979363          	bne	a5,s1,212 <.L393>
 1b0:	5458                	lw	a4,44(s0)
 1b2:	4b5c                	lw	a5,20(a4)
 1b4:	0047e793          	or	a5,a5,4
 1b8:	cb5c                	sw	a5,20(a4)
 1ba:	a8a1                	j	212 <.L393>

000001bc <.L388>:
 1bc:	f6d488e3          	beq	s1,a3,12c <.L392>
 1c0:	5454                	lw	a3,44(s0)
 1c2:	000009b7          	lui	s3,0x0
 1c6:	13c48513          	add	a0,s1,316
 1ca:	4adc                	lw	a5,20(a3)
 1cc:	c62a                	sw	a0,12(sp)
 1ce:	0047e793          	or	a5,a5,4
 1d2:	cadc                	sw	a5,20(a3)
 1d4:	0009a783          	lw	a5,0(s3) # 0 <ieee80211_mgmt_output>
 1d8:	2ee48ea3          	sb	a4,765(s1)
 1dc:	0e47a783          	lw	a5,228(a5)
 1e0:	9782                	jalr	a5
 1e2:	000007b7          	lui	a5,0x0
 1e6:	0007a703          	lw	a4,0(a5) # 0 <ieee80211_mgmt_output>
 1ea:	458d                	li	a1,3
 1ec:	4532                	lw	a0,12(sp)
 1ee:	50b74783          	lbu	a5,1291(a4) # 50b <.L463+0x9>
 1f2:	3f875703          	lhu	a4,1016(a4)
 1f6:	4601                	li	a2,0
 1f8:	02e787b3          	mul	a5,a5,a4
 1fc:	0009a703          	lw	a4,0(s3)
 200:	0e072703          	lw	a4,224(a4)
 204:	02b785b3          	mul	a1,a5,a1
 208:	9702                	jalr	a4
 20a:	004ac783          	lbu	a5,4(s5)
 20e:	8b85                	and	a5,a5,1
 210:	ffc1                	bnez	a5,1a8 <.L394>

00000212 <.L393>:
 212:	13892703          	lw	a4,312(s2)
 216:	4785                	li	a5,1
 218:	f0f70ae3          	beq	a4,a5,12c <.L392>
 21c:	bf11                	j	130 <.L385>

0000021e <.L387>:
 21e:	44dc                	lw	a5,12(s1)
 220:	8bc1                	and	a5,a5,16
 222:	d799                	beqz	a5,130 <.L385>
 224:	85a2                	mv	a1,s0
 226:	8526                	mv	a0,s1
 228:	00000097          	auipc	ra,0x0
 22c:	000080e7          	jalr	ra # 228 <.L387+0xa>
 230:	bfa1                	j	188 <.L372>

00000232 <.L395>:
 232:	1a8a2783          	lw	a5,424(s4)
 236:	02042423          	sw	zero,40(s0)
 23a:	4501                	li	a0,0
 23c:	c380                	sw	s0,0(a5)
 23e:	02840413          	add	s0,s0,40
 242:	1a8a2423          	sw	s0,424(s4)
 246:	b789                	j	188 <.L372>

Disassembly of section .text.ieee80211_getcapinfo:

00000000 <ieee80211_getcapinfo>:
   0:	c119                	beqz	a0,6 <.L418>
   2:	4110                	lw	a2,0(a0)
   4:	e61d                	bnez	a2,32 <.L419>

00000006 <.L418>:
   6:	6585                	lui	a1,0x1
   8:	00000737          	lui	a4,0x0
   c:	000006b7          	lui	a3,0x0
  10:	1141                	add	sp,sp,-16
  12:	de358793          	add	a5,a1,-541 # de3 <.L463+0x8e1>
  16:	00070713          	mv	a4,a4
  1a:	00068693          	mv	a3,a3
  1e:	4605                	li	a2,1
  20:	80058593          	add	a1,a1,-2048
  24:	4505                	li	a0,1
  26:	c606                	sw	ra,12(sp)
  28:	00000097          	auipc	ra,0x0
  2c:	000080e7          	jalr	ra # 28 <.L418+0x22>

00000030 <.L420>:
  30:	a001                	j	30 <.L420>

00000032 <.L419>:
  32:	13862683          	lw	a3,312(a2)
  36:	000007b7          	lui	a5,0x0
  3a:	00078793          	mv	a5,a5
  3e:	e2b9                	bnez	a3,84 <.L421>
  40:	1fe7c683          	lbu	a3,510(a5) # 1fe <.L1112+0x6>

00000044 <.L445>:
  44:	4705                	li	a4,1
  46:	c291                	beqz	a3,4a <.L422>
  48:	4745                	li	a4,17

0000004a <.L422>:
  4a:	4bdc                	lw	a5,20(a5)
  4c:	02a55683          	lhu	a3,42(a0)
  50:	42076513          	or	a0,a4,1056
  54:	8f91                	sub	a5,a5,a2
  56:	0017b793          	seqz	a5,a5
  5a:	4006f613          	and	a2,a3,1024
  5e:	8fd1                	or	a5,a5,a2
  60:	e399                	bnez	a5,66 <.L424>
  62:	02076513          	or	a0,a4,32

00000066 <.L424>:
  66:	000007b7          	lui	a5,0x0
  6a:	0007a783          	lw	a5,0(a5) # 0 <ieee80211_getcapinfo>
  6e:	3627c783          	lbu	a5,866(a5)
  72:	c399                	beqz	a5,78 <.L425>
  74:	6785                	lui	a5,0x1
  76:	8d5d                	or	a0,a0,a5

00000078 <.L425>:
  78:	1006f693          	and	a3,a3,256
  7c:	c299                	beqz	a3,82 <.L426>
  7e:	10056513          	or	a0,a0,256

00000082 <.L426>:
  82:	8082                	ret

00000084 <.L421>:
  84:	4585                	li	a1,1
  86:	4701                	li	a4,0
  88:	fcb691e3          	bne	a3,a1,4a <.L422>
  8c:	0a462683          	lw	a3,164(a2)
  90:	8ac1                	and	a3,a3,16
  92:	bf4d                	j	44 <.L445>

Disassembly of section .text.ieee80211_add_bss_max_idle:

00000000 <ieee80211_add_bss_max_idle>:
   0:	05a00713          	li	a4,90
   4:	4194                	lw	a3,0(a1)
   6:	00e50023          	sb	a4,0(a0)
   a:	470d                	li	a4,3
   c:	00e500a3          	sb	a4,1(a0)
  10:	00000737          	lui	a4,0x0
  14:	00070713          	mv	a4,a4
  18:	4b58                	lw	a4,20(a4)
  1a:	87aa                	mv	a5,a0
  1c:	0515                	add	a0,a0,5
  1e:	02d71163          	bne	a4,a3,40 <.L447>
  22:	3325d683          	lhu	a3,818(a1)
  26:	00d79123          	sh	a3,2(a5) # 1002 <.L463+0xb00>
  2a:	000006b7          	lui	a3,0x0
  2e:	0006a683          	lw	a3,0(a3) # 0 <ieee80211_add_bss_max_idle>
  32:	3f46c683          	lbu	a3,1012(a3)
  36:	e285                	bnez	a3,56 <.L448>
  38:	4701                	li	a4,0

0000003a <.L449>:
  3a:	0ff77713          	zext.b	a4,a4
  3e:	a809                	j	50 <.L450>

00000040 <.L447>:
  40:	22a6d703          	lhu	a4,554(a3)
  44:	00e79123          	sh	a4,2(a5)
  48:	28b5c703          	lbu	a4,651(a1)
  4c:	00e03733          	snez	a4,a4

00000050 <.L450>:
  50:	00e78223          	sb	a4,4(a5)
  54:	8082                	ret

00000056 <.L448>:
  56:	22974703          	lbu	a4,553(a4) # 229 <.L1220+0x3>
  5a:	b7c5                	j	3a <.L449>

Disassembly of section .text.ieee80211_assoc_req_construct:

00000000 <ieee80211_assoc_req_construct>:
   0:	715d                	add	sp,sp,-80
   2:	c0ca                	sw	s2,64(sp)
   4:	d85a                	sw	s6,48(sp)
   6:	892a                	mv	s2,a0
   8:	00000b37          	lui	s6,0x0
   c:	c686                	sw	ra,76(sp)
   e:	c4a2                	sw	s0,72(sp)
  10:	c2a6                	sw	s1,68(sp)
  12:	de4e                	sw	s3,60(sp)
  14:	dc52                	sw	s4,56(sp)
  16:	da56                	sw	s5,52(sp)
  18:	d65e                	sw	s7,44(sp)
  1a:	d462                	sw	s8,40(sp)
  1c:	d266                	sw	s9,36(sp)
  1e:	d06a                	sw	s10,32(sp)
  20:	ce6e                	sw	s11,28(sp)
  22:	000b2503          	lw	a0,0(s6) # 0 <ieee80211_assoc_req_construct>
  26:	00090663          	beqz	s2,32 <.L452>
  2a:	00092983          	lw	s3,0(s2)
  2e:	02099663          	bnez	s3,5a <.L453>

00000032 <.L452>:
  32:	6585                	lui	a1,0x1
  34:	00000737          	lui	a4,0x0
  38:	000006b7          	lui	a3,0x0
  3c:	e2658793          	add	a5,a1,-474 # e26 <.L463+0x924>
  40:	00070713          	mv	a4,a4
  44:	00068693          	mv	a3,a3
  48:	4605                	li	a2,1
  4a:	80058593          	add	a1,a1,-2048
  4e:	4505                	li	a0,1
  50:	00000097          	auipc	ra,0x0
  54:	000080e7          	jalr	ra # 50 <.L452+0x1e>

00000058 <.L454>:
  58:	a001                	j	58 <.L454>

0000005a <.L453>:
  5a:	41554783          	lbu	a5,1045(a0)
  5e:	00000c37          	lui	s8,0x0
  62:	8bae                	mv	s7,a1
  64:	00450a13          	add	s4,a0,4
  68:	000c0493          	mv	s1,s8
  6c:	cb85                	beqz	a5,9c <.L455>
  6e:	35f54783          	lbu	a5,863(a0)
  72:	e78d                	bnez	a5,9c <.L455>
  74:	1fd4c703          	lbu	a4,509(s1)
  78:	47bd                	li	a5,15
  7a:	02f71163          	bne	a4,a5,9c <.L455>
  7e:	4619                	li	a2,6
  80:	32c90593          	add	a1,s2,812
  84:	09350513          	add	a0,a0,147
  88:	00000097          	auipc	ra,0x0
  8c:	000080e7          	jalr	ra # 88 <.L453+0x2e>
  90:	e511                	bnez	a0,9c <.L455>
  92:	00000097          	auipc	ra,0x0
  96:	000080e7          	jalr	ra # 92 <.L453+0x38>
  9a:	8a2a                	mv	s4,a0

0000009c <.L455>:
  9c:	854a                	mv	a0,s2
  9e:	00000097          	auipc	ra,0x0
  a2:	000080e7          	jalr	ra # 9e <.L455+0x2>
  a6:	8aaa                	mv	s5,a0
  a8:	450d                	li	a0,3
  aa:	00000097          	auipc	ra,0x0
  ae:	000080e7          	jalr	ra # aa <.L455+0xe>
  b2:	8caa                	mv	s9,a0
  b4:	450d                	li	a0,3
  b6:	00000097          	auipc	ra,0x0
  ba:	000080e7          	jalr	ra # b6 <.L455+0x1a>
  be:	1559c783          	lbu	a5,341(s3)
  c2:	471d                	li	a4,7
  c4:	86aa                	mv	a3,a0
  c6:	00f76863          	bltu	a4,a5,d6 <.L456>
  ca:	02e78793          	add	a5,a5,46
  ce:	0ff7fe13          	zext.b	t3,a5

000000d2 <.L579>:
  d2:	4701                	li	a4,0
  d4:	a811                	j	e8 <.L457>

000000d6 <.L456>:
  d6:	4721                	li	a4,8
  d8:	0ee78a63          	beq	a5,a4,1cc <.L497>
  dc:	17e9                	add	a5,a5,-6
  de:	01079713          	sll	a4,a5,0x10
  e2:	8341                	srl	a4,a4,0x10
  e4:	03600e13          	li	t3,54

000000e8 <.L457>:
  e8:	54dc                	lw	a5,44(s1)
  ea:	4e81                	li	t4,0
  ec:	c399                	beqz	a5,f2 <.L458>
  ee:	0007de83          	lhu	t4,0(a5)

000000f2 <.L458>:
  f2:	40bc                	lw	a5,64(s1)
  f4:	eff9                	bnez	a5,1d2 <.L499>
  f6:	58d0                	lw	a2,52(s1)
  f8:	4581                	li	a1,0
  fa:	c219                	beqz	a2,100 <.L460>
  fc:	00065583          	lhu	a1,0(a2)

00000100 <.L460>:
 100:	5c90                	lw	a2,56(s1)
 102:	c219                	beqz	a2,108 <.L459>
 104:	00065603          	lhu	a2,0(a2)

00000108 <.L459>:
 108:	50e8                	lw	a0,100(s1)
 10a:	4301                	li	t1,0
 10c:	c119                	beqz	a0,112 <.L461>
 10e:	00055303          	lhu	t1,0(a0)

00000112 <.L461>:
 112:	4881                	li	a7,0
 114:	c399                	beqz	a5,11a <.L462>
 116:	0007d883          	lhu	a7,0(a5)

0000011a <.L462>:
 11a:	58fc                	lw	a5,116(s1)
 11c:	3e079363          	bnez	a5,502 <.L463>
 120:	4801                	li	a6,0

00000122 <.L580>:
 122:	4501                	li	a0,0

00000124 <.L495>:
 124:	0944a783          	lw	a5,148(s1)
 128:	4401                	li	s0,0
 12a:	cb81                	beqz	a5,13a <.L464>
 12c:	0047af03          	lw	t5,4(a5)
 130:	000f0563          	beqz	t5,13a <.L464>
 134:	0087c403          	lbu	s0,8(a5)
 138:	0429                	add	s0,s0,10

0000013a <.L464>:
 13a:	2744a783          	lw	a5,628(s1)
 13e:	96e6                	add	a3,a3,s9
 140:	00f037b3          	snez	a5,a5
 144:	0796                	sll	a5,a5,0x5
 146:	97b6                	add	a5,a5,a3
 148:	97ba                	add	a5,a5,a4
 14a:	97f2                	add	a5,a5,t3
 14c:	97f6                	add	a5,a5,t4
 14e:	97ae                	add	a5,a5,a1
 150:	97b2                	add	a5,a5,a2
 152:	979a                	add	a5,a5,t1
 154:	97c6                	add	a5,a5,a7
 156:	97c2                	add	a5,a5,a6
 158:	97aa                	add	a5,a5,a0
 15a:	1fd4c703          	lbu	a4,509(s1)
 15e:	943e                	add	s0,s0,a5
 160:	0442                	sll	s0,s0,0x10
 162:	47bd                	li	a5,15
 164:	8041                	srl	s0,s0,0x10
 166:	06f70963          	beq	a4,a5,1d8 <.L465>
 16a:	06a40413          	add	s0,s0,106

0000016e <.L581>:
 16e:	0442                	sll	s0,s0,0x10
 170:	100afc93          	and	s9,s5,256
 174:	8041                	srl	s0,s0,0x10
 176:	060c9a63          	bnez	s9,1ea <.L467>
 17a:	042d                	add	s0,s0,11

0000017c <.L582>:
 17c:	0442                	sll	s0,s0,0x10
 17e:	8041                	srl	s0,s0,0x10
 180:	8622                	mv	a2,s0
 182:	45e1                	li	a1,24
 184:	0048                	add	a0,sp,4
 186:	00000097          	auipc	ra,0x0
 18a:	000080e7          	jalr	ra # 186 <.L582+0xa>
 18e:	8d2a                	mv	s10,a0
 190:	ed39                	bnez	a0,1ee <.L469>
 192:	000006b7          	lui	a3,0x0
 196:	8722                	mv	a4,s0
 198:	00068693          	mv	a3,a3
 19c:	4609                	li	a2,2
 19e:	04000593          	li	a1,64
 1a2:	4505                	li	a0,1
 1a4:	00000097          	auipc	ra,0x0
 1a8:	000080e7          	jalr	ra # 1a4 <.L582+0x28>

000001ac <.L451>:
 1ac:	40b6                	lw	ra,76(sp)
 1ae:	4426                	lw	s0,72(sp)
 1b0:	4496                	lw	s1,68(sp)
 1b2:	4906                	lw	s2,64(sp)
 1b4:	59f2                	lw	s3,60(sp)
 1b6:	5a62                	lw	s4,56(sp)
 1b8:	5ad2                	lw	s5,52(sp)
 1ba:	5b42                	lw	s6,48(sp)
 1bc:	5bb2                	lw	s7,44(sp)
 1be:	5c22                	lw	s8,40(sp)
 1c0:	5c92                	lw	s9,36(sp)
 1c2:	4df2                	lw	s11,28(sp)
 1c4:	856a                	mv	a0,s10
 1c6:	5d02                	lw	s10,32(sp)
 1c8:	6161                	add	sp,sp,80
 1ca:	8082                	ret

000001cc <.L497>:
 1cc:	03600e13          	li	t3,54
 1d0:	b709                	j	d2 <.L579>

000001d2 <.L499>:
 1d2:	4581                	li	a1,0
 1d4:	4601                	li	a2,0
 1d6:	bf0d                	j	108 <.L459>

000001d8 <.L465>:
 1d8:	000007b7          	lui	a5,0x0
 1dc:	02500713          	li	a4,37
 1e0:	00e78023          	sb	a4,0(a5) # 0 <ieee80211_assoc_req_construct>
 1e4:	08f40413          	add	s0,s0,143
 1e8:	b759                	j	16e <.L581>

000001ea <.L467>:
 1ea:	043d                	add	s0,s0,15
 1ec:	bf41                	j	17c <.L582>

000001ee <.L469>:
 1ee:	4d92                	lw	s11,4(sp)
 1f0:	47e1                	li	a5,24
 1f2:	00f51a23          	sh	a5,20(a0)
 1f6:	000b2783          	lw	a5,0(s6)
 1fa:	015d9023          	sh	s5,0(s11)
 1fe:	004d8513          	add	a0,s11,4
 202:	09a7d783          	lhu	a5,154(a5)
 206:	00fd9123          	sh	a5,2(s11)
 20a:	c22a                	sw	a0,4(sp)
 20c:	02000793          	li	a5,32
 210:	00fb9b63          	bne	s7,a5,226 <.L471>
 214:	4619                	li	a2,6
 216:	00490593          	add	a1,s2,4
 21a:	0da9                	add	s11,s11,10
 21c:	00000097          	auipc	ra,0x0
 220:	000080e7          	jalr	ra # 21c <.L469+0x2e>
 224:	c26e                	sw	s11,4(sp)

00000226 <.L471>:
 226:	4792                	lw	a5,4(sp)
 228:	000a2a83          	lw	s5,0(s4)
 22c:	00078023          	sb	zero,0(a5)
 230:	015780a3          	sb	s5,1(a5)
 234:	00278713          	add	a4,a5,2
 238:	000a8b63          	beqz	s5,24e <.L472>
 23c:	853a                	mv	a0,a4
 23e:	8656                	mv	a2,s5
 240:	004a0593          	add	a1,s4,4
 244:	00000097          	auipc	ra,0x0
 248:	000080e7          	jalr	ra # 244 <.L471+0x1e>
 24c:	872a                	mv	a4,a0

0000024e <.L472>:
 24e:	07390a13          	add	s4,s2,115
 252:	01570533          	add	a0,a4,s5
 256:	85d2                	mv	a1,s4
 258:	00000097          	auipc	ra,0x0
 25c:	000080e7          	jalr	ra # 258 <.L472+0xa>
 260:	1fd4c683          	lbu	a3,509(s1)
 264:	c22a                	sw	a0,4(sp)
 266:	47c1                	li	a5,16
 268:	872a                	mv	a4,a0
 26a:	02d7fb63          	bgeu	a5,a3,2a0 <.L473>
 26e:	47c5                	li	a5,17
 270:	04f69763          	bne	a3,a5,2be <.L475>

00000274 <.L474>:
 274:	0384aa83          	lw	s5,56(s1)
 278:	040a8363          	beqz	s5,2be <.L475>
 27c:	40bc                	lw	a5,64(s1)
 27e:	e3a1                	bnez	a5,2be <.L475>
 280:	003ac603          	lbu	a2,3(s5)
 284:	002a8593          	add	a1,s5,2
 288:	853a                	mv	a0,a4
 28a:	0609                	add	a2,a2,2
 28c:	00000097          	auipc	ra,0x0
 290:	000080e7          	jalr	ra # 28c <.L474+0x18>
 294:	003ac783          	lbu	a5,3(s5)
 298:	0789                	add	a5,a5,2
 29a:	97aa                	add	a5,a5,a0
 29c:	c23e                	sw	a5,4(sp)
 29e:	a005                	j	2be <.L475>

000002a0 <.L473>:
 2a0:	77a9                	lui	a5,0xfffea
 2a2:	84f78793          	add	a5,a5,-1969 # fffe984f <.L463+0xfffe934d>
 2a6:	40d7d7b3          	sra	a5,a5,a3
 2aa:	8b85                	and	a5,a5,1
 2ac:	d7e1                	beqz	a5,274 <.L474>
 2ae:	47bd                	li	a5,15
 2b0:	00f69763          	bne	a3,a5,2be <.L475>
 2b4:	000b2783          	lw	a5,0(s6)
 2b8:	4157c783          	lbu	a5,1045(a5)
 2bc:	ffc5                	bnez	a5,274 <.L474>

000002be <.L475>:
 2be:	000c8963          	beqz	s9,2d0 <.L477>
 2c2:	4512                	lw	a0,4(sp)
 2c4:	85ca                	mv	a1,s2
 2c6:	00000097          	auipc	ra,0x0
 2ca:	000080e7          	jalr	ra # 2c6 <.L475+0x8>
 2ce:	c22a                	sw	a0,4(sp)

000002d0 <.L477>:
 2d0:	4512                	lw	a0,4(sp)
 2d2:	85d2                	mv	a1,s4
 2d4:	00000097          	auipc	ra,0x0
 2d8:	000080e7          	jalr	ra # 2d4 <.L477+0x4>
 2dc:	1449a703          	lw	a4,324(s3)
 2e0:	000807b7          	lui	a5,0x80
 2e4:	c22a                	sw	a0,4(sp)
 2e6:	8ff9                	and	a5,a5,a4
 2e8:	c395                	beqz	a5,30c <.L479>
 2ea:	00c92783          	lw	a5,12(s2)
 2ee:	0c07f793          	and	a5,a5,192
 2f2:	cf89                	beqz	a5,30c <.L479>
 2f4:	00000097          	auipc	ra,0x0
 2f8:	000080e7          	jalr	ra # 2f4 <.L477+0x24>
 2fc:	c901                	beqz	a0,30c <.L479>
 2fe:	4512                	lw	a0,4(sp)
 300:	85ca                	mv	a1,s2
 302:	00000097          	auipc	ra,0x0
 306:	000080e7          	jalr	ra # 302 <.L477+0x32>
 30a:	c22a                	sw	a0,4(sp)

0000030c <.L479>:
 30c:	00000097          	auipc	ra,0x0
 310:	000080e7          	jalr	ra # 30c <.L479>
 314:	c901                	beqz	a0,324 <.L481>
 316:	4512                	lw	a0,4(sp)
 318:	85ca                	mv	a1,s2
 31a:	00000097          	auipc	ra,0x0
 31e:	000080e7          	jalr	ra # 31a <.L479+0xe>
 322:	c22a                	sw	a0,4(sp)

00000324 <.L481>:
 324:	00000097          	auipc	ra,0x0
 328:	000080e7          	jalr	ra # 324 <.L481>
 32c:	c905                	beqz	a0,35c <.L482>
 32e:	0344aa03          	lw	s4,52(s1)
 332:	020a0563          	beqz	s4,35c <.L482>
 336:	40bc                	lw	a5,64(s1)
 338:	e395                	bnez	a5,35c <.L482>
 33a:	4792                	lw	a5,4(sp)
 33c:	003a4603          	lbu	a2,3(s4)
 340:	002a0593          	add	a1,s4,2
 344:	853e                	mv	a0,a5
 346:	0609                	add	a2,a2,2
 348:	00000097          	auipc	ra,0x0
 34c:	000080e7          	jalr	ra # 348 <.L481+0x24>
 350:	003a4703          	lbu	a4,3(s4)
 354:	0709                	add	a4,a4,2 # 2 <ieee80211_assoc_req_construct+0x2>
 356:	00e507b3          	add	a5,a0,a4
 35a:	c23e                	sw	a5,4(sp)

0000035c <.L482>:
 35c:	1fc4c703          	lbu	a4,508(s1)
 360:	479d                	li	a5,7
 362:	00f70a63          	beq	a4,a5,376 <.L483>
 366:	1fd4c783          	lbu	a5,509(s1)
 36a:	4705                	li	a4,1
 36c:	17d5                	add	a5,a5,-11 # 7fff5 <.L463+0x7faf3>
 36e:	0ff7f793          	zext.b	a5,a5
 372:	00f76c63          	bltu	a4,a5,38a <.L484>

00000376 <.L483>:
 376:	2744a783          	lw	a5,628(s1)
 37a:	cb81                	beqz	a5,38a <.L484>
 37c:	479c                	lw	a5,8(a5)
 37e:	c791                	beqz	a5,38a <.L484>
 380:	4512                	lw	a0,4(sp)
 382:	9782                	jalr	a5
 384:	4792                	lw	a5,4(sp)
 386:	97aa                	add	a5,a5,a0
 388:	c23e                	sw	a5,4(sp)

0000038a <.L484>:
 38a:	1fd4c703          	lbu	a4,509(s1)
 38e:	47bd                	li	a5,15
 390:	00f71d63          	bne	a4,a5,3aa <.L485>
 394:	000b2783          	lw	a5,0(s6)
 398:	4157c783          	lbu	a5,1045(a5)
 39c:	c799                	beqz	a5,3aa <.L485>
 39e:	4512                	lw	a0,4(sp)
 3a0:	00000097          	auipc	ra,0x0
 3a4:	000080e7          	jalr	ra # 3a0 <.L484+0x16>
 3a8:	c22a                	sw	a0,4(sp)

000003aa <.L485>:
 3aa:	0a49a703          	lw	a4,164(s3)
 3ae:	6789                	lui	a5,0x2
 3b0:	8ff9                	and	a5,a5,a4
 3b2:	c39d                	beqz	a5,3d8 <.L486>
 3b4:	00c92783          	lw	a5,12(s2)
 3b8:	8b89                	and	a5,a5,2
 3ba:	cf99                	beqz	a5,3d8 <.L486>
 3bc:	4792                	lw	a5,4(sp)
 3be:	000005b7          	lui	a1,0x0
 3c2:	4625                	li	a2,9
 3c4:	853e                	mv	a0,a5
 3c6:	00058593          	mv	a1,a1
 3ca:	00000097          	auipc	ra,0x0
 3ce:	000080e7          	jalr	ra # 3ca <.L485+0x20>
 3d2:	00950793          	add	a5,a0,9
 3d6:	c23e                	sw	a5,4(sp)

000003d8 <.L486>:
 3d8:	1449a703          	lw	a4,324(s3)
 3dc:	100007b7          	lui	a5,0x10000
 3e0:	8ff9                	and	a5,a5,a4
 3e2:	cf89                	beqz	a5,3fc <.L487>
 3e4:	00c92783          	lw	a5,12(s2)
 3e8:	0c07f793          	and	a5,a5,192
 3ec:	cb81                	beqz	a5,3fc <.L487>
 3ee:	4512                	lw	a0,4(sp)
 3f0:	85ca                	mv	a1,s2
 3f2:	00000097          	auipc	ra,0x0
 3f6:	000080e7          	jalr	ra # 3f2 <.L486+0x1a>
 3fa:	c22a                	sw	a0,4(sp)

000003fc <.L487>:
 3fc:	50ec                	lw	a1,100(s1)
 3fe:	c599                	beqz	a1,40c <.L488>
 400:	4512                	lw	a0,4(sp)
 402:	00000097          	auipc	ra,0x0
 406:	000080e7          	jalr	ra # 402 <.L487+0x6>
 40a:	c22a                	sw	a0,4(sp)

0000040c <.L488>:
 40c:	4512                	lw	a0,4(sp)
 40e:	000c0593          	mv	a1,s8
 412:	00000097          	auipc	ra,0x0
 416:	000080e7          	jalr	ra # 412 <.L488+0x6>
 41a:	85ca                	mv	a1,s2
 41c:	c22a                	sw	a0,4(sp)
 41e:	00000097          	auipc	ra,0x0
 422:	000080e7          	jalr	ra # 41e <.L488+0x12>
 426:	40ac                	lw	a1,64(s1)
 428:	c22a                	sw	a0,4(sp)
 42a:	cd91                	beqz	a1,446 <.L489>
 42c:	000007b7          	lui	a5,0x0
 430:	0007a783          	lw	a5,0(a5) # 0 <ieee80211_assoc_req_construct>
 434:	4798                	lw	a4,8(a5)
 436:	4789                	li	a5,2
 438:	00f71763          	bne	a4,a5,446 <.L489>
 43c:	00000097          	auipc	ra,0x0
 440:	000080e7          	jalr	ra # 43c <.L488+0x30>
 444:	c22a                	sw	a0,4(sp)

00000446 <.L489>:
 446:	58fc                	lw	a5,116(s1)
 448:	c3a1                	beqz	a5,488 <.L490>
 44a:	002c                	add	a1,sp,8
 44c:	4501                	li	a0,0
 44e:	00000937          	lui	s2,0x0
 452:	c402                	sw	zero,8(sp)
 454:	00011623          	sh	zero,12(sp)
 458:	00090913          	mv	s2,s2
 45c:	00000097          	auipc	ra,0x0
 460:	000080e7          	jalr	ra # 45c <.L489+0x16>
 464:	03c92783          	lw	a5,60(s2) # 3c <.L452+0xa>
 468:	4512                	lw	a0,4(sp)
 46a:	002c                	add	a1,sp,8
 46c:	9782                	jalr	a5
 46e:	000007b7          	lui	a5,0x0
 472:	0007a783          	lw	a5,0(a5) # 0 <ieee80211_assoc_req_construct>
 476:	c22a                	sw	a0,4(sp)
 478:	85aa                	mv	a1,a0
 47a:	c799                	beqz	a5,488 <.L490>
 47c:	04892783          	lw	a5,72(s2)
 480:	0030                	add	a2,sp,8
 482:	4501                	li	a0,0
 484:	9782                	jalr	a5
 486:	c22a                	sw	a0,4(sp)

00000488 <.L490>:
 488:	0944a583          	lw	a1,148(s1)
 48c:	cd81                	beqz	a1,4a4 <.L492>
 48e:	41d0                	lw	a2,4(a1)
 490:	ca11                	beqz	a2,4a4 <.L492>
 492:	0085c683          	lbu	a3,8(a1) # 8 <ieee80211_assoc_req_construct+0x8>
 496:	4512                	lw	a0,4(sp)
 498:	0585                	add	a1,a1,1
 49a:	00000097          	auipc	ra,0x0
 49e:	000080e7          	jalr	ra # 49a <.L490+0x12>
 4a2:	c22a                	sw	a0,4(sp)

000004a4 <.L492>:
 4a4:	4512                	lw	a0,4(sp)
 4a6:	458d                	li	a1,3
 4a8:	00000097          	auipc	ra,0x0
 4ac:	000080e7          	jalr	ra # 4a8 <.L492+0x4>
 4b0:	458d                	li	a1,3
 4b2:	c22a                	sw	a0,4(sp)
 4b4:	00000097          	auipc	ra,0x0
 4b8:	000080e7          	jalr	ra # 4b4 <.L492+0x10>
 4bc:	004d2783          	lw	a5,4(s10)
 4c0:	014d5703          	lhu	a4,20(s10)
 4c4:	c22a                	sw	a0,4(sp)
 4c6:	43dc                	lw	a5,4(a5)
 4c8:	97ba                	add	a5,a5,a4
 4ca:	8d1d                	sub	a0,a0,a5
 4cc:	01051793          	sll	a5,a0,0x10
 4d0:	83c1                	srl	a5,a5,0x10
 4d2:	00fd1b23          	sh	a5,22(s10)
 4d6:	ccf47be3          	bgeu	s0,a5,1ac <.L451>
 4da:	6585                	lui	a1,0x1
 4dc:	00000737          	lui	a4,0x0
 4e0:	000006b7          	lui	a3,0x0
 4e4:	f2258793          	add	a5,a1,-222 # f22 <.L463+0xa20>
 4e8:	00070713          	mv	a4,a4
 4ec:	00068693          	mv	a3,a3
 4f0:	4605                	li	a2,1
 4f2:	80058593          	add	a1,a1,-2048
 4f6:	4505                	li	a0,1
 4f8:	00000097          	auipc	ra,0x0
 4fc:	000080e7          	jalr	ra # 4f8 <.L492+0x54>

00000500 <.L493>:
 500:	a001                	j	500 <.L493>

00000502 <.L463>:
 502:	000007b7          	lui	a5,0x0
 506:	0007a783          	lw	a5,0(a5) # 0 <ieee80211_assoc_req_construct>
 50a:	04700813          	li	a6,71
 50e:	02700513          	li	a0,39
 512:	c00799e3          	bnez	a5,124 <.L495>
 516:	b131                	j	122 <.L580>

Disassembly of section .text.ieee80211_assoc_resp_construct:

00000000 <ieee80211_assoc_resp_construct>:
   0:	7139                	add	sp,sp,-64
   2:	de06                	sw	ra,60(sp)
   4:	dc22                	sw	s0,56(sp)
   6:	da26                	sw	s1,52(sp)
   8:	d84a                	sw	s2,48(sp)
   a:	d64e                	sw	s3,44(sp)
   c:	d452                	sw	s4,40(sp)
   e:	d256                	sw	s5,36(sp)
  10:	d05a                	sw	s6,32(sp)
  12:	c501                	beqz	a0,1a <.L584>
  14:	4104                	lw	s1,0(a0)
  16:	842a                	mv	s0,a0
  18:	e48d                	bnez	s1,42 <.L585>

0000001a <.L584>:
  1a:	6585                	lui	a1,0x1
  1c:	00000737          	lui	a4,0x0
  20:	000006b7          	lui	a3,0x0
  24:	f3258793          	add	a5,a1,-206 # f32 <.L463+0xa30>
  28:	00070713          	mv	a4,a4
  2c:	00068693          	mv	a3,a3
  30:	4605                	li	a2,1
  32:	80058593          	add	a1,a1,-2048
  36:	4505                	li	a0,1
  38:	00000097          	auipc	ra,0x0
  3c:	000080e7          	jalr	ra # 38 <.L584+0x1e>

00000040 <.L586>:
  40:	a001                	j	40 <.L586>

00000042 <.L585>:
  42:	4511                	li	a0,4
  44:	89ae                	mv	s3,a1
  46:	00000097          	auipc	ra,0x0
  4a:	000080e7          	jalr	ra # 46 <.L585+0x4>
  4e:	8aaa                	mv	s5,a0
  50:	4511                	li	a0,4
  52:	00000097          	auipc	ra,0x0
  56:	000080e7          	jalr	ra # 52 <.L585+0x10>
  5a:	1554c703          	lbu	a4,341(s1)
  5e:	469d                	li	a3,7
  60:	87aa                	mv	a5,a0
  62:	00e6e763          	bltu	a3,a4,70 <.L587>
  66:	0721                	add	a4,a4,8 # 8 <ieee80211_assoc_resp_construct+0x8>
  68:	0ff77513          	zext.b	a0,a4

0000006c <.L661>:
  6c:	4681                	li	a3,0
  6e:	a809                	j	80 <.L588>

00000070 <.L587>:
  70:	46a1                	li	a3,8
  72:	04d70663          	beq	a4,a3,be <.L612>
  76:	1769                	add	a4,a4,-6
  78:	01071693          	sll	a3,a4,0x10
  7c:	82c1                	srl	a3,a3,0x10
  7e:	4541                	li	a0,16

00000080 <.L588>:
  80:	2284c703          	lbu	a4,552(s1)
  84:	4e15                	li	t3,5
  86:	e311                	bnez	a4,8a <.L589>
  88:	4e01                	li	t3,0

0000008a <.L589>:
  8a:	00000a37          	lui	s4,0x0
  8e:	000a0713          	mv	a4,s4
  92:	5738                	lw	a4,104(a4)
  94:	000a0913          	mv	s2,s4
  98:	4e81                	li	t4,0
  9a:	c319                	beqz	a4,a0 <.L590>
  9c:	00075e83          	lhu	t4,0(a4)

000000a0 <.L590>:
  a0:	07492703          	lw	a4,116(s2)
  a4:	4881                	li	a7,0
  a6:	c305                	beqz	a4,c6 <.L662>
  a8:	00000737          	lui	a4,0x0
  ac:	00072703          	lw	a4,0(a4) # 0 <ieee80211_assoc_resp_construct>
  b0:	48dd                	li	a7,23
  b2:	cb01                	beqz	a4,c2 <.L620>
  b4:	04700713          	li	a4,71
  b8:	02700813          	li	a6,39
  bc:	a031                	j	c8 <.L611>

000000be <.L612>:
  be:	4541                	li	a0,16
  c0:	b775                	j	6c <.L661>

000000c2 <.L620>:
  c2:	04700713          	li	a4,71

000000c6 <.L662>:
  c6:	4801                	li	a6,0

000000c8 <.L611>:
  c8:	03092603          	lw	a2,48(s2)
  cc:	4581                	li	a1,0
  ce:	c219                	beqz	a2,d4 <.L592>
  d0:	00065583          	lhu	a1,0(a2)

000000d4 <.L592>:
  d4:	09892303          	lw	t1,152(s2)
  d8:	4601                	li	a2,0
  da:	00030963          	beqz	t1,ec <.L593>
  de:	00432f03          	lw	t5,4(t1)
  e2:	000f0563          	beqz	t5,ec <.L593>
  e6:	00834603          	lbu	a2,8(t1)
  ea:	0629                	add	a2,a2,10

000000ec <.L593>:
  ec:	4379                	li	t1,30
  ee:	4b1d                	li	s6,7
  f0:	00698363          	beq	s3,t1,f6 <.L594>
  f4:	4b01                	li	s6,0

000000f6 <.L594>:
  f6:	97d6                	add	a5,a5,s5
  f8:	06478793          	add	a5,a5,100
  fc:	97b6                	add	a5,a5,a3
  fe:	97aa                	add	a5,a5,a0
 100:	97f2                	add	a5,a5,t3
 102:	97f6                	add	a5,a5,t4
 104:	973e                	add	a4,a4,a5
 106:	9746                	add	a4,a4,a7
 108:	9742                	add	a4,a4,a6
 10a:	95ba                	add	a1,a1,a4
 10c:	962e                	add	a2,a2,a1
 10e:	9b32                	add	s6,s6,a2
 110:	0b42                	sll	s6,s6,0x10
 112:	010b5b13          	srl	s6,s6,0x10
 116:	865a                	mv	a2,s6
 118:	45e1                	li	a1,24
 11a:	0848                	add	a0,sp,20
 11c:	00000097          	auipc	ra,0x0
 120:	000080e7          	jalr	ra # 11c <.L594+0x26>
 124:	8aaa                	mv	s5,a0
 126:	e90d                	bnez	a0,158 <.L595>
 128:	000006b7          	lui	a3,0x0
 12c:	875a                	mv	a4,s6
 12e:	00068693          	mv	a3,a3
 132:	4609                	li	a2,2
 134:	04000593          	li	a1,64
 138:	4505                	li	a0,1
 13a:	00000097          	auipc	ra,0x0
 13e:	000080e7          	jalr	ra # 13a <.L594+0x44>

00000142 <.L583>:
 142:	50f2                	lw	ra,60(sp)
 144:	5462                	lw	s0,56(sp)
 146:	54d2                	lw	s1,52(sp)
 148:	5942                	lw	s2,48(sp)
 14a:	59b2                	lw	s3,44(sp)
 14c:	5a22                	lw	s4,40(sp)
 14e:	5b02                	lw	s6,32(sp)
 150:	8556                	mv	a0,s5
 152:	5a92                	lw	s5,36(sp)
 154:	6121                	add	sp,sp,64
 156:	8082                	ret

00000158 <.L595>:
 158:	47e1                	li	a5,24
 15a:	00f51a23          	sh	a5,20(a0)
 15e:	8522                	mv	a0,s0
 160:	00000097          	auipc	ra,0x0
 164:	000080e7          	jalr	ra # 160 <.L595+0x8>
 168:	47d2                	lw	a5,20(sp)
 16a:	4701                	li	a4,0
 16c:	00a79023          	sh	a0,0(a5)
 170:	01379123          	sh	s3,2(a5)
 174:	00099463          	bnez	s3,17c <.L597>
 178:	02645703          	lhu	a4,38(s0)

0000017c <.L597>:
 17c:	00e79223          	sh	a4,4(a5)
 180:	07340593          	add	a1,s0,115
 184:	00678513          	add	a0,a5,6
 188:	c62e                	sw	a1,12(sp)
 18a:	00000097          	auipc	ra,0x0
 18e:	000080e7          	jalr	ra # 18a <.L597+0xe>
 192:	45b2                	lw	a1,12(sp)
 194:	00000097          	auipc	ra,0x0
 198:	000080e7          	jalr	ra # 194 <.L597+0x18>
 19c:	1544c783          	lbu	a5,340(s1)
 1a0:	ca2a                	sw	a0,20(sp)
 1a2:	4705                	li	a4,1
 1a4:	17f9                	add	a5,a5,-2
 1a6:	0ff7f793          	zext.b	a5,a5
 1aa:	02f76e63          	bltu	a4,a5,1e6 <.L598>
 1ae:	03144783          	lbu	a5,49(s0)
 1b2:	17f9                	add	a5,a5,-2
 1b4:	0ff7f793          	zext.b	a5,a5
 1b8:	02f76763          	bltu	a4,a5,1e6 <.L598>
 1bc:	02a00793          	li	a5,42
 1c0:	00f50023          	sb	a5,0(a0)
 1c4:	00e500a3          	sb	a4,1(a0)
 1c8:	01c92703          	lw	a4,28(s2)
 1cc:	002006b7          	lui	a3,0x200
 1d0:	01375793          	srl	a5,a4,0x13
 1d4:	8f75                	and	a4,a4,a3
 1d6:	8b89                	and	a5,a5,2
 1d8:	c319                	beqz	a4,1de <.L599>
 1da:	0047e793          	or	a5,a5,4

000001de <.L599>:
 1de:	00f50123          	sb	a5,2(a0)
 1e2:	050d                	add	a0,a0,3
 1e4:	ca2a                	sw	a0,20(sp)

000001e6 <.L598>:
 1e6:	1444a703          	lw	a4,324(s1)
 1ea:	000807b7          	lui	a5,0x80
 1ee:	8ff9                	and	a5,a5,a4
 1f0:	c395                	beqz	a5,214 <.L600>
 1f2:	445c                	lw	a5,12(s0)
 1f4:	0407f793          	and	a5,a5,64
 1f8:	cf91                	beqz	a5,214 <.L600>
 1fa:	4552                	lw	a0,20(sp)
 1fc:	85a2                	mv	a1,s0
 1fe:	00000097          	auipc	ra,0x0
 202:	000080e7          	jalr	ra # 1fe <.L598+0x18>
 206:	85a2                	mv	a1,s0
 208:	ca2a                	sw	a0,20(sp)
 20a:	00000097          	auipc	ra,0x0
 20e:	000080e7          	jalr	ra # 20a <.L598+0x24>
 212:	ca2a                	sw	a0,20(sp)

00000214 <.L600>:
 214:	2284c783          	lbu	a5,552(s1)
 218:	c39d                	beqz	a5,23e <.L601>
 21a:	33245783          	lhu	a5,818(s0)
 21e:	c385                	beqz	a5,23e <.L601>
 220:	22a4d683          	lhu	a3,554(s1)
 224:	4552                	lw	a0,20(sp)
 226:	8736                	mv	a4,a3
 228:	00d7f363          	bgeu	a5,a3,22e <.L602>
 22c:	873e                	mv	a4,a5

0000022e <.L602>:
 22e:	32e41923          	sh	a4,818(s0)
 232:	85a2                	mv	a1,s0
 234:	00000097          	auipc	ra,0x0
 238:	000080e7          	jalr	ra # 234 <.L602+0x6>
 23c:	ca2a                	sw	a0,20(sp)

0000023e <.L601>:
 23e:	4552                	lw	a0,20(sp)
 240:	85a2                	mv	a1,s0
 242:	00000097          	auipc	ra,0x0
 246:	000080e7          	jalr	ra # 242 <.L601+0x4>
 24a:	0a44a703          	lw	a4,164(s1)
 24e:	6789                	lui	a5,0x2
 250:	ca2a                	sw	a0,20(sp)
 252:	8ff9                	and	a5,a5,a4
 254:	cb91                	beqz	a5,268 <.L603>
 256:	445c                	lw	a5,12(s0)
 258:	8b89                	and	a5,a5,2
 25a:	c799                	beqz	a5,268 <.L603>
 25c:	4581                	li	a1,0
 25e:	00000097          	auipc	ra,0x0
 262:	000080e7          	jalr	ra # 25e <.L601+0x20>
 266:	ca2a                	sw	a0,20(sp)

00000268 <.L603>:
 268:	445c                	lw	a5,12(s0)
 26a:	0c000713          	li	a4,192
 26e:	0c07f793          	and	a5,a5,192
 272:	00e79f63          	bne	a5,a4,290 <.L604>
 276:	4552                	lw	a0,20(sp)
 278:	85a2                	mv	a1,s0
 27a:	00000097          	auipc	ra,0x0
 27e:	000080e7          	jalr	ra # 27a <.L603+0x12>
 282:	85a2                	mv	a1,s0
 284:	ca2a                	sw	a0,20(sp)
 286:	00000097          	auipc	ra,0x0
 28a:	000080e7          	jalr	ra # 286 <.L603+0x1e>
 28e:	ca2a                	sw	a0,20(sp)

00000290 <.L604>:
 290:	06892583          	lw	a1,104(s2)
 294:	c599                	beqz	a1,2a2 <.L605>
 296:	4552                	lw	a0,20(sp)
 298:	00000097          	auipc	ra,0x0
 29c:	000080e7          	jalr	ra # 298 <.L604+0x8>
 2a0:	ca2a                	sw	a0,20(sp)

000002a2 <.L605>:
 2a2:	47f9                	li	a5,30
 2a4:	00f99963          	bne	s3,a5,2b6 <.L606>
 2a8:	4552                	lw	a0,20(sp)
 2aa:	85a2                	mv	a1,s0
 2ac:	00000097          	auipc	ra,0x0
 2b0:	000080e7          	jalr	ra # 2ac <.L605+0xa>
 2b4:	ca2a                	sw	a0,20(sp)

000002b6 <.L606>:
 2b6:	07492783          	lw	a5,116(s2)
 2ba:	c3b1                	beqz	a5,2fe <.L607>
 2bc:	082c                	add	a1,sp,24
 2be:	4505                	li	a0,1
 2c0:	00000437          	lui	s0,0x0
 2c4:	00040413          	mv	s0,s0
 2c8:	cc02                	sw	zero,24(sp)
 2ca:	00011e23          	sh	zero,28(sp)
 2ce:	00000097          	auipc	ra,0x0
 2d2:	000080e7          	jalr	ra # 2ce <.L606+0x18>
 2d6:	5c5c                	lw	a5,60(s0)
 2d8:	4552                	lw	a0,20(sp)
 2da:	082c                	add	a1,sp,24
 2dc:	9782                	jalr	a5
 2de:	403c                	lw	a5,64(s0)
 2e0:	082c                	add	a1,sp,24
 2e2:	ca2a                	sw	a0,20(sp)
 2e4:	9782                	jalr	a5
 2e6:	000007b7          	lui	a5,0x0
 2ea:	0007a783          	lw	a5,0(a5) # 0 <ieee80211_assoc_resp_construct>
 2ee:	ca2a                	sw	a0,20(sp)
 2f0:	85aa                	mv	a1,a0
 2f2:	c791                	beqz	a5,2fe <.L607>
 2f4:	443c                	lw	a5,72(s0)
 2f6:	0830                	add	a2,sp,24
 2f8:	4541                	li	a0,16
 2fa:	9782                	jalr	a5
 2fc:	ca2a                	sw	a0,20(sp)

000002fe <.L607>:
 2fe:	4552                	lw	a0,20(sp)
 300:	000a0593          	mv	a1,s4
 304:	00000097          	auipc	ra,0x0
 308:	000080e7          	jalr	ra # 304 <.L607+0x6>
 30c:	09892583          	lw	a1,152(s2)
 310:	ca2a                	sw	a0,20(sp)
 312:	c999                	beqz	a1,328 <.L609>
 314:	41d0                	lw	a2,4(a1)
 316:	ca09                	beqz	a2,328 <.L609>
 318:	0085c683          	lbu	a3,8(a1)
 31c:	0585                	add	a1,a1,1
 31e:	00000097          	auipc	ra,0x0
 322:	000080e7          	jalr	ra # 31e <.L607+0x20>
 326:	ca2a                	sw	a0,20(sp)

00000328 <.L609>:
 328:	4552                	lw	a0,20(sp)
 32a:	4591                	li	a1,4
 32c:	00000097          	auipc	ra,0x0
 330:	000080e7          	jalr	ra # 32c <.L609+0x4>
 334:	4591                	li	a1,4
 336:	ca2a                	sw	a0,20(sp)
 338:	00000097          	auipc	ra,0x0
 33c:	000080e7          	jalr	ra # 338 <.L609+0x10>
 340:	004aa783          	lw	a5,4(s5)
 344:	014ad703          	lhu	a4,20(s5)
 348:	ca2a                	sw	a0,20(sp)
 34a:	43dc                	lw	a5,4(a5)
 34c:	97ba                	add	a5,a5,a4
 34e:	40f507b3          	sub	a5,a0,a5
 352:	07c2                	sll	a5,a5,0x10
 354:	83c1                	srl	a5,a5,0x10
 356:	00fa9b23          	sh	a5,22(s5)
 35a:	defb74e3          	bgeu	s6,a5,142 <.L583>
 35e:	6585                	lui	a1,0x1
 360:	00000737          	lui	a4,0x0
 364:	000006b7          	lui	a3,0x0
 368:	fec58793          	add	a5,a1,-20 # fec <.L463+0xaea>
 36c:	00070713          	mv	a4,a4
 370:	00068693          	mv	a3,a3
 374:	4605                	li	a2,1
 376:	80058593          	add	a1,a1,-2048
 37a:	4505                	li	a0,1
 37c:	00000097          	auipc	ra,0x0
 380:	000080e7          	jalr	ra # 37c <.L609+0x54>

00000384 <.L610>:
 384:	a001                	j	384 <.L610>

Disassembly of section .text.ieee80211_auth_construct:

00000000 <ieee80211_auth_construct>:
   0:	715d                	add	sp,sp,-80
   2:	ce6e                	sw	s11,28(sp)
   4:	00052d83          	lw	s11,0(a0)
   8:	de4e                	sw	s3,60(sp)
   a:	59fd                	li	s3,-1
   c:	138da783          	lw	a5,312(s11)
  10:	c2a6                	sw	s1,68(sp)
  12:	c0ca                	sw	s2,64(sp)
  14:	d85a                	sw	s6,48(sp)
  16:	d65e                	sw	s7,44(sp)
  18:	d462                	sw	s8,40(sp)
  1a:	d06a                	sw	s10,32(sp)
  1c:	00000937          	lui	s2,0x0
  20:	01059d13          	sll	s10,a1,0x10
  24:	c686                	sw	ra,76(sp)
  26:	c4a2                	sw	s0,72(sp)
  28:	dc52                	sw	s4,56(sp)
  2a:	da56                	sw	s5,52(sp)
  2c:	d266                	sw	s9,36(sp)
  2e:	c04e                	sw	s3,0(sp)
  30:	8b2a                	mv	s6,a0
  32:	8bae                	mv	s7,a1
  34:	4105dc13          	sra	s8,a1,0x10
  38:	010d5d13          	srl	s10,s10,0x10
  3c:	00090493          	mv	s1,s2
  40:	e3ed                	bnez	a5,122 <.L664>
  42:	00000097          	auipc	ra,0x0
  46:	000080e7          	jalr	ra # 42 <ieee80211_auth_construct+0x42>
  4a:	c545                	beqz	a0,f2 <.L665>
  4c:	1fc4c703          	lbu	a4,508(s1)
  50:	4799                	li	a5,6
  52:	0af71063          	bne	a4,a5,f2 <.L665>
  56:	100c1863          	bnez	s8,166 <.L683>
  5a:	1b44a783          	lw	a5,436(s1)
  5e:	860a                	mv	a2,sp
  60:	85ea                	mv	a1,s10
  62:	47bc                	lw	a5,72(a5)
  64:	004b0513          	add	a0,s6,4
  68:	9782                	jalr	a5
  6a:	4782                	lw	a5,0(sp)
  6c:	842a                	mv	s0,a0
  6e:	ed05                	bnez	a0,a6 <.L667>
  70:	0f379663          	bne	a5,s3,15c <.L668>
  74:	10000613          	li	a2,256
  78:	4581                	li	a1,0
  7a:	00090513          	mv	a0,s2
  7e:	00000097          	auipc	ra,0x0
  82:	000080e7          	jalr	ra # 7e <ieee80211_auth_construct+0x7e>

00000086 <.L663>:
  86:	40b6                	lw	ra,76(sp)
  88:	8522                	mv	a0,s0
  8a:	4426                	lw	s0,72(sp)
  8c:	4496                	lw	s1,68(sp)
  8e:	4906                	lw	s2,64(sp)
  90:	59f2                	lw	s3,60(sp)
  92:	5a62                	lw	s4,56(sp)
  94:	5ad2                	lw	s5,52(sp)
  96:	5b42                	lw	s6,48(sp)
  98:	5bb2                	lw	s7,44(sp)
  9a:	5c22                	lw	s8,40(sp)
  9c:	5c92                	lw	s9,36(sp)
  9e:	5d02                	lw	s10,32(sp)
  a0:	4df2                	lw	s11,28(sp)
  a2:	6161                	add	sp,sp,80
  a4:	8082                	ret

000000a6 <.L667>:
  a6:	0799                	add	a5,a5,6
  a8:	892a                	mv	s2,a0
  aa:	4a01                	li	s4,0
  ac:	4c81                	li	s9,0
  ae:	4a81                	li	s5,0
  b0:	45e1                	li	a1,24
  b2:	4985                	li	s3,1

000000b4 <.L666>:
  b4:	58f8                	lw	a4,116(s1)
  b6:	4601                	li	a2,0
  b8:	cb01                	beqz	a4,c8 <.L672>
  ba:	00000737          	lui	a4,0x0
  be:	00074703          	lbu	a4,0(a4) # 0 <ieee80211_auth_construct>
  c2:	e319                	bnez	a4,c8 <.L672>
  c4:	04700613          	li	a2,71

000000c8 <.L672>:
  c8:	963e                	add	a2,a2,a5
  ca:	0048                	add	a0,sp,4
  cc:	00000097          	auipc	ra,0x0
  d0:	000080e7          	jalr	ra # cc <.L672+0x4>
  d4:	842a                	mv	s0,a0
  d6:	e171                	bnez	a0,19a <.L673>
  d8:	000006b7          	lui	a3,0x0
  dc:	00068693          	mv	a3,a3
  e0:	4609                	li	a2,2
  e2:	04000593          	li	a1,64
  e6:	4505                	li	a0,1
  e8:	00000097          	auipc	ra,0x0
  ec:	000080e7          	jalr	ra # e8 <.L672+0x20>
  f0:	bf59                	j	86 <.L663>

000000f2 <.L665>:
  f2:	138da783          	lw	a5,312(s11)
  f6:	e795                	bnez	a5,122 <.L664>
  f8:	1fc4c703          	lbu	a4,508(s1)
  fc:	47a1                	li	a5,8
  fe:	02f71263          	bne	a4,a5,122 <.L664>
 102:	2844a783          	lw	a5,644(s1)
 106:	cbb9                	beqz	a5,15c <.L668>
 108:	0007d783          	lhu	a5,0(a5)
 10c:	4705                	li	a4,1
 10e:	26e48c23          	sb	a4,632(s1)
 112:	0799                	add	a5,a5,6
 114:	4901                	li	s2,0
 116:	45e1                	li	a1,24
 118:	4a05                	li	s4,1

0000011a <.L725>:
 11a:	4981                	li	s3,0

0000011c <.L724>:
 11c:	4c81                	li	s9,0

0000011e <.L721>:
 11e:	4a81                	li	s5,0
 120:	bf51                	j	b4 <.L666>

00000122 <.L664>:
 122:	ffed0793          	add	a5,s10,-2
 126:	4705                	li	a4,1
 128:	02f76163          	bltu	a4,a5,14a <.L670>
 12c:	0b0da903          	lw	s2,176(s11)
 130:	1e090263          	beqz	s2,314 <.L671>
 134:	020c1f63          	bnez	s8,172 <.L684>
 138:	4a01                	li	s4,0
 13a:	4981                	li	s3,0
 13c:	4901                	li	s2,0
 13e:	08800793          	li	a5,136
 142:	45f1                	li	a1,28

00000144 <.L722>:
 144:	4c85                	li	s9,1
 146:	4a85                	li	s5,1
 148:	b7b5                	j	b4 <.L666>

