In archive /Users/dimajolkin/GolandProjects/espradio/blobs/libs/esp32c3/librftest.a:

phy_test.o:     file format elf32-littleriscv


Disassembly of section .text.check_noise_floor1:

00000000 <check_noise_floor1>:
   0:	6001c7b7          	lui	a5,0x6001c
   4:	4f98                	lw	a4,24(a5)
   6:	ff8006b7          	lui	a3,0xff800
   a:	16fd                	add	a3,a3,-1 # ff7fffff <.L79+0xff7ffe97>
   c:	8f75                	and	a4,a4,a3
   e:	cf98                	sw	a4,24(a5)
  10:	4f98                	lw	a4,24(a5)
  12:	020006b7          	lui	a3,0x2000
  16:	6001c637          	lui	a2,0x6001c
  1a:	8f55                	or	a4,a4,a3
  1c:	cf98                	sw	a4,24(a5)
  1e:	4f98                	lw	a4,24(a5)
  20:	fe0006b7          	lui	a3,0xfe000
  24:	16fd                	add	a3,a3,-1 # fdffffff <.L79+0xfdfffe97>
  26:	8f75                	and	a4,a4,a3
  28:	cf98                	sw	a4,24(a5)
  2a:	4f98                	lw	a4,24(a5)
  2c:	008006b7          	lui	a3,0x800
  30:	600355b7          	lui	a1,0x60035
  34:	8f55                	or	a4,a4,a3
  36:	cf98                	sw	a4,24(a5)
  38:	600357b7          	lui	a5,0x60035
  3c:	4394                	lw	a3,0(a5)
  3e:	6789                	lui	a5,0x2
  40:	4701                	li	a4,0
  42:	71178793          	add	a5,a5,1809 # 2711 <.L79+0x25a9>

00000046 <.L2>:
  46:	4e08                	lw	a0,24(a2)
  48:	00751813          	sll	a6,a0,0x7
  4c:	00084363          	bltz	a6,52 <.L3>
  50:	c321                	beqz	a4,90 <.L4>

00000052 <.L3>:
  52:	6001c7b7          	lui	a5,0x6001c
  56:	4bb4                	lw	a3,80(a5)
  58:	e7800613          	li	a2,-392
  5c:	c006e693          	or	a3,a3,-1024
  60:	87b6                	mv	a5,a3
  62:	00c6d463          	bge	a3,a2,6a <.L5>
  66:	e7800793          	li	a5,-392

0000006a <.L5>:
  6a:	01079613          	sll	a2,a5,0x10
  6e:	8641                	sra	a2,a2,0x10
  70:	ea000693          	li	a3,-352
  74:	00c6d463          	bge	a3,a2,7c <.L6>
  78:	ea000793          	li	a5,-352

0000007c <.L6>:
  7c:	01079513          	sll	a0,a5,0x10
  80:	8541                	sra	a0,a0,0x10
  82:	c711                	beqz	a4,8e <.L7>
  84:	40f007b3          	neg	a5,a5
  88:	01079513          	sll	a0,a5,0x10
  8c:	8541                	sra	a0,a0,0x10

0000008e <.L7>:
  8e:	8082                	ret

00000090 <.L4>:
  90:	4198                	lw	a4,0(a1)
  92:	8f15                	sub	a4,a4,a3
  94:	00f73733          	sltu	a4,a4,a5
  98:	00174713          	xor	a4,a4,1
  9c:	b76d                	j	46 <.L2>

Disassembly of section .text.force_iq_set:

00000000 <force_iq_set>:
   0:	1101                	add	sp,sp,-32
   2:	8736                	mv	a4,a3
   4:	cc22                	sw	s0,24(sp)
   6:	ca26                	sw	s1,20(sp)
   8:	c84a                	sw	s2,16(sp)
   a:	c64e                	sw	s3,12(sp)
   c:	892a                	mv	s2,a0
   e:	89ae                	mv	s3,a1
  10:	84b2                	mv	s1,a2
  12:	8436                	mv	s0,a3
  14:	86b2                	mv	a3,a2
  16:	862e                	mv	a2,a1
  18:	85aa                	mv	a1,a0
  1a:	00000537          	lui	a0,0x0
  1e:	00050513          	mv	a0,a0
  22:	ce06                	sw	ra,28(sp)
  24:	00000097          	auipc	ra,0x0
  28:	000080e7          	jalr	ra # 24 <force_iq_set+0x24>
  2c:	600067b7          	lui	a5,0x60006
  30:	5ff8                	lw	a4,124(a5)
  32:	6685                	lui	a3,0x1
  34:	80068693          	add	a3,a3,-2048 # 800 <.L79+0x698>
  38:	8f55                	or	a4,a4,a3
  3a:	dff8                	sw	a4,124(a5)
  3c:	5ff8                	lw	a4,124(a5)
  3e:	080006b7          	lui	a3,0x8000
  42:	8f55                	or	a4,a4,a3
  44:	dff8                	sw	a4,124(a5)
  46:	5ff8                	lw	a4,124(a5)
  48:	04098063          	beqz	s3,88 <.L12>
  4c:	76fd                	lui	a3,0xfffff
  4e:	16fd                	add	a3,a3,-1 # ffffefff <.L79+0xffffee97>
  50:	00193913          	seqz	s2,s2
  54:	8f75                	and	a4,a4,a3
  56:	0932                	sll	s2,s2,0xc
  58:	01276933          	or	s2,a4,s2
  5c:	0727ae23          	sw	s2,124(a5) # 6000607c <.L79+0x60005f14>
  60:	5ff8                	lw	a4,124(a5)
  62:	88fd                	and	s1,s1,31
  64:	0416                	sll	s0,s0,0x5
  66:	9b01                	and	a4,a4,-32
  68:	8cd9                	or	s1,s1,a4
  6a:	dfe4                	sw	s1,124(a5)
  6c:	5ff8                	lw	a4,124(a5)
  6e:	7e047413          	and	s0,s0,2016
  72:	81f77713          	and	a4,a4,-2017

00000076 <.L19>:
  76:	8c59                	or	s0,s0,a4
  78:	dfe0                	sw	s0,124(a5)
  7a:	40f2                	lw	ra,28(sp)
  7c:	4462                	lw	s0,24(sp)
  7e:	44d2                	lw	s1,20(sp)
  80:	4942                	lw	s2,16(sp)
  82:	49b2                	lw	s3,12(sp)
  84:	6105                	add	sp,sp,32
  86:	8082                	ret

00000088 <.L12>:
  88:	f00006b7          	lui	a3,0xf0000
  8c:	16fd                	add	a3,a3,-1 # efffffff <.L79+0xeffffe97>
  8e:	00193913          	seqz	s2,s2
  92:	8f75                	and	a4,a4,a3
  94:	0972                	sll	s2,s2,0x1c
  96:	01276933          	or	s2,a4,s2
  9a:	0727ae23          	sw	s2,124(a5)
  9e:	5ff8                	lw	a4,124(a5)
  a0:	001f06b7          	lui	a3,0x1f0
  a4:	04c2                	sll	s1,s1,0x10
  a6:	8cf5                	and	s1,s1,a3
  a8:	ffe106b7          	lui	a3,0xffe10
  ac:	16fd                	add	a3,a3,-1 # ffe0ffff <.L79+0xffe0fe97>
  ae:	8f75                	and	a4,a4,a3
  b0:	8cd9                	or	s1,s1,a4
  b2:	dfe4                	sw	s1,124(a5)
  b4:	07e006b7          	lui	a3,0x7e00
  b8:	5ff8                	lw	a4,124(a5)
  ba:	0456                	sll	s0,s0,0x15
  bc:	8c75                	and	s0,s0,a3
  be:	f82006b7          	lui	a3,0xf8200
  c2:	16fd                	add	a3,a3,-1 # f81fffff <.L79+0xf81ffe97>
  c4:	8f75                	and	a4,a4,a3
  c6:	bf45                	j	76 <.L19>

Disassembly of section .text.rxiq_get_pwr:

00000000 <rxiq_get_pwr>:
   0:	7179                	add	sp,sp,-48
   2:	c85a                	sw	s6,16(sp)
   4:	00000b37          	lui	s6,0x0
   8:	000b2783          	lw	a5,0(s6) # 0 <rxiq_get_pwr>
   c:	d606                	sw	ra,44(sp)
   e:	d422                	sw	s0,40(sp)
  10:	4bbc                	lw	a5,80(a5)
  12:	d226                	sw	s1,36(sp)
  14:	d04a                	sw	s2,32(sp)
  16:	ce4e                	sw	s3,28(sp)
  18:	892a                	mv	s2,a0
  1a:	cc52                	sw	s4,24(sp)
  1c:	ca56                	sw	s5,20(sp)
  1e:	c65e                	sw	s7,12(sp)
  20:	c462                	sw	s8,8(sp)
  22:	c266                	sw	s9,4(sp)
  24:	4505                	li	a0,1
  26:	8aae                	mv	s5,a1
  28:	9782                	jalr	a5
  2a:	000b2783          	lw	a5,0(s6)
  2e:	4c05                	li	s8,1
  30:	012c1c33          	sll	s8,s8,s2
  34:	4bfc                	lw	a5,84(a5)
  36:	4505                	li	a0,1
  38:	0c42                	sll	s8,s8,0x10
  3a:	9782                	jalr	a5
  3c:	010c5c13          	srl	s8,s8,0x10
  40:	02000b93          	li	s7,32
  44:	4481                	li	s1,0
  46:	4a01                	li	s4,0
  48:	4401                	li	s0,0
  4a:	4981                	li	s3,0
  4c:	60006cb7          	lui	s9,0x60006
  50:	1979                	add	s2,s2,-2

00000052 <.L21>:
  52:	000b2783          	lw	a5,0(s6)
  56:	85e2                	mv	a1,s8
  58:	4505                	li	a0,1
  5a:	1047a783          	lw	a5,260(a5)
  5e:	1bfd                	add	s7,s7,-1
  60:	0ffbfb93          	zext.b	s7,s7
  64:	9782                	jalr	a5
  66:	148ca783          	lw	a5,328(s9) # 60006148 <.L79+0x60005fe0>
  6a:	154ca583          	lw	a1,340(s9)
  6e:	150ca703          	lw	a4,336(s9)
  72:	4127d7b3          	sra	a5,a5,s2
  76:	4125d5b3          	sra	a1,a1,s2
  7a:	41275633          	sra	a2,a4,s2
  7e:	14cca703          	lw	a4,332(s9)
  82:	40b786b3          	sub	a3,a5,a1
  86:	97ae                	add	a5,a5,a1
  88:	41275733          	sra	a4,a4,s2
  8c:	00e60533          	add	a0,a2,a4
  90:	8f11                	sub	a4,a4,a2
  92:	02e705b3          	mul	a1,a4,a4
  96:	02f78633          	mul	a2,a5,a5
  9a:	02e71733          	mulh	a4,a4,a4
  9e:	95b2                	add	a1,a1,a2
  a0:	00c5b633          	sltu	a2,a1,a2
  a4:	02f797b3          	mulh	a5,a5,a5
  a8:	97ba                	add	a5,a5,a4
  aa:	97b2                	add	a5,a5,a2
  ac:	00b48633          	add	a2,s1,a1
  b0:	00963733          	sltu	a4,a2,s1
  b4:	9a3e                	add	s4,s4,a5
  b6:	9a3a                	add	s4,s4,a4
  b8:	02a507b3          	mul	a5,a0,a0
  bc:	84b2                	mv	s1,a2
  be:	02d68733          	mul	a4,a3,a3
  c2:	02a51533          	mulh	a0,a0,a0
  c6:	97ba                	add	a5,a5,a4
  c8:	00e7b733          	sltu	a4,a5,a4
  cc:	97a2                	add	a5,a5,s0
  ce:	02d696b3          	mulh	a3,a3,a3
  d2:	96aa                	add	a3,a3,a0
  d4:	9736                	add	a4,a4,a3
  d6:	0087b6b3          	sltu	a3,a5,s0
  da:	843e                	mv	s0,a5
  dc:	000b2783          	lw	a5,0(s6)
  e0:	974e                	add	a4,a4,s3
  e2:	00e689b3          	add	s3,a3,a4
  e6:	1087a783          	lw	a5,264(a5)
  ea:	9782                	jalr	a5
  ec:	f60b93e3          	bnez	s7,52 <.L21>
  f0:	01ba1793          	sll	a5,s4,0x1b
  f4:	8095                	srl	s1,s1,0x5
  f6:	8cdd                	or	s1,s1,a5
  f8:	8015                	srl	s0,s0,0x5
  fa:	01b99793          	sll	a5,s3,0x1b
  fe:	8c5d                	or	s0,s0,a5
 100:	008aa423          	sw	s0,8(s5)
 104:	50b2                	lw	ra,44(sp)
 106:	5422                	lw	s0,40(sp)
 108:	405a5a13          	sra	s4,s4,0x5
 10c:	4059d713          	sra	a4,s3,0x5
 110:	009aa023          	sw	s1,0(s5)
 114:	014aa223          	sw	s4,4(s5)
 118:	00eaa623          	sw	a4,12(s5)
 11c:	5492                	lw	s1,36(sp)
 11e:	5902                	lw	s2,32(sp)
 120:	49f2                	lw	s3,28(sp)
 122:	4a62                	lw	s4,24(sp)
 124:	4ad2                	lw	s5,20(sp)
 126:	4b42                	lw	s6,16(sp)
 128:	4bb2                	lw	s7,12(sp)
 12a:	4c22                	lw	s8,8(sp)
 12c:	4c92                	lw	s9,4(sp)
 12e:	6145                	add	sp,sp,48
 130:	8082                	ret

Disassembly of section .text.txdc_delta_max:

00000000 <txdc_delta_max>:
   0:	1101                	add	sp,sp,-32
   2:	c84a                	sw	s2,16(sp)
   4:	00000937          	lui	s2,0x0
   8:	00092783          	lw	a5,0(s2) # 0 <txdc_delta_max>
   c:	cc22                	sw	s0,24(sp)
   e:	842a                	mv	s0,a0
  10:	1007a783          	lw	a5,256(a5)
  14:	00051503          	lh	a0,0(a0) # 0 <txdc_delta_max>
  18:	ce06                	sw	ra,28(sp)
  1a:	ca26                	sw	s1,20(sp)
  1c:	c64e                	sw	s3,12(sp)
  1e:	84ae                	mv	s1,a1
  20:	9782                	jalr	a5
  22:	00092783          	lw	a5,0(s2)
  26:	89aa                	mv	s3,a0
  28:	00241503          	lh	a0,2(s0)
  2c:	1007a783          	lw	a5,256(a5)
  30:	9782                	jalr	a5
  32:	00092783          	lw	a5,0(s2)
  36:	1007a783          	lw	a5,256(a5)
  3a:	03355e63          	bge	a0,s3,76 <.L25>
  3e:	00049503          	lh	a0,0(s1)
  42:	9782                	jalr	a5
  44:	00092783          	lw	a5,0(s2)
  48:	89aa                	mv	s3,a0
  4a:	00041503          	lh	a0,0(s0)
  4e:	1007a783          	lw	a5,256(a5)

00000052 <.L32>:
  52:	9782                	jalr	a5
  54:	00a9da63          	bge	s3,a0,68 <.L24>
  58:	00041783          	lh	a5,0(s0)
  5c:	00f49023          	sh	a5,0(s1)
  60:	00241783          	lh	a5,2(s0)
  64:	00f49123          	sh	a5,2(s1)

00000068 <.L24>:
  68:	40f2                	lw	ra,28(sp)
  6a:	4462                	lw	s0,24(sp)
  6c:	44d2                	lw	s1,20(sp)
  6e:	4942                	lw	s2,16(sp)
  70:	49b2                	lw	s3,12(sp)
  72:	6105                	add	sp,sp,32
  74:	8082                	ret

00000076 <.L25>:
  76:	00249503          	lh	a0,2(s1)
  7a:	9782                	jalr	a5
  7c:	00092783          	lw	a5,0(s2)
  80:	89aa                	mv	s3,a0
  82:	00241503          	lh	a0,2(s0)
  86:	1007a783          	lw	a5,256(a5)
  8a:	b7e1                	j	52 <.L32>

Disassembly of section .text.txdc_stable_sub:

00000000 <txdc_stable_sub>:
   0:	7139                	add	sp,sp,-64
   2:	dc22                	sw	s0,56(sp)
   4:	00000437          	lui	s0,0x0
   8:	00042783          	lw	a5,0(s0) # 0 <txdc_stable_sub>
   c:	d84a                	sw	s2,48(sp)
   e:	d64e                	sw	s3,44(sp)
  10:	1d47a783          	lw	a5,468(a5)
  14:	d452                	sw	s4,40(sp)
  16:	d256                	sw	s5,36(sp)
  18:	de06                	sw	ra,60(sp)
  1a:	da26                	sw	s1,52(sp)
  1c:	d05a                	sw	s6,32(sp)
  1e:	ce5e                	sw	s7,28(sp)
  20:	c202                	sw	zero,4(sp)
  22:	8aaa                	mv	s5,a0
  24:	892e                	mv	s2,a1
  26:	9782                	jalr	a5
  28:	00042783          	lw	a5,0(s0)
  2c:	4581                	li	a1,0
  2e:	453d                	li	a0,15
  30:	1ec7a783          	lw	a5,492(a5)
  34:	4981                	li	s3,0
  36:	4a01                	li	s4,0
  38:	9782                	jalr	a5
  3a:	020a8263          	beqz	s5,5e <.L34>
  3e:	00042783          	lw	a5,0(s0)
  42:	4585                	li	a1,1
  44:	4505                	li	a0,1
  46:	1cc7a483          	lw	s1,460(a5)
  4a:	1d07a783          	lw	a5,464(a5)
  4e:	9782                	jalr	a5
  50:	00256613          	or	a2,a0,2
  54:	0642                	sll	a2,a2,0x10
  56:	8241                	srl	a2,a2,0x10
  58:	4585                	li	a1,1
  5a:	4505                	li	a0,1
  5c:	9482                	jalr	s1

0000005e <.L34>:
  5e:	4481                	li	s1,0
  60:	00000bb7          	lui	s7,0x0
  64:	4b51                	li	s6,20

00000066 <.L37>:
  66:	0028                	add	a0,sp,8
  68:	00000097          	auipc	ra,0x0
  6c:	000080e7          	jalr	ra # 68 <.L37+0x2>
  70:	00e15803          	lhu	a6,14(sp)
  74:	00c15783          	lhu	a5,12(sp)
  78:	00a15703          	lhu	a4,10(sp)
  7c:	00815683          	lhu	a3,8(sp)
  80:	8626                	mv	a2,s1
  82:	85d6                	mv	a1,s5
  84:	000b8513          	mv	a0,s7
  88:	00000097          	auipc	ra,0x0
  8c:	000080e7          	jalr	ra # 88 <.L37+0x22>
  90:	06400513          	li	a0,100
  94:	00000097          	auipc	ra,0x0
  98:	000080e7          	jalr	ra # 94 <.L37+0x2e>
  9c:	e4b1                	bnez	s1,e8 <.L35>
  9e:	00815983          	lhu	s3,8(sp)
  a2:	00a15a03          	lhu	s4,10(sp)

000000a6 <.L36>:
  a6:	0485                	add	s1,s1,1
  a8:	fb649fe3          	bne	s1,s6,66 <.L37>
  ac:	00042783          	lw	a5,0(s0)
  b0:	4501                	li	a0,0
  b2:	1e47a783          	lw	a5,484(a5)
  b6:	9782                	jalr	a5
  b8:	00042783          	lw	a5,0(s0)
  bc:	1d87a783          	lw	a5,472(a5)
  c0:	9782                	jalr	a5
  c2:	00415783          	lhu	a5,4(sp)
  c6:	50f2                	lw	ra,60(sp)
  c8:	5462                	lw	s0,56(sp)
  ca:	00f91023          	sh	a5,0(s2)
  ce:	00615783          	lhu	a5,6(sp)
  d2:	54d2                	lw	s1,52(sp)
  d4:	59b2                	lw	s3,44(sp)
  d6:	00f91123          	sh	a5,2(s2)
  da:	5a22                	lw	s4,40(sp)
  dc:	5942                	lw	s2,48(sp)
  de:	5a92                	lw	s5,36(sp)
  e0:	5b02                	lw	s6,32(sp)
  e2:	4bf2                	lw	s7,28(sp)
  e4:	6121                	add	sp,sp,64
  e6:	8082                	ret

000000e8 <.L35>:
  e8:	00815783          	lhu	a5,8(sp)
  ec:	004c                	add	a1,sp,4
  ee:	850a                	mv	a0,sp
  f0:	413787b3          	sub	a5,a5,s3
  f4:	00f11023          	sh	a5,0(sp)
  f8:	00a15783          	lhu	a5,10(sp)
  fc:	414787b3          	sub	a5,a5,s4
 100:	00f11123          	sh	a5,2(sp)
 104:	00000097          	auipc	ra,0x0
 108:	000080e7          	jalr	ra # 104 <.L35+0x1c>
 10c:	bf69                	j	a6 <.L36>

Disassembly of section .text.txdc_stable_test:

00000000 <txdc_stable_test>:
   0:	7179                	add	sp,sp,-48
   2:	d422                	sw	s0,40(sp)
   4:	080c                	add	a1,sp,16
   6:	842a                	mv	s0,a0
   8:	4501                	li	a0,0
   a:	d606                	sw	ra,44(sp)
   c:	c602                	sw	zero,12(sp)
   e:	00000097          	auipc	ra,0x0
  12:	000080e7          	jalr	ra # e <txdc_stable_test+0xe>
  16:	006c                	add	a1,sp,12
  18:	0808                	add	a0,sp,16
  1a:	00000097          	auipc	ra,0x0
  1e:	000080e7          	jalr	ra # 1a <txdc_stable_test+0x1a>
  22:	084c                	add	a1,sp,20
  24:	4505                	li	a0,1
  26:	00000097          	auipc	ra,0x0
  2a:	000080e7          	jalr	ra # 26 <txdc_stable_test+0x26>
  2e:	006c                	add	a1,sp,12
  30:	0848                	add	a0,sp,20
  32:	00000097          	auipc	ra,0x0
  36:	000080e7          	jalr	ra # 32 <txdc_stable_test+0x32>
  3a:	cc09                	beqz	s0,54 <.L43>
  3c:	00e11603          	lh	a2,14(sp)
  40:	00c11583          	lh	a1,12(sp)
  44:	00000537          	lui	a0,0x0
  48:	00050513          	mv	a0,a0
  4c:	00000097          	auipc	ra,0x0
  50:	000080e7          	jalr	ra # 4c <txdc_stable_test+0x4c>

00000054 <.L43>:
  54:	50b2                	lw	ra,44(sp)
  56:	5422                	lw	s0,40(sp)
  58:	6145                	add	sp,sp,48
  5a:	8082                	ret

Disassembly of section .text.force_txon_mode:

00000000 <force_txon_mode>:
   0:	60006737          	lui	a4,0x60006
   4:	431c                	lw	a5,0(a4)
   6:	11072703          	lw	a4,272(a4) # 60006110 <.L79+0x60005fa8>
   a:	76f5                	lui	a3,0xffffd
   c:	16fd                	add	a3,a3,-1 # ffffcfff <.L79+0xffffce97>
   e:	8f75                	and	a4,a4,a3
  10:	83c9                	srl	a5,a5,0x12
  12:	668d                	lui	a3,0x3
  14:	e191                	bnez	a1,18 <.L50>
  16:	4681                	li	a3,0

00000018 <.L50>:
  18:	8f55                	or	a4,a4,a3
  1a:	600066b7          	lui	a3,0x60006
  1e:	10e6a823          	sw	a4,272(a3) # 60006110 <.L79+0x60005fa8>
  22:	4298                	lw	a4,0(a3)
  24:	00a03833          	snez	a6,a0
  28:	0806                	sll	a6,a6,0x1
  2a:	9b75                	and	a4,a4,-3
  2c:	01076733          	or	a4,a4,a6
  30:	c298                	sw	a4,0(a3)
  32:	4298                	lw	a4,0(a3)
  34:	fffc06b7          	lui	a3,0xfffc0
  38:	3ff68693          	add	a3,a3,1023 # fffc03ff <.L79+0xfffc0297>
  3c:	8f75                	and	a4,a4,a3
  3e:	0ff7f793          	zext.b	a5,a5
  42:	c191                	beqz	a1,46 <.L52>
  44:	0641                	add	a2,a2,16 # 6001c010 <.L79+0x6001bea8>

00000046 <.L52>:
  46:	97b2                	add	a5,a5,a2
  48:	000406b7          	lui	a3,0x40
  4c:	07aa                	sll	a5,a5,0xa
  4e:	c0068693          	add	a3,a3,-1024 # 3fc00 <.L79+0x3fa98>
  52:	8ff5                	and	a5,a5,a3
  54:	8fd9                	or	a5,a5,a4
  56:	60006737          	lui	a4,0x60006
  5a:	c31c                	sw	a5,0(a4)
  5c:	000007b7          	lui	a5,0x0
  60:	0007a783          	lw	a5,0(a5) # 0 <force_txon_mode>
  64:	0c87a303          	lw	t1,200(a5)
  68:	8302                	jr	t1

Disassembly of section .text.bt_rx_force:

00000000 <bt_rx_force>:
   0:	6001c737          	lui	a4,0x6001c
   4:	1141                	add	sp,sp,-16
   6:	08072783          	lw	a5,128(a4) # 6001c080 <.L79+0x6001bf18>
   a:	c606                	sw	ra,12(sp)
   c:	c422                	sw	s0,8(sp)
   e:	c139                	beqz	a0,54 <.L59>
  10:	0c07e793          	or	a5,a5,192
  14:	08f72023          	sw	a5,128(a4)
  18:	4529                	li	a0,10
  1a:	00000097          	auipc	ra,0x0
  1e:	000080e7          	jalr	ra # 1a <bt_rx_force+0x1a>
  22:	60006437          	lui	s0,0x60006
  26:	11042783          	lw	a5,272(s0) # 60006110 <.L79+0x60005fa8>
  2a:	4505                	li	a0,1
  2c:	cff7f793          	and	a5,a5,-769
  30:	2007e793          	or	a5,a5,512
  34:	10f42823          	sw	a5,272(s0)
  38:	00000097          	auipc	ra,0x0
  3c:	000080e7          	jalr	ra # 38 <bt_rx_force+0x38>
  40:	11042783          	lw	a5,272(s0)
  44:	3007e793          	or	a5,a5,768

00000048 <.L62>:
  48:	10f42823          	sw	a5,272(s0)
  4c:	40b2                	lw	ra,12(sp)
  4e:	4422                	lw	s0,8(sp)
  50:	0141                	add	sp,sp,16
  52:	8082                	ret

00000054 <.L59>:
  54:	f3f7f793          	and	a5,a5,-193
  58:	08f72023          	sw	a5,128(a4)
  5c:	4529                	li	a0,10
  5e:	60006437          	lui	s0,0x60006
  62:	00000097          	auipc	ra,0x0
  66:	000080e7          	jalr	ra # 62 <.L59+0xe>
  6a:	11042783          	lw	a5,272(s0) # 60006110 <.L79+0x60005fa8>
  6e:	4505                	li	a0,1
  70:	cff7f793          	and	a5,a5,-769
  74:	2007e793          	or	a5,a5,512
  78:	10f42823          	sw	a5,272(s0)
  7c:	00000097          	auipc	ra,0x0
  80:	000080e7          	jalr	ra # 7c <.L59+0x28>
  84:	11042783          	lw	a5,272(s0)
  88:	4505                	li	a0,1
  8a:	3007e793          	or	a5,a5,768
  8e:	10f42823          	sw	a5,272(s0)
  92:	00000097          	auipc	ra,0x0
  96:	000080e7          	jalr	ra # 92 <.L59+0x3e>
  9a:	11042783          	lw	a5,272(s0)
  9e:	cff7f793          	and	a5,a5,-769
  a2:	b75d                	j	48 <.L62>

Disassembly of section .text.force_rx_gain:

00000000 <force_rx_gain>:
   0:	1101                	add	sp,sp,-32
   2:	cc22                	sw	s0,24(sp)
   4:	842a                	mv	s0,a0
   6:	8d71                	and	a0,a0,a2
   8:	c62e                	sw	a1,12(sp)
   a:	c432                	sw	a2,8(sp)
   c:	ce06                	sw	ra,28(sp)
   e:	00000097          	auipc	ra,0x0
  12:	000080e7          	jalr	ra # e <force_rx_gain+0xe>
  16:	45b2                	lw	a1,12(sp)
  18:	4622                	lw	a2,8(sp)
  1a:	01741713          	sll	a4,s0,0x17
  1e:	01859513          	sll	a0,a1,0x18
  22:	008006b7          	lui	a3,0x800
  26:	010005b7          	lui	a1,0x1000
  2a:	8ef9                	and	a3,a3,a4
  2c:	fff58713          	add	a4,a1,-1 # ffffff <.L79+0xfffe97>
  30:	ca31                	beqz	a2,84 <.L64>
  32:	600127b7          	lui	a5,0x60012
  36:	8407a583          	lw	a1,-1984(a5) # 60011840 <.L79+0x600116d8>
  3a:	fff44413          	not	s0,s0
  3e:	043e                	sll	s0,s0,0xf
  40:	8df9                	and	a1,a1,a4
  42:	8dc9                	or	a1,a1,a0
  44:	84b7a023          	sw	a1,-1984(a5)
  48:	8407a583          	lw	a1,-1984(a5)
  4c:	ff800737          	lui	a4,0xff800
  50:	fff70613          	add	a2,a4,-1 # ff7fffff <.L79+0xff7ffe97>
  54:	00c5f733          	and	a4,a1,a2
  58:	84e7a023          	sw	a4,-1984(a5)
  5c:	8407a703          	lw	a4,-1984(a5)
  60:	8f71                	and	a4,a4,a2
  62:	8f55                	or	a4,a4,a3
  64:	84e7a023          	sw	a4,-1984(a5)
  68:	600116b7          	lui	a3,0x60011
  6c:	4afc                	lw	a5,84(a3)
  6e:	6721                	lui	a4,0x8
  70:	8c79                	and	s0,s0,a4
  72:	7761                	lui	a4,0xffff8
  74:	177d                	add	a4,a4,-1 # ffff7fff <.L79+0xffff7e97>
  76:	8ff9                	and	a5,a5,a4
  78:	8c5d                	or	s0,s0,a5
  7a:	cae0                	sw	s0,84(a3)

0000007c <.L63>:
  7c:	40f2                	lw	ra,28(sp)
  7e:	4462                	lw	s0,24(sp)
  80:	6105                	add	sp,sp,32
  82:	8082                	ret

00000084 <.L64>:
  84:	6001c7b7          	lui	a5,0x6001c
  88:	57cc                	lw	a1,44(a5)
  8a:	8df9                	and	a1,a1,a4
  8c:	8dc9                	or	a1,a1,a0
  8e:	d7cc                	sw	a1,44(a5)
  90:	57cc                	lw	a1,44(a5)
  92:	ff800737          	lui	a4,0xff800
  96:	fff70613          	add	a2,a4,-1 # ff7fffff <.L79+0xff7ffe97>
  9a:	00c5f733          	and	a4,a1,a2
  9e:	d7d8                	sw	a4,44(a5)
  a0:	57d8                	lw	a4,44(a5)
  a2:	8f71                	and	a4,a4,a2
  a4:	8f55                	or	a4,a4,a3
  a6:	d7d8                	sw	a4,44(a5)
  a8:	bfd1                	j	7c <.L63>

Disassembly of section .text.phy_corr_get_pwr:

00000000 <phy_corr_get_pwr>:
   0:	60006737          	lui	a4,0x60006
   4:	14872783          	lw	a5,328(a4) # 60006148 <.L79+0x60005fe0>
   8:	14c72683          	lw	a3,332(a4)
   c:	15072803          	lw	a6,336(a4)
  10:	15472883          	lw	a7,340(a4)
  14:	410685b3          	sub	a1,a3,a6
  18:	01178733          	add	a4,a5,a7
  1c:	02e70633          	mul	a2,a4,a4
  20:	411787b3          	sub	a5,a5,a7
  24:	96c2                	add	a3,a3,a6
  26:	02e71533          	mulh	a0,a4,a4
  2a:	02b58733          	mul	a4,a1,a1
  2e:	02b595b3          	mulh	a1,a1,a1
  32:	9732                	add	a4,a4,a2
  34:	00c73633          	sltu	a2,a4,a2
  38:	95aa                	add	a1,a1,a0
  3a:	00b60533          	add	a0,a2,a1
  3e:	02f78633          	mul	a2,a5,a5
  42:	02d685b3          	mul	a1,a3,a3
  46:	02f797b3          	mulh	a5,a5,a5
  4a:	95b2                	add	a1,a1,a2
  4c:	00c5b633          	sltu	a2,a1,a2
  50:	972e                	add	a4,a4,a1
  52:	00b735b3          	sltu	a1,a4,a1
  56:	8349                	srl	a4,a4,0x12
  58:	02d696b3          	mulh	a3,a3,a3
  5c:	97b6                	add	a5,a5,a3
  5e:	97b2                	add	a5,a5,a2
  60:	97aa                	add	a5,a5,a0
  62:	95be                	add	a1,a1,a5
  64:	00e59513          	sll	a0,a1,0xe
  68:	8d59                	or	a0,a0,a4
  6a:	81c9                	srl	a1,a1,0x12
  6c:	8082                	ret

Disassembly of section .text.phy_corr_pwr_sum:

00000000 <phy_corr_pwr_sum>:
   0:	1101                	add	sp,sp,-32
   2:	c64e                	sw	s3,12(sp)
   4:	85aa                	mv	a1,a0
   6:	89aa                	mv	s3,a0
   8:	4781                	li	a5,0
   a:	4701                	li	a4,0
   c:	4681                	li	a3,0
   e:	4601                	li	a2,0
  10:	4505                	li	a0,1
  12:	cc22                	sw	s0,24(sp)
  14:	ca26                	sw	s1,20(sp)
  16:	c84a                	sw	s2,16(sp)
  18:	c452                	sw	s4,8(sp)
  1a:	ce06                	sw	ra,28(sp)
  1c:	4941                	li	s2,16
  1e:	00000097          	auipc	ra,0x0
  22:	000080e7          	jalr	ra # 1e <phy_corr_pwr_sum+0x1e>
  26:	4481                	li	s1,0
  28:	4401                	li	s0,0
  2a:	00000a37          	lui	s4,0x0

0000002e <.L69>:
  2e:	000a2783          	lw	a5,0(s4) # 0 <phy_corr_pwr_sum>
  32:	3ff00593          	li	a1,1023
  36:	4505                	li	a0,1
  38:	1047a783          	lw	a5,260(a5) # 6001c104 <.L79+0x6001bf9c>
  3c:	197d                	add	s2,s2,-1
  3e:	0ff97913          	zext.b	s2,s2
  42:	9782                	jalr	a5
  44:	00000097          	auipc	ra,0x0
  48:	000080e7          	jalr	ra # 44 <.L69+0x16>
  4c:	9526                	add	a0,a0,s1
  4e:	009537b3          	sltu	a5,a0,s1
  52:	942e                	add	s0,s0,a1
  54:	943e                	add	s0,s0,a5
  56:	000a2783          	lw	a5,0(s4)
  5a:	84aa                	mv	s1,a0
  5c:	1087a783          	lw	a5,264(a5)
  60:	9782                	jalr	a5
  62:	fc0916e3          	bnez	s2,2e <.L69>
  66:	85ce                	mv	a1,s3
  68:	4501                	li	a0,0
  6a:	4781                	li	a5,0
  6c:	4701                	li	a4,0
  6e:	4681                	li	a3,0
  70:	4601                	li	a2,0
  72:	00000097          	auipc	ra,0x0
  76:	000080e7          	jalr	ra # 72 <.L69+0x44>
  7a:	0462                	sll	s0,s0,0x18
  7c:	0084d513          	srl	a0,s1,0x8
  80:	8d41                	or	a0,a0,s0
  82:	40f2                	lw	ra,28(sp)
  84:	4462                	lw	s0,24(sp)
  86:	44d2                	lw	s1,20(sp)
  88:	4942                	lw	s2,16(sp)
  8a:	49b2                	lw	s3,12(sp)
  8c:	4a22                	lw	s4,8(sp)
  8e:	6105                	add	sp,sp,32
  90:	8082                	ret

Disassembly of section .text.ble_recorrect_open:

00000000 <ble_recorrect_open>:
   0:	600127b7          	lui	a5,0x60012
   4:	8687a703          	lw	a4,-1944(a5) # 60011868 <.L79+0x60011700>
   8:	6689                	lui	a3,0x2
   a:	8f55                	or	a4,a4,a3
   c:	86e7a423          	sw	a4,-1944(a5)
  10:	8687a703          	lw	a4,-1944(a5)
  14:	6685                	lui	a3,0x1
  16:	8f55                	or	a4,a4,a3
  18:	86e7a423          	sw	a4,-1944(a5)
  1c:	8687a703          	lw	a4,-1944(a5)
  20:	02076713          	or	a4,a4,32
  24:	86e7a423          	sw	a4,-1944(a5)
  28:	8082                	ret

Disassembly of section .text.phy_2480m_opt:

00000000 <phy_2480m_opt>:
   0:	7179                	add	sp,sp,-48
   2:	ce4e                	sw	s3,28(sp)
   4:	89aa                	mv	s3,a0
   6:	6505                	lui	a0,0x1
   8:	4581                	li	a1,0
   a:	9b550513          	add	a0,a0,-1611 # 9b5 <.L79+0x84d>
   e:	d422                	sw	s0,40(sp)
  10:	d226                	sw	s1,36(sp)
  12:	d04a                	sw	s2,32(sp)
  14:	d606                	sw	ra,44(sp)
  16:	cc52                	sw	s4,24(sp)
  18:	c402                	sw	zero,8(sp)
  1a:	c602                	sw	zero,12(sp)
  1c:	00000097          	auipc	ra,0x0
  20:	000080e7          	jalr	ra # 1c <phy_2480m_opt+0x1c>
  24:	6001c737          	lui	a4,0x6001c
  28:	575c                	lw	a5,44(a4)
  2a:	010006b7          	lui	a3,0x1000
  2e:	16fd                	add	a3,a3,-1 # ffffff <.L79+0xfffe97>
  30:	8ff5                	and	a5,a5,a3
  32:	370006b7          	lui	a3,0x37000
  36:	8fd5                	or	a5,a5,a3
  38:	d75c                	sw	a5,44(a4)
  3a:	575c                	lw	a5,44(a4)
  3c:	008006b7          	lui	a3,0x800
  40:	00810913          	add	s2,sp,8
  44:	8fd5                	or	a5,a5,a3
  46:	d75c                	sw	a5,44(a4)
  48:	4481                	li	s1,0
  4a:	00000437          	lui	s0,0x0

0000004e <.L75>:
  4e:	00042783          	lw	a5,0(s0) # 0 <phy_2480m_opt>
  52:	4709                	li	a4,2
  54:	468d                	li	a3,3
  56:	1bc7a803          	lw	a6,444(a5)
  5a:	4611                	li	a2,4
  5c:	4581                	li	a1,0
  5e:	06600513          	li	a0,102
  62:	00248793          	add	a5,s1,2
  66:	9802                	jalr	a6
  68:	00042783          	lw	a5,0(s0)
  6c:	0911                	add	s2,s2,4
  6e:	1d47a783          	lw	a5,468(a5)
  72:	9782                	jalr	a5
  74:	00042783          	lw	a5,0(s0)
  78:	4601                	li	a2,0
  7a:	4585                	li	a1,1
  7c:	1cc7a783          	lw	a5,460(a5)
  80:	4505                	li	a0,1
  82:	9782                	jalr	a5
  84:	06400513          	li	a0,100
  88:	00000097          	auipc	ra,0x0
  8c:	000080e7          	jalr	ra # 88 <.L75+0x3a>
  90:	00042783          	lw	a5,0(s0)
  94:	18900613          	li	a2,393
  98:	4585                	li	a1,1
  9a:	1cc7a783          	lw	a5,460(a5)
  9e:	4505                	li	a0,1
  a0:	9782                	jalr	a5
  a2:	00042783          	lw	a5,0(s0)
  a6:	1d87a783          	lw	a5,472(a5)
  aa:	9782                	jalr	a5
  ac:	4601                	li	a2,0
  ae:	03700593          	li	a1,55
  b2:	4505                	li	a0,1
  b4:	00000097          	auipc	ra,0x0
  b8:	000080e7          	jalr	ra # b4 <.L75+0x66>
  bc:	06400513          	li	a0,100
  c0:	00000097          	auipc	ra,0x0
  c4:	000080e7          	jalr	ra # c0 <.L75+0x72>
  c8:	08000513          	li	a0,128
  cc:	00000097          	auipc	ra,0x0
  d0:	000080e7          	jalr	ra # cc <.L75+0x7e>
  d4:	fea92e23          	sw	a0,-4(s2)
  d8:	c8c1                	beqz	s1,168 <.L79>
  da:	4922                	lw	s2,8(sp)
  dc:	4a32                	lw	s4,12(sp)
  de:	4489                	li	s1,2
  e0:	01496363          	bltu	s2,s4,e6 <.L76>
  e4:	448d                	li	s1,3

000000e6 <.L76>:
  e6:	00042783          	lw	a5,0(s0)
  ea:	4709                	li	a4,2
  ec:	468d                	li	a3,3
  ee:	1bc7a803          	lw	a6,444(a5)
  f2:	4611                	li	a2,4
  f4:	87a6                	mv	a5,s1
  f6:	4581                	li	a1,0
  f8:	06600513          	li	a0,102
  fc:	9802                	jalr	a6
  fe:	00042783          	lw	a5,0(s0)
 102:	4611                	li	a2,4
 104:	4581                	li	a1,0
 106:	1ac7a783          	lw	a5,428(a5)
 10a:	06600513          	li	a0,102
 10e:	00000437          	lui	s0,0x0
 112:	9782                	jalr	a5
 114:	00040793          	mv	a5,s0
 118:	30a78ea3          	sb	a0,797(a5)
 11c:	00040413          	mv	s0,s0
 120:	00098d63          	beqz	s3,13a <.L77>
 124:	00000537          	lui	a0,0x0
 128:	86d2                	mv	a3,s4
 12a:	864a                	mv	a2,s2
 12c:	85a6                	mv	a1,s1
 12e:	00050513          	mv	a0,a0
 132:	00000097          	auipc	ra,0x0
 136:	000080e7          	jalr	ra # 132 <.L76+0x4c>

0000013a <.L77>:
 13a:	6001c6b7          	lui	a3,0x6001c
 13e:	56dc                	lw	a5,44(a3)
 140:	ff800737          	lui	a4,0xff800
 144:	177d                	add	a4,a4,-1 # ff7fffff <.L79+0xff7ffe97>
 146:	8ff9                	and	a5,a5,a4
 148:	d6dc                	sw	a5,44(a3)
 14a:	1f440583          	lb	a1,500(s0) # 1f4 <.L79+0x8c>
 14e:	1f240503          	lb	a0,498(s0)
 152:	5422                	lw	s0,40(sp)
 154:	50b2                	lw	ra,44(sp)
 156:	5492                	lw	s1,36(sp)
 158:	5902                	lw	s2,32(sp)
 15a:	49f2                	lw	s3,28(sp)
 15c:	4a62                	lw	s4,24(sp)
 15e:	6145                	add	sp,sp,48
 160:	00000317          	auipc	t1,0x0
 164:	00030067          	jr	t1 # 160 <.L77+0x26>

00000168 <.L79>:
 168:	4485                	li	s1,1
 16a:	b5d5                	j	4e <.L75>

Disassembly of section .text.tx_2400_opt:

00000000 <tx_2400_opt>:
   0:	7179                	add	sp,sp,-48
   2:	c462                	sw	s8,8(sp)
   4:	00000c37          	lui	s8,0x0
   8:	000c2783          	lw	a5,0(s8) # 0 <tx_2400_opt>
   c:	d606                	sw	ra,44(sp)
   e:	d226                	sw	s1,36(sp)
  10:	1b87a783          	lw	a5,440(a5)
  14:	d04a                	sw	s2,32(sp)
  16:	ce4e                	sw	s3,28(sp)
  18:	cc52                	sw	s4,24(sp)
  1a:	ca56                	sw	s5,20(sp)
  1c:	c85a                	sw	s6,16(sp)
  1e:	c65e                	sw	s7,12(sp)
  20:	4701                	li	a4,0
  22:	4691                	li	a3,4
  24:	4619                	li	a2,6
  26:	4581                	li	a1,0
  28:	d422                	sw	s0,40(sp)
  2a:	c266                	sw	s9,4(sp)
  2c:	c06a                	sw	s10,0(sp)
  2e:	06d00513          	li	a0,109
  32:	9782                	jalr	a5
  34:	000c2783          	lw	a5,0(s8)
  38:	00000937          	lui	s2,0x0
  3c:	00a91023          	sh	a0,0(s2) # 0 <tx_2400_opt>
  40:	1bc7a803          	lw	a6,444(a5)
  44:	470d                	li	a4,3
  46:	4785                	li	a5,1
  48:	468d                	li	a3,3
  4a:	461d                	li	a2,7
  4c:	4585                	li	a1,1
  4e:	06900513          	li	a0,105
  52:	000009b7          	lui	s3,0x0
  56:	9802                	jalr	a6
  58:	4481                	li	s1,0
  5a:	00090913          	mv	s2,s2
  5e:	4afd                	li	s5,31
  60:	4a21                	li	s4,8
  62:	06400b13          	li	s6,100
  66:	00098993          	mv	s3,s3
  6a:	08400b93          	li	s7,132

0000006e <.L90>:
  6e:	00094703          	lbu	a4,0(s2)
  72:	9726                	add	a4,a4,s1
  74:	0ff77713          	zext.b	a4,a4
  78:	0ff77793          	zext.b	a5,a4
  7c:	00eaf363          	bgeu	s5,a4,82 <.L86>
  80:	47fd                	li	a5,31

00000082 <.L86>:
  82:	000c2703          	lw	a4,0(s8)
  86:	4691                	li	a3,4
  88:	4619                	li	a2,6
  8a:	1bc72803          	lw	a6,444(a4)
  8e:	4581                	li	a1,0
  90:	4701                	li	a4,0
  92:	06d00513          	li	a0,109
  96:	9802                	jalr	a6
  98:	4c91                	li	s9,4

0000009a <.L88>:
  9a:	000c2783          	lw	a5,0(s8)
  9e:	4701                	li	a4,0
  a0:	4685                	li	a3,1
  a2:	1bc7a803          	lw	a6,444(a5)
  a6:	461d                	li	a2,7
  a8:	4789                	li	a5,2
  aa:	4585                	li	a1,1
  ac:	06900513          	li	a0,105
  b0:	9802                	jalr	a6
  b2:	4529                	li	a0,10
  b4:	00000097          	auipc	ra,0x0
  b8:	000080e7          	jalr	ra # b4 <.L88+0x1a>
  bc:	4d21                	li	s10,8
  be:	4401                	li	s0,0

000000c0 <.L87>:
  c0:	000c2783          	lw	a5,0(s8)
  c4:	450d                	li	a0,3
  c6:	1d7d                	add	s10,s10,-1
  c8:	1507a783          	lw	a5,336(a5)
  cc:	0ffd7d13          	zext.b	s10,s10
  d0:	9782                	jalr	a5
  d2:	942a                	add	s0,s0,a0
  d4:	0442                	sll	s0,s0,0x10
  d6:	8041                	srl	s0,s0,0x10
  d8:	fe0d14e3          	bnez	s10,c0 <.L87>
  dc:	1cfd                	add	s9,s9,-1
  de:	0ffcfc93          	zext.b	s9,s9
  e2:	fa0c9ce3          	bnez	s9,9a <.L88>
  e6:	800d                	srl	s0,s0,0x3
  e8:	03640433          	mul	s0,s0,s6
  ec:	0de9d783          	lhu	a5,222(s3) # de <.L87+0x1e>
  f0:	02f44433          	div	s0,s0,a5
  f4:	0442                	sll	s0,s0,0x10
  f6:	8041                	srl	s0,s0,0x10
  f8:	008be763          	bltu	s7,s0,106 <.L89>
  fc:	0485                	add	s1,s1,1
  fe:	0ff4f493          	zext.b	s1,s1
 102:	f74496e3          	bne	s1,s4,6e <.L90>

00000106 <.L89>:
 106:	000c2783          	lw	a5,0(s8)
 10a:	4701                	li	a4,0
 10c:	4691                	li	a3,4
 10e:	1b87a783          	lw	a5,440(a5)
 112:	4619                	li	a2,6
 114:	4581                	li	a1,0
 116:	06d00513          	li	a0,109
 11a:	9782                	jalr	a5
 11c:	000007b7          	lui	a5,0x0
 120:	00a79023          	sh	a0,0(a5) # 0 <tx_2400_opt>
 124:	000c2783          	lw	a5,0(s8)
 128:	4701                	li	a4,0
 12a:	4691                	li	a3,4
 12c:	1bc7a803          	lw	a6,444(a5)
 130:	00094783          	lbu	a5,0(s2)
 134:	4619                	li	a2,6
 136:	4581                	li	a1,0
 138:	06d00513          	li	a0,109
 13c:	9802                	jalr	a6
 13e:	000c2783          	lw	a5,0(s8)
 142:	470d                	li	a4,3
 144:	468d                	li	a3,3
 146:	1bc7a803          	lw	a6,444(a5)
 14a:	461d                	li	a2,7
 14c:	4781                	li	a5,0
 14e:	4585                	li	a1,1
 150:	06900513          	li	a0,105
 154:	9802                	jalr	a6
 156:	000c2783          	lw	a5,0(s8)
 15a:	5422                	lw	s0,40(sp)
 15c:	50b2                	lw	ra,44(sp)
 15e:	1bc7a303          	lw	t1,444(a5)
 162:	5492                	lw	s1,36(sp)
 164:	5902                	lw	s2,32(sp)
 166:	49f2                	lw	s3,28(sp)
 168:	4a62                	lw	s4,24(sp)
 16a:	4ad2                	lw	s5,20(sp)
 16c:	4b42                	lw	s6,16(sp)
 16e:	4bb2                	lw	s7,12(sp)
 170:	4c22                	lw	s8,8(sp)
 172:	4c92                	lw	s9,4(sp)
 174:	4d02                	lw	s10,0(sp)
 176:	4781                	li	a5,0
 178:	4701                	li	a4,0
 17a:	4685                	li	a3,1
 17c:	461d                	li	a2,7
 17e:	4585                	li	a1,1
 180:	06900513          	li	a0,105
 184:	6145                	add	sp,sp,48
 186:	8302                	jr	t1

Disassembly of section .text.test_div_adc:

00000000 <test_div_adc>:
   0:	711d                	add	sp,sp,-96
   2:	02800613          	li	a2,40
   6:	c0da                	sw	s6,64(sp)
   8:	de5e                	sw	s7,60(sp)
   a:	8b2a                	mv	s6,a0
   c:	8bae                	mv	s7,a1
   e:	0028                	add	a0,sp,8
  10:	4581                	li	a1,0
  12:	ce86                	sw	ra,92(sp)
  14:	cca2                	sw	s0,88(sp)
  16:	caa6                	sw	s1,84(sp)
  18:	c4d2                	sw	s4,72(sp)
  1a:	c2d6                	sw	s5,68(sp)
  1c:	dc62                	sw	s8,56(sp)
  1e:	da66                	sw	s9,52(sp)
  20:	6a05                	lui	s4,0x1
  22:	c8ca                	sw	s2,80(sp)
  24:	c6ce                	sw	s3,76(sp)
  26:	00000097          	auipc	ra,0x0
  2a:	000080e7          	jalr	ra # 26 <test_div_adc+0x26>
  2e:	9b5a0513          	add	a0,s4,-1611 # 9b5 <.L79+0x84d>
  32:	4581                	li	a1,0
  34:	00000097          	auipc	ra,0x0
  38:	000080e7          	jalr	ra # 34 <test_div_adc+0x34>
  3c:	4601                	li	a2,0
  3e:	03700593          	li	a1,55
  42:	4505                	li	a0,1
  44:	00000097          	auipc	ra,0x0
  48:	000080e7          	jalr	ra # 44 <test_div_adc+0x44>
  4c:	4481                	li	s1,0
  4e:	00000437          	lui	s0,0x0
  52:	03010a93          	add	s5,sp,48
  56:	bb8a0a13          	add	s4,s4,-1096
  5a:	00000c37          	lui	s8,0x0
  5e:	4ca9                	li	s9,10

00000060 <.L100>:
  60:	00042783          	lw	a5,0(s0) # 0 <test_div_adc>
  64:	4709                	li	a4,2
  66:	468d                	li	a3,3
  68:	1bc7a803          	lw	a6,444(a5)
  6c:	4611                	li	a2,4
  6e:	00248793          	add	a5,s1,2
  72:	4581                	li	a1,0
  74:	06600513          	li	a0,102
  78:	0ff4f913          	zext.b	s2,s1
  7c:	9802                	jalr	a6
  7e:	020b0e63          	beqz	s6,ba <.L97>
  82:	00042783          	lw	a5,0(s0)
  86:	1d47a783          	lw	a5,468(a5)
  8a:	9782                	jalr	a5
  8c:	00042783          	lw	a5,0(s0)
  90:	865e                	mv	a2,s7
  92:	4585                	li	a1,1
  94:	1cc7a783          	lw	a5,460(a5)
  98:	4505                	li	a0,1
  9a:	9782                	jalr	a5
  9c:	06400513          	li	a0,100
  a0:	00000097          	auipc	ra,0x0
  a4:	000080e7          	jalr	ra # a0 <.L100+0x40>
  a8:	00042783          	lw	a5,0(s0)
  ac:	18900613          	li	a2,393
  b0:	4585                	li	a1,1
  b2:	1cc7a783          	lw	a5,460(a5)
  b6:	4505                	li	a0,1
  b8:	9782                	jalr	a5

000000ba <.L97>:
  ba:	85ca                	mv	a1,s2
  bc:	460d                	li	a2,3
  be:	4509                	li	a0,2
  c0:	00000097          	auipc	ra,0x0
  c4:	000080e7          	jalr	ra # c0 <.L97+0x6>
  c8:	06400513          	li	a0,100
  cc:	00810993          	add	s3,sp,8
  d0:	00000097          	auipc	ra,0x0
  d4:	000080e7          	jalr	ra # d0 <.L97+0x16>
  d8:	894e                	mv	s2,s3

000000da <.L98>:
  da:	08000513          	li	a0,128
  de:	00000097          	auipc	ra,0x0
  e2:	000080e7          	jalr	ra # de <.L98+0x4>
  e6:	00a92023          	sw	a0,0(s2)
  ea:	8552                	mv	a0,s4
  ec:	0911                	add	s2,s2,4
  ee:	00000097          	auipc	ra,0x0
  f2:	000080e7          	jalr	ra # ee <.L98+0x14>
  f6:	ff5912e3          	bne	s2,s5,da <.L98>
  fa:	4901                	li	s2,0

000000fc <.L99>:
  fc:	0009a683          	lw	a3,0(s3)
 100:	864a                	mv	a2,s2
 102:	85a6                	mv	a1,s1
 104:	000c0513          	mv	a0,s8
 108:	0905                	add	s2,s2,1
 10a:	00000097          	auipc	ra,0x0
 10e:	000080e7          	jalr	ra # 10a <.L99+0xe>
 112:	0991                	add	s3,s3,4
 114:	ff9914e3          	bne	s2,s9,fc <.L99>
 118:	c895                	beqz	s1,14c <.L102>
 11a:	00042783          	lw	a5,0(s0)
 11e:	1d87a783          	lw	a5,472(a5)
 122:	9782                	jalr	a5
 124:	4466                	lw	s0,88(sp)
 126:	40f6                	lw	ra,92(sp)
 128:	44d6                	lw	s1,84(sp)
 12a:	4946                	lw	s2,80(sp)
 12c:	49b6                	lw	s3,76(sp)
 12e:	4a26                	lw	s4,72(sp)
 130:	4a96                	lw	s5,68(sp)
 132:	4b06                	lw	s6,64(sp)
 134:	5bf2                	lw	s7,60(sp)
 136:	5c62                	lw	s8,56(sp)
 138:	5cd2                	lw	s9,52(sp)
 13a:	4601                	li	a2,0
 13c:	03700593          	li	a1,55
 140:	4501                	li	a0,0
 142:	6125                	add	sp,sp,96
 144:	00000317          	auipc	t1,0x0
 148:	00030067          	jr	t1 # 144 <.L99+0x48>

0000014c <.L102>:
 14c:	4485                	li	s1,1
 14e:	bf09                	j	60 <.L100>

Disassembly of section .text.get_tx_rate:

00000000 <get_tx_rate>:
   0:	6000e7b7          	lui	a5,0x6000e
   4:	53a8                	lw	a0,96(a5)
   6:	8161                	srl	a0,a0,0x18
   8:	07f57513          	and	a0,a0,127
   c:	8082                	ret

Disassembly of section .text.get_tx_rate_pwr:

00000000 <get_tx_rate_pwr>:
   0:	1141                	add	sp,sp,-16
   2:	c606                	sw	ra,12(sp)
   4:	00000097          	auipc	ra,0x0
   8:	000080e7          	jalr	ra # 4 <get_tx_rate_pwr+0x4>
   c:	00355793          	srl	a5,a0,0x3
  10:	18002737          	lui	a4,0x18002
  14:	86070713          	add	a4,a4,-1952 # 18001860 <.L79+0x180016f8>
  18:	0ff7f793          	zext.b	a5,a5
  1c:	97ba                	add	a5,a5,a4
  1e:	078a                	sll	a5,a5,0x2
  20:	4398                	lw	a4,0(a5)
  22:	891d                	and	a0,a0,7
  24:	050a                	sll	a0,a0,0x2
  26:	47bd                	li	a5,15
  28:	00a797b3          	sll	a5,a5,a0
  2c:	8ff9                	and	a5,a5,a4
  2e:	00a7d7b3          	srl	a5,a5,a0
  32:	40b2                	lw	ra,12(sp)
  34:	00000737          	lui	a4,0x0
  38:	0ff7f793          	zext.b	a5,a5
  3c:	00070713          	mv	a4,a4
  40:	97ba                	add	a5,a5,a4
  42:	0f47c503          	lbu	a0,244(a5) # 6000e0f4 <.L79+0x6000df8c>
  46:	0141                	add	sp,sp,16
  48:	8082                	ret

Disassembly of section .text.cpu_reset:

00000000 <cpu_reset>:
   0:	60008737          	lui	a4,0x60008
   4:	431c                	lw	a5,0(a4)
   6:	0207e793          	or	a5,a5,32
   a:	c31c                	sw	a5,0(a4)
   c:	8082                	ret

Disassembly of section .text.phy_close_lna:

00000000 <phy_close_lna>:
   0:	1141                	add	sp,sp,-16
   2:	c422                	sw	s0,8(sp)
   4:	c606                	sw	ra,12(sp)
   6:	00000437          	lui	s0,0x0
   a:	00042783          	lw	a5,0(s0) # 0 <phy_close_lna>
   e:	cd19                	beqz	a0,2c <.L114>
  10:	1d47a783          	lw	a5,468(a5)
  14:	9782                	jalr	a5
  16:	00042783          	lw	a5,0(s0)
  1a:	4422                	lw	s0,8(sp)
  1c:	40b2                	lw	ra,12(sp)
  1e:	1cc7a303          	lw	t1,460(a5)
  22:	4601                	li	a2,0
  24:	4585                	li	a1,1
  26:	4501                	li	a0,0
  28:	0141                	add	sp,sp,16
  2a:	8302                	jr	t1

0000002c <.L114>:
  2c:	1d87a783          	lw	a5,472(a5)
  30:	9782                	jalr	a5
  32:	600267b7          	lui	a5,0x60026
  36:	47d8                	lw	a4,12(a5)
  38:	40b2                	lw	ra,12(sp)
  3a:	4422                	lw	s0,8(sp)
  3c:	9b75                	and	a4,a4,-3
  3e:	c7d8                	sw	a4,12(a5)
  40:	47d8                	lw	a4,12(a5)
  42:	00276713          	or	a4,a4,2
  46:	c7d8                	sw	a4,12(a5)
  48:	0141                	add	sp,sp,16
  4a:	8082                	ret

Disassembly of section .text.freq_stable_test:

00000000 <freq_stable_test>:
   0:	1141                	add	sp,sp,-16
   2:	c606                	sw	ra,12(sp)

00000004 <.L117>:
   4:	4629                	li	a2,10
   6:	4581                	li	a1,0
   8:	4505                	li	a0,1
   a:	00000097          	auipc	ra,0x0
   e:	000080e7          	jalr	ra # a <.L117+0x6>
  12:	4781                	li	a5,0
  14:	4701                	li	a4,0
  16:	4681                	li	a3,0
  18:	03c00613          	li	a2,60
  1c:	08000593          	li	a1,128
  20:	4505                	li	a0,1
  22:	00000097          	auipc	ra,0x0
  26:	000080e7          	jalr	ra # 22 <.L117+0x1e>
  2a:	4601                	li	a2,0
  2c:	4581                	li	a1,0
  2e:	4531                	li	a0,12
  30:	00000097          	auipc	ra,0x0
  34:	000080e7          	jalr	ra # 30 <.L117+0x2c>
  38:	03c00513          	li	a0,60
  3c:	00000097          	auipc	ra,0x0
  40:	000080e7          	jalr	ra # 3c <.L117+0x38>
  44:	4781                	li	a5,0
  46:	4701                	li	a4,0
  48:	4681                	li	a3,0
  4a:	03c00613          	li	a2,60
  4e:	08000593          	li	a1,128
  52:	4501                	li	a0,0
  54:	00000097          	auipc	ra,0x0
  58:	000080e7          	jalr	ra # 54 <.L117+0x50>
  5c:	4629                	li	a2,10
  5e:	4581                	li	a1,0
  60:	4501                	li	a0,0
  62:	00000097          	auipc	ra,0x0
  66:	000080e7          	jalr	ra # 62 <.L117+0x5e>
  6a:	4601                	li	a2,0
  6c:	4581                	li	a1,0
  6e:	05400513          	li	a0,84
  72:	00000097          	auipc	ra,0x0
  76:	000080e7          	jalr	ra # 72 <.L117+0x6e>
  7a:	03c00513          	li	a0,60
  7e:	00000097          	auipc	ra,0x0
  82:	000080e7          	jalr	ra # 7e <.L117+0x7a>
  86:	00000097          	auipc	ra,0x0
  8a:	000080e7          	jalr	ra # 86 <.L117+0x82>
  8e:	f93d                	bnez	a0,4 <.L117>
  90:	40b2                	lw	ra,12(sp)
  92:	0141                	add	sp,sp,16
  94:	8082                	ret

esp_phy_api.o:     file format elf32-littleriscv


Disassembly of section .text.esp_phy_rftest_config:

00000000 <esp_phy_rftest_config>:
   0:	00000317          	auipc	t1,0x0
   4:	00030067          	jr	t1 # 0 <esp_phy_rftest_config>

Disassembly of section .text.esp_phy_rftest_init:

00000000 <esp_phy_rftest_init>:
   0:	00000317          	auipc	t1,0x0
   4:	00030067          	jr	t1 # 0 <esp_phy_rftest_init>

Disassembly of section .text.esp_phy_tx_contin_en:

00000000 <esp_phy_tx_contin_en>:
   0:	00000317          	auipc	t1,0x0
   4:	00030067          	jr	t1 # 0 <esp_phy_tx_contin_en>

Disassembly of section .text.esp_phy_cbw40m_en:

00000000 <esp_phy_cbw40m_en>:
   0:	00000317          	auipc	t1,0x0
   4:	00030067          	jr	t1 # 0 <esp_phy_cbw40m_en>

Disassembly of section .text.esp_phy_wifi_tx:

00000000 <esp_phy_wifi_tx>:
   0:	7179                	add	sp,sp,-48
   2:	c42a                	sw	a0,8(sp)
   4:	c62e                	sw	a1,12(sp)
   6:	0028                	add	a0,sp,8
   8:	4599                	li	a1,6
   a:	d606                	sw	ra,44(sp)
   c:	c832                	sw	a2,16(sp)
   e:	ca36                	sw	a3,20(sp)
  10:	cc3a                	sw	a4,24(sp)
  12:	ce3e                	sw	a5,28(sp)
  14:	00000097          	auipc	ra,0x0
  18:	000080e7          	jalr	ra # 14 <esp_phy_wifi_tx+0x14>
  1c:	50b2                	lw	ra,44(sp)
  1e:	6145                	add	sp,sp,48
  20:	8082                	ret

Disassembly of section .text.esp_phy_wifi_rx:

00000000 <esp_phy_wifi_rx>:
   0:	1101                	add	sp,sp,-32
   2:	c42a                	sw	a0,8(sp)
   4:	0028                	add	a0,sp,8
   6:	ce06                	sw	ra,28(sp)
   8:	c62e                	sw	a1,12(sp)
   a:	00000097          	auipc	ra,0x0
   e:	000080e7          	jalr	ra # a <esp_phy_wifi_rx+0xa>
  12:	40f2                	lw	ra,28(sp)
  14:	6105                	add	sp,sp,32
  16:	8082                	ret

Disassembly of section .text.esp_phy_get_rx_result:

00000000 <esp_phy_get_rx_result>:
   0:	000007b7          	lui	a5,0x0
   4:	0007a703          	lw	a4,0(a5) # 0 <esp_phy_get_rx_result>
   8:	00078793          	mv	a5,a5
   c:	c118                	sw	a4,0(a0)
   e:	43d8                	lw	a4,4(a5)
  10:	479c                	lw	a5,8(a5)
  12:	c158                	sw	a4,4(a0)
  14:	c51c                	sw	a5,8(a0)
  16:	000007b7          	lui	a5,0x0
  1a:	0007c783          	lbu	a5,0(a5) # 0 <esp_phy_get_rx_result>
  1e:	c55c                	sw	a5,12(a0)
  20:	8082                	ret

Disassembly of section .text.esp_phy_wifi_tx_tone:

00000000 <esp_phy_wifi_tx_tone>:
   0:	1101                	add	sp,sp,-32
   2:	c22a                	sw	a0,4(sp)
   4:	0048                	add	a0,sp,4
   6:	ce06                	sw	ra,28(sp)
   8:	c42e                	sw	a1,8(sp)
   a:	c632                	sw	a2,12(sp)
   c:	00000097          	auipc	ra,0x0
  10:	000080e7          	jalr	ra # c <esp_phy_wifi_tx_tone+0xc>
  14:	40f2                	lw	ra,28(sp)
  16:	6105                	add	sp,sp,32
  18:	8082                	ret

Disassembly of section .text.esp_phy_short_gi_en:

00000000 <esp_phy_short_gi_en>:
   0:	000007b7          	lui	a5,0x0
   4:	85aa                	mv	a1,a0
   6:	00a7a023          	sw	a0,0(a5) # 0 <esp_phy_short_gi_en>
   a:	00000537          	lui	a0,0x0
   e:	00050513          	mv	a0,a0
  12:	00000317          	auipc	t1,0x0
  16:	00030067          	jr	t1 # 12 <esp_phy_short_gi_en+0x12>

Disassembly of section .text.esp_phy_ble_tx:

00000000 <esp_phy_ble_tx>:
   0:	00000317          	auipc	t1,0x0
   4:	00030067          	jr	t1 # 0 <esp_phy_ble_tx>

Disassembly of section .text.esp_phy_ble_rx:

00000000 <esp_phy_ble_rx>:
   0:	00000317          	auipc	t1,0x0
   4:	00030067          	jr	t1 # 0 <esp_phy_ble_rx>

Disassembly of section .text.esp_phy_bt_tx_tone:

00000000 <esp_phy_bt_tx_tone>:
   0:	00000317          	auipc	t1,0x0
   4:	00030067          	jr	t1 # 0 <esp_phy_bt_tx_tone>

bb_common.o:     file format elf32-littleriscv


Disassembly of section .text.delay_ns:

00000000 <delay_ns>:
   0:	8082                	ret

Disassembly of section .text.tx_add_pocketnum:

00000000 <tx_add_pocketnum>:
   0:	000007b7          	lui	a5,0x0
   4:	00000737          	lui	a4,0x0
   8:	0007a683          	lw	a3,0(a5) # 0 <tx_add_pocketnum>
   c:	00075783          	lhu	a5,0(a4) # 0 <tx_add_pocketnum>
  10:	00000637          	lui	a2,0x0
  14:	00060613          	mv	a2,a2
  18:	e399                	bnez	a5,1e <.L3>
  1a:	00061023          	sh	zero,0(a2) # 0 <tx_add_pocketnum>

0000001e <.L3>:
  1e:	00065603          	lhu	a2,0(a2)
  22:	00479593          	sll	a1,a5,0x4
  26:	00b68b23          	sb	a1,22(a3)
  2a:	0047d593          	srl	a1,a5,0x4
  2e:	0785                	add	a5,a5,1
  30:	00b68ba3          	sb	a1,23(a3)
  34:	07c2                	sll	a5,a5,0x10
  36:	00865593          	srl	a1,a2,0x8
  3a:	02b68023          	sb	a1,32(a3)
  3e:	02c680a3          	sb	a2,33(a3)
  42:	83c1                	srl	a5,a5,0x10
  44:	6685                	lui	a3,0x1
  46:	00d7f563          	bgeu	a5,a3,50 <.L4>
  4a:	00f71023          	sh	a5,0(a4)
  4e:	8082                	ret

00000050 <.L4>:
  50:	00071023          	sh	zero,0(a4)
  54:	8082                	ret

Disassembly of section .text.trig_tx_frame:

00000000 <trig_tx_frame>:
   0:	1141                	add	sp,sp,-16
   2:	c422                	sw	s0,8(sp)
   4:	00000437          	lui	s0,0x0
   8:	00040413          	mv	s0,s0
   c:	4008                	lw	a0,0(s0)
   e:	c606                	sw	ra,12(sp)
  10:	c226                	sw	s1,4(sp)
  12:	00000097          	auipc	ra,0x0
  16:	000080e7          	jalr	ra # 12 <trig_tx_frame+0x12>
  1a:	84aa                	mv	s1,a0
  1c:	4008                	lw	a0,0(s0)
  1e:	00000097          	auipc	ra,0x0
  22:	000080e7          	jalr	ra # 1e <trig_tx_frame+0x1e>
  26:	000007b7          	lui	a5,0x0
  2a:	0007c783          	lbu	a5,0(a5) # 0 <trig_tx_frame>
  2e:	c3ad                	beqz	a5,90 <.L6>
  30:	600347b7          	lui	a5,0x60034
  34:	c3c7a703          	lw	a4,-964(a5) # 60033c3c <.L192+0x6003346c>
  38:	8b09                	and	a4,a4,2
  3a:	cb39                	beqz	a4,90 <.L6>
  3c:	00000737          	lui	a4,0x0
  40:	60035637          	lui	a2,0x60035
  44:	00070713          	mv	a4,a4
  48:	430c                	lw	a1,0(a4)
  4a:	4214                	lw	a3,0(a2)
  4c:	8e8d                	sub	a3,a3,a1
  4e:	000005b7          	lui	a1,0x0
  52:	0005a583          	lw	a1,0(a1) # 0 <trig_tx_frame>
  56:	02d5fd63          	bgeu	a1,a3,90 <.L6>
  5a:	c347a683          	lw	a3,-972(a5)
  5e:	0026e693          	or	a3,a3,2
  62:	c2d7aa23          	sw	a3,-972(a5)
  66:	c407a683          	lw	a3,-960(a5)
  6a:	0036e693          	or	a3,a3,3
  6e:	c4d7a023          	sw	a3,-960(a5)
  72:	411c                	lw	a5,0(a0)
  74:	ffc016b7          	lui	a3,0xffc01
  78:	16fd                	add	a3,a3,-1 # ffc00fff <.L192+0xffc0082f>
  7a:	8ff5                	and	a5,a5,a3
  7c:	6685                	lui	a3,0x1
  7e:	8fd5                	or	a5,a5,a3
  80:	c11c                	sw	a5,0(a0)
  82:	409c                	lw	a5,0(s1)
  84:	c00006b7          	lui	a3,0xc0000
  88:	8fd5                	or	a5,a5,a3
  8a:	c09c                	sw	a5,0(s1)
  8c:	421c                	lw	a5,0(a2)
  8e:	c31c                	sw	a5,0(a4)

00000090 <.L6>:
  90:	40b2                	lw	ra,12(sp)
  92:	4422                	lw	s0,8(sp)
  94:	4492                	lw	s1,4(sp)
  96:	0141                	add	sp,sp,16
  98:	8082                	ret

Disassembly of section .text.tx_a_frame_trig:

00000000 <tx_a_frame_trig>:
   0:	1141                	add	sp,sp,-16
   2:	4529                	li	a0,10
   4:	c606                	sw	ra,12(sp)
   6:	c422                	sw	s0,8(sp)
   8:	00000097          	auipc	ra,0x0
   c:	000080e7          	jalr	ra # 8 <tx_a_frame_trig+0x8>
  10:	842a                	mv	s0,a0
  12:	4529                	li	a0,10
  14:	00000097          	auipc	ra,0x0
  18:	000080e7          	jalr	ra # 14 <tx_a_frame_trig+0x14>
  1c:	000007b7          	lui	a5,0x0
  20:	4729                	li	a4,10
  22:	00e7a023          	sw	a4,0(a5) # 0 <tx_a_frame_trig>
  26:	600347b7          	lui	a5,0x60034
  2a:	c347a703          	lw	a4,-972(a5) # 60033c34 <.L192+0x60033464>
  2e:	40b2                	lw	ra,12(sp)
  30:	00276713          	or	a4,a4,2
  34:	c2e7aa23          	sw	a4,-972(a5)
  38:	c407a703          	lw	a4,-960(a5)
  3c:	00376713          	or	a4,a4,3
  40:	c4e7a023          	sw	a4,-960(a5)
  44:	411c                	lw	a5,0(a0)
  46:	ffc01737          	lui	a4,0xffc01
  4a:	177d                	add	a4,a4,-1 # ffc00fff <.L192+0xffc0082f>
  4c:	8ff9                	and	a5,a5,a4
  4e:	6705                	lui	a4,0x1
  50:	8fd9                	or	a5,a5,a4
  52:	c11c                	sw	a5,0(a0)
  54:	401c                	lw	a5,0(s0)
  56:	c0000737          	lui	a4,0xc0000
  5a:	8fd9                	or	a5,a5,a4
  5c:	c01c                	sw	a5,0(s0)
  5e:	4422                	lw	s0,8(sp)
  60:	0141                	add	sp,sp,16
  62:	8082                	ret

Disassembly of section .text.tx_a_frame:

00000000 <tx_a_frame>:
   0:	7179                	add	sp,sp,-48
   2:	d606                	sw	ra,44(sp)
   4:	d422                	sw	s0,40(sp)
   6:	d226                	sw	s1,36(sp)
   8:	842a                	mv	s0,a0
   a:	d04a                	sw	s2,32(sp)
   c:	ce4e                	sw	s3,28(sp)
   e:	ca56                	sw	s5,20(sp)
  10:	c85a                	sw	s6,16(sp)
  12:	c65e                	sw	s7,12(sp)
  14:	cc52                	sw	s4,24(sp)
  16:	00000097          	auipc	ra,0x0
  1a:	000080e7          	jalr	ra # 16 <tx_a_frame+0x16>
  1e:	84aa                	mv	s1,a0
  20:	8522                	mv	a0,s0
  22:	00000097          	auipc	ra,0x0
  26:	000080e7          	jalr	ra # 22 <tx_a_frame+0x22>
  2a:	000007b7          	lui	a5,0x0
  2e:	0087a023          	sw	s0,0(a5) # 0 <tx_a_frame>
  32:	600347b7          	lui	a5,0x60034
  36:	c347a703          	lw	a4,-972(a5) # 60033c34 <.L192+0x60033464>
  3a:	0007a9b7          	lui	s3,0x7a
  3e:	892a                	mv	s2,a0
  40:	00276713          	or	a4,a4,2
  44:	c2e7aa23          	sw	a4,-972(a5)
  48:	c407a703          	lw	a4,-960(a5)
  4c:	60034437          	lui	s0,0x60034
  50:	00000b37          	lui	s6,0x0
  54:	00376713          	or	a4,a4,3
  58:	c4e7a023          	sw	a4,-960(a5)
  5c:	411c                	lw	a5,0(a0)
  5e:	ffc01737          	lui	a4,0xffc01
  62:	177d                	add	a4,a4,-1 # ffc00fff <.L192+0xffc0082f>
  64:	8ff9                	and	a5,a5,a4
  66:	6705                	lui	a4,0x1
  68:	8fd9                	or	a5,a5,a4
  6a:	c11c                	sw	a5,0(a0)
  6c:	409c                	lw	a5,0(s1)
  6e:	c0000737          	lui	a4,0xc0000
  72:	60035bb7          	lui	s7,0x60035
  76:	8fd9                	or	a5,a5,a4
  78:	c09c                	sw	a5,0(s1)
  7a:	600357b7          	lui	a5,0x60035
  7e:	0007aa83          	lw	s5,0(a5) # 60035000 <.L192+0x60034830>
  82:	11f98993          	add	s3,s3,287 # 7a11f <.L192+0x7994f>

00000086 <.L20>:
  86:	c3c42783          	lw	a5,-964(s0) # 60033c3c <.L192+0x6003346c>
  8a:	8b89                	and	a5,a5,2
  8c:	cf81                	beqz	a5,a4 <.L19>
  8e:	50b2                	lw	ra,44(sp)
  90:	5422                	lw	s0,40(sp)
  92:	5492                	lw	s1,36(sp)
  94:	5902                	lw	s2,32(sp)
  96:	49f2                	lw	s3,28(sp)
  98:	4a62                	lw	s4,24(sp)
  9a:	4ad2                	lw	s5,20(sp)
  9c:	4b42                	lw	s6,16(sp)
  9e:	4bb2                	lw	s7,12(sp)
  a0:	6145                	add	sp,sp,48
  a2:	8082                	ret

000000a4 <.L19>:
  a4:	6505                	lui	a0,0x1
  a6:	00000097          	auipc	ra,0x0
  aa:	000080e7          	jalr	ra # a6 <.L19+0x2>
  ae:	000b4783          	lbu	a5,0(s6) # 0 <tx_a_frame>
  b2:	fbf1                	bnez	a5,86 <.L20>
  b4:	000baa03          	lw	s4,0(s7) # 60035000 <.L192+0x60034830>
  b8:	415a07b3          	sub	a5,s4,s5
  bc:	fcf9f5e3          	bgeu	s3,a5,86 <.L20>
  c0:	00000537          	lui	a0,0x0
  c4:	00050513          	mv	a0,a0
  c8:	00000097          	auipc	ra,0x0
  cc:	000080e7          	jalr	ra # c8 <.L19+0x24>
  d0:	408c                	lw	a1,0(s1)
  d2:	00092603          	lw	a2,0(s2)
  d6:	00000537          	lui	a0,0x0
  da:	00050513          	mv	a0,a0
  de:	00000097          	auipc	ra,0x0
  e2:	000080e7          	jalr	ra # de <.L19+0x3a>
  e6:	ca842603          	lw	a2,-856(s0)
  ea:	6001d7b7          	lui	a5,0x6001d
  ee:	ca042683          	lw	a3,-864(s0)
  f2:	d8442703          	lw	a4,-636(s0)
  f6:	5422                	lw	s0,40(sp)
  f8:	50b2                	lw	ra,44(sp)
  fa:	5492                	lw	s1,36(sp)
  fc:	5902                	lw	s2,32(sp)
  fe:	49f2                	lw	s3,28(sp)
 100:	4ad2                	lw	s5,20(sp)
 102:	4b42                	lw	s6,16(sp)
 104:	4bb2                	lw	s7,12(sp)
 106:	479c                	lw	a5,8(a5)
 108:	85d2                	mv	a1,s4
 10a:	4a62                	lw	s4,24(sp)
 10c:	00000537          	lui	a0,0x0
 110:	00050513          	mv	a0,a0
 114:	6145                	add	sp,sp,48
 116:	00000317          	auipc	t1,0x0
 11a:	00030067          	jr	t1 # 116 <.L19+0x72>

Disassembly of section .text.test_tx_frame:

00000000 <test_tx_frame>:
   0:	715d                	add	sp,sp,-80
   2:	c62e                	sw	a1,12(sp)
   4:	c43a                	sw	a4,8(sp)
   6:	c23e                	sw	a5,4(sp)
   8:	c686                	sw	ra,76(sp)
   a:	c4a2                	sw	s0,72(sp)
   c:	c2a6                	sw	s1,68(sp)
   e:	c0ca                	sw	s2,64(sp)
  10:	84aa                	mv	s1,a0
  12:	8932                	mv	s2,a2
  14:	de4e                	sw	s3,60(sp)
  16:	dc52                	sw	s4,56(sp)
  18:	89b6                	mv	s3,a3
  1a:	da56                	sw	s5,52(sp)
  1c:	d85a                	sw	s6,48(sp)
  1e:	d65e                	sw	s7,44(sp)
  20:	d462                	sw	s8,40(sp)
  22:	d266                	sw	s9,36(sp)
  24:	d06a                	sw	s10,32(sp)
  26:	ce6e                	sw	s11,28(sp)
  28:	00000097          	auipc	ra,0x0
  2c:	000080e7          	jalr	ra # 28 <test_tx_frame+0x28>
  30:	842a                	mv	s0,a0
  32:	8526                	mv	a0,s1
  34:	00000097          	auipc	ra,0x0
  38:	000080e7          	jalr	ra # 34 <test_tx_frame+0x34>
  3c:	8a2a                	mv	s4,a0
  3e:	8526                	mv	a0,s1
  40:	00000097          	auipc	ra,0x0
  44:	000080e7          	jalr	ra # 40 <test_tx_frame+0x40>
  48:	45b2                	lw	a1,12(sp)
  4a:	46bd                	li	a3,15
  4c:	4792                	lw	a5,4(sp)
  4e:	4722                	lw	a4,8(sp)
  50:	00b6f963          	bgeu	a3,a1,62 <.L23>
  54:	000006b7          	lui	a3,0x0
  58:	0006c683          	lbu	a3,0(a3) # 0 <test_tx_frame>
  5c:	4805                	li	a6,1
  5e:	09069f63          	bne	a3,a6,fc <.L24>

00000062 <.L23>:
  62:	4014                	lw	a3,0(s0)
  64:	667d                	lui	a2,0x1f
  66:	05b2                	sll	a1,a1,0xc
  68:	8df1                	and	a1,a1,a2
  6a:	7605                	lui	a2,0xfffe1
  6c:	167d                	add	a2,a2,-1 # fffe0fff <.L192+0xfffe082f>
  6e:	8ef1                	and	a3,a3,a2
  70:	8dd5                	or	a1,a1,a3
  72:	c00c                	sw	a1,0(s0)
  74:	4014                	lw	a3,0(s0)
  76:	fa000637          	lui	a2,0xfa000
  7a:	167d                	add	a2,a2,-1 # f9ffffff <.L192+0xf9fff82f>
  7c:	8ef1                	and	a3,a3,a2
  7e:	c014                	sw	a3,0(s0)

00000080 <.L25>:
  80:	4014                	lw	a3,0(s0)
  82:	08000637          	lui	a2,0x8000
  86:	07ee                	sll	a5,a5,0x1b
  88:	8ff1                	and	a5,a5,a2
  8a:	f8000637          	lui	a2,0xf8000
  8e:	167d                	add	a2,a2,-1 # f7ffffff <.L192+0xf7fff82f>
  90:	8ef1                	and	a3,a3,a2
  92:	8fd5                	or	a5,a5,a3
  94:	c01c                	sw	a5,0(s0)
  96:	000a2683          	lw	a3,0(s4)
  9a:	00771793          	sll	a5,a4,0x7
  9e:	0ff7f793          	zext.b	a5,a5
  a2:	f7f6f693          	and	a3,a3,-129
  a6:	8fd5                	or	a5,a5,a3
  a8:	00fa2023          	sw	a5,0(s4)
  ac:	401c                	lw	a5,0(s0)
  ae:	cf49                	beqz	a4,148 <.L26>
  b0:	20000737          	lui	a4,0x20000
  b4:	8fd9                	or	a5,a5,a4

000000b6 <.L43>:
  b6:	c01c                	sw	a5,0(s0)
  b8:	000f4ab7          	lui	s5,0xf4
  bc:	00000437          	lui	s0,0x0
  c0:	4a01                	li	s4,0
  c2:	00000b37          	lui	s6,0x0
  c6:	00000bb7          	lui	s7,0x0
  ca:	00000c37          	lui	s8,0x0
  ce:	00000cb7          	lui	s9,0x0
  d2:	23fa8a93          	add	s5,s5,575 # f423f <.L192+0xf3a6f>
  d6:	00040413          	mv	s0,s0

000000da <.L27>:
  da:	07491c63          	bne	s2,s4,152 <.L32>
  de:	40b6                	lw	ra,76(sp)
  e0:	4426                	lw	s0,72(sp)
  e2:	4496                	lw	s1,68(sp)
  e4:	4906                	lw	s2,64(sp)
  e6:	59f2                	lw	s3,60(sp)
  e8:	5a62                	lw	s4,56(sp)
  ea:	5ad2                	lw	s5,52(sp)
  ec:	5b42                	lw	s6,48(sp)
  ee:	5bb2                	lw	s7,44(sp)
  f0:	5c22                	lw	s8,40(sp)
  f2:	5c92                	lw	s9,36(sp)
  f4:	5d02                	lw	s10,32(sp)
  f6:	4df2                	lw	s11,28(sp)
  f8:	6161                	add	sp,sp,80
  fa:	8082                	ret

000000fc <.L24>:
  fc:	4014                	lw	a3,0(s0)
  fe:	7605                	lui	a2,0xfffe1
 100:	167d                	add	a2,a2,-1 # fffe0fff <.L192+0xfffe082f>
 102:	8ef1                	and	a3,a3,a2
 104:	662d                	lui	a2,0xb
 106:	8ed1                	or	a3,a3,a2
 108:	c014                	sw	a3,0(s0)
 10a:	4014                	lw	a3,0(s0)
 10c:	fa000637          	lui	a2,0xfa000
 110:	167d                	add	a2,a2,-1 # f9ffffff <.L192+0xf9fff82f>
 112:	8ef1                	and	a3,a3,a2
 114:	02000637          	lui	a2,0x2000
 118:	8ed1                	or	a3,a3,a2
 11a:	c014                	sw	a3,0(s0)
 11c:	000a2603          	lw	a2,0(s4)
 120:	ff058693          	add	a3,a1,-16
 124:	07f6f693          	and	a3,a3,127
 128:	f8067613          	and	a2,a2,-128
 12c:	8ed1                	or	a3,a3,a2
 12e:	00da2023          	sw	a3,0(s4)
 132:	f50717e3          	bne	a4,a6,80 <.L25>
 136:	4114                	lw	a3,0(a0)
 138:	10000637          	lui	a2,0x10000
 13c:	167d                	add	a2,a2,-1 # fffffff <.L192+0xffff82f>
 13e:	8ef1                	and	a3,a3,a2
 140:	05f2                	sll	a1,a1,0x1c
 142:	8dd5                	or	a1,a1,a3
 144:	c10c                	sw	a1,0(a0)
 146:	bf2d                	j	80 <.L25>

00000148 <.L26>:
 148:	e0000737          	lui	a4,0xe0000
 14c:	177d                	add	a4,a4,-1 # dfffffff <.L192+0xdffff82f>
 14e:	8ff9                	and	a5,a5,a4
 150:	b79d                	j	b6 <.L43>

00000152 <.L32>:
 152:	8526                	mv	a0,s1
 154:	00000097          	auipc	ra,0x0
 158:	000080e7          	jalr	ra # 154 <.L32+0x2>
 15c:	000b4783          	lbu	a5,0(s6) # 0 <test_tx_frame>
 160:	000b8d13          	mv	s10,s7
 164:	cb89                	beqz	a5,176 <.L29>
 166:	000d4583          	lbu	a1,0(s10)
 16a:	000c4503          	lbu	a0,0(s8) # 0 <test_tx_frame>
 16e:	00000097          	auipc	ra,0x0
 172:	000080e7          	jalr	ra # 16e <.L32+0x1c>

00000176 <.L29>:
 176:	000d4783          	lbu	a5,0(s10)
 17a:	cf8d                	beqz	a5,1b4 <.L30>
 17c:	60035db7          	lui	s11,0x60035
 180:	000c8d13          	mv	s10,s9
 184:	000da783          	lw	a5,0(s11) # 60035000 <.L192+0x60034830>
 188:	000d2703          	lw	a4,0(s10)
 18c:	8f99                	sub	a5,a5,a4
 18e:	02faf363          	bgeu	s5,a5,1b4 <.L30>
 192:	00000097          	auipc	ra,0x0
 196:	000080e7          	jalr	ra # 192 <.L29+0x1c>
 19a:	85aa                	mv	a1,a0
 19c:	00000537          	lui	a0,0x0
 1a0:	00050513          	mv	a0,a0
 1a4:	00000097          	auipc	ra,0x0
 1a8:	000080e7          	jalr	ra # 1a4 <.L29+0x2e>
 1ac:	000da783          	lw	a5,0(s11)
 1b0:	00fd2023          	sw	a5,0(s10)

000001b4 <.L30>:
 1b4:	09c44783          	lbu	a5,156(s0) # 9c <.L25+0x1c>
 1b8:	c799                	beqz	a5,1c6 <.L31>
 1ba:	09b44503          	lbu	a0,155(s0)
 1be:	00000097          	auipc	ra,0x0
 1c2:	000080e7          	jalr	ra # 1be <.L30+0xa>

000001c6 <.L31>:
 1c6:	01099513          	sll	a0,s3,0x10
 1ca:	8141                	srl	a0,a0,0x10
 1cc:	00000097          	auipc	ra,0x0
 1d0:	000080e7          	jalr	ra # 1cc <.L31+0x6>
 1d4:	0a05                	add	s4,s4,1
 1d6:	b711                	j	da <.L27>

Disassembly of section .text.set_mac_filter:

00000000 <set_mac_filter>:
   0:	600337b7          	lui	a5,0x60033
   4:	c3a8                	sw	a0,64(a5)
   6:	c3ec                	sw	a1,68(a5)
   8:	473d                	li	a4,15
   a:	0ce7ae23          	sw	a4,220(a5) # 600330dc <.L192+0x6003290c>
   e:	0ee7a023          	sw	a4,224(a5)
  12:	0ee7a223          	sw	a4,228(a5)
  16:	577d                	li	a4,-1
  18:	d3b8                	sw	a4,96(a5)
  1a:	00020737          	lui	a4,0x20
  1e:	177d                	add	a4,a4,-1 # 1ffff <.L192+0x1f82f>
  20:	d3f8                	sw	a4,100(a5)
  22:	8082                	ret

Disassembly of section .text.get_rxctrl_addr:

00000000 <get_rxctrl_addr>:
   0:	600336b7          	lui	a3,0x60033
   4:	600347b7          	lui	a5,0x60034
   8:	c647a783          	lw	a5,-924(a5) # 60033c64 <.L192+0x60033494>
   c:	0946a703          	lw	a4,148(a3) # 60033094 <.L192+0x600328c4>
  10:	fff00637          	lui	a2,0xfff00
  14:	8ff1                	and	a5,a5,a2
  16:	0711                	add	a4,a4,4
  18:	97ba                	add	a5,a5,a4
  1a:	4388                	lw	a0,0(a5)
  1c:	0806a783          	lw	a5,128(a3)
  20:	0ff7f793          	zext.b	a5,a5
  24:	953e                	add	a0,a0,a5
  26:	8082                	ret

Disassembly of section .text.get_rx_freq_local:

00000000 <get_rx_freq_local>:
   0:	1141                	add	sp,sp,-16
   2:	c606                	sw	ra,12(sp)
   4:	00000097          	auipc	ra,0x0
   8:	000080e7          	jalr	ra # 4 <get_rx_freq_local+0x4>
   c:	411c                	lw	a5,0(a0)
   e:	6731                	lui	a4,0xc
  10:	8f7d                	and	a4,a4,a5
  12:	c31d                	beqz	a4,38 <.L47>
  14:	4158                	lw	a4,4(a0)
  16:	83a9                	srl	a5,a5,0xa
  18:	0307f793          	and	a5,a5,48
  1c:	07f77713          	and	a4,a4,127
  20:	97ba                	add	a5,a5,a4

00000022 <.L48>:
  22:	00000737          	lui	a4,0x0
  26:	00072703          	lw	a4,0(a4) # 0 <get_rx_freq_local>
  2a:	490c                	lw	a1,16(a0)
  2c:	40b2                	lw	ra,12(sp)
  2e:	0dc72303          	lw	t1,220(a4)
  32:	853e                	mv	a0,a5
  34:	0141                	add	sp,sp,16
  36:	8302                	jr	t1

00000038 <.L47>:
  38:	83a1                	srl	a5,a5,0x8
  3a:	8bfd                	and	a5,a5,31
  3c:	b7dd                	j	22 <.L48>

Disassembly of section .text.esp_get_rx_result:

00000000 <esp_get_rx_result>:
   0:	000007b7          	lui	a5,0x0
   4:	00078793          	mv	a5,a5
   8:	4398                	lw	a4,0(a5)
   a:	c118                	sw	a4,0(a0)
   c:	43d8                	lw	a4,4(a5)
   e:	c158                	sw	a4,4(a0)
  10:	479c                	lw	a5,8(a5)
  12:	c51c                	sw	a5,8(a0)
  14:	000007b7          	lui	a5,0x0
  18:	0007c503          	lbu	a0,0(a5) # 0 <esp_get_rx_result>
  1c:	8082                	ret

Disassembly of section .text.do_rx_poll:

00000000 <do_rx_poll>:
   0:	7115                	add	sp,sp,-224
   2:	cda2                	sw	s0,216(sp)
   4:	d96a                	sw	s10,176(sp)
   6:	1180                	add	s0,sp,224
   8:	cf86                	sw	ra,220(sp)
   a:	cba6                	sw	s1,212(sp)
   c:	c9ca                	sw	s2,208(sp)
   e:	c7ce                	sw	s3,204(sp)
  10:	c5d2                	sw	s4,200(sp)
  12:	c3d6                	sw	s5,196(sp)
  14:	c1da                	sw	s6,192(sp)
  16:	df5e                	sw	s7,188(sp)
  18:	dd62                	sw	s8,184(sp)
  1a:	db66                	sw	s9,180(sp)
  1c:	d76e                	sw	s11,172(sp)
  1e:	01051793          	sll	a5,a0,0x10
  22:	83c1                	srl	a5,a5,0x10
  24:	f4f42e23          	sw	a5,-164(s0)
  28:	01155793          	srl	a5,a0,0x11
  2c:	8b85                	and	a5,a5,1
  2e:	f4f42023          	sw	a5,-192(s0)
  32:	01855793          	srl	a5,a0,0x18
  36:	f0078713          	add	a4,a5,-256
  3a:	83010113          	add	sp,sp,-2000
  3e:	f6f42023          	sw	a5,-160(s0)
  42:	47a9                	li	a5,10
  44:	02f70d33          	mul	s10,a4,a5
  48:	081c                	add	a5,sp,16
  4a:	83010113          	add	sp,sp,-2000
  4e:	f8f42423          	sw	a5,-120(s0)
  52:	081c                	add	a5,sp,16
  54:	83010113          	add	sp,sp,-2000
  58:	000006b7          	lui	a3,0x0
  5c:	f6f42e23          	sw	a5,-132(s0)
  60:	081c                	add	a5,sp,16
  62:	83010113          	add	sp,sp,-2000
  66:	00068713          	mv	a4,a3
  6a:	f6f42823          	sw	a5,-144(s0)
  6e:	081c                	add	a5,sp,16
  70:	f6f42423          	sw	a5,-152(s0)
  74:	00068023          	sb	zero,0(a3) # 0 <do_rx_poll>
  78:	4781                	li	a5,0
  7a:	f2e42e23          	sw	a4,-196(s0)
  7e:	7d000693          	li	a3,2000

00000082 <.L52>:
  82:	f8842703          	lw	a4,-120(s0)
  86:	00f70633          	add	a2,a4,a5
  8a:	f7c42703          	lw	a4,-132(s0)
  8e:	00062023          	sw	zero,0(a2) # fff00000 <.L192+0xffeff830>
  92:	00f70633          	add	a2,a4,a5
  96:	f7042703          	lw	a4,-144(s0)
  9a:	00062023          	sw	zero,0(a2)
  9e:	00f70633          	add	a2,a4,a5
  a2:	f6842703          	lw	a4,-152(s0)
  a6:	00062023          	sw	zero,0(a2)
  aa:	00f70633          	add	a2,a4,a5
  ae:	00062023          	sw	zero,0(a2)
  b2:	0791                	add	a5,a5,4
  b4:	fcd797e3          	bne	a5,a3,82 <.L52>
  b8:	600347b7          	lui	a5,0x60034
  bc:	fa041c23          	sh	zero,-72(s0)
  c0:	8007a023          	sw	zero,-2048(a5) # 60033800 <.L192+0x60033030>
  c4:	600356b7          	lui	a3,0x60035
  c8:	0006a223          	sw	zero,4(a3) # 60035004 <.L192+0x60034834>
  cc:	c407a683          	lw	a3,-960(a5)
  d0:	4481                	li	s1,0
  d2:	4c81                	li	s9,0
  d4:	00c6e693          	or	a3,a3,12
  d8:	c4d7a023          	sw	a3,-960(a5)
  dc:	6001c7b7          	lui	a5,0x6001c
  e0:	4f9c                	lw	a5,24(a5)
  e2:	46a9                	li	a3,10
  e4:	f6042223          	sw	zero,-156(s0)
  e8:	8395                	srl	a5,a5,0x5
  ea:	c007e793          	or	a5,a5,-1024
  ee:	02d787b3          	mul	a5,a5,a3
  f2:	4691                	li	a3,4
  f4:	f6042623          	sw	zero,-148(s0)
  f8:	f6042a23          	sw	zero,-140(s0)
  fc:	f6042c23          	sw	zero,-136(s0)
 100:	f8042023          	sw	zero,-128(s0)
 104:	f8042223          	sw	zero,-124(s0)
 108:	f8042623          	sw	zero,-116(s0)
 10c:	f8042823          	sw	zero,-112(s0)
 110:	f8042a23          	sw	zero,-108(s0)
 114:	02d7c7b3          	div	a5,a5,a3
 118:	f8042c23          	sw	zero,-104(s0)
 11c:	f8042e23          	sw	zero,-100(s0)
 120:	b0000d93          	li	s11,-1280
 124:	fa042023          	sw	zero,-96(s0)
 128:	4c01                	li	s8,0
 12a:	4901                	li	s2,0
 12c:	4b81                	li	s7,0
 12e:	4981                	li	s3,0
 130:	4b01                	li	s6,0
 132:	4a01                	li	s4,0
 134:	4a81                	li	s5,0
 136:	fa042223          	sw	zero,-92(s0)
 13a:	fa042423          	sw	zero,-88(s0)
 13e:	fa042623          	sw	zero,-84(s0)
 142:	f4f42c23          	sw	a5,-168(s0)
 146:	67c1                	lui	a5,0x10
 148:	17c1                	add	a5,a5,-16 # fff0 <.L192+0xf820>
 14a:	8fe9                	and	a5,a5,a0
 14c:	f2f42c23          	sw	a5,-200(s0)
 150:	fd3d0793          	add	a5,s10,-45
 154:	f4f42a23          	sw	a5,-172(s0)
 158:	fddd0793          	add	a5,s10,-35
 15c:	f4f42823          	sw	a5,-176(s0)
 160:	fe7d0793          	add	a5,s10,-25
 164:	f4f42623          	sw	a5,-180(s0)
 168:	ff1d0793          	add	a5,s10,-15
 16c:	f4f42423          	sw	a5,-184(s0)
 170:	ffbd0793          	add	a5,s10,-5
 174:	f4f42223          	sw	a5,-188(s0)

00000178 <.L81>:
 178:	02000513          	li	a0,32
 17c:	00000097          	auipc	ra,0x0
 180:	000080e7          	jalr	ra # 17c <.L81+0x4>
 184:	60034637          	lui	a2,0x60034
 188:	c3c62683          	lw	a3,-964(a2) # 60033c3c <.L192+0x6003346c>
 18c:	600337b7          	lui	a5,0x60033
 190:	0a87a783          	lw	a5,168(a5) # 600330a8 <.L192+0x600328d8>
 194:	0046f513          	and	a0,a3,4
 198:	36050963          	beqz	a0,50a <.L53>
 19c:	1f300693          	li	a3,499
 1a0:	0ff7f793          	zext.b	a5,a5
 1a4:	0526c663          	blt	a3,s2,1f0 <.L54>
 1a8:	f8842703          	lw	a4,-120(s0)
 1ac:	00291693          	sll	a3,s2,0x2
 1b0:	00d70633          	add	a2,a4,a3
 1b4:	f7c42703          	lw	a4,-132(s0)
 1b8:	c21c                	sw	a5,0(a2)
 1ba:	60035637          	lui	a2,0x60035
 1be:	4210                	lw	a2,0(a2)
 1c0:	00d70533          	add	a0,a4,a3
 1c4:	f6842703          	lw	a4,-152(s0)
 1c8:	c110                	sw	a2,0(a0)
 1ca:	00d70533          	add	a0,a4,a3
 1ce:	fa442703          	lw	a4,-92(s0)
 1d2:	c118                	sw	a4,0(a0)
 1d4:	f7042703          	lw	a4,-144(s0)
 1d8:	41860533          	sub	a0,a2,s8
 1dc:	96ba                	add	a3,a3,a4
 1de:	c288                	sw	a0,0(a3)
 1e0:	c791                	beqz	a5,1ec <.L55>
 1e2:	04100693          	li	a3,65
 1e6:	00d78363          	beq	a5,a3,1ec <.L55>
 1ea:	8662                	mv	a2,s8

000001ec <.L55>:
 1ec:	0905                	add	s2,s2,1
 1ee:	8c32                	mv	s8,a2

000001f0 <.L54>:
 1f0:	2a079b63          	bnez	a5,4a6 <.L56>
 1f4:	600337b7          	lui	a5,0x60033
 1f8:	0ac7a603          	lw	a2,172(a5) # 600330ac <.L192+0x600328dc>
 1fc:	0b07a803          	lw	a6,176(a5)
 200:	f2c42823          	sw	a2,-208(s0)
 204:	f3042a23          	sw	a6,-204(s0)
 208:	00000097          	auipc	ra,0x0
 20c:	000080e7          	jalr	ra # 208 <.L54+0x18>
 210:	f3842783          	lw	a5,-200(s0)
 214:	f3442803          	lw	a6,-204(s0)
 218:	f3042603          	lw	a2,-208(s0)
 21c:	cfe5                	beqz	a5,314 <.L57>
 21e:	08087793          	and	a5,a6,128
 222:	cbed                	beqz	a5,314 <.L57>
 224:	01550783          	lb	a5,21(a0) # 15 <do_rx_poll+0x15>

00000228 <.L58>:
 228:	01665693          	srl	a3,a2,0x16
 22c:	8a8d                	and	a3,a3,3
 22e:	c6f5                	beqz	a3,31a <.L59>
 230:	00f87613          	and	a2,a6,15
 234:	01066613          	or	a2,a2,16

00000238 <.L60>:
 238:	f5c42703          	lw	a4,-164(s0)
 23c:	0692                	sll	a3,a3,0x4
 23e:	8ed1                	or	a3,a3,a2
 240:	0a05                	add	s4,s4,1
 242:	0ce68f63          	beq	a3,a4,320 <.L61>
 246:	0985                	add	s3,s3,1

00000248 <.L62>:
 248:	600346b7          	lui	a3,0x60034
 24c:	c406a783          	lw	a5,-960(a3) # 60033c40 <.L192+0x60033470>
 250:	00c7e793          	or	a5,a5,12
 254:	c4f6a023          	sw	a5,-960(a3)

00000258 <.L80>:
 258:	00000097          	auipc	ra,0x0
 25c:	000080e7          	jalr	ra # 258 <.L80>
 260:	fd01                	bnez	a0,178 <.L81>
 262:	60034737          	lui	a4,0x60034
 266:	c4072783          	lw	a5,-960(a4) # 60033c40 <.L192+0x60033470>
 26a:	00c7e793          	or	a5,a5,12
 26e:	c4f72023          	sw	a5,-960(a4)
 272:	2c0a8563          	beqz	s5,53c <.L91>
 276:	fac42783          	lw	a5,-84(s0)
 27a:	4729                	li	a4,10
 27c:	02e78733          	mul	a4,a5,a4
 280:	fa842783          	lw	a5,-88(s0)
 284:	03574733          	div	a4,a4,s5
 288:	0357c6b3          	div	a3,a5,s5

0000028c <.L82>:
 28c:	f3c42603          	lw	a2,-196(s0)
 290:	4785                	li	a5,1
 292:	00f60023          	sb	a5,0(a2) # 60035000 <.L192+0x60034830>
 296:	000007b7          	lui	a5,0x0
 29a:	00078793          	mv	a5,a5
 29e:	0157a023          	sw	s5,0(a5) # 0 <do_rx_poll>
 2a2:	c3d4                	sw	a3,4(a5)
 2a4:	0147a423          	sw	s4,8(a5)
 2a8:	f4042783          	lw	a5,-192(s0)
 2ac:	2c078763          	beqz	a5,57a <.L83>
 2b0:	fb841783          	lh	a5,-72(s0)
 2b4:	00000537          	lui	a0,0x0
 2b8:	c04e                	sw	s3,0(sp)
 2ba:	c43e                	sw	a5,8(sp)
 2bc:	f5842783          	lw	a5,-168(s0)
 2c0:	85d2                	mv	a1,s4
 2c2:	c202                	sw	zero,4(sp)
 2c4:	88de                	mv	a7,s7
 2c6:	885a                	mv	a6,s6
 2c8:	8656                	mv	a2,s5
 2ca:	00050513          	mv	a0,a0
 2ce:	00000097          	auipc	ra,0x0
 2d2:	000080e7          	jalr	ra # 2ce <.L82+0x42>
 2d6:	4481                	li	s1,0
 2d8:	4981                	li	s3,0
 2da:	00000a37          	lui	s4,0x0

000002de <.L84>:
 2de:	27299263          	bne	s3,s2,542 <.L85>
 2e2:	00000537          	lui	a0,0x0
 2e6:	00050513          	mv	a0,a0

000002ea <.L113>:
 2ea:	00000097          	auipc	ra,0x0
 2ee:	000080e7          	jalr	ra # 2ea <.L113>
 2f2:	f2040113          	add	sp,s0,-224
 2f6:	40fe                	lw	ra,220(sp)
 2f8:	446e                	lw	s0,216(sp)
 2fa:	44de                	lw	s1,212(sp)
 2fc:	494e                	lw	s2,208(sp)
 2fe:	49be                	lw	s3,204(sp)
 300:	4a2e                	lw	s4,200(sp)
 302:	4a9e                	lw	s5,196(sp)
 304:	4b0e                	lw	s6,192(sp)
 306:	5bfa                	lw	s7,188(sp)
 308:	5c6a                	lw	s8,184(sp)
 30a:	5cda                	lw	s9,180(sp)
 30c:	5d4a                	lw	s10,176(sp)
 30e:	5dba                	lw	s11,172(sp)
 310:	612d                	add	sp,sp,224
 312:	8082                	ret

00000314 <.L57>:
 314:	00050783          	lb	a5,0(a0) # 0 <do_rx_poll>
 318:	bf01                	j	228 <.L58>

0000031a <.L59>:
 31a:	8241                	srl	a2,a2,0x10
 31c:	8a7d                	and	a2,a2,31
 31e:	bf29                	j	238 <.L60>

00000320 <.L61>:
 320:	46a9                	li	a3,10
 322:	02d787b3          	mul	a5,a5,a3
 326:	600356b7          	lui	a3,0x60035
 32a:	0006ac03          	lw	s8,0(a3) # 60035000 <.L192+0x60034830>
 32e:	fac42703          	lw	a4,-84(s0)
 332:	fa442683          	lw	a3,-92(s0)
 336:	0a85                	add	s5,s5,1
 338:	9736                	add	a4,a4,a3
 33a:	fae42623          	sw	a4,-84(s0)
 33e:	fa842703          	lw	a4,-88(s0)
 342:	973e                	add	a4,a4,a5
 344:	fae42423          	sw	a4,-88(s0)
 348:	fa042703          	lw	a4,-96(s0)
 34c:	00e7d463          	bge	a5,a4,354 <.L63>
 350:	faf42023          	sw	a5,-96(s0)

00000354 <.L63>:
 354:	00fdd363          	bge	s11,a5,35a <.L64>
 358:	8dbe                	mv	s11,a5

0000035a <.L64>:
 35a:	f2f42a23          	sw	a5,-204(s0)
 35e:	00000097          	auipc	ra,0x0
 362:	000080e7          	jalr	ra # 35e <.L64+0x4>
 366:	00149693          	sll	a3,s1,0x1
 36a:	fc040793          	add	a5,s0,-64
 36e:	0485                	add	s1,s1,1
 370:	96be                	add	a3,a3,a5
 372:	04c2                	sll	s1,s1,0x10
 374:	fea69c23          	sh	a0,-8(a3)
 378:	84c1                	sra	s1,s1,0x10
 37a:	4691                	li	a3,4
 37c:	f3442783          	lw	a5,-204(s0)
 380:	00d49363          	bne	s1,a3,386 <.L65>
 384:	4481                	li	s1,0

00000386 <.L65>:
 386:	f5442703          	lw	a4,-172(s0)
 38a:	00e7dc63          	bge	a5,a4,3a2 <.L66>
 38e:	fc9d0693          	add	a3,s10,-55
 392:	00d7c863          	blt	a5,a3,3a2 <.L66>
 396:	f9c42783          	lw	a5,-100(s0)
 39a:	0785                	add	a5,a5,1
 39c:	f8f42e23          	sw	a5,-100(s0)
 3a0:	b565                	j	248 <.L62>

000003a2 <.L66>:
 3a2:	f5042703          	lw	a4,-176(s0)
 3a6:	00e7dc63          	bge	a5,a4,3be <.L67>
 3aa:	f5442703          	lw	a4,-172(s0)
 3ae:	00e7c863          	blt	a5,a4,3be <.L67>
 3b2:	f9842783          	lw	a5,-104(s0)
 3b6:	0785                	add	a5,a5,1
 3b8:	f8f42c23          	sw	a5,-104(s0)
 3bc:	b571                	j	248 <.L62>

000003be <.L67>:
 3be:	f4c42703          	lw	a4,-180(s0)
 3c2:	00e7dc63          	bge	a5,a4,3da <.L68>
 3c6:	f5042703          	lw	a4,-176(s0)
 3ca:	00e7c863          	blt	a5,a4,3da <.L68>
 3ce:	f9442783          	lw	a5,-108(s0)
 3d2:	0785                	add	a5,a5,1
 3d4:	f8f42a23          	sw	a5,-108(s0)
 3d8:	bd85                	j	248 <.L62>

000003da <.L68>:
 3da:	f4842703          	lw	a4,-184(s0)
 3de:	00e7dc63          	bge	a5,a4,3f6 <.L69>
 3e2:	f4c42703          	lw	a4,-180(s0)
 3e6:	00e7c863          	blt	a5,a4,3f6 <.L69>
 3ea:	f9042783          	lw	a5,-112(s0)
 3ee:	0785                	add	a5,a5,1
 3f0:	f8f42823          	sw	a5,-112(s0)
 3f4:	bd91                	j	248 <.L62>

000003f6 <.L69>:
 3f6:	f4442703          	lw	a4,-188(s0)
 3fa:	00e7dc63          	bge	a5,a4,412 <.L70>
 3fe:	f4842703          	lw	a4,-184(s0)
 402:	00e7c863          	blt	a5,a4,412 <.L70>
 406:	f8c42783          	lw	a5,-116(s0)
 40a:	0785                	add	a5,a5,1
 40c:	f8f42623          	sw	a5,-116(s0)
 410:	bd25                	j	248 <.L62>

00000412 <.L70>:
 412:	004d0693          	add	a3,s10,4
 416:	00f6cc63          	blt	a3,a5,42e <.L71>
 41a:	f4442703          	lw	a4,-188(s0)
 41e:	00e7c863          	blt	a5,a4,42e <.L71>
 422:	f8442783          	lw	a5,-124(s0)
 426:	0785                	add	a5,a5,1
 428:	f8f42223          	sw	a5,-124(s0)
 42c:	bd31                	j	248 <.L62>

0000042e <.L71>:
 42e:	00ed0613          	add	a2,s10,14
 432:	00f64a63          	blt	a2,a5,446 <.L72>
 436:	00f6d863          	bge	a3,a5,446 <.L72>
 43a:	f8042783          	lw	a5,-128(s0)
 43e:	0785                	add	a5,a5,1
 440:	f8f42023          	sw	a5,-128(s0)
 444:	b511                	j	248 <.L62>

00000446 <.L72>:
 446:	018d0693          	add	a3,s10,24
 44a:	00f6ca63          	blt	a3,a5,45e <.L73>
 44e:	00f65863          	bge	a2,a5,45e <.L73>
 452:	f7842783          	lw	a5,-136(s0)
 456:	0785                	add	a5,a5,1
 458:	f6f42c23          	sw	a5,-136(s0)
 45c:	b3f5                	j	248 <.L62>

0000045e <.L73>:
 45e:	022d0613          	add	a2,s10,34
 462:	00f64a63          	blt	a2,a5,476 <.L74>
 466:	00f6d863          	bge	a3,a5,476 <.L74>
 46a:	f7442783          	lw	a5,-140(s0)
 46e:	0785                	add	a5,a5,1
 470:	f6f42a23          	sw	a5,-140(s0)
 474:	bbd1                	j	248 <.L62>

00000476 <.L74>:
 476:	02cd0693          	add	a3,s10,44
 47a:	00f6ca63          	blt	a3,a5,48e <.L75>
 47e:	00f65863          	bge	a2,a5,48e <.L75>
 482:	f6c42783          	lw	a5,-148(s0)
 486:	0785                	add	a5,a5,1
 488:	f6f42623          	sw	a5,-148(s0)
 48c:	bb75                	j	248 <.L62>

0000048e <.L75>:
 48e:	036d0613          	add	a2,s10,54
 492:	daf64be3          	blt	a2,a5,248 <.L62>
 496:	daf6d9e3          	bge	a3,a5,248 <.L62>
 49a:	f6442783          	lw	a5,-156(s0)
 49e:	0785                	add	a5,a5,1
 4a0:	f6f42223          	sw	a5,-156(s0)
 4a4:	b355                	j	248 <.L62>

000004a6 <.L56>:
 4a6:	08000693          	li	a3,128
 4aa:	0b05                	add	s6,s6,1
 4ac:	02d79263          	bne	a5,a3,4d0 <.L76>
 4b0:	0985                	add	s3,s3,1

000004b2 <.L77>:
 4b2:	f6042703          	lw	a4,-160(s0)
 4b6:	d8f719e3          	bne	a4,a5,248 <.L62>
 4ba:	4791                	li	a5,4
 4bc:	d997c6e3          	blt	a5,s9,248 <.L62>
 4c0:	600337b7          	lui	a5,0x60033
 4c4:	0ac7a683          	lw	a3,172(a5) # 600330ac <.L192+0x600328dc>
 4c8:	0c85                	add	s9,s9,1 # 1 <do_rx_poll+0x1>
 4ca:	0ac7a783          	lw	a5,172(a5)
 4ce:	bbad                	j	248 <.L62>

000004d0 <.L76>:
 4d0:	04100693          	li	a3,65
 4d4:	fcd79fe3          	bne	a5,a3,4b2 <.L77>
 4d8:	600336b7          	lui	a3,0x60033
 4dc:	0ac6a603          	lw	a2,172(a3) # 600330ac <.L192+0x600328dc>
 4e0:	0b06a503          	lw	a0,176(a3)
 4e4:	01665693          	srl	a3,a2,0x16
 4e8:	8a8d                	and	a3,a3,3
 4ea:	ce89                	beqz	a3,504 <.L78>
 4ec:	00f57613          	and	a2,a0,15
 4f0:	01066613          	or	a2,a2,16

000004f4 <.L79>:
 4f4:	f5c42703          	lw	a4,-164(s0)
 4f8:	0692                	sll	a3,a3,0x4
 4fa:	8ed1                	or	a3,a3,a2
 4fc:	fae69be3          	bne	a3,a4,4b2 <.L77>
 500:	0b85                	add	s7,s7,1 # 1 <do_rx_poll+0x1>
 502:	bf45                	j	4b2 <.L77>

00000504 <.L78>:
 504:	8241                	srl	a2,a2,0x10
 506:	8a7d                	and	a2,a2,31
 508:	b7f5                	j	4f4 <.L79>

0000050a <.L53>:
 50a:	8aa1                	and	a3,a3,8
 50c:	d40686e3          	beqz	a3,258 <.L80>
 510:	6001c7b7          	lui	a5,0x6001c
 514:	57fc                	lw	a5,108(a5)
 516:	0ff7f793          	zext.b	a5,a5
 51a:	faf42223          	sw	a5,-92(s0)
 51e:	c4062783          	lw	a5,-960(a2)
 522:	0087e793          	or	a5,a5,8
 526:	c4f62023          	sw	a5,-960(a2)
 52a:	4791                	li	a5,4
 52c:	d397c6e3          	blt	a5,s9,258 <.L80>
 530:	4579                	li	a0,30
 532:	00000097          	auipc	ra,0x0
 536:	000080e7          	jalr	ra # 532 <.L53+0x28>
 53a:	bb39                	j	258 <.L80>

0000053c <.L91>:
 53c:	4681                	li	a3,0
 53e:	4701                	li	a4,0
 540:	b3b1                	j	28c <.L82>

00000542 <.L85>:
 542:	f7042783          	lw	a5,-144(s0)
 546:	000a0513          	mv	a0,s4
 54a:	0985                	add	s3,s3,1
 54c:	00978733          	add	a4,a5,s1
 550:	f6842783          	lw	a5,-152(s0)
 554:	4318                	lw	a4,0(a4)
 556:	009786b3          	add	a3,a5,s1
 55a:	f7c42783          	lw	a5,-132(s0)
 55e:	4294                	lw	a3,0(a3)
 560:	00978633          	add	a2,a5,s1
 564:	f8842783          	lw	a5,-120(s0)
 568:	4210                	lw	a2,0(a2)
 56a:	97a6                	add	a5,a5,s1
 56c:	438c                	lw	a1,0(a5)
 56e:	0491                	add	s1,s1,4
 570:	00000097          	auipc	ra,0x0
 574:	000080e7          	jalr	ra # 570 <.L85+0x2e>
 578:	b39d                	j	2de <.L84>

0000057a <.L83>:
 57a:	000007b7          	lui	a5,0x0
 57e:	0007c783          	lbu	a5,0(a5) # 0 <do_rx_poll>
 582:	c7c9                	beqz	a5,60c <.L87>
 584:	00000537          	lui	a0,0x0
 588:	8636                	mv	a2,a3
 58a:	85d6                	mv	a1,s5
 58c:	00050513          	mv	a0,a0
 590:	00000097          	auipc	ra,0x0
 594:	000080e7          	jalr	ra # 590 <.L83+0x16>

00000598 <.L88>:
 598:	000007b7          	lui	a5,0x0
 59c:	0007c783          	lbu	a5,0(a5) # 0 <do_rx_poll>
 5a0:	cf81                	beqz	a5,5b8 <.L89>
 5a2:	fa042583          	lw	a1,-96(s0)
 5a6:	00000537          	lui	a0,0x0
 5aa:	866e                	mv	a2,s11
 5ac:	00050513          	mv	a0,a0
 5b0:	00000097          	auipc	ra,0x0
 5b4:	000080e7          	jalr	ra # 5b0 <.L88+0x18>

000005b8 <.L89>:
 5b8:	f6042783          	lw	a5,-160(s0)
 5bc:	c3b9                	beqz	a5,602 <.L90>
 5be:	f6442783          	lw	a5,-156(s0)
 5c2:	f8042883          	lw	a7,-128(s0)
 5c6:	f8442803          	lw	a6,-124(s0)
 5ca:	c63e                	sw	a5,12(sp)
 5cc:	f6c42783          	lw	a5,-148(s0)
 5d0:	f9042703          	lw	a4,-112(s0)
 5d4:	f9442683          	lw	a3,-108(s0)
 5d8:	c43e                	sw	a5,8(sp)
 5da:	f7442783          	lw	a5,-140(s0)
 5de:	f9842603          	lw	a2,-104(s0)
 5e2:	f9c42583          	lw	a1,-100(s0)
 5e6:	c23e                	sw	a5,4(sp)
 5e8:	f7842783          	lw	a5,-136(s0)
 5ec:	00000537          	lui	a0,0x0
 5f0:	00050513          	mv	a0,a0
 5f4:	c03e                	sw	a5,0(sp)
 5f6:	f8c42783          	lw	a5,-116(s0)
 5fa:	00000097          	auipc	ra,0x0
 5fe:	000080e7          	jalr	ra # 5fa <.L89+0x42>

00000602 <.L90>:
 602:	00000537          	lui	a0,0x0
 606:	00050513          	mv	a0,a0
 60a:	b1c5                	j	2ea <.L113>

0000060c <.L87>:
 60c:	fb841783          	lh	a5,-72(s0)
 610:	00000537          	lui	a0,0x0
 614:	88de                	mv	a7,s7
 616:	c03e                	sw	a5,0(sp)
 618:	87ba                	mv	a5,a4
 61a:	f5842703          	lw	a4,-168(s0)
 61e:	885a                	mv	a6,s6
 620:	8656                	mv	a2,s5
 622:	85d2                	mv	a1,s4
 624:	00050513          	mv	a0,a0
 628:	00000097          	auipc	ra,0x0
 62c:	000080e7          	jalr	ra # 628 <.L87+0x1c>
 630:	b7a5                	j	598 <.L88>

Disassembly of section .text.beacon_print:

00000000 <beacon_print>:
   0:	7139                	add	sp,sp,-64
   2:	d64e                	sw	s3,44(sp)
   4:	6585                	lui	a1,0x1
   6:	89aa                	mv	s3,a0
   8:	07060537          	lui	a0,0x7060
   c:	90858593          	add	a1,a1,-1784 # 908 <.L192+0x138>
  10:	50450513          	add	a0,a0,1284 # 7060504 <.L192+0x705fd34>
  14:	de06                	sw	ra,60(sp)
  16:	dc22                	sw	s0,56(sp)
  18:	da26                	sw	s1,52(sp)
  1a:	d84a                	sw	s2,48(sp)
  1c:	d452                	sw	s4,40(sp)
  1e:	d256                	sw	s5,36(sp)
  20:	d05a                	sw	s6,32(sp)
  22:	ce5e                	sw	s7,28(sp)
  24:	cc62                	sw	s8,24(sp)
  26:	ca66                	sw	s9,20(sp)
  28:	c86a                	sw	s10,16(sp)
  2a:	c66e                	sw	s11,12(sp)
  2c:	00000097          	auipc	ra,0x0
  30:	000080e7          	jalr	ra # 2c <beacon_print+0x2c>
  34:	600347b7          	lui	a5,0x60034
  38:	8007a023          	sw	zero,-2048(a5) # 60033800 <.L192+0x60033030>
  3c:	60035737          	lui	a4,0x60035
  40:	00072223          	sw	zero,4(a4) # 60035004 <.L192+0x60034834>
  44:	00072a03          	lw	s4,0(a4)
  48:	c407a703          	lw	a4,-960(a5)
  4c:	6b41                	lui	s6,0x10
  4e:	4901                	li	s2,0
  50:	00c76713          	or	a4,a4,12
  54:	c4e7a023          	sw	a4,-960(a5)
  58:	6001c7b7          	lui	a5,0x6001c
  5c:	4f80                	lw	s0,24(a5)
  5e:	00000097          	auipc	ra,0x0
  62:	000080e7          	jalr	ra # 5e <beacon_print+0x5e>
  66:	47a9                	li	a5,10
  68:	8015                	srl	s0,s0,0x5
  6a:	c0046413          	or	s0,s0,-1024
  6e:	02f40433          	mul	s0,s0,a5
  72:	02800793          	li	a5,40
  76:	8aaa                	mv	s5,a0
  78:	03050c93          	add	s9,a0,48
  7c:	4b81                	li	s7,0
  7e:	600344b7          	lui	s1,0x60034
  82:	60033c37          	lui	s8,0x60033
  86:	6001cdb7          	lui	s11,0x6001c
  8a:	08000313          	li	t1,128
  8e:	1b7d                	add	s6,s6,-1 # ffff <.L192+0xf82f>
  90:	02f44433          	div	s0,s0,a5
  94:	60035d37          	lui	s10,0x60035
  98:	00000e37          	lui	t3,0x0

0000009c <.L119>:
  9c:	c3c4a783          	lw	a5,-964(s1) # 60033c3c <.L192+0x6003346c>
  a0:	0a8c2703          	lw	a4,168(s8) # 600330a8 <.L192+0x600328d8>
  a4:	0047f693          	and	a3,a5,4
  a8:	cec5                	beqz	a3,160 <.L115>
  aa:	0ff77793          	zext.b	a5,a4
  ae:	e7b5                	bnez	a5,11a <.L116>
  b0:	0acc2603          	lw	a2,172(s8)
  b4:	0b0c2783          	lw	a5,176(s8)
  b8:	000ca803          	lw	a6,0(s9)
  bc:	01665793          	srl	a5,a2,0x16
  c0:	01065593          	srl	a1,a2,0x10
  c4:	034aa503          	lw	a0,52(s5)
  c8:	8b8d                	and	a5,a5,3
  ca:	038aa683          	lw	a3,56(s5)
  ce:	89fd                	and	a1,a1,31
  d0:	03caa703          	lw	a4,60(s5)
  d4:	8fcd                	or	a5,a5,a1
  d6:	e3b1                	bnez	a5,11a <.L116>
  d8:	04681163          	bne	a6,t1,11a <.L116>
  dc:	57fd                	li	a5,-1
  de:	02f51e63          	bne	a0,a5,11a <.L116>
  e2:	0166f7b3          	and	a5,a3,s6
  e6:	03679a63          	bne	a5,s6,11a <.L116>
  ea:	01865793          	srl	a5,a2,0x18
  ee:	00065463          	bgez	a2,f6 <.L117>
  f2:	f0078793          	add	a5,a5,-256 # 6001bf00 <.L192+0x6001b730>

000000f6 <.L117>:
  f6:	000d2603          	lw	a2,0(s10) # 60035000 <.L192+0x60034830>
  fa:	85de                	mv	a1,s7
  fc:	000e0513          	mv	a0,t3
 100:	4881                	li	a7,0
 102:	884a                	mv	a6,s2
 104:	97a2                	add	a5,a5,s0
 106:	82c1                	srl	a3,a3,0x10
 108:	00000097          	auipc	ra,0x0
 10c:	000080e7          	jalr	ra # 108 <.L117+0x12>
 110:	0b85                	add	s7,s7,1
 112:	08000313          	li	t1,128
 116:	00000e37          	lui	t3,0x0

0000011a <.L116>:
 11a:	c404a783          	lw	a5,-960(s1)
 11e:	00c7e793          	or	a5,a5,12

00000122 <.L125>:
 122:	c4f4a023          	sw	a5,-960(s1)

00000126 <.L118>:
 126:	000d2783          	lw	a5,0(s10)
 12a:	414787b3          	sub	a5,a5,s4
 12e:	f6f9f7e3          	bgeu	s3,a5,9c <.L119>
 132:	60034737          	lui	a4,0x60034
 136:	c4072783          	lw	a5,-960(a4) # 60033c40 <.L192+0x60033470>
 13a:	50f2                	lw	ra,60(sp)
 13c:	5462                	lw	s0,56(sp)
 13e:	00c7e793          	or	a5,a5,12
 142:	c4f72023          	sw	a5,-960(a4)
 146:	54d2                	lw	s1,52(sp)
 148:	5942                	lw	s2,48(sp)
 14a:	59b2                	lw	s3,44(sp)
 14c:	5a22                	lw	s4,40(sp)
 14e:	5a92                	lw	s5,36(sp)
 150:	5b02                	lw	s6,32(sp)
 152:	4bf2                	lw	s7,28(sp)
 154:	4c62                	lw	s8,24(sp)
 156:	4cd2                	lw	s9,20(sp)
 158:	4d42                	lw	s10,16(sp)
 15a:	4db2                	lw	s11,12(sp)
 15c:	6121                	add	sp,sp,64
 15e:	8082                	ret

00000160 <.L115>:
 160:	8ba1                	and	a5,a5,8
 162:	d3f1                	beqz	a5,126 <.L118>
 164:	06cda903          	lw	s2,108(s11) # 6001c06c <.L192+0x6001b89c>
 168:	c404a783          	lw	a5,-960(s1)
 16c:	0ff97913          	zext.b	s2,s2
 170:	0087e793          	or	a5,a5,8
 174:	b77d                	j	122 <.L125>

Disassembly of section .text.rx_data_check:

00000000 <rx_data_check>:
   0:	6741                	lui	a4,0x10
   2:	fff70793          	add	a5,a4,-1 # ffff <.L192+0xf82f>
   6:	473d                	li	a4,15
   8:	8d7d                	and	a0,a0,a5
   a:	06b77763          	bgeu	a4,a1,78 <.L127>
   e:	4158                	lw	a4,4(a0)
  10:	8321                	srl	a4,a4,0x8

00000012 <.L135>:
  12:	8f7d                	and	a4,a4,a5
  14:	00275813          	srl	a6,a4,0x2
  18:	00c50613          	add	a2,a0,12
  1c:	6541                	lui	a0,0x10
  1e:	187d                	add	a6,a6,-1
  20:	4781                	li	a5,0
  22:	000208b7          	lui	a7,0x20
  26:	00ff0337          	lui	t1,0xff0
  2a:	03000e37          	lui	t3,0x3000
  2e:	157d                	add	a0,a0,-1 # ffff <.L192+0xf82f>

00000030 <.L129>:
  30:	0507e963          	bltu	a5,a6,82 <.L131>
  34:	8b0d                	and	a4,a4,3
  36:	4505                	li	a0,1
  38:	c351                	beqz	a4,bc <.L126>
  3a:	078a                	sll	a5,a5,0x2
  3c:	00378693          	add	a3,a5,3
  40:	0ff7f593          	zext.b	a1,a5
  44:	06e2                	sll	a3,a3,0x18
  46:	96ae                	add	a3,a3,a1
  48:	00278593          	add	a1,a5,2
  4c:	00ff0837          	lui	a6,0xff0
  50:	05c2                	sll	a1,a1,0x10
  52:	0105f5b3          	and	a1,a1,a6
  56:	96ae                	add	a3,a3,a1
  58:	0785                	add	a5,a5,1
  5a:	65c1                	lui	a1,0x10
  5c:	15fd                	add	a1,a1,-1 # ffff <.L192+0xf82f>
  5e:	07a2                	sll	a5,a5,0x8
  60:	8fed                	and	a5,a5,a1
  62:	97b6                	add	a5,a5,a3
  64:	4214                	lw	a3,0(a2)
  66:	070e                	sll	a4,a4,0x3
  68:	00e51733          	sll	a4,a0,a4
  6c:	8fb5                	xor	a5,a5,a3
  6e:	177d                	add	a4,a4,-1
  70:	8ff9                	and	a5,a5,a4
  72:	0017b513          	seqz	a0,a5
  76:	8082                	ret

00000078 <.L127>:
  78:	6785                	lui	a5,0x1
  7a:	00255703          	lhu	a4,2(a0)
  7e:	17fd                	add	a5,a5,-1 # fff <.L192+0x82f>
  80:	bf49                	j	12 <.L135>

00000082 <.L131>:
  82:	01279693          	sll	a3,a5,0x12
  86:	96c6                	add	a3,a3,a7
  88:	01a79593          	sll	a1,a5,0x1a
  8c:	95f2                	add	a1,a1,t3
  8e:	0066f6b3          	and	a3,a3,t1
  92:	96ae                	add	a3,a3,a1
  94:	00a79593          	sll	a1,a5,0xa
  98:	10058593          	add	a1,a1,256
  9c:	8de9                	and	a1,a1,a0
  9e:	96ae                	add	a3,a3,a1
  a0:	00279593          	sll	a1,a5,0x2
  a4:	0ff5f593          	zext.b	a1,a1
  a8:	96ae                	add	a3,a3,a1
  aa:	420c                	lw	a1,0(a2)
  ac:	00d59763          	bne	a1,a3,ba <.L132>
  b0:	00062023          	sw	zero,0(a2)
  b4:	0785                	add	a5,a5,1
  b6:	0611                	add	a2,a2,4
  b8:	bfa5                	j	30 <.L129>

000000ba <.L132>:
  ba:	4501                	li	a0,0

000000bc <.L126>:
  bc:	8082                	ret

Disassembly of section .text.read_macaddr_from_otp:

00000000 <read_macaddr_from_otp>:
   0:	60009737          	lui	a4,0x60009
   4:	84472783          	lw	a5,-1980(a4) # 60008844 <.L192+0x60008074>
   8:	84872703          	lw	a4,-1976(a4)
   c:	00f502a3          	sb	a5,5(a0)
  10:	00875693          	srl	a3,a4,0x8
  14:	00e500a3          	sb	a4,1(a0)
  18:	0187d713          	srl	a4,a5,0x18
  1c:	00e50123          	sb	a4,2(a0)
  20:	0107d713          	srl	a4,a5,0x10
  24:	00e501a3          	sb	a4,3(a0)
  28:	0087d713          	srl	a4,a5,0x8
  2c:	00d50023          	sb	a3,0(a0)
  30:	00e50223          	sb	a4,4(a0)
  34:	8082                	ret

Disassembly of section .text.fill_txaddr:

00000000 <fill_txaddr>:
   0:	1101                	add	sp,sp,-32
   2:	0028                	add	a0,sp,8
   4:	ce06                	sw	ra,28(sp)
   6:	00000097          	auipc	ra,0x0
   a:	000080e7          	jalr	ra # 6 <fill_txaddr+0x6>
   e:	4722                	lw	a4,8(sp)
  10:	600337b7          	lui	a5,0x60033
  14:	40f2                	lw	ra,28(sp)
  16:	c3b8                	sw	a4,64(a5)
  18:	00c15703          	lhu	a4,12(sp)
  1c:	c3f8                	sw	a4,68(a5)
  1e:	6105                	add	sp,sp,32
  20:	8082                	ret

Disassembly of section .text.fill_txdataframe:

00000000 <fill_txdataframe>:
   0:	7159                	add	sp,sp,-112
   2:	d2a6                	sw	s1,100(sp)
   4:	84aa                	mv	s1,a0
   6:	4529                	li	a0,10
   8:	de2e                	sw	a1,60(sp)
   a:	d686                	sw	ra,108(sp)
   c:	d0ca                	sw	s2,96(sp)
   e:	cece                	sw	s3,92(sp)
  10:	ccd2                	sw	s4,88(sp)
  12:	cad6                	sw	s5,84(sp)
  14:	c8da                	sw	s6,80(sp)
  16:	8abe                	mv	s5,a5
  18:	c6de                	sw	s7,76(sp)
  1a:	c4e2                	sw	s8,72(sp)
  1c:	c2e6                	sw	s9,68(sp)
  1e:	c0ea                	sw	s10,64(sp)
  20:	8932                	mv	s2,a2
  22:	8b36                	mv	s6,a3
  24:	89ba                	mv	s3,a4
  26:	8bc2                	mv	s7,a6
  28:	d4a2                	sw	s0,104(sp)
  2a:	00000097          	auipc	ra,0x0
  2e:	000080e7          	jalr	ra # 2a <fill_txdataframe+0x2a>
  32:	8c2a                	mv	s8,a0
  34:	4529                	li	a0,10
  36:	00000097          	auipc	ra,0x0
  3a:	000080e7          	jalr	ra # 36 <fill_txdataframe+0x36>
  3e:	600337b7          	lui	a5,0x60033
  42:	0407ac83          	lw	s9,64(a5) # 60033040 <.L192+0x60032870>
  46:	0447ad03          	lw	s10,68(a5)
  4a:	4799                	li	a5,6
  4c:	8a2a                	mv	s4,a0
  4e:	55f2                	lw	a1,60(sp)
  50:	16f49463          	bne	s1,a5,1b8 <.L140>
  54:	47ad                	li	a5,11
  56:	00faa023          	sw	a5,0(s5)
  5a:	000ba023          	sw	zero,0(s7)
  5e:	4401                	li	s0,0

00000060 <.L141>:
  60:	6705                	lui	a4,0x1
  62:	80070693          	add	a3,a4,-2048 # 800 <.L192+0x30>
  66:	1eb6db63          	bge	a3,a1,25c <.L154>
  6a:	e0070793          	add	a5,a4,-512
  6e:	1cb7c663          	blt	a5,a1,23a <.L149>
  72:	80058713          	add	a4,a1,-2048
  76:	4801                	li	a6,0
  78:	4781                	li	a5,0

0000007a <.L148>:
  7a:	000ba603          	lw	a2,0(s7)
  7e:	d002                	sw	zero,32(sp)
  80:	ce02                	sw	zero,28(sp)
  82:	c432                	sw	a2,8(sp)
  84:	00000637          	lui	a2,0x0
  88:	00062603          	lw	a2,0(a2) # 0 <fill_txdataframe>
  8c:	cc02                	sw	zero,24(sp)
  8e:	ca02                	sw	zero,20(sp)
  90:	c232                	sw	a2,4(sp)
  92:	862e                	mv	a2,a1
  94:	000aa583          	lw	a1,0(s5)
  98:	c802                	sw	zero,16(sp)
  9a:	c602                	sw	zero,12(sp)
  9c:	c002                	sw	zero,0(sp)
  9e:	4881                	li	a7,0
  a0:	4529                	li	a0,10
  a2:	00000097          	auipc	ra,0x0
  a6:	000080e7          	jalr	ra # a2 <.L148+0x28>
  aa:	000c2783          	lw	a5,0(s8)
  ae:	f9000737          	lui	a4,0xf9000
  b2:	177d                	add	a4,a4,-1 # f8ffffff <.L192+0xf8fff82f>
  b4:	8ff9                	and	a5,a5,a4
  b6:	0462                	sll	s0,s0,0x18
  b8:	8c5d                	or	s0,s0,a5
  ba:	008c2023          	sw	s0,0(s8)
  be:	000a2783          	lw	a5,0(s4) # 0 <fill_txdataframe>
  c2:	ffc01737          	lui	a4,0xffc01
  c6:	177d                	add	a4,a4,-1 # ffc00fff <.L192+0xffc0082f>
  c8:	8ff9                	and	a5,a5,a4
  ca:	6705                	lui	a4,0x1
  cc:	8fd9                	or	a5,a5,a4
  ce:	00fa2023          	sw	a5,0(s4)
  d2:	4799                	li	a5,6
  d4:	08000613          	li	a2,128
  d8:	00f48563          	beq	s1,a5,e2 <.L151>
  dc:	00fa0637          	lui	a2,0xfa0
  e0:	0621                	add	a2,a2,8 # fa0008 <.L192+0xf9f838>

000000e2 <.L151>:
  e2:	6741                	lui	a4,0x10
  e4:	177d                	add	a4,a4,-1 # ffff <.L192+0xf82f>
  e6:	010c9793          	sll	a5,s9,0x10
  ea:	00eb7b33          	and	s6,s6,a4
  ee:	00fb6b33          	or	s6,s6,a5
  f2:	010d1693          	sll	a3,s10,0x10
  f6:	010cd793          	srl	a5,s9,0x10
  fa:	8edd                	or	a3,a3,a5
  fc:	4799                	li	a5,6
  fe:	16f49963          	bne	s1,a5,270 <.L157>
 102:	00ed7733          	and	a4,s10,a4
 106:	5d8007b7          	lui	a5,0x5d800
 10a:	8f5d                	or	a4,a4,a5

0000010c <.L152>:
 10c:	000007b7          	lui	a5,0x0
 110:	0007a583          	lw	a1,0(a5) # 0 <fill_txdataframe>
 114:	c190                	sw	a2,0(a1)
 116:	0007a603          	lw	a2,0(a5)
 11a:	01262223          	sw	s2,4(a2)
 11e:	0007a603          	lw	a2,0(a5)
 122:	01662423          	sw	s6,8(a2)
 126:	0007a603          	lw	a2,0(a5)
 12a:	c654                	sw	a3,12(a2)
 12c:	0007a683          	lw	a3,0(a5)
 130:	0196a823          	sw	s9,16(a3)
 134:	0007a683          	lw	a3,0(a5)
 138:	cad8                	sw	a4,20(a3)
 13a:	0007a683          	lw	a3,0(a5)
 13e:	000a0737          	lui	a4,0xa0
 142:	43170713          	add	a4,a4,1073 # a0431 <.L192+0x9fc61>
 146:	ce98                	sw	a4,24(a3)
 148:	0007a703          	lw	a4,0(a5)
 14c:	00072e23          	sw	zero,28(a4)
 150:	0007a703          	lw	a4,0(a5)
 154:	03372023          	sw	s3,32(a4)
 158:	4719                	li	a4,6
 15a:	02e49d63          	bne	s1,a4,194 <.L153>
 15e:	60035737          	lui	a4,0x60035
 162:	5f78                	lw	a4,124(a4)
 164:	000a2683          	lw	a3,0(s4)
 168:	f1000637          	lui	a2,0xf1000
 16c:	167d                	add	a2,a2,-1 # f0ffffff <.L192+0xf0fff82f>
 16e:	8ef1                	and	a3,a3,a2
 170:	01000637          	lui	a2,0x1000
 174:	8ed1                	or	a3,a3,a2
 176:	00da2023          	sw	a3,0(s4)
 17a:	000a2683          	lw	a3,0(s4)
 17e:	03f77713          	and	a4,a4,63
 182:	ffc01637          	lui	a2,0xffc01
 186:	0729                	add	a4,a4,10 # 6003500a <.L192+0x6003483a>
 188:	167d                	add	a2,a2,-1 # ffc00fff <.L192+0xffc0082f>
 18a:	0732                	sll	a4,a4,0xc
 18c:	8ef1                	and	a3,a3,a2
 18e:	8f55                	or	a4,a4,a3
 190:	00ea2023          	sw	a4,0(s4)

00000194 <.L153>:
 194:	0007a503          	lw	a0,0(a5)
 198:	50b6                	lw	ra,108(sp)
 19a:	5426                	lw	s0,104(sp)
 19c:	5496                	lw	s1,100(sp)
 19e:	5906                	lw	s2,96(sp)
 1a0:	49f6                	lw	s3,92(sp)
 1a2:	4a66                	lw	s4,88(sp)
 1a4:	4ad6                	lw	s5,84(sp)
 1a6:	4b46                	lw	s6,80(sp)
 1a8:	4bb6                	lw	s7,76(sp)
 1aa:	4c26                	lw	s8,72(sp)
 1ac:	4c96                	lw	s9,68(sp)
 1ae:	4d06                	lw	s10,64(sp)
 1b0:	02450513          	add	a0,a0,36
 1b4:	6165                	add	sp,sp,112
 1b6:	8082                	ret

000001b8 <.L140>:
 1b8:	4795                	li	a5,5
 1ba:	00f49963          	bne	s1,a5,1cc <.L142>
 1be:	47ad                	li	a5,11
 1c0:	00faa023          	sw	a5,0(s5)
 1c4:	000ba023          	sw	zero,0(s7)

000001c8 <.L163>:
 1c8:	440d                	li	s0,3
 1ca:	a811                	j	1de <.L143>

000001cc <.L142>:
 1cc:	4791                	li	a5,4
 1ce:	00f49b63          	bne	s1,a5,1e4 <.L144>
 1d2:	47a1                	li	a5,8
 1d4:	00faa023          	sw	a5,0(s5)
 1d8:	000ba023          	sw	zero,0(s7)
 1dc:	4401                	li	s0,0

000001de <.L143>:
 1de:	02858593          	add	a1,a1,40
 1e2:	bdbd                	j	60 <.L141>

000001e4 <.L144>:
 1e4:	478d                	li	a5,3
 1e6:	00f49963          	bne	s1,a5,1f8 <.L145>
 1ea:	47d9                	li	a5,22
 1ec:	00faa023          	sw	a5,0(s5)
 1f0:	4785                	li	a5,1

000001f2 <.L162>:
 1f2:	00fba023          	sw	a5,0(s7)
 1f6:	bfc9                	j	1c8 <.L163>

000001f8 <.L145>:
 1f8:	4789                	li	a5,2
 1fa:	00f49d63          	bne	s1,a5,214 <.L146>
 1fe:	000007b7          	lui	a5,0x0
 202:	0007a783          	lw	a5,0(a5) # 0 <fill_txdataframe>
 206:	00faa023          	sw	a5,0(s5)
 20a:	000007b7          	lui	a5,0x0
 20e:	0007a783          	lw	a5,0(a5) # 0 <fill_txdataframe>
 212:	b7c5                	j	1f2 <.L162>

00000214 <.L146>:
 214:	4785                	li	a5,1
 216:	00f49c63          	bne	s1,a5,22e <.L147>
 21a:	000007b7          	lui	a5,0x0
 21e:	0007a783          	lw	a5,0(a5) # 0 <fill_txdataframe>
 222:	00faa023          	sw	a5,0(s5)
 226:	000ba023          	sw	zero,0(s7)

0000022a <.L161>:
 22a:	4405                	li	s0,1
 22c:	bf4d                	j	1de <.L143>

0000022e <.L147>:
 22e:	475d                	li	a4,23
 230:	00eaa023          	sw	a4,0(s5)
 234:	00fba023          	sw	a5,0(s7)
 238:	bfcd                	j	22a <.L161>

0000023a <.L149>:
 23a:	f0070813          	add	a6,a4,-256
 23e:	00b84863          	blt	a6,a1,24e <.L150>
 242:	40f587b3          	sub	a5,a1,a5
 246:	4801                	li	a6,0

00000248 <.L160>:
 248:	60000713          	li	a4,1536
 24c:	b53d                	j	7a <.L148>

0000024e <.L150>:
 24e:	00b74c63          	blt	a4,a1,266 <.L155>
 252:	41058833          	sub	a6,a1,a6
 256:	10000793          	li	a5,256
 25a:	b7fd                	j	248 <.L160>

0000025c <.L154>:
 25c:	86ae                	mv	a3,a1
 25e:	4801                	li	a6,0
 260:	4781                	li	a5,0
 262:	4701                	li	a4,0
 264:	bd19                	j	7a <.L148>

00000266 <.L155>:
 266:	4801                	li	a6,0
 268:	4781                	li	a5,0
 26a:	4701                	li	a4,0
 26c:	4681                	li	a3,0
 26e:	b531                	j	7a <.L148>

00000270 <.L157>:
 270:	4701                	li	a4,0
 272:	4c81                	li	s9,0
 274:	bd61                	j	10c <.L152>

Disassembly of section .text.fill_txbeacon:

00000000 <fill_txbeacon>:
   0:	7179                	add	sp,sp,-48
   2:	d606                	sw	ra,44(sp)
   4:	d422                	sw	s0,40(sp)
   6:	d226                	sw	s1,36(sp)
   8:	843a                	mv	s0,a4
   a:	d04a                	sw	s2,32(sp)
   c:	ce4e                	sw	s3,28(sp)
   e:	8932                	mv	s2,a2
  10:	89aa                	mv	s3,a0
  12:	cc52                	sw	s4,24(sp)
  14:	84b6                	mv	s1,a3
  16:	8a2e                	mv	s4,a1
  18:	00000097          	auipc	ra,0x0
  1c:	000080e7          	jalr	ra # 18 <fill_txbeacon+0x18>
  20:	66c1                	lui	a3,0x10
  22:	003c                	add	a5,sp,8
  24:	4701                	li	a4,0
  26:	00c10813          	add	a6,sp,12
  2a:	16fd                	add	a3,a3,-1 # ffff <.L192+0xf82f>
  2c:	567d                	li	a2,-1
  2e:	0d400593          	li	a1,212
  32:	4519                	li	a0,6
  34:	00000097          	auipc	ra,0x0
  38:	000080e7          	jalr	ra # 34 <fill_txbeacon+0x34>
  3c:	534507b7          	lui	a5,0x53450
  40:	70078793          	add	a5,a5,1792 # 53450700 <.L192+0x5344ff30>
  44:	c11c                	sw	a5,0(a0)
  46:	363247b7          	lui	a5,0x36324
  4a:	85078793          	add	a5,a5,-1968 # 36323850 <.L192+0x36323080>
  4e:	c15c                	sw	a5,4(a0)
  50:	820807b7          	lui	a5,0x82080
  54:	13678793          	add	a5,a5,310 # 82080136 <.L192+0x8207f966>
  58:	c51c                	sw	a5,8(a0)
  5a:	0c9697b7          	lui	a5,0xc969
  5e:	b8478793          	add	a5,a5,-1148 # c968b84 <.L192+0xc9683b4>
  62:	c55c                	sw	a5,12(a0)
  64:	032427b7          	lui	a5,0x3242
  68:	81278793          	add	a5,a5,-2030 # 3241812 <.L192+0x3241042>
  6c:	c91c                	sw	a5,16(a0)
  6e:	040517b7          	lui	a5,0x4051
  72:	b0178793          	add	a5,a5,-1279 # 4050b01 <.L192+0x4050331>
  76:	c95c                	sw	a5,20(a0)
  78:	20000793          	li	a5,512
  7c:	cd1c                	sw	a5,24(a0)
  7e:	483007b7          	lui	a5,0x48300
  82:	43278793          	add	a5,a5,1074 # 48300432 <.L192+0x482ffc62>
  86:	cd5c                	sw	a5,28(a0)
  88:	88dd77b7          	lui	a5,0x88dd7
  8c:	c6078793          	add	a5,a5,-928 # 88dd6c60 <.L192+0x88dd6490>
  90:	d11c                	sw	a5,32(a0)
  92:	ff3507b7          	lui	a5,0xff350
  96:	e1878793          	add	a5,a5,-488 # ff34fe18 <.L192+0xff34f648>
  9a:	d15c                	sw	a5,36(a0)
  9c:	000a4783          	lbu	a5,0(s4)
  a0:	0009c703          	lbu	a4,0(s3)
  a4:	04050513          	add	a0,a0,64
  a8:	07a2                	sll	a5,a5,0x8
  aa:	8fd9                	or	a5,a5,a4
  ac:	00094703          	lbu	a4,0(s2)
  b0:	0742                	sll	a4,a4,0x10
  b2:	8fd9                	or	a5,a5,a4
  b4:	ff000737          	lui	a4,0xff000
  b8:	8fd9                	or	a5,a5,a4
  ba:	fef52423          	sw	a5,-24(a0)
  be:	00144703          	lbu	a4,1(s0)
  c2:	00044783          	lbu	a5,0(s0)
  c6:	0722                	sll	a4,a4,0x8
  c8:	8f5d                	or	a4,a4,a5
  ca:	00244783          	lbu	a5,2(s0)
  ce:	07c2                	sll	a5,a5,0x10
  d0:	8f5d                	or	a4,a4,a5
  d2:	00344783          	lbu	a5,3(s0)
  d6:	07e2                	sll	a5,a5,0x18
  d8:	8fd9                	or	a5,a5,a4
  da:	fef52623          	sw	a5,-20(a0)
  de:	00544703          	lbu	a4,5(s0)
  e2:	00444783          	lbu	a5,4(s0)
  e6:	0722                	sll	a4,a4,0x8
  e8:	8f5d                	or	a4,a4,a5
  ea:	00644783          	lbu	a5,6(s0)
  ee:	07c2                	sll	a5,a5,0x10
  f0:	8f5d                	or	a4,a4,a5
  f2:	00744783          	lbu	a5,7(s0)
  f6:	07e2                	sll	a5,a5,0x18
  f8:	8fd9                	or	a5,a5,a4
  fa:	fef52823          	sw	a5,-16(a0)
  fe:	00944703          	lbu	a4,9(s0)
 102:	00844783          	lbu	a5,8(s0)
 106:	0722                	sll	a4,a4,0x8
 108:	8f5d                	or	a4,a4,a5
 10a:	00a44783          	lbu	a5,10(s0)
 10e:	07c2                	sll	a5,a5,0x10
 110:	8f5d                	or	a4,a4,a5
 112:	00b44783          	lbu	a5,11(s0)
 116:	07e2                	sll	a5,a5,0x18
 118:	8fd9                	or	a5,a5,a4
 11a:	fef52a23          	sw	a5,-12(a0)
 11e:	00d44783          	lbu	a5,13(s0)
 122:	00c44703          	lbu	a4,12(s0)
 126:	07a2                	sll	a5,a5,0x8
 128:	8fd9                	or	a5,a5,a4
 12a:	55550737          	lui	a4,0x55550
 12e:	8fd9                	or	a5,a5,a4
 130:	fef52c23          	sw	a5,-8(a0)
 134:	555557b7          	lui	a5,0x55555
 138:	55578793          	add	a5,a5,1365 # 55555555 <.L192+0x55554d85>
 13c:	fef52e23          	sw	a5,-4(a0)
 140:	06c00713          	li	a4,108
 144:	4781                	li	a5,0

00000146 <.L165>:
 146:	00f48633          	add	a2,s1,a5
 14a:	4210                	lw	a2,0(a2)
 14c:	00f506b3          	add	a3,a0,a5
 150:	0791                	add	a5,a5,4
 152:	c290                	sw	a2,0(a3)
 154:	fee799e3          	bne	a5,a4,146 <.L165>
 158:	50b2                	lw	ra,44(sp)
 15a:	5422                	lw	s0,40(sp)
 15c:	5492                	lw	s1,36(sp)
 15e:	5902                	lw	s2,32(sp)
 160:	49f2                	lw	s3,28(sp)
 162:	4a62                	lw	s4,24(sp)
 164:	6145                	add	sp,sp,48
 166:	8082                	ret

Disassembly of section .text.setmacaddr:

00000000 <setmacaddr>:
   0:	600337b7          	lui	a5,0x60033
   4:	c3a8                	sw	a0,64(a5)
   6:	c3ec                	sw	a1,68(a5)
   8:	8082                	ret

Disassembly of section .text.settxframe_chipid:

00000000 <settxframe_chipid>:
   0:	feb52023          	sw	a1,-32(a0)
   4:	fe452783          	lw	a5,-28(a0)
   8:	7741                	lui	a4,0xffff0
   a:	0642                	sll	a2,a2,0x10
   c:	8ff9                	and	a5,a5,a4
   e:	8241                	srl	a2,a2,0x10
  10:	8fd1                	or	a5,a5,a2
  12:	fef52223          	sw	a5,-28(a0)
  16:	8082                	ret

Disassembly of section .text.settxframe_rate:

00000000 <settxframe_rate>:
   0:	47c1                	li	a5,16
   2:	02860613          	add	a2,a2,40
   6:	02d7f063          	bgeu	a5,a3,26 <.L171>
   a:	411c                	lw	a5,0(a0)
   c:	fa000737          	lui	a4,0xfa000
  10:	177d                	add	a4,a4,-1 # f9ffffff <.L192+0xf9fff82f>
  12:	8ff9                	and	a5,a5,a4
  14:	02000737          	lui	a4,0x2000
  18:	8fd9                	or	a5,a5,a4
  1a:	8a9d                	and	a3,a3,7
  1c:	0622                	sll	a2,a2,0x8
  1e:	c11c                	sw	a5,0(a0)
  20:	8ed1                	or	a3,a3,a2
  22:	c194                	sw	a3,0(a1)
  24:	8082                	ret

00000026 <.L171>:
  26:	06b2                	sll	a3,a3,0xc
  28:	8ed1                	or	a3,a3,a2
  2a:	c114                	sw	a3,0(a0)
  2c:	8082                	ret

Disassembly of section .text.get_macaddr:

00000000 <get_macaddr>:
   0:	1101                	add	sp,sp,-32
   2:	cc22                	sw	s0,24(sp)
   4:	842a                	mv	s0,a0
   6:	0028                	add	a0,sp,8
   8:	ce06                	sw	ra,28(sp)
   a:	00000097          	auipc	ra,0x0
   e:	000080e7          	jalr	ra # a <get_macaddr+0xa>
  12:	47a2                	lw	a5,8(sp)
  14:	40f2                	lw	ra,28(sp)
  16:	c01c                	sw	a5,0(s0)
  18:	00c15783          	lhu	a5,12(sp)
  1c:	c05c                	sw	a5,4(s0)
  1e:	4462                	lw	s0,24(sp)
  20:	6105                	add	sp,sp,32
  22:	8082                	ret

Disassembly of section .text.set_macrxfilter:

00000000 <set_macrxfilter>:
   0:	600337b7          	lui	a5,0x60033
   4:	0d87a703          	lw	a4,216(a5) # 600330d8 <.L192+0x60032908>
   8:	c12d                	beqz	a0,6a <.L176>
   a:	00d76713          	or	a4,a4,13
   e:	0ce7ac23          	sw	a4,216(a5)
  12:	0dc7a703          	lw	a4,220(a5)
  16:	00d76713          	or	a4,a4,13
  1a:	0ce7ae23          	sw	a4,220(a5)
  1e:	0e07a703          	lw	a4,224(a5)
  22:	00d76713          	or	a4,a4,13
  26:	0ee7a023          	sw	a4,224(a5)
  2a:	0e47a703          	lw	a4,228(a5)
  2e:	00d76713          	or	a4,a4,13

00000032 <.L178>:
  32:	0ee7a223          	sw	a4,228(a5)
  36:	600337b7          	lui	a5,0x60033
  3a:	0d87a683          	lw	a3,216(a5) # 600330d8 <.L192+0x60032908>
  3e:	777d                	lui	a4,0xfffff
  40:	7ff70713          	add	a4,a4,2047 # fffff7ff <.L192+0xfffff02f>
  44:	8ef9                	and	a3,a3,a4
  46:	0cd7ac23          	sw	a3,216(a5)
  4a:	0dc7a683          	lw	a3,220(a5)
  4e:	8ef9                	and	a3,a3,a4
  50:	0cd7ae23          	sw	a3,220(a5)
  54:	0e07a683          	lw	a3,224(a5)
  58:	8ef9                	and	a3,a3,a4
  5a:	0ed7a023          	sw	a3,224(a5)
  5e:	0e47a683          	lw	a3,228(a5)
  62:	8f75                	and	a4,a4,a3
  64:	0ee7a223          	sw	a4,228(a5)
  68:	8082                	ret

0000006a <.L176>:
  6a:	9b49                	and	a4,a4,-14
  6c:	0ce7ac23          	sw	a4,216(a5)
  70:	0dc7a703          	lw	a4,220(a5)
  74:	9b49                	and	a4,a4,-14
  76:	0ce7ae23          	sw	a4,220(a5)
  7a:	0e07a703          	lw	a4,224(a5)
  7e:	9b49                	and	a4,a4,-14
  80:	0ee7a023          	sw	a4,224(a5)
  84:	0e47a703          	lw	a4,228(a5)
  88:	9b49                	and	a4,a4,-14
  8a:	b765                	j	32 <.L178>

Disassembly of section .text.tx_data_frame:

00000000 <tx_data_frame>:
   0:	1141                	add	sp,sp,-16
   2:	c422                	sw	s0,8(sp)
   4:	842a                	mv	s0,a0
   6:	4529                	li	a0,10
   8:	c606                	sw	ra,12(sp)
   a:	00000097          	auipc	ra,0x0
   e:	000080e7          	jalr	ra # a <tx_data_frame+0xa>
  12:	40000737          	lui	a4,0x40000
  16:	600347b7          	lui	a5,0x60034
  1a:	0709                	add	a4,a4,2 # 40000002 <.L192+0x3ffff832>
  1c:	c0e7a223          	sw	a4,-1020(a5) # 60033c04 <.L192+0x60033434>
  20:	c347a703          	lw	a4,-972(a5)
  24:	60035637          	lui	a2,0x60035
  28:	08076713          	or	a4,a4,128
  2c:	c2e7aa23          	sw	a4,-972(a5)
  30:	c407a703          	lw	a4,-960(a5)
  34:	08076713          	or	a4,a4,128
  38:	c4e7a023          	sw	a4,-960(a5)
  3c:	411c                	lw	a5,0(a0)
  3e:	c0000737          	lui	a4,0xc0000
  42:	8fd9                	or	a5,a5,a4
  44:	c11c                	sw	a5,0(a0)
  46:	600357b7          	lui	a5,0x60035
  4a:	4394                	lw	a3,0(a5)
  4c:	600347b7          	lui	a5,0x60034

00000050 <.L180>:
  50:	c3c7a703          	lw	a4,-964(a5) # 60033c3c <.L192+0x6003346c>
  54:	08077713          	and	a4,a4,128
  58:	cf09                	beqz	a4,72 <.L182>
  5a:	c407a703          	lw	a4,-960(a5)
  5e:	08076713          	or	a4,a4,128
  62:	c4e7a023          	sw	a4,-960(a5)
  66:	c687a503          	lw	a0,-920(a5)

0000006a <.L179>:
  6a:	40b2                	lw	ra,12(sp)
  6c:	4422                	lw	s0,8(sp)
  6e:	0141                	add	sp,sp,16
  70:	8082                	ret

00000072 <.L182>:
  72:	4218                	lw	a4,0(a2)
  74:	8f15                	sub	a4,a4,a3
  76:	fc876de3          	bltu	a4,s0,50 <.L180>
  7a:	557d                	li	a0,-1
  7c:	b7fd                	j	6a <.L179>

Disassembly of section .text.test_delay_us:

00000000 <test_delay_us>:
   0:	1141                	add	sp,sp,-16
   2:	c422                	sw	s0,8(sp)
   4:	c226                	sw	s1,4(sp)
   6:	643d                	lui	s0,0xf
   8:	74c5                	lui	s1,0xffff1
   a:	c606                	sw	ra,12(sp)
   c:	c04a                	sw	s2,0(sp)
   e:	5a048493          	add	s1,s1,1440 # ffff15a0 <.L192+0xffff0dd0>
  12:	a6040413          	add	s0,s0,-1440 # ea60 <.L192+0xe290>

00000016 <.L187>:
  16:	00950933          	add	s2,a0,s1
  1a:	01205963          	blez	s2,2c <.L186>
  1e:	8522                	mv	a0,s0
  20:	00000097          	auipc	ra,0x0
  24:	000080e7          	jalr	ra # 20 <.L187+0xa>
  28:	854a                	mv	a0,s2
  2a:	b7f5                	j	16 <.L187>

0000002c <.L186>:
  2c:	4422                	lw	s0,8(sp)
  2e:	40b2                	lw	ra,12(sp)
  30:	4492                	lw	s1,4(sp)
  32:	4902                	lw	s2,0(sp)
  34:	0542                	sll	a0,a0,0x10
  36:	8141                	srl	a0,a0,0x10
  38:	0141                	add	sp,sp,16
  3a:	00000317          	auipc	t1,0x0
  3e:	00030067          	jr	t1 # 3a <.L186+0xe>

Disassembly of section .text.ate_txframe_dut:

00000000 <ate_txframe_dut>:
   0:	7169                	add	sp,sp,-304
   2:	4529                	li	a0,10
   4:	12112623          	sw	ra,300(sp)
   8:	cab6                	sw	a3,84(sp)
   a:	da3a                	sw	a4,52(sp)
   c:	12812423          	sw	s0,296(sp)
  10:	12912223          	sw	s1,292(sp)
  14:	13212023          	sw	s2,288(sp)
  18:	842e                	mv	s0,a1
  1a:	8932                	mv	s2,a2
  1c:	11312e23          	sw	s3,284(sp)
  20:	11412c23          	sw	s4,280(sp)
  24:	11512a23          	sw	s5,276(sp)
  28:	11612823          	sw	s6,272(sp)
  2c:	11712623          	sw	s7,268(sp)
  30:	11812423          	sw	s8,264(sp)
  34:	11912223          	sw	s9,260(sp)
  38:	11a12023          	sw	s10,256(sp)
  3c:	dfee                	sw	s11,252(sp)
  3e:	00000097          	auipc	ra,0x0
  42:	000080e7          	jalr	ra # 3e <ate_txframe_dut+0x3e>
  46:	02000613          	li	a2,32
  4a:	4581                	li	a1,0
  4c:	84aa                	mv	s1,a0
  4e:	1908                	add	a0,sp,176
  50:	cd02                	sw	zero,152(sp)
  52:	cf02                	sw	zero,156(sp)
  54:	d102                	sw	zero,160(sp)
  56:	d302                	sw	zero,164(sp)
  58:	00000097          	auipc	ra,0x0
  5c:	000080e7          	jalr	ra # 58 <ate_txframe_dut+0x58>
  60:	02000613          	li	a2,32
  64:	4581                	li	a1,0
  66:	0988                	add	a0,sp,208
  68:	00000097          	auipc	ra,0x0
  6c:	000080e7          	jalr	ra # 68 <ate_txframe_dut+0x68>
  70:	d502                	sw	zero,168(sp)
  72:	d702                	sw	zero,172(sp)
  74:	cc19                	beqz	s0,92 <.L190>
  76:	01841513          	sll	a0,s0,0x18
  7a:	4585                	li	a1,1
  7c:	8561                	sra	a0,a0,0x18
  7e:	00000097          	auipc	ra,0x0
  82:	000080e7          	jalr	ra # 7e <ate_txframe_dut+0x7e>
  86:	4581                	li	a1,0
  88:	854a                	mv	a0,s2
  8a:	00000097          	auipc	ra,0x0
  8e:	000080e7          	jalr	ra # 8a <ate_txframe_dut+0x8a>

00000092 <.L190>:
  92:	6001c7b7          	lui	a5,0x6001c
  96:	4f9c                	lw	a5,24(a5)
  98:	c6be                	sw	a5,76(sp)
  9a:	57d2                	lw	a5,52(sp)
  9c:	cb99                	beqz	a5,b2 <.L191>
  9e:	00000537          	lui	a0,0x0
  a2:	864a                	mv	a2,s2
  a4:	85a2                	mv	a1,s0
  a6:	00050513          	mv	a0,a0
  aa:	00000097          	auipc	ra,0x0
  ae:	000080e7          	jalr	ra # aa <.L190+0x18>

000000b2 <.L191>:
  b2:	4505                	li	a0,1
  b4:	00000097          	auipc	ra,0x0
  b8:	000080e7          	jalr	ra # b4 <.L191+0x2>
  bc:	0908                	add	a0,sp,144
  be:	00000097          	auipc	ra,0x0
  c2:	000080e7          	jalr	ra # be <.L191+0xc>
  c6:	474a                	lw	a4,144(sp)
  c8:	47da                	lw	a5,148(sp)
  ca:	60033937          	lui	s2,0x60033
  ce:	04e92023          	sw	a4,64(s2) # 60033040 <.L192+0x60032870>
  d2:	60034437          	lui	s0,0x60034
  d6:	04f92223          	sw	a5,68(s2)
  da:	c7842783          	lw	a5,-904(s0) # 60033c78 <.L192+0x600334a8>
  de:	74657737          	lui	a4,0x74657
  e2:	6689                	lui	a3,0x2
  e4:	0027e793          	or	a5,a5,2
  e8:	60504637          	lui	a2,0x60504
  ec:	c6f42c23          	sw	a5,-904(s0)
  f0:	08c10813          	add	a6,sp,140
  f4:	013c                	add	a5,sp,136
  f6:	37370713          	add	a4,a4,883 # 74657373 <.L192+0x74656ba3>
  fa:	06c1                	add	a3,a3,16 # 2010 <.L192+0x1840>
  fc:	03060613          	add	a2,a2,48 # 60504030 <.L192+0x60503860>
 100:	02000593          	li	a1,32
 104:	4515                	li	a0,5
 106:	00000097          	auipc	ra,0x0
 10a:	000080e7          	jalr	ra # 106 <.L191+0x54>
 10e:	08492783          	lw	a5,132(s2)
 112:	20000737          	lui	a4,0x20000
 116:	177d                	add	a4,a4,-1 # 1fffffff <.L192+0x1ffff82f>
 118:	ce2a                	sw	a0,28(sp)
 11a:	8ff9                	and	a5,a5,a4
 11c:	08f92223          	sw	a5,132(s2)
 120:	08092783          	lw	a5,128(s2)
 124:	f0000737          	lui	a4,0xf0000
 128:	177d                	add	a4,a4,-1 # efffffff <.L192+0xeffff82f>
 12a:	8ff9                	and	a5,a5,a4
 12c:	08f92023          	sw	a5,128(s2)
 130:	c4442783          	lw	a5,-956(s0)
 134:	7741                	lui	a4,0xffff0
 136:	0ff70713          	add	a4,a4,255 # ffff00ff <.L192+0xfffef92f>
 13a:	8ff9                	and	a5,a5,a4
 13c:	6711                	lui	a4,0x4
 13e:	8fd9                	or	a5,a5,a4
 140:	c4f42223          	sw	a5,-956(s0)
 144:	c4442783          	lw	a5,-956(s0)
 148:	ffc01937          	lui	s2,0xffc01
 14c:	6985                	lui	s3,0x1
 14e:	f007f793          	and	a5,a5,-256
 152:	0407e793          	or	a5,a5,64
 156:	c4f42223          	sw	a5,-956(s0)
 15a:	00000097          	auipc	ra,0x0
 15e:	000080e7          	jalr	ra # 15a <.L191+0xa8>
 162:	05450793          	add	a5,a0,84 # 54 <ate_txframe_dut+0x54>
 166:	c4be                	sw	a5,72(sp)
 168:	600357b7          	lui	a5,0x60035
 16c:	439c                	lw	a5,0(a5)
 16e:	842a                	mv	s0,a0
 170:	de02                	sw	zero,60(sp)
 172:	c8be                	sw	a5,80(sp)
 174:	57fd                	li	a5,-1
 176:	dc3e                	sw	a5,56(sp)
 178:	4a01                	li	s4,0
 17a:	4b01                	li	s6,0
 17c:	4a85                	li	s5,1
 17e:	60033c37          	lui	s8,0x60033
 182:	40000bb7          	lui	s7,0x40000
 186:	60035cb7          	lui	s9,0x60035
 18a:	197d                	add	s2,s2,-1 # ffc00fff <.L192+0xffc0082f>
 18c:	38898993          	add	s3,s3,904 # 1388 <.L192+0xbb8>
 190:	ff000d37          	lui	s10,0xff000
 194:	00000db7          	lui	s11,0x0

00000198 <.L194>:
 198:	57f2                	lw	a5,60(sp)
 19a:	854e                	mv	a0,s3
 19c:	0785                	add	a5,a5,1 # 60035001 <.L192+0x60034831>
 19e:	de3e                	sw	a5,60(sp)
 1a0:	47f2                	lw	a5,28(sp)
 1a2:	0157a023          	sw	s5,0(a5)
 1a6:	084c2783          	lw	a5,132(s8) # 60033084 <.L192+0x600328b4>
 1aa:	0177e7b3          	or	a5,a5,s7
 1ae:	08fc2223          	sw	a5,132(s8)
 1b2:	07cca783          	lw	a5,124(s9) # 6003507c <.L192+0x600348ac>
 1b6:	4094                	lw	a3,0(s1)
 1b8:	8b9d                	and	a5,a5,7
 1ba:	0785                	add	a5,a5,1
 1bc:	0126f6b3          	and	a3,a3,s2
 1c0:	07be                	sll	a5,a5,0xf
 1c2:	8fd5                	or	a5,a5,a3
 1c4:	c09c                	sw	a5,0(s1)
 1c6:	00000097          	auipc	ra,0x0
 1ca:	000080e7          	jalr	ra # 1c6 <.L194+0x2e>
 1ce:	01a577b3          	and	a5,a0,s10
 1d2:	85aa                	mv	a1,a0
 1d4:	5e079e63          	bnez	a5,7d0 <.L192>
 1d8:	084c2783          	lw	a5,132(s8)
 1dc:	00179713          	sll	a4,a5,0x1
 1e0:	5e074863          	bltz	a4,7d0 <.L192>
 1e4:	47a6                	lw	a5,72(sp)
 1e6:	00040a03          	lb	s4,0(s0)
 1ea:	0007ab03          	lw	s6,0(a5)
 1ee:	4789                	li	a5,2
 1f0:	5efb1063          	bne	s6,a5,7d0 <.L192>
 1f4:	4c3c                	lw	a5,88(s0)
 1f6:	dc3e                	sw	a5,56(sp)
 1f8:	57d2                	lw	a5,52(sp)
 1fa:	18078d63          	beqz	a5,394 <.L233>
 1fe:	4785                	li	a5,1
 200:	d83e                	sw	a5,48(sp)

00000202 <.L231>:
 202:	86da                	mv	a3,s6
 204:	8652                	mv	a2,s4
 206:	000d8513          	mv	a0,s11
 20a:	00000097          	auipc	ra,0x0
 20e:	000080e7          	jalr	ra # 20a <.L231+0x8>
 212:	57c2                	lw	a5,48(sp)
 214:	01578763          	beq	a5,s5,222 <.L193>

00000218 <.L232>:
 218:	5772                	lw	a4,60(sp)
 21a:	47d5                	li	a5,21
 21c:	f6f71ee3          	bne	a4,a5,198 <.L194>
 220:	d802                	sw	zero,48(sp)

00000222 <.L193>:
 222:	5762                	lw	a4,56(sp)
 224:	57fd                	li	a5,-1
 226:	2af70663          	beq	a4,a5,4d2 <.L234>
 22a:	000005b7          	lui	a1,0x0
 22e:	0005a583          	lw	a1,0(a1) # 0 <ate_txframe_dut>
 232:	74657737          	lui	a4,0x74657
 236:	6689                	lui	a3,0x2
 238:	60504637          	lui	a2,0x60504
 23c:	08c10813          	add	a6,sp,140
 240:	013c                	add	a5,sp,136
 242:	37370713          	add	a4,a4,883 # 74657373 <.L192+0x74656ba3>
 246:	06c1                	add	a3,a3,16 # 2010 <.L192+0x1840>
 248:	03060613          	add	a2,a2,48 # 60504030 <.L192+0x60503860>
 24c:	4509                	li	a0,2
 24e:	00000097          	auipc	ra,0x0
 252:	000080e7          	jalr	ra # 24e <.L193+0x2c>
 256:	409c                	lw	a5,0(s1)
 258:	ffc01737          	lui	a4,0xffc01
 25c:	177d                	add	a4,a4,-1 # ffc00fff <.L192+0xffc0082f>
 25e:	8ff9                	and	a5,a5,a4
 260:	6905                	lui	s2,0x1
 262:	0127e7b3          	or	a5,a5,s2
 266:	c09c                	sw	a5,0(s1)
 268:	8c2a                	mv	s8,a0
 26a:	3e800513          	li	a0,1000
 26e:	00000097          	auipc	ra,0x0
 272:	000080e7          	jalr	ra # 26e <.L193+0x4c>
 276:	478d                	li	a5,3
 278:	00fc2023          	sw	a5,0(s8)
 27c:	600357b7          	lui	a5,0x60035
 280:	439c                	lw	a5,0(a5)
 282:	4cc1                	li	s9,16
 284:	4a81                	li	s5,0
 286:	c0be                	sw	a5,64(sp)
 288:	57fd                	li	a5,-1
 28a:	c2be                	sw	a5,68(sp)
 28c:	38890793          	add	a5,s2,904 # 1388 <.L192+0xbb8>
 290:	4b01                	li	s6,0
 292:	ce02                	sw	zero,28(sp)
 294:	4a01                	li	s4,0
 296:	d202                	sw	zero,36(sp)
 298:	d602                	sw	zero,44(sp)
 29a:	d402                	sw	zero,40(sp)
 29c:	d002                	sw	zero,32(sp)
 29e:	4481                	li	s1,0
 2a0:	4981                	li	s3,0
 2a2:	4d01                	li	s10,0
 2a4:	ccbe                	sw	a5,88(sp)

000002a6 <.L196>:
 2a6:	000007b7          	lui	a5,0x0
 2aa:	00079783          	lh	a5,0(a5) # 0 <ate_txframe_dut>
 2ae:	00499913          	sll	s2,s3,0x4
 2b2:	0ef9e463          	bltu	s3,a5,39a <.L206>

000002b6 <.L195>:
 2b6:	67a1                	lui	a5,0x8
 2b8:	60033737          	lui	a4,0x60033
 2bc:	96078793          	add	a5,a5,-1696 # 7960 <.L192+0x7190>
 2c0:	0cf72c23          	sw	a5,216(a4) # 600330d8 <.L192+0x60032908>
 2c4:	800007b7          	lui	a5,0x80000
 2c8:	08f72223          	sw	a5,132(a4)
 2cc:	57d2                	lw	a5,52(sp)
 2ce:	c39d                	beqz	a5,2f4 <.L207>
 2d0:	47b6                	lw	a5,76(sp)
 2d2:	00000537          	lui	a0,0x0
 2d6:	00050513          	mv	a0,a0
 2da:	0057d593          	srl	a1,a5,0x5
 2de:	c005e593          	or	a1,a1,-1024
 2e2:	00258613          	add	a2,a1,2
 2e6:	4791                	li	a5,4
 2e8:	02f64633          	div	a2,a2,a5
 2ec:	00000097          	auipc	ra,0x0
 2f0:	000080e7          	jalr	ra # 2ec <.L195+0x36>

000002f4 <.L207>:
 2f4:	57b2                	lw	a5,44(sp)
 2f6:	02c15d83          	lhu	s11,44(sp)
 2fa:	02815403          	lhu	s0,40(sp)
 2fe:	83c1                	srl	a5,a5,0x10
 300:	cebe                	sw	a5,92(sp)
 302:	010b5793          	srl	a5,s6,0x10
 306:	d0be                	sw	a5,96(sp)
 308:	57a2                	lw	a5,40(sp)
 30a:	01c15383          	lhu	t2,28(sp)
 30e:	0984                	add	s1,sp,208
 310:	83c1                	srl	a5,a5,0x10
 312:	cabe                	sw	a5,84(sp)
 314:	47f2                	lw	a5,28(sp)
 316:	0b010993          	add	s3,sp,176
 31a:	010b1c93          	sll	s9,s6,0x10
 31e:	83c1                	srl	a5,a5,0x10
 320:	ccbe                	sw	a5,88(sp)
 322:	5782                	lw	a5,32(sp)
 324:	09810f93          	add	t6,sp,152
 328:	0a010f13          	add	t5,sp,160
 32c:	83c1                	srl	a5,a5,0x10
 32e:	c4be                	sw	a5,72(sp)
 330:	010a5793          	srl	a5,s4,0x10
 334:	c6be                	sw	a5,76(sp)
 336:	5792                	lw	a5,36(sp)
 338:	85ce                	mv	a1,s3
 33a:	8726                	mv	a4,s1
 33c:	83c1                	srl	a5,a5,0x10
 33e:	d2be                	sw	a5,100(sp)
 340:	010ad793          	srl	a5,s5,0x10
 344:	d4be                	sw	a5,104(sp)
 346:	02015783          	lhu	a5,32(sp)
 34a:	4c01                	li	s8,0
 34c:	4b81                	li	s7,0
 34e:	d6be                	sw	a5,108(sp)
 350:	010a1793          	sll	a5,s4,0x10
 354:	83c1                	srl	a5,a5,0x10
 356:	d8be                	sw	a5,112(sp)
 358:	000007b7          	lui	a5,0x0
 35c:	00078793          	mv	a5,a5
 360:	dabe                	sw	a5,116(sp)
 362:	02415783          	lhu	a5,36(sp)
 366:	4301                	li	t1,0
 368:	010cdc93          	srl	s9,s9,0x10
 36c:	dcbe                	sw	a5,120(sp)
 36e:	010a9793          	sll	a5,s5,0x10
 372:	83c1                	srl	a5,a5,0x10
 374:	debe                	sw	a5,124(sp)
 376:	42c1                	li	t0,16
 378:	07f00e13          	li	t3,127
 37c:	f8100e93          	li	t4,-127

00000380 <.L223>:
 380:	fff30793          	add	a5,t1,-1
 384:	4699                	li	a3,6
 386:	40f6e663          	bltu	a3,a5,792 <.L208>
 38a:	56d6                	lw	a3,116(sp)
 38c:	078a                	sll	a5,a5,0x2
 38e:	97b6                	add	a5,a5,a3
 390:	439c                	lw	a5,0(a5)
 392:	8782                	jr	a5

00000394 <.L233>:
 394:	4785                	li	a5,1
 396:	d83e                	sw	a5,48(sp)
 398:	b569                	j	222 <.L193>

0000039a <.L206>:
 39a:	47d6                	lw	a5,84(sp)
 39c:	00199513          	sll	a0,s3,0x1
 3a0:	e799                	bnez	a5,3ae <.L263>
 3a2:	000007b7          	lui	a5,0x0
 3a6:	0007a503          	lw	a0,0(a5) # 0 <ate_txframe_dut>
 3aa:	0509                	add	a0,a0,2 # 2 <ate_txframe_dut+0x2>
 3ac:	050a                	sll	a0,a0,0x2

000003ae <.L263>:
 3ae:	0562                	sll	a0,a0,0x18
 3b0:	8561                	sra	a0,a0,0x18
 3b2:	00000097          	auipc	ra,0x0
 3b6:	000080e7          	jalr	ra # 3b2 <.L263+0x4>
 3ba:	00299713          	sll	a4,s3,0x2
 3be:	191c                	add	a5,sp,176
 3c0:	00e78d33          	add	s10,a5,a4
 3c4:	099c                	add	a5,sp,208
 3c6:	00e78bb3          	add	s7,a5,a4
 3ca:	000d2023          	sw	zero,0(s10) # ff000000 <.L192+0xfefff830>
 3ce:	000ba023          	sw	zero,0(s7) # 40000000 <.L192+0x3ffff830>
 3d2:	60033db7          	lui	s11,0x60033

000003d6 <.L205>:
 3d6:	084da783          	lw	a5,132(s11) # 60033084 <.L192+0x600328b4>
 3da:	40000737          	lui	a4,0x40000
 3de:	4566                	lw	a0,88(sp)
 3e0:	8fd9                	or	a5,a5,a4
 3e2:	08fda223          	sw	a5,132(s11)
 3e6:	57e2                	lw	a5,56(sp)
 3e8:	012c2423          	sw	s2,8(s8)
 3ec:	0905                	add	s2,s2,1
 3ee:	00fc2223          	sw	a5,4(s8)
 3f2:	00000097          	auipc	ra,0x0
 3f6:	000080e7          	jalr	ra # 3f2 <.L205+0x1c>
 3fa:	ff0007b7          	lui	a5,0xff000
 3fe:	8d7d                	and	a0,a0,a5
 400:	e149                	bnez	a0,482 <.L199>
 402:	084da783          	lw	a5,132(s11)
 406:	00179713          	sll	a4,a5,0x1
 40a:	06074963          	bltz	a4,47c <.L200>
 40e:	47a6                	lw	a5,72(sp)
 410:	4711                	li	a4,4
 412:	439c                	lw	a5,0(a5)
 414:	06e79463          	bne	a5,a4,47c <.L200>
 418:	00040583          	lb	a1,0(s0)
 41c:	000d2503          	lw	a0,0(s10)
 420:	06042303          	lw	t1,96(s0)
 424:	4c7c                	lw	a5,92(s0)
 426:	952e                	add	a0,a0,a1
 428:	000ba583          	lw	a1,0(s7)
 42c:	00ad2023          	sw	a0,0(s10)
 430:	d03e                	sw	a5,32(sp)
 432:	959a                	add	a1,a1,t1
 434:	00bba023          	sw	a1,0(s7)
 438:	00000097          	auipc	ra,0x0
 43c:	000080e7          	jalr	ra # 438 <.L205+0x62>
 440:	00149593          	sll	a1,s1,0x1
 444:	199c                	add	a5,sp,240
 446:	0485                	add	s1,s1,1
 448:	95be                	add	a1,a1,a5
 44a:	04c2                	sll	s1,s1,0x10
 44c:	faa59c23          	sh	a0,-72(a1)
 450:	84c1                	sra	s1,s1,0x10
 452:	4711                	li	a4,4
 454:	5782                	lw	a5,32(sp)
 456:	46fd                	li	a3,31
 458:	4605                	li	a2,1
 45a:	00e49363          	bne	s1,a4,460 <.L201>
 45e:	4481                	li	s1,0

00000460 <.L201>:
 460:	5078                	lw	a4,100(s0)
 462:	d03a                	sw	a4,32(sp)
 464:	5438                	lw	a4,104(s0)
 466:	d43a                	sw	a4,40(sp)
 468:	5478                	lw	a4,108(s0)
 46a:	d63a                	sw	a4,44(sp)
 46c:	5838                	lw	a4,112(s0)
 46e:	d23a                	sw	a4,36(sp)
 470:	02f6e563          	bltu	a3,a5,49a <.L202>
 474:	00f617b3          	sll	a5,a2,a5
 478:	00fa6a33          	or	s4,s4,a5

0000047c <.L200>:
 47c:	600357b7          	lui	a5,0x60035
 480:	439c                	lw	a5,0(a5)

00000482 <.L199>:
 482:	600357b7          	lui	a5,0x60035
 486:	439c                	lw	a5,0(a5)
 488:	f59917e3          	bne	s2,s9,3d6 <.L205>
 48c:	4706                	lw	a4,64(sp)
 48e:	0985                	add	s3,s3,1
 490:	0cc1                	add	s9,s9,16
 492:	8f99                	sub	a5,a5,a4
 494:	c2be                	sw	a5,68(sp)
 496:	4d05                	li	s10,1
 498:	b539                	j	2a6 <.L196>

0000049a <.L202>:
 49a:	fe078593          	add	a1,a5,-32 # 60034fe0 <.L192+0x60034810>
 49e:	00b6e863          	bltu	a3,a1,4ae <.L203>
 4a2:	47f2                	lw	a5,28(sp)
 4a4:	00b615b3          	sll	a1,a2,a1
 4a8:	8fcd                	or	a5,a5,a1
 4aa:	ce3e                	sw	a5,28(sp)
 4ac:	bfc1                	j	47c <.L200>

000004ae <.L203>:
 4ae:	fc078593          	add	a1,a5,-64
 4b2:	00b6e763          	bltu	a3,a1,4c0 <.L204>
 4b6:	00b615b3          	sll	a1,a2,a1
 4ba:	00bb6b33          	or	s6,s6,a1
 4be:	bf7d                	j	47c <.L200>

000004c0 <.L204>:
 4c0:	fa078793          	add	a5,a5,-96
 4c4:	faf6ece3          	bltu	a3,a5,47c <.L200>
 4c8:	00f617b3          	sll	a5,a2,a5
 4cc:	00faeab3          	or	s5,s5,a5
 4d0:	b775                	j	47c <.L200>

000004d2 <.L234>:
 4d2:	57fd                	li	a5,-1
 4d4:	4a81                	li	s5,0
 4d6:	4b01                	li	s6,0
 4d8:	ce02                	sw	zero,28(sp)
 4da:	4a01                	li	s4,0
 4dc:	d202                	sw	zero,36(sp)
 4de:	d602                	sw	zero,44(sp)
 4e0:	d402                	sw	zero,40(sp)
 4e2:	d002                	sw	zero,32(sp)
 4e4:	4d01                	li	s10,0
 4e6:	c2be                	sw	a5,68(sp)
 4e8:	c082                	sw	zero,64(sp)
 4ea:	4901                	li	s2,0
 4ec:	b3e9                	j	2b6 <.L195>

000004ee <.L214>:
 4ee:	4666                	lw	a2,88(sp)
 4f0:	46d6                	lw	a3,84(sp)

000004f2 <.L216>:
 4f2:	4501                	li	a0,0
 4f4:	4781                	li	a5,0
 4f6:	4801                	li	a6,0

000004f8 <.L217>:
 4f8:	410658b3          	sra	a7,a2,a6
 4fc:	0018f893          	and	a7,a7,1
 500:	97c6                	add	a5,a5,a7
 502:	4106d8b3          	sra	a7,a3,a6
 506:	0018f893          	and	a7,a7,1
 50a:	9546                	add	a0,a0,a7
 50c:	0805                	add	a6,a6,1 # ff0001 <.L192+0xfef831>
 50e:	0ff7f793          	zext.b	a5,a5
 512:	0ff57513          	zext.b	a0,a0
 516:	fe5811e3          	bne	a6,t0,4f8 <.L217>
 51a:	00ff8023          	sb	a5,0(t6)
 51e:	00af0023          	sb	a0,0(t5)
 522:	cb89                	beqz	a5,534 <.L218>
 524:	4194                	lw	a3,0(a1)
 526:	4310                	lw	a2,0(a4)
 528:	02f6c6b3          	div	a3,a3,a5
 52c:	c194                	sw	a3,0(a1)
 52e:	02f646b3          	div	a3,a2,a5
 532:	c314                	sw	a3,0(a4)

00000534 <.L218>:
 534:	4314                	lw	a3,0(a4)
 536:	4190                	lw	a2,0(a1)
 538:	fa068693          	add	a3,a3,-96
 53c:	c314                	sw	a3,0(a4)
 53e:	26ce5f63          	bge	t3,a2,7bc <.L219>
 542:	01c5a023          	sw	t3,0(a1)

00000546 <.L220>:
 546:	28de5063          	bge	t3,a3,7c6 <.L221>
 54a:	01c72023          	sw	t3,0(a4) # 40000000 <.L192+0x3ffff830>

0000054e <.L222>:
 54e:	9c3e                	add	s8,s8,a5
 550:	9baa                	add	s7,s7,a0
 552:	0305                	add	t1,t1,1
 554:	47a1                	li	a5,8
 556:	0ffbfb93          	zext.b	s7,s7
 55a:	0ffc7c13          	zext.b	s8,s8
 55e:	0711                	add	a4,a4,4
 560:	0591                	add	a1,a1,4
 562:	0f85                	add	t6,t6,1
 564:	0f05                	add	t5,t5,1
 566:	e0f31de3          	bne	t1,a5,380 <.L223>
 56a:	4401                	li	s0,0
 56c:	4d81                	li	s11,0
 56e:	4781                	li	a5,0
 570:	46a1                	li	a3,8

00000572 <.L224>:
 572:	5702                	lw	a4,32(sp)
 574:	00f75733          	srl	a4,a4,a5
 578:	8b05                	and	a4,a4,1
 57a:	9dba                	add	s11,s11,a4
 57c:	00fa5733          	srl	a4,s4,a5
 580:	8b05                	and	a4,a4,1
 582:	943a                	add	s0,s0,a4
 584:	0785                	add	a5,a5,1
 586:	0ffdfd93          	zext.b	s11,s11
 58a:	0ff47413          	zext.b	s0,s0
 58e:	fed792e3          	bne	a5,a3,572 <.L224>
 592:	57d2                	lw	a5,52(sp)
 594:	1c078463          	beqz	a5,75c <.L189>
 598:	00000537          	lui	a0,0x0
 59c:	00050513          	mv	a0,a0
 5a0:	00000097          	auipc	ra,0x0
 5a4:	000080e7          	jalr	ra # 5a0 <.L224+0x2e>
 5a8:	000007b7          	lui	a5,0x0
 5ac:	02048713          	add	a4,s1,32
 5b0:	8cbe                	mv	s9,a5

000005b2 <.L226>:
 5b2:	408c                	lw	a1,0(s1)
 5b4:	00078513          	mv	a0,a5
 5b8:	da3a                	sw	a4,52(sp)
 5ba:	00000097          	auipc	ra,0x0
 5be:	000080e7          	jalr	ra # 5ba <.L226+0x8>
 5c2:	5752                	lw	a4,52(sp)
 5c4:	0491                	add	s1,s1,4
 5c6:	000007b7          	lui	a5,0x0
 5ca:	fe9714e3          	bne	a4,s1,5b2 <.L226>
 5ce:	000004b7          	lui	s1,0x0
 5d2:	00048513          	mv	a0,s1
 5d6:	00000097          	auipc	ra,0x0
 5da:	000080e7          	jalr	ra # 5d6 <.L226+0x24>
 5de:	00000537          	lui	a0,0x0
 5e2:	00050513          	mv	a0,a0
 5e6:	00000097          	auipc	ra,0x0
 5ea:	000080e7          	jalr	ra # 5e6 <.L226+0x34>
 5ee:	02098793          	add	a5,s3,32

000005f2 <.L227>:
 5f2:	0009a583          	lw	a1,0(s3)
 5f6:	000c8513          	mv	a0,s9
 5fa:	da3e                	sw	a5,52(sp)
 5fc:	00000097          	auipc	ra,0x0
 600:	000080e7          	jalr	ra # 5fc <.L227+0xa>
 604:	57d2                	lw	a5,52(sp)
 606:	0991                	add	s3,s3,4
 608:	ff3795e3          	bne	a5,s3,5f2 <.L227>
 60c:	00048513          	mv	a0,s1
 610:	00000097          	auipc	ra,0x0
 614:	000080e7          	jalr	ra # 610 <.L227+0x1e>
 618:	00000537          	lui	a0,0x0
 61c:	00050513          	mv	a0,a0
 620:	00000097          	auipc	ra,0x0
 624:	000080e7          	jalr	ra # 620 <.L227+0x2e>
 628:	4981                	li	s3,0

0000062a <.L228>:
 62a:	111c                	add	a5,sp,160
 62c:	01378733          	add	a4,a5,s3
 630:	00074583          	lbu	a1,0(a4)
 634:	000c8513          	mv	a0,s9
 638:	0985                	add	s3,s3,1
 63a:	00000097          	auipc	ra,0x0
 63e:	000080e7          	jalr	ra # 63a <.L228+0x10>
 642:	47a1                	li	a5,8
 644:	fef993e3          	bne	s3,a5,62a <.L228>
 648:	00048513          	mv	a0,s1
 64c:	00000097          	auipc	ra,0x0
 650:	000080e7          	jalr	ra # 64c <.L228+0x22>
 654:	00000537          	lui	a0,0x0
 658:	00050513          	mv	a0,a0
 65c:	00000097          	auipc	ra,0x0
 660:	000080e7          	jalr	ra # 65c <.L228+0x32>
 664:	4981                	li	s3,0

00000666 <.L229>:
 666:	093c                	add	a5,sp,152
 668:	01378733          	add	a4,a5,s3
 66c:	00074583          	lbu	a1,0(a4)
 670:	000c8513          	mv	a0,s9
 674:	0985                	add	s3,s3,1
 676:	00000097          	auipc	ra,0x0
 67a:	000080e7          	jalr	ra # 676 <.L229+0x10>
 67e:	47a1                	li	a5,8
 680:	fef993e3          	bne	s3,a5,666 <.L229>
 684:	00048513          	mv	a0,s1
 688:	00000097          	auipc	ra,0x0
 68c:	000080e7          	jalr	ra # 688 <.L229+0x22>
 690:	00000537          	lui	a0,0x0
 694:	00050513          	mv	a0,a0
 698:	00000097          	auipc	ra,0x0
 69c:	000080e7          	jalr	ra # 698 <.L229+0x32>
 6a0:	6785                	lui	a5,0x1
 6a2:	0a810993          	add	s3,sp,168
 6a6:	c1800693          	li	a3,-1000
 6aa:	9b478793          	add	a5,a5,-1612 # 9b4 <.L192+0x1e4>

000006ae <.L230>:
 6ae:	00099583          	lh	a1,0(s3)
 6b2:	000c8513          	mv	a0,s9
 6b6:	0989                	add	s3,s3,2
 6b8:	02d585b3          	mul	a1,a1,a3
 6bc:	02f5c5b3          	div	a1,a1,a5
 6c0:	feb99f23          	sh	a1,-2(s3)
 6c4:	00000097          	auipc	ra,0x0
 6c8:	000080e7          	jalr	ra # 6c4 <.L230+0x16>
 6cc:	6785                	lui	a5,0x1
 6ce:	1918                	add	a4,sp,176
 6d0:	9b478793          	add	a5,a5,-1612 # 9b4 <.L192+0x1e4>
 6d4:	c1800693          	li	a3,-1000
 6d8:	fd371be3          	bne	a4,s3,6ae <.L230>
 6dc:	00048513          	mv	a0,s1
 6e0:	00000097          	auipc	ra,0x0
 6e4:	000080e7          	jalr	ra # 6e0 <.L230+0x32>
 6e8:	48f2                	lw	a7,28(sp)
 6ea:	5702                	lw	a4,32(sp)
 6ec:	56a2                	lw	a3,40(sp)
 6ee:	5632                	lw	a2,44(sp)
 6f0:	5592                	lw	a1,36(sp)
 6f2:	00000537          	lui	a0,0x0
 6f6:	885a                	mv	a6,s6
 6f8:	87d6                	mv	a5,s5
 6fa:	c052                	sw	s4,0(sp)
 6fc:	00050513          	mv	a0,a0
 700:	00000097          	auipc	ra,0x0
 704:	000080e7          	jalr	ra # 700 <.L230+0x52>
 708:	418b86b3          	sub	a3,s7,s8
 70c:	00d40733          	add	a4,s0,a3
 710:	41b70733          	sub	a4,a4,s11
 714:	00000537          	lui	a0,0x0
 718:	0ff77713          	zext.b	a4,a4
 71c:	8662                	mv	a2,s8
 71e:	85de                	mv	a1,s7
 720:	00050513          	mv	a0,a0
 724:	00000097          	auipc	ra,0x0
 728:	000080e7          	jalr	ra # 724 <.L230+0x76>
 72c:	5642                	lw	a2,48(sp)
 72e:	55e2                	lw	a1,56(sp)
 730:	4796                	lw	a5,68(sp)
 732:	56f2                	lw	a3,60(sp)
 734:	00000537          	lui	a0,0x0
 738:	884a                	mv	a6,s2
 73a:	876a                	mv	a4,s10
 73c:	00050513          	mv	a0,a0
 740:	00000097          	auipc	ra,0x0
 744:	000080e7          	jalr	ra # 740 <.L230+0x92>
 748:	4606                	lw	a2,64(sp)
 74a:	45c6                	lw	a1,80(sp)
 74c:	00000537          	lui	a0,0x0
 750:	00050513          	mv	a0,a0
 754:	00000097          	auipc	ra,0x0
 758:	000080e7          	jalr	ra # 754 <.L230+0xa6>

0000075c <.L189>:
 75c:	12c12083          	lw	ra,300(sp)
 760:	12812403          	lw	s0,296(sp)
 764:	12412483          	lw	s1,292(sp)
 768:	12012903          	lw	s2,288(sp)
 76c:	11c12983          	lw	s3,284(sp)
 770:	11812a03          	lw	s4,280(sp)
 774:	11412a83          	lw	s5,276(sp)
 778:	11012b03          	lw	s6,272(sp)
 77c:	10c12b83          	lw	s7,268(sp)
 780:	10812c03          	lw	s8,264(sp)
 784:	10412c83          	lw	s9,260(sp)
 788:	10012d03          	lw	s10,256(sp)
 78c:	5dfe                	lw	s11,252(sp)
 78e:	6155                	add	sp,sp,304
 790:	8082                	ret

00000792 <.L208>:
 792:	56b6                	lw	a3,108(sp)
 794:	5646                	lw	a2,112(sp)
 796:	bbb1                	j	4f2 <.L216>

00000798 <.L215>:
 798:	86a2                	mv	a3,s0
 79a:	861e                	mv	a2,t2
 79c:	bb99                	j	4f2 <.L216>

0000079e <.L213>:
 79e:	86ee                	mv	a3,s11
 7a0:	8666                	mv	a2,s9
 7a2:	bb81                	j	4f2 <.L216>

000007a4 <.L212>:
 7a4:	5606                	lw	a2,96(sp)
 7a6:	46f6                	lw	a3,92(sp)
 7a8:	b3a9                	j	4f2 <.L216>

000007aa <.L211>:
 7aa:	56e6                	lw	a3,120(sp)
 7ac:	5676                	lw	a2,124(sp)
 7ae:	b391                	j	4f2 <.L216>

000007b0 <.L209>:
 7b0:	5626                	lw	a2,104(sp)
 7b2:	5696                	lw	a3,100(sp)
 7b4:	bb3d                	j	4f2 <.L216>

000007b6 <.L235>:
 7b6:	4636                	lw	a2,76(sp)
 7b8:	46a6                	lw	a3,72(sp)
 7ba:	bb25                	j	4f2 <.L216>

000007bc <.L219>:
 7bc:	d9d655e3          	bge	a2,t4,546 <.L220>
 7c0:	01d5a023          	sw	t4,0(a1)
 7c4:	b349                	j	546 <.L220>

000007c6 <.L221>:
 7c6:	d9d6d4e3          	bge	a3,t4,54e <.L222>
 7ca:	01d72023          	sw	t4,0(a4)
 7ce:	b341                	j	54e <.L222>

000007d0 <.L192>:
 7d0:	57d2                	lw	a5,52(sp)
 7d2:	a40783e3          	beqz	a5,218 <.L232>
 7d6:	d802                	sw	zero,48(sp)
 7d8:	b42d                	j	202 <.L231>

Disassembly of section .text.tx_ack_start:

00000000 <tx_ack_start>:
   0:	711d                	add	sp,sp,-96
   2:	ca2a                	sw	a0,20(sp)
   4:	4529                	li	a0,10
   6:	cca2                	sw	s0,88(sp)
   8:	caa6                	sw	s1,84(sp)
   a:	c8ca                	sw	s2,80(sp)
   c:	c6ce                	sw	s3,76(sp)
   e:	c4d2                	sw	s4,72(sp)
  10:	c2d6                	sw	s5,68(sp)
  12:	c0da                	sw	s6,64(sp)
  14:	de5e                	sw	s7,60(sp)
  16:	dc62                	sw	s8,56(sp)
  18:	da66                	sw	s9,52(sp)
  1a:	d86a                	sw	s10,48(sp)
  1c:	d66e                	sw	s11,44(sp)
  1e:	c632                	sw	a2,12(sp)
  20:	cc36                	sw	a3,24(sp)
  22:	ce86                	sw	ra,92(sp)
  24:	84ae                	mv	s1,a1
  26:	8cba                	mv	s9,a4
  28:	00000097          	auipc	ra,0x0
  2c:	000080e7          	jalr	ra # 28 <tx_ack_start+0x28>
  30:	000007b7          	lui	a5,0x0
  34:	4632                	lw	a2,12(sp)
  36:	00079023          	sh	zero,0(a5) # 0 <tx_ack_start>
  3a:	6001c7b7          	lui	a5,0x6001c
  3e:	4f9c                	lw	a5,24(a5)
  40:	411c                	lw	a5,0(a0)
  42:	0f0006b7          	lui	a3,0xf000
  46:	0662                	sll	a2,a2,0x18
  48:	8e75                	and	a2,a2,a3
  4a:	f10006b7          	lui	a3,0xf1000
  4e:	16fd                	add	a3,a3,-1 # f0ffffff <.L192+0xf0fff82f>
  50:	8ff5                	and	a5,a5,a3
  52:	8e5d                	or	a2,a2,a5
  54:	ffc01bb7          	lui	s7,0xffc01
  58:	6c31                	lui	s8,0xc
  5a:	89aa                	mv	s3,a0
  5c:	c110                	sw	a2,0(a0)
  5e:	c802                	sw	zero,16(sp)
  60:	4a01                	li	s4,0
  62:	4901                	li	s2,0
  64:	4401                	li	s0,0
  66:	4a81                	li	s5,0
  68:	b0000b13          	li	s6,-1280
  6c:	c602                	sw	zero,12(sp)
  6e:	b0000d93          	li	s11,-1280
  72:	4d01                	li	s10,0
  74:	1bfd                	add	s7,s7,-1 # ffc00fff <.L192+0xffc0082f>
  76:	350c0c13          	add	s8,s8,848 # c350 <.L192+0xbb80>

0000007a <.L265>:
  7a:	47d2                	lw	a5,20(sp)
  7c:	04faea63          	bltu	s5,a5,d0 <.L275>
  80:	47a5                	li	a5,9
  82:	1147ff63          	bgeu	a5,s4,1a0 <.L276>
  86:	4429                	li	s0,10
  88:	02890433          	mul	s0,s2,s0
  8c:	ffca0913          	add	s2,s4,-4
  90:	4d32                	lw	s10,12(sp)
  92:	8dda                	mv	s11,s6
  94:	03244433          	div	s0,s0,s2
  98:	0442                	sll	s0,s0,0x10
  9a:	8441                	sra	s0,s0,0x10

0000009c <.L277>:
  9c:	47c2                	lw	a5,16(sp)
  9e:	008ca423          	sw	s0,8(s9)
  a2:	40f6                	lw	ra,92(sp)
  a4:	4466                	lw	s0,88(sp)
  a6:	014ca223          	sw	s4,4(s9)
  aa:	01bca623          	sw	s11,12(s9)
  ae:	01aca823          	sw	s10,16(s9)
  b2:	00fca023          	sw	a5,0(s9)
  b6:	44d6                	lw	s1,84(sp)
  b8:	4946                	lw	s2,80(sp)
  ba:	49b6                	lw	s3,76(sp)
  bc:	4a26                	lw	s4,72(sp)
  be:	4a96                	lw	s5,68(sp)
  c0:	4b06                	lw	s6,64(sp)
  c2:	5bf2                	lw	s7,60(sp)
  c4:	5c62                	lw	s8,56(sp)
  c6:	5cd2                	lw	s9,52(sp)
  c8:	5d42                	lw	s10,48(sp)
  ca:	5db2                	lw	s11,44(sp)
  cc:	6125                	add	sp,sp,96
  ce:	8082                	ret

000000d0 <.L275>:
  d0:	00000097          	auipc	ra,0x0
  d4:	000080e7          	jalr	ra # d0 <.L275>
  d8:	e499                	bnez	s1,e6 <.L266>
  da:	600357b7          	lui	a5,0x60035
  de:	5fe4                	lw	s1,124(a5)
  e0:	88bd                	and	s1,s1,15
  e2:	0485                	add	s1,s1,1 # 1 <tx_ack_start+0x1>
  e4:	048e                	sll	s1,s1,0x3

000000e6 <.L266>:
  e6:	0009a503          	lw	a0,0(s3)
  ea:	003ff737          	lui	a4,0x3ff
  ee:	00c49793          	sll	a5,s1,0xc
  f2:	8ff9                	and	a5,a5,a4
  f4:	01757533          	and	a0,a0,s7
  f8:	8fc9                	or	a5,a5,a0
  fa:	00f9a023          	sw	a5,0(s3)
  fe:	8562                	mv	a0,s8
 100:	00000097          	auipc	ra,0x0
 104:	000080e7          	jalr	ra # 100 <.L266+0x1a>
 108:	ff0007b7          	lui	a5,0xff000
 10c:	8d7d                	and	a0,a0,a5
 10e:	e92d                	bnez	a0,180 <.L267>
 110:	600337b7          	lui	a5,0x60033
 114:	0ac7a783          	lw	a5,172(a5) # 600330ac <.L192+0x600328dc>
 118:	87e1                	sra	a5,a5,0x18
 11a:	01a7d363          	bge	a5,s10,120 <.L268>
 11e:	8d3e                	mv	s10,a5

00000120 <.L268>:
 120:	00fdd363          	bge	s11,a5,126 <.L269>
 124:	8dbe                	mv	s11,a5

00000126 <.L269>:
 126:	01079513          	sll	a0,a5,0x10
 12a:	8141                	srl	a0,a0,0x10
 12c:	942a                	add	s0,s0,a0
 12e:	0442                	sll	s0,s0,0x10
 130:	48fd                	li	a7,31
 132:	8441                	sra	s0,s0,0x10
 134:	0158e963          	bltu	a7,s5,146 <.L270>
 138:	4742                	lw	a4,16(sp)
 13a:	4885                	li	a7,1
 13c:	015898b3          	sll	a7,a7,s5
 140:	01176733          	or	a4,a4,a7
 144:	c83a                	sw	a4,16(sp)

00000146 <.L270>:
 146:	00000737          	lui	a4,0x0
 14a:	00070313          	mv	t1,a4
 14e:	00035883          	lhu	a7,0(t1)
 152:	001a0693          	add	a3,s4,1
 156:	01069a13          	sll	s4,a3,0x10
 15a:	0885                	add	a7,a7,1 # 20001 <.L192+0x1f831>
 15c:	01131023          	sh	a7,0(t1)
 160:	010a5a13          	srl	s4,s4,0x10
 164:	4891                	li	a7,4
 166:	0148fd63          	bgeu	a7,s4,180 <.L267>
 16a:	4732                	lw	a4,12(sp)
 16c:	00e7d363          	bge	a5,a4,172 <.L271>
 170:	c63e                	sw	a5,12(sp)

00000172 <.L271>:
 172:	00fb5363          	bge	s6,a5,178 <.L272>
 176:	8b3e                	mv	s6,a5

00000178 <.L272>:
 178:	992a                	add	s2,s2,a0
 17a:	0942                	sll	s2,s2,0x10
 17c:	41095913          	sra	s2,s2,0x10

00000180 <.L267>:
 180:	4781                	li	a5,0

00000182 <.L273>:
 182:	4762                	lw	a4,24(sp)
 184:	00e79463          	bne	a5,a4,18c <.L274>
 188:	0a85                	add	s5,s5,1
 18a:	bdc5                	j	7a <.L265>

0000018c <.L274>:
 18c:	3e800513          	li	a0,1000
 190:	ce3e                	sw	a5,28(sp)
 192:	00000097          	auipc	ra,0x0
 196:	000080e7          	jalr	ra # 192 <.L274+0x6>
 19a:	47f2                	lw	a5,28(sp)
 19c:	0785                	add	a5,a5,1
 19e:	b7d5                	j	182 <.L273>

000001a0 <.L276>:
 1a0:	000a0a63          	beqz	s4,1b4 <.L278>
 1a4:	47a9                	li	a5,10
 1a6:	02f40433          	mul	s0,s0,a5
 1aa:	03444433          	div	s0,s0,s4
 1ae:	0442                	sll	s0,s0,0x10
 1b0:	8441                	sra	s0,s0,0x10
 1b2:	b5ed                	j	9c <.L277>

000001b4 <.L278>:
 1b4:	4401                	li	s0,0
 1b6:	b0000d93          	li	s11,-1280
 1ba:	4d01                	li	s10,0
 1bc:	b5c5                	j	9c <.L277>

Disassembly of section .text.tx_ack_init:

00000000 <tx_ack_init>:
   0:	715d                	add	sp,sp,-80
   2:	c2a6                	sw	s1,68(sp)
   4:	84ba                	mv	s1,a4
   6:	01350737          	lui	a4,0x1350
   a:	e1870713          	add	a4,a4,-488 # 134fe18 <.L192+0x134f648>
   e:	cc3a                	sw	a4,24(sp)
  10:	05040737          	lui	a4,0x5040
  14:	30270713          	add	a4,a4,770 # 5040302 <.L192+0x503fb32>
  18:	da56                	sw	s5,52(sp)
  1a:	8aaa                	mv	s5,a0
  1c:	4529                	li	a0,10
  1e:	c63e                	sw	a5,12(sp)
  20:	c686                	sw	ra,76(sp)
  22:	de4e                	sw	s3,60(sp)
  24:	dc52                	sw	s4,56(sp)
  26:	d85a                	sw	s6,48(sp)
  28:	8a36                	mv	s4,a3
  2a:	8b2e                	mv	s6,a1
  2c:	d65e                	sw	s7,44(sp)
  2e:	ce3a                	sw	a4,28(sp)
  30:	8bb2                	mv	s7,a2
  32:	c4a2                	sw	s0,72(sp)
  34:	c0ca                	sw	s2,64(sp)
  36:	00000097          	auipc	ra,0x0
  3a:	000080e7          	jalr	ra # 36 <tx_ack_init+0x36>
  3e:	00000737          	lui	a4,0x0
  42:	01572023          	sw	s5,0(a4) # 0 <tx_ack_init>
  46:	00000737          	lui	a4,0x0
  4a:	01672023          	sw	s6,0(a4) # 0 <tx_ack_init>
  4e:	00000737          	lui	a4,0x0
  52:	01772023          	sw	s7,0(a4) # 0 <tx_ack_init>
  56:	89aa                	mv	s3,a0
  58:	00000737          	lui	a4,0x0
  5c:	4505                	li	a0,1
  5e:	01472023          	sw	s4,0(a4) # 0 <tx_ack_init>
  62:	00000097          	auipc	ra,0x0
  66:	000080e7          	jalr	ra # 62 <tx_ack_init+0x62>
  6a:	47b2                	lw	a5,12(sp)
  6c:	e791                	bnez	a5,78 <.L281>
  6e:	0828                	add	a0,sp,24
  70:	00000097          	auipc	ra,0x0
  74:	000080e7          	jalr	ra # 70 <tx_ack_init+0x70>

00000078 <.L281>:
  78:	4762                	lw	a4,24(sp)
  7a:	47f2                	lw	a5,28(sp)
  7c:	60033437          	lui	s0,0x60033
  80:	c038                	sw	a4,64(s0)
  82:	60034937          	lui	s2,0x60034
  86:	c07c                	sw	a5,68(s0)
  88:	c7892783          	lw	a5,-904(s2) # 60033c78 <.L192+0x600334a8>
  8c:	74657737          	lui	a4,0x74657
  90:	01410813          	add	a6,sp,20
  94:	0027e793          	or	a5,a5,2
  98:	c6f92c23          	sw	a5,-904(s2)
  9c:	000007b7          	lui	a5,0x0
  a0:	0177a023          	sw	s7,0(a5) # 0 <tx_ack_init>
  a4:	37370713          	add	a4,a4,883 # 74657373 <.L192+0x74656ba3>
  a8:	081c                	add	a5,sp,16
  aa:	86da                	mv	a3,s6
  ac:	8656                	mv	a2,s5
  ae:	85d2                	mv	a1,s4
  b0:	4505                	li	a0,1
  b2:	00000097          	auipc	ra,0x0
  b6:	000080e7          	jalr	ra # b2 <.L281+0x3a>
  ba:	0009a783          	lw	a5,0(s3)
  be:	049e                	sll	s1,s1,0x7
  c0:	0ff4f493          	zext.b	s1,s1
  c4:	f7f7f793          	and	a5,a5,-129
  c8:	8cdd                	or	s1,s1,a5
  ca:	0099a023          	sw	s1,0(s3)
  ce:	08442783          	lw	a5,132(s0) # 60033084 <.L192+0x600328b4>
  d2:	20000737          	lui	a4,0x20000
  d6:	177d                	add	a4,a4,-1 # 1fffffff <.L192+0x1ffff82f>
  d8:	8ff9                	and	a5,a5,a4
  da:	08f42223          	sw	a5,132(s0)
  de:	08042783          	lw	a5,128(s0)
  e2:	f0000737          	lui	a4,0xf0000
  e6:	177d                	add	a4,a4,-1 # efffffff <.L192+0xeffff82f>
  e8:	8ff9                	and	a5,a5,a4
  ea:	08f42023          	sw	a5,128(s0)
  ee:	08442783          	lw	a5,132(s0)
  f2:	80000737          	lui	a4,0x80000
  f6:	40b6                	lw	ra,76(sp)
  f8:	8fd9                	or	a5,a5,a4
  fa:	08f42223          	sw	a5,132(s0)
  fe:	c4492783          	lw	a5,-956(s2)
 102:	7741                	lui	a4,0xffff0
 104:	0ff70713          	add	a4,a4,255 # ffff00ff <.L192+0xfffef92f>
 108:	8ff9                	and	a5,a5,a4
 10a:	6711                	lui	a4,0x4
 10c:	8fd9                	or	a5,a5,a4
 10e:	c4f92223          	sw	a5,-956(s2)
 112:	c4492783          	lw	a5,-956(s2)
 116:	4426                	lw	s0,72(sp)
 118:	4496                	lw	s1,68(sp)
 11a:	f007f793          	and	a5,a5,-256
 11e:	0407e793          	or	a5,a5,64
 122:	c4f92223          	sw	a5,-956(s2)
 126:	59f2                	lw	s3,60(sp)
 128:	4906                	lw	s2,64(sp)
 12a:	5a62                	lw	s4,56(sp)
 12c:	5ad2                	lw	s5,52(sp)
 12e:	5b42                	lw	s6,48(sp)
 130:	5bb2                	lw	s7,44(sp)
 132:	6161                	add	sp,sp,80
 134:	8082                	ret

Disassembly of section .text.tx_ack_test:

00000000 <tx_ack_test>:
   0:	7139                	add	sp,sp,-64
   2:	da26                	sw	s1,52(sp)
   4:	84be                	mv	s1,a5
   6:	000007b7          	lui	a5,0x0
   a:	d84a                	sw	s2,48(sp)
   c:	0007a903          	lw	s2,0(a5) # 0 <tx_ack_test>
  10:	000007b7          	lui	a5,0x0
  14:	dc22                	sw	s0,56(sp)
  16:	00079023          	sh	zero,0(a5) # 0 <tx_ack_test>
  1a:	8436                	mv	s0,a3
  1c:	04414783          	lbu	a5,68(sp)
  20:	86ba                	mv	a3,a4
  22:	04014703          	lbu	a4,64(sp)
  26:	de06                	sw	ra,60(sp)
  28:	c642                	sw	a6,12(sp)
  2a:	c446                	sw	a7,8(sp)
  2c:	00000097          	auipc	ra,0x0
  30:	000080e7          	jalr	ra # 2c <tx_ack_test+0x2c>
  34:	48a2                	lw	a7,8(sp)
  36:	4832                	lw	a6,12(sp)
  38:	04000793          	li	a5,64
  3c:	00f90023          	sb	a5,0(s2)
  40:	0878                	add	a4,sp,28
  42:	86c6                	mv	a3,a7
  44:	8642                	mv	a2,a6
  46:	85a6                	mv	a1,s1
  48:	8522                	mv	a0,s0
  4a:	00000097          	auipc	ra,0x0
  4e:	000080e7          	jalr	ra # 4a <tx_ack_test+0x4a>
  52:	5832                	lw	a6,44(sp)
  54:	57a2                	lw	a5,40(sp)
  56:	5712                	lw	a4,36(sp)
  58:	02015683          	lhu	a3,32(sp)
  5c:	45f2                	lw	a1,28(sp)
  5e:	00000537          	lui	a0,0x0
  62:	8622                	mv	a2,s0
  64:	00050513          	mv	a0,a0
  68:	00000097          	auipc	ra,0x0
  6c:	000080e7          	jalr	ra # 68 <tx_ack_test+0x68>
  70:	50f2                	lw	ra,60(sp)
  72:	5462                	lw	s0,56(sp)
  74:	54d2                	lw	s1,52(sp)
  76:	5942                	lw	s2,48(sp)
  78:	6121                	add	sp,sp,64
  7a:	8082                	ret

Disassembly of section .text.test_txtone_pwr:

00000000 <test_txtone_pwr>:
   0:	1101                	add	sp,sp,-32
   2:	ca26                	sw	s1,20(sp)
   4:	84b2                	mv	s1,a2
   6:	c84a                	sw	s2,16(sp)
   8:	c64e                	sw	s3,12(sp)
   a:	c452                	sw	s4,8(sp)
   c:	ce06                	sw	ra,28(sp)
   e:	cc22                	sw	s0,24(sp)
  10:	892a                	mv	s2,a0
  12:	89ae                	mv	s3,a1
  14:	8a36                	mv	s4,a3
  16:	00000097          	auipc	ra,0x0
  1a:	000080e7          	jalr	ra # 16 <test_txtone_pwr+0x16>
  1e:	e8b1                	bnez	s1,72 <.L286>
  20:	4781                	li	a5,0
  22:	4701                	li	a4,0
  24:	4681                	li	a3,0
  26:	0ff97613          	zext.b	a2,s2
  2a:	85d2                	mv	a1,s4
  2c:	4505                	li	a0,1
  2e:	00000097          	auipc	ra,0x0
  32:	000080e7          	jalr	ra # 2e <test_txtone_pwr+0x2e>
  36:	4401                	li	s0,0

00000038 <.L287>:
  38:	0334c463          	blt	s1,s3,60 <.L288>

0000003c <.L289>:
  3c:	00000537          	lui	a0,0x0
  40:	85a2                	mv	a1,s0
  42:	00050513          	mv	a0,a0
  46:	00000097          	auipc	ra,0x0
  4a:	000080e7          	jalr	ra # 46 <.L289+0xa>
  4e:	8522                	mv	a0,s0
  50:	40f2                	lw	ra,28(sp)
  52:	4462                	lw	s0,24(sp)
  54:	44d2                	lw	s1,20(sp)
  56:	4942                	lw	s2,16(sp)
  58:	49b2                	lw	s3,12(sp)
  5a:	4a22                	lw	s4,8(sp)
  5c:	6105                	add	sp,sp,32
  5e:	8082                	ret

00000060 <.L288>:
  60:	0f400513          	li	a0,244
  64:	00000097          	auipc	ra,0x0
  68:	000080e7          	jalr	ra # 64 <.L288+0x4>
  6c:	942a                	add	s0,s0,a0
  6e:	0485                	add	s1,s1,1
  70:	b7e1                	j	38 <.L287>

00000072 <.L286>:
  72:	4785                	li	a5,1
  74:	4401                	li	s0,0
  76:	fcf493e3          	bne	s1,a5,3c <.L289>
  7a:	0c800513          	li	a0,200
  7e:	00000097          	auipc	ra,0x0
  82:	000080e7          	jalr	ra # 7e <.L286+0xc>
  86:	4481                	li	s1,0
  88:	0ff97913          	zext.b	s2,s2

0000008c <.L290>:
  8c:	0134c763          	blt	s1,s3,9a <.L291>
  90:	00000097          	auipc	ra,0x0
  94:	000080e7          	jalr	ra # 90 <.L290+0x4>
  98:	b755                	j	3c <.L289>

0000009a <.L291>:
  9a:	4781                	li	a5,0
  9c:	4701                	li	a4,0
  9e:	4681                	li	a3,0
  a0:	864a                	mv	a2,s2
  a2:	85d2                	mv	a1,s4
  a4:	4505                	li	a0,1
  a6:	00000097          	auipc	ra,0x0
  aa:	000080e7          	jalr	ra # a6 <.L291+0xc>
  ae:	0f400513          	li	a0,244
  b2:	00000097          	auipc	ra,0x0
  b6:	000080e7          	jalr	ra # b2 <.L291+0x18>
  ba:	942a                	add	s0,s0,a0
  bc:	4505                	li	a0,1
  be:	00000097          	auipc	ra,0x0
  c2:	000080e7          	jalr	ra # be <.L291+0x24>
  c6:	0485                	add	s1,s1,1
  c8:	b7d1                	j	8c <.L290>

Disassembly of section .text.get_rx_buffer:

00000000 <get_rx_buffer>:
   0:	711d                	add	sp,sp,-96
   2:	600357b7          	lui	a5,0x60035
   6:	c0da                	sw	s6,64(sp)
   8:	0007ab03          	lw	s6,0(a5) # 60035000 <.L192+0x60034830>
   c:	600337b7          	lui	a5,0x60033
  10:	0847a703          	lw	a4,132(a5) # 60033084 <.L192+0x600328b4>
  14:	200006b7          	lui	a3,0x20000
  18:	16fd                	add	a3,a3,-1 # 1fffffff <.L192+0x1ffff82f>
  1a:	c43a                	sw	a4,8(sp)
  1c:	0807a703          	lw	a4,128(a5)
  20:	caa6                	sw	s1,84(sp)
  22:	c8ca                	sw	s2,80(sp)
  24:	c63a                	sw	a4,12(sp)
  26:	0847a703          	lw	a4,132(a5)
  2a:	c6ce                	sw	s3,76(sp)
  2c:	c4d2                	sw	s4,72(sp)
  2e:	de5e                	sw	s7,60(sp)
  30:	dc62                	sw	s8,56(sp)
  32:	8f75                	and	a4,a4,a3
  34:	ce86                	sw	ra,92(sp)
  36:	cca2                	sw	s0,88(sp)
  38:	c2d6                	sw	s5,68(sp)
  3a:	da66                	sw	s9,52(sp)
  3c:	d86a                	sw	s10,48(sp)
  3e:	d66e                	sw	s11,44(sp)
  40:	08e7a223          	sw	a4,132(a5)
  44:	0807a703          	lw	a4,128(a5)
  48:	f00006b7          	lui	a3,0xf0000
  4c:	16fd                	add	a3,a3,-1 # efffffff <.L192+0xeffff82f>
  4e:	8f75                	and	a4,a4,a3
  50:	08e7a023          	sw	a4,128(a5)
  54:	000f47b7          	lui	a5,0xf4
  58:	24078793          	add	a5,a5,576 # f4240 <.L192+0xf3a70>
  5c:	8baa                	mv	s7,a0
  5e:	8c2e                	mv	s8,a1
  60:	4a01                	li	s4,0
  62:	4981                	li	s3,0
  64:	4901                	li	s2,0
  66:	4481                	li	s1,0
  68:	ca3e                	sw	a5,20(sp)

0000006a <.L312>:
  6a:	60033737          	lui	a4,0x60033
  6e:	08472783          	lw	a5,132(a4) # 60033084 <.L192+0x600328b4>
  72:	400006b7          	lui	a3,0x40000
  76:	60035437          	lui	s0,0x60035
  7a:	8fd5                	or	a5,a5,a3
  7c:	08f72223          	sw	a5,132(a4)

00000080 <.L295>:
  80:	60033ab7          	lui	s5,0x60033

00000084 <.L297>:
  84:	084aa783          	lw	a5,132(s5) # 60033084 <.L192+0x600328b4>
  88:	00179713          	sll	a4,a5,0x1
  8c:	00074563          	bltz	a4,96 <.L301>
  90:	0485                	add	s1,s1,1
  92:	4a81                	li	s5,0
  94:	a0a5                	j	fc <.L296>

00000096 <.L301>:
  96:	00000097          	auipc	ra,0x0
  9a:	000080e7          	jalr	ra # 96 <.L301>
  9e:	cd31                	beqz	a0,fa <.L313>
  a0:	401c                	lw	a5,0(s0)
  a2:	4752                	lw	a4,20(sp)
  a4:	416787b3          	sub	a5,a5,s6
  a8:	fcf77ee3          	bgeu	a4,a5,84 <.L297>
  ac:	000007b7          	lui	a5,0x0
  b0:	00078513          	mv	a0,a5
  b4:	85a6                	mv	a1,s1
  b6:	00000097          	auipc	ra,0x0
  ba:	000080e7          	jalr	ra # b6 <.L301+0x20>
  be:	47a9                	li	a5,10
  c0:	0327e663          	bltu	a5,s2,ec <.L314>
  c4:	02090663          	beqz	s2,f0 <.L299>

000000c8 <.L298>:
  c8:	02099463          	bnez	s3,f0 <.L299>
  cc:	4785                	li	a5,1
  ce:	02fb9163          	bne	s7,a5,f0 <.L299>
  d2:	000007b7          	lui	a5,0x0
  d6:	00078513          	mv	a0,a5

000000da <.L326>:
  da:	00000097          	auipc	ra,0x0
  de:	000080e7          	jalr	ra # da <.L326>
  e2:	0905                	add	s2,s2,1
  e4:	00042b03          	lw	s6,0(s0) # 60035000 <.L192+0x60034830>
  e8:	4981                	li	s3,0
  ea:	bf59                	j	80 <.L295>

000000ec <.L314>:
  ec:	8a5e                	mv	s4,s7
  ee:	bfe9                	j	c8 <.L298>

000000f0 <.L299>:
  f0:	000007b7          	lui	a5,0x0
  f4:	00078513          	mv	a0,a5
  f8:	b7cd                	j	da <.L326>

000000fa <.L313>:
  fa:	4a85                	li	s5,1

000000fc <.L296>:
  fc:	00000097          	auipc	ra,0x0
 100:	000080e7          	jalr	ra # fc <.L296>
 104:	00050783          	lb	a5,0(a0) # 0 <get_rx_buffer>
 108:	4100                	lw	s0,0(a0)
 10a:	8d2a                	mv	s10,a0
 10c:	c83e                	sw	a5,16(sp)
 10e:	67b1                	lui	a5,0xc
 110:	8fe1                	and	a5,a5,s0
 112:	03050d93          	add	s11,a0,48
 116:	1a078563          	beqz	a5,2c0 <.L303>
 11a:	4158                	lw	a4,4(a0)
 11c:	00a45893          	srl	a7,s0,0xa
 120:	0308f893          	and	a7,a7,48
 124:	07f77713          	and	a4,a4,127
 128:	00e88cb3          	add	s9,a7,a4

0000012c <.L304>:
 12c:	010d2583          	lw	a1,16(s10)
 130:	18078d63          	beqz	a5,2ca <.L305>
 134:	004d2403          	lw	s0,4(s10)
 138:	8021                	srl	s0,s0,0x8
 13a:	0442                	sll	s0,s0,0x10
 13c:	8041                	srl	s0,s0,0x10

0000013e <.L306>:
 13e:	000007b7          	lui	a5,0x0
 142:	0007a783          	lw	a5,0(a5) # 0 <get_rx_buffer>
 146:	8566                	mv	a0,s9
 148:	0dc7a783          	lw	a5,220(a5)
 14c:	9782                	jalr	a5
 14e:	00cda683          	lw	a3,12(s11)
 152:	00ff05b7          	lui	a1,0xff0
 156:	8eaa                	mv	t4,a0
 158:	0086d713          	srl	a4,a3,0x8
 15c:	01071613          	sll	a2,a4,0x10
 160:	8e6d                	and	a2,a2,a1
 162:	0186d813          	srl	a6,a3,0x18
 166:	01869593          	sll	a1,a3,0x18
 16a:	0105e5b3          	or	a1,a1,a6
 16e:	8e4d                	or	a2,a2,a1
 170:	0106d793          	srl	a5,a3,0x10
 174:	65c1                	lui	a1,0x10
 176:	00879513          	sll	a0,a5,0x8
 17a:	15fd                	add	a1,a1,-1 # ffff <.L192+0xf82f>
 17c:	8d6d                	and	a0,a0,a1
 17e:	8e49                	or	a2,a2,a0
 180:	41860633          	sub	a2,a2,s8
 184:	00163613          	seqz	a2,a2
 188:	4505                	li	a0,1
 18a:	99b2                	add	s3,s3,a2
 18c:	02aa0563          	beq	s4,a0,1b6 <.L308>
 190:	4609                	li	a2,2
 192:	02ca1363          	bne	s4,a2,1b8 <.L309>
 196:	008da503          	lw	a0,8(s11)
 19a:	01055613          	srl	a2,a0,0x10
 19e:	8161                	srl	a0,a0,0x18
 1a0:	0542                	sll	a0,a0,0x10
 1a2:	0662                	sll	a2,a2,0x18
 1a4:	8e49                	or	a2,a2,a0
 1a6:	00869513          	sll	a0,a3,0x8
 1aa:	8de9                	and	a1,a1,a0
 1ac:	8e4d                	or	a2,a2,a1
 1ae:	41860633          	sub	a2,a2,s8
 1b2:	00163613          	seqz	a2,a2

000001b6 <.L308>:
 1b6:	ce4d                	beqz	a2,270 <.L310>

000001b8 <.L309>:
 1b8:	008da603          	lw	a2,8(s11)
 1bc:	014daf03          	lw	t5,20(s11)
 1c0:	00000537          	lui	a0,0x0
 1c4:	01065593          	srl	a1,a2,0x10
 1c8:	0ff7f793          	zext.b	a5,a5
 1cc:	0ff77713          	zext.b	a4,a4
 1d0:	0ff6f693          	zext.b	a3,a3
 1d4:	8261                	srl	a2,a2,0x18
 1d6:	0ff5f593          	zext.b	a1,a1
 1da:	00050513          	mv	a0,a0
 1de:	ce76                	sw	t4,28(sp)
 1e0:	cc7a                	sw	t5,24(sp)
 1e2:	00000097          	auipc	ra,0x0
 1e6:	000080e7          	jalr	ra # 1e2 <.L309+0x2a>
 1ea:	004da583          	lw	a1,4(s11)
 1ee:	008da783          	lw	a5,8(s11)
 1f2:	00000537          	lui	a0,0x0
 1f6:	0105d693          	srl	a3,a1,0x10
 1fa:	0087d813          	srl	a6,a5,0x8
 1fe:	0085d613          	srl	a2,a1,0x8
 202:	0ff7f793          	zext.b	a5,a5
 206:	0185d713          	srl	a4,a1,0x18
 20a:	0ff87813          	zext.b	a6,a6
 20e:	0ff6f693          	zext.b	a3,a3
 212:	0ff67613          	zext.b	a2,a2
 216:	0ff5f593          	zext.b	a1,a1
 21a:	00050513          	mv	a0,a0
 21e:	00000097          	auipc	ra,0x0
 222:	000080e7          	jalr	ra # 21e <.L309+0x66>
 226:	030d2583          	lw	a1,48(s10)
 22a:	00000537          	lui	a0,0x0
 22e:	00050513          	mv	a0,a0
 232:	0085d693          	srl	a3,a1,0x8
 236:	0105d613          	srl	a2,a1,0x10
 23a:	0ff5f713          	zext.b	a4,a1
 23e:	0ff6f693          	zext.b	a3,a3
 242:	0ff67613          	zext.b	a2,a2
 246:	81e1                	srl	a1,a1,0x18
 248:	00000097          	auipc	ra,0x0
 24c:	000080e7          	jalr	ra # 248 <.L309+0x90>
 250:	4f62                	lw	t5,24(sp)
 252:	4ef2                	lw	t4,28(sp)
 254:	45c2                	lw	a1,16(sp)
 256:	00000537          	lui	a0,0x0
 25a:	014f5793          	srl	a5,t5,0x14
 25e:	8776                	mv	a4,t4
 260:	86a2                	mv	a3,s0
 262:	8666                	mv	a2,s9
 264:	00050513          	mv	a0,a0
 268:	00000097          	auipc	ra,0x0
 26c:	000080e7          	jalr	ra # 268 <.L309+0xb0>

00000270 <.L310>:
 270:	000a9863          	bnez	s5,280 <.L311>
 274:	00000097          	auipc	ra,0x0
 278:	000080e7          	jalr	ra # 274 <.L310+0x4>
 27c:	de0517e3          	bnez	a0,6a <.L312>

00000280 <.L311>:
 280:	00000537          	lui	a0,0x0
 284:	85a6                	mv	a1,s1
 286:	00050513          	mv	a0,a0
 28a:	00000097          	auipc	ra,0x0
 28e:	000080e7          	jalr	ra # 28a <.L311+0xa>
 292:	4722                	lw	a4,8(sp)
 294:	600337b7          	lui	a5,0x60033
 298:	40f6                	lw	ra,92(sp)
 29a:	08e7a223          	sw	a4,132(a5) # 60033084 <.L192+0x600328b4>
 29e:	4732                	lw	a4,12(sp)
 2a0:	4466                	lw	s0,88(sp)
 2a2:	44d6                	lw	s1,84(sp)
 2a4:	08e7a023          	sw	a4,128(a5)
 2a8:	4946                	lw	s2,80(sp)
 2aa:	49b6                	lw	s3,76(sp)
 2ac:	4a26                	lw	s4,72(sp)
 2ae:	4a96                	lw	s5,68(sp)
 2b0:	4b06                	lw	s6,64(sp)
 2b2:	5bf2                	lw	s7,60(sp)
 2b4:	5c62                	lw	s8,56(sp)
 2b6:	5cd2                	lw	s9,52(sp)
 2b8:	5d42                	lw	s10,48(sp)
 2ba:	5db2                	lw	s11,44(sp)
 2bc:	6125                	add	sp,sp,96
 2be:	8082                	ret

000002c0 <.L303>:
 2c0:	00845893          	srl	a7,s0,0x8
 2c4:	01f8fc93          	and	s9,a7,31
 2c8:	b595                	j	12c <.L304>

000002ca <.L305>:
 2ca:	0412                	sll	s0,s0,0x4
 2cc:	8051                	srl	s0,s0,0x14
 2ce:	bd85                	j	13e <.L306>

Disassembly of section .text.get_rx_buffer1:

00000000 <get_rx_buffer1>:
   0:	600357b7          	lui	a5,0x60035
   4:	439c                	lw	a5,0(a5)
   6:	7159                	add	sp,sp,-112
   8:	200006b7          	lui	a3,0x20000
   c:	c83e                	sw	a5,16(sp)
   e:	600337b7          	lui	a5,0x60033
  12:	0847a703          	lw	a4,132(a5) # 60033084 <.L192+0x600328b4>
  16:	16fd                	add	a3,a3,-1 # 1fffffff <.L192+0x1ffff82f>
  18:	d2a6                	sw	s1,100(sp)
  1a:	ce3a                	sw	a4,28(sp)
  1c:	0807a703          	lw	a4,128(a5)
  20:	cece                	sw	s3,92(sp)
  22:	ccd2                	sw	s4,88(sp)
  24:	d03a                	sw	a4,32(sp)
  26:	0847a703          	lw	a4,132(a5)
  2a:	cad6                	sw	s5,84(sp)
  2c:	c8da                	sw	s6,80(sp)
  2e:	c6de                	sw	s7,76(sp)
  30:	ca2a                	sw	a0,20(sp)
  32:	d686                	sw	ra,108(sp)
  34:	d4a2                	sw	s0,104(sp)
  36:	d0ca                	sw	s2,96(sp)
  38:	c4e2                	sw	s8,72(sp)
  3a:	c2e6                	sw	s9,68(sp)
  3c:	c0ea                	sw	s10,64(sp)
  3e:	de6e                	sw	s11,60(sp)
  40:	cc2e                	sw	a1,24(sp)
  42:	8f75                	and	a4,a4,a3
  44:	08e7a223          	sw	a4,132(a5)
  48:	0807a703          	lw	a4,128(a5)
  4c:	f00006b7          	lui	a3,0xf0000
  50:	16fd                	add	a3,a3,-1 # efffffff <.L192+0xeffff82f>
  52:	8f75                	and	a4,a4,a3
  54:	08e7a023          	sw	a4,128(a5)
  58:	4501                	li	a0,0
  5a:	00000097          	auipc	ra,0x0
  5e:	000080e7          	jalr	ra # 5a <get_rx_buffer1+0x5a>
  62:	000f47b7          	lui	a5,0xf4
  66:	24078793          	add	a5,a5,576 # f4240 <.L192+0xf3a70>
  6a:	4b81                	li	s7,0
  6c:	4b01                	li	s6,0
  6e:	4a01                	li	s4,0
  70:	4a81                	li	s5,0
  72:	4981                	li	s3,0
  74:	600334b7          	lui	s1,0x60033
  78:	d43e                	sw	a5,40(sp)

0000007a <.L348>:
  7a:	0844a783          	lw	a5,132(s1) # 60033084 <.L192+0x600328b4>
  7e:	40000737          	lui	a4,0x40000
  82:	8fd9                	or	a5,a5,a4
  84:	08f4a223          	sw	a5,132(s1)
  88:	0844a783          	lw	a5,132(s1)
  8c:	20000737          	lui	a4,0x20000
  90:	8fd9                	or	a5,a5,a4
  92:	08f4a223          	sw	a5,132(s1)
  96:	47a9                	li	a5,10
  98:	0777fd63          	bgeu	a5,s7,112 <.L328>
  9c:	4881                	li	a7,0
  9e:	4801                	li	a6,0
  a0:	4781                	li	a5,0
  a2:	4701                	li	a4,0
  a4:	4685                	li	a3,1
  a6:	4601                	li	a2,0
  a8:	4581                	li	a1,0
  aa:	6509                	lui	a0,0x2
  ac:	c002                	sw	zero,0(sp)
  ae:	00000097          	auipc	ra,0x0
  b2:	000080e7          	jalr	ra # ae <.L348+0x34>
  b6:	00000537          	lui	a0,0x0
  ba:	00050513          	mv	a0,a0
  be:	00000097          	auipc	ra,0x0
  c2:	000080e7          	jalr	ra # be <.L348+0x44>
  c6:	4d81                	li	s11,0
  c8:	3fcb0c37          	lui	s8,0x3fcb0
  cc:	00000937          	lui	s2,0x0
  d0:	6405                	lui	s0,0x1

000000d2 <.L330>:
  d2:	007df793          	and	a5,s11,7
  d6:	eb89                	bnez	a5,e8 <.L329>
  d8:	000007b7          	lui	a5,0x0
  dc:	00078513          	mv	a0,a5
  e0:	00000097          	auipc	ra,0x0
  e4:	000080e7          	jalr	ra # e0 <.L330+0xe>

000000e8 <.L329>:
  e8:	002d9793          	sll	a5,s11,0x2
  ec:	97e2                	add	a5,a5,s8
  ee:	438c                	lw	a1,0(a5)
  f0:	00090513          	mv	a0,s2
  f4:	0d85                	add	s11,s11,1
  f6:	00000097          	auipc	ra,0x0
  fa:	000080e7          	jalr	ra # f6 <.L329+0xe>
  fe:	fc8d9ae3          	bne	s11,s0,d2 <.L330>
 102:	00000537          	lui	a0,0x0
 106:	00050513          	mv	a0,a0
 10a:	00000097          	auipc	ra,0x0
 10e:	000080e7          	jalr	ra # 10a <.L329+0x22>

00000112 <.L328>:
 112:	00000437          	lui	s0,0x0

00000116 <.L331>:
 116:	0844a783          	lw	a5,132(s1)
 11a:	00279713          	sll	a4,a5,0x2
 11e:	20074563          	bltz	a4,328 <.L337>
 122:	4c01                	li	s8,0

00000124 <.L332>:
 124:	6001c7b7          	lui	a5,0x6001c
 128:	57f8                	lw	a4,108(a5)
 12a:	600347b7          	lui	a5,0x60034
 12e:	0ac4a583          	lw	a1,172(s1)
 132:	c3c7a603          	lw	a2,-964(a5) # 60033c3c <.L192+0x6003346c>
 136:	0a84a903          	lw	s2,168(s1)
 13a:	600357b7          	lui	a5,0x60035
 13e:	439c                	lw	a5,0(a5)
 140:	0ff97913          	zext.b	s2,s2
 144:	00000537          	lui	a0,0x0
 148:	0ff77713          	zext.b	a4,a4
 14c:	86ca                	mv	a3,s2
 14e:	00050513          	mv	a0,a0
 152:	00000097          	auipc	ra,0x0
 156:	000080e7          	jalr	ra # 152 <.L332+0x2e>
 15a:	000c1563          	bnez	s8,164 <.L338>
 15e:	00091363          	bnez	s2,164 <.L338>
 162:	0985                	add	s3,s3,1

00000164 <.L338>:
 164:	00000097          	auipc	ra,0x0
 168:	000080e7          	jalr	ra # 164 <.L338>
 16c:	00050783          	lb	a5,0(a0) # 0 <get_rx_buffer1>
 170:	4100                	lw	s0,0(a0)
 172:	8caa                	mv	s9,a0
 174:	d23e                	sw	a5,36(sp)
 176:	67b1                	lui	a5,0xc
 178:	8fe1                	and	a5,a5,s0
 17a:	03050d13          	add	s10,a0,48
 17e:	22078863          	beqz	a5,3ae <.L339>
 182:	4158                	lw	a4,4(a0)
 184:	00a45893          	srl	a7,s0,0xa
 188:	0308f893          	and	a7,a7,48
 18c:	07f77713          	and	a4,a4,127
 190:	00e88db3          	add	s11,a7,a4

00000194 <.L340>:
 194:	010ca583          	lw	a1,16(s9)
 198:	22078063          	beqz	a5,3b8 <.L341>
 19c:	004ca403          	lw	s0,4(s9)
 1a0:	8021                	srl	s0,s0,0x8
 1a2:	0442                	sll	s0,s0,0x10
 1a4:	8041                	srl	s0,s0,0x10

000001a6 <.L342>:
 1a6:	000007b7          	lui	a5,0x0
 1aa:	0007a783          	lw	a5,0(a5) # 0 <get_rx_buffer1>
 1ae:	856e                	mv	a0,s11
 1b0:	0dc7a783          	lw	a5,220(a5)
 1b4:	9782                	jalr	a5
 1b6:	00cd2683          	lw	a3,12(s10)
 1ba:	8eaa                	mv	t4,a0
 1bc:	0086d713          	srl	a4,a3,0x8
 1c0:	0106d793          	srl	a5,a3,0x10
 1c4:	0186d813          	srl	a6,a3,0x18
 1c8:	10091863          	bnez	s2,2d8 <.L343>
 1cc:	00ff05b7          	lui	a1,0xff0
 1d0:	01071613          	sll	a2,a4,0x10
 1d4:	8e6d                	and	a2,a2,a1
 1d6:	01869593          	sll	a1,a3,0x18
 1da:	0105e5b3          	or	a1,a1,a6
 1de:	6541                	lui	a0,0x10
 1e0:	8dd1                	or	a1,a1,a2
 1e2:	157d                	add	a0,a0,-1 # ffff <.L192+0xf82f>
 1e4:	00879613          	sll	a2,a5,0x8
 1e8:	8e69                	and	a2,a2,a0
 1ea:	8e4d                	or	a2,a2,a1
 1ec:	45e2                	lw	a1,24(sp)
 1ee:	8e0d                	sub	a2,a2,a1
 1f0:	00163613          	seqz	a2,a2
 1f4:	4585                	li	a1,1
 1f6:	9a32                	add	s4,s4,a2
 1f8:	02bb0563          	beq	s6,a1,222 <.L345>
 1fc:	4609                	li	a2,2
 1fe:	02cb1363          	bne	s6,a2,224 <.L346>
 202:	008d2583          	lw	a1,8(s10)
 206:	0105d613          	srl	a2,a1,0x10
 20a:	81e1                	srl	a1,a1,0x18
 20c:	05c2                	sll	a1,a1,0x10
 20e:	0662                	sll	a2,a2,0x18
 210:	8e4d                	or	a2,a2,a1
 212:	00869593          	sll	a1,a3,0x8
 216:	8d6d                	and	a0,a0,a1
 218:	45e2                	lw	a1,24(sp)
 21a:	8e49                	or	a2,a2,a0
 21c:	8e0d                	sub	a2,a2,a1
 21e:	00163613          	seqz	a2,a2

00000222 <.L345>:
 222:	ca5d                	beqz	a2,2d8 <.L343>

00000224 <.L346>:
 224:	008d2603          	lw	a2,8(s10)
 228:	00000537          	lui	a0,0x0
 22c:	0ff7f793          	zext.b	a5,a5
 230:	01065593          	srl	a1,a2,0x10
 234:	0ff77713          	zext.b	a4,a4
 238:	0ff6f693          	zext.b	a3,a3
 23c:	8261                	srl	a2,a2,0x18
 23e:	0ff5f593          	zext.b	a1,a1
 242:	00050513          	mv	a0,a0
 246:	d676                	sw	t4,44(sp)
 248:	014d2903          	lw	s2,20(s10)
 24c:	00000097          	auipc	ra,0x0
 250:	000080e7          	jalr	ra # 24c <.L346+0x28>
 254:	004d2583          	lw	a1,4(s10)
 258:	008d2783          	lw	a5,8(s10)
 25c:	00000537          	lui	a0,0x0
 260:	0105d693          	srl	a3,a1,0x10
 264:	0087d813          	srl	a6,a5,0x8
 268:	0085d613          	srl	a2,a1,0x8
 26c:	0ff7f793          	zext.b	a5,a5
 270:	0185d713          	srl	a4,a1,0x18
 274:	0ff87813          	zext.b	a6,a6
 278:	0ff6f693          	zext.b	a3,a3
 27c:	0ff67613          	zext.b	a2,a2
 280:	0ff5f593          	zext.b	a1,a1
 284:	00050513          	mv	a0,a0
 288:	00000097          	auipc	ra,0x0
 28c:	000080e7          	jalr	ra # 288 <.L346+0x64>
 290:	030ca583          	lw	a1,48(s9)
 294:	00000537          	lui	a0,0x0
 298:	00050513          	mv	a0,a0
 29c:	0085d693          	srl	a3,a1,0x8
 2a0:	0105d613          	srl	a2,a1,0x10
 2a4:	0ff5f713          	zext.b	a4,a1
 2a8:	0ff6f693          	zext.b	a3,a3
 2ac:	0ff67613          	zext.b	a2,a2
 2b0:	81e1                	srl	a1,a1,0x18
 2b2:	00000097          	auipc	ra,0x0
 2b6:	000080e7          	jalr	ra # 2b2 <.L346+0x8e>
 2ba:	5eb2                	lw	t4,44(sp)
 2bc:	5592                	lw	a1,36(sp)
 2be:	00000537          	lui	a0,0x0
 2c2:	01495793          	srl	a5,s2,0x14
 2c6:	8776                	mv	a4,t4
 2c8:	86a2                	mv	a3,s0
 2ca:	866e                	mv	a2,s11
 2cc:	00050513          	mv	a0,a0
 2d0:	00000097          	auipc	ra,0x0
 2d4:	000080e7          	jalr	ra # 2d0 <.L346+0xac>

000002d8 <.L343>:
 2d8:	000c1863          	bnez	s8,2e8 <.L347>
 2dc:	00000097          	auipc	ra,0x0
 2e0:	000080e7          	jalr	ra # 2dc <.L343+0x4>
 2e4:	d8051be3          	bnez	a0,7a <.L348>

000002e8 <.L347>:
 2e8:	00000537          	lui	a0,0x0
 2ec:	85ce                	mv	a1,s3
 2ee:	00050513          	mv	a0,a0
 2f2:	00000097          	auipc	ra,0x0
 2f6:	000080e7          	jalr	ra # 2f2 <.L347+0xa>
 2fa:	4772                	lw	a4,28(sp)
 2fc:	600337b7          	lui	a5,0x60033
 300:	50b6                	lw	ra,108(sp)
 302:	08e7a223          	sw	a4,132(a5) # 60033084 <.L192+0x600328b4>
 306:	5702                	lw	a4,32(sp)
 308:	5426                	lw	s0,104(sp)
 30a:	5496                	lw	s1,100(sp)
 30c:	08e7a023          	sw	a4,128(a5)
 310:	5906                	lw	s2,96(sp)
 312:	49f6                	lw	s3,92(sp)
 314:	4a66                	lw	s4,88(sp)
 316:	4ad6                	lw	s5,84(sp)
 318:	4b46                	lw	s6,80(sp)
 31a:	4bb6                	lw	s7,76(sp)
 31c:	4c26                	lw	s8,72(sp)
 31e:	4c96                	lw	s9,68(sp)
 320:	4d06                	lw	s10,64(sp)
 322:	5df2                	lw	s11,60(sp)
 324:	6165                	add	sp,sp,112
 326:	8082                	ret

00000328 <.L337>:
 328:	00000097          	auipc	ra,0x0
 32c:	000080e7          	jalr	ra # 328 <.L337>
 330:	cd2d                	beqz	a0,3aa <.L349>
 332:	0844a783          	lw	a5,132(s1)
 336:	00179713          	sll	a4,a5,0x1
 33a:	dc074ee3          	bltz	a4,116 <.L331>
 33e:	600357b7          	lui	a5,0x60035
 342:	4742                	lw	a4,16(sp)
 344:	439c                	lw	a5,0(a5)
 346:	8f99                	sub	a5,a5,a4
 348:	5722                	lw	a4,40(sp)
 34a:	dcf776e3          	bgeu	a4,a5,116 <.L331>
 34e:	000007b7          	lui	a5,0x0
 352:	00078513          	mv	a0,a5
 356:	85ce                	mv	a1,s3
 358:	00000097          	auipc	ra,0x0
 35c:	000080e7          	jalr	ra # 358 <.L337+0x30>
 360:	47a9                	li	a5,10
 362:	0357e963          	bltu	a5,s5,394 <.L350>
 366:	020a8963          	beqz	s5,398 <.L335>

0000036a <.L334>:
 36a:	020a1763          	bnez	s4,398 <.L335>
 36e:	4752                	lw	a4,20(sp)
 370:	4785                	li	a5,1
 372:	02f71363          	bne	a4,a5,398 <.L335>
 376:	00040513          	mv	a0,s0
 37a:	00000097          	auipc	ra,0x0
 37e:	000080e7          	jalr	ra # 37a <.L334+0x10>
 382:	0b85                	add	s7,s7,1
 384:	4b01                	li	s6,0

00000386 <.L336>:
 386:	600357b7          	lui	a5,0x60035
 38a:	439c                	lw	a5,0(a5)
 38c:	0a85                	add	s5,s5,1
 38e:	4a01                	li	s4,0
 390:	c83e                	sw	a5,16(sp)
 392:	b351                	j	116 <.L331>

00000394 <.L350>:
 394:	4b52                	lw	s6,20(sp)
 396:	bfd1                	j	36a <.L334>

00000398 <.L335>:
 398:	000007b7          	lui	a5,0x0
 39c:	00078513          	mv	a0,a5
 3a0:	00000097          	auipc	ra,0x0
 3a4:	000080e7          	jalr	ra # 3a0 <.L335+0x8>
 3a8:	bff9                	j	386 <.L336>

000003aa <.L349>:
 3aa:	4c05                	li	s8,1
 3ac:	bba5                	j	124 <.L332>

000003ae <.L339>:
 3ae:	00845893          	srl	a7,s0,0x8
 3b2:	01f8fd93          	and	s11,a7,31
 3b6:	bbf9                	j	194 <.L340>

000003b8 <.L341>:
 3b8:	0412                	sll	s0,s0,0x4
 3ba:	8051                	srl	s0,s0,0x14
 3bc:	b3ed                	j	1a6 <.L342>

Disassembly of section .text.test_noise_floor:

00000000 <test_noise_floor>:
   0:	1141                	add	sp,sp,-16
   2:	0562                	sll	a0,a0,0x18
   4:	c04a                	sw	s2,0(sp)
   6:	8561                	sra	a0,a0,0x18
   8:	892e                	mv	s2,a1
   a:	4581                	li	a1,0
   c:	c226                	sw	s1,4(sp)
   e:	c606                	sw	ra,12(sp)
  10:	c422                	sw	s0,8(sp)
  12:	000004b7          	lui	s1,0x0
  16:	00000097          	auipc	ra,0x0
  1a:	000080e7          	jalr	ra # 16 <test_noise_floor+0x16>

0000001e <.L363>:
  1e:	4401                	li	s0,0

00000020 <.L361>:
  20:	03241863          	bne	s0,s2,50 <.L362>
  24:	00000097          	auipc	ra,0x0
  28:	000080e7          	jalr	ra # 24 <.L361+0x4>
  2c:	85aa                	mv	a1,a0
  2e:	00048513          	mv	a0,s1
  32:	00000097          	auipc	ra,0x0
  36:	000080e7          	jalr	ra # 32 <.L361+0x12>
  3a:	00000097          	auipc	ra,0x0
  3e:	000080e7          	jalr	ra # 3a <.L361+0x1a>
  42:	fd71                	bnez	a0,1e <.L363>
  44:	40b2                	lw	ra,12(sp)
  46:	4422                	lw	s0,8(sp)
  48:	4492                	lw	s1,4(sp)
  4a:	4902                	lw	s2,0(sp)
  4c:	0141                	add	sp,sp,16
  4e:	8082                	ret

00000050 <.L362>:
  50:	3e800513          	li	a0,1000
  54:	00000097          	auipc	ra,0x0
  58:	000080e7          	jalr	ra # 54 <.L362+0x4>
  5c:	0405                	add	s0,s0,1 # 1 <test_noise_floor+0x1>
  5e:	b7c9                	j	20 <.L361>

Disassembly of section .text.ack_rate_tab:

00000000 <ack_rate_tab>:
   0:	47bd                	li	a5,15
   2:	00a7f563          	bgeu	a5,a0,c <.L367>
   6:	893d                	and	a0,a0,15
   8:	04050513          	add	a0,a0,64 # 40 <.L289+0x4>

0000000c <.L367>:
   c:	01851793          	sll	a5,a0,0x18
  10:	01051713          	sll	a4,a0,0x10
  14:	8fd9                	or	a5,a5,a4
  16:	8fc9                	or	a5,a5,a0
  18:	0522                	sll	a0,a0,0x8
  1a:	8d5d                	or	a0,a0,a5
  1c:	600337b7          	lui	a5,0x60033
  20:	40a7a223          	sw	a0,1028(a5) # 60033404 <.L192+0x60032c34>
  24:	40a7a423          	sw	a0,1032(a5)
  28:	40a7a623          	sw	a0,1036(a5)
  2c:	8082                	ret

Disassembly of section .text.auto_ack_test:

00000000 <auto_ack_test>:
   0:	715d                	add	sp,sp,-80
   2:	c4a2                	sw	s0,72(sp)
   4:	842a                	mv	s0,a0
   6:	00000537          	lui	a0,0x0
   a:	00050513          	mv	a0,a0
   e:	c686                	sw	ra,76(sp)
  10:	c2a6                	sw	s1,68(sp)
  12:	c0ca                	sw	s2,64(sp)
  14:	de4e                	sw	s3,60(sp)
  16:	dc52                	sw	s4,56(sp)
  18:	da56                	sw	s5,52(sp)
  1a:	d85a                	sw	s6,48(sp)
  1c:	8ab2                	mv	s5,a2
  1e:	d65e                	sw	s7,44(sp)
  20:	d462                	sw	s8,40(sp)
  22:	d06a                	sw	s10,32(sp)
  24:	d266                	sw	s9,36(sp)
  26:	ce6e                	sw	s11,28(sp)
  28:	00000097          	auipc	ra,0x0
  2c:	000080e7          	jalr	ra # 28 <auto_ack_test+0x28>
  30:	8522                	mv	a0,s0
  32:	00000097          	auipc	ra,0x0
  36:	000080e7          	jalr	ra # 32 <auto_ack_test+0x32>
  3a:	4505                	li	a0,1
  3c:	00000097          	auipc	ra,0x0
  40:	000080e7          	jalr	ra # 3c <auto_ack_test+0x3c>
  44:	01350737          	lui	a4,0x1350
  48:	600337b7          	lui	a5,0x60033
  4c:	e1870713          	add	a4,a4,-488 # 134fe18 <.L192+0x134f648>
  50:	c3b8                	sw	a4,64(a5)
  52:	05040737          	lui	a4,0x5040
  56:	30270713          	add	a4,a4,770 # 5040302 <.L192+0x503fb32>
  5a:	c3f8                	sw	a4,68(a5)
  5c:	600346b7          	lui	a3,0x60034
  60:	c786a703          	lw	a4,-904(a3) # 60033c78 <.L192+0x600334a8>
  64:	69c1                	lui	s3,0x10
  66:	340104b7          	lui	s1,0x34010
  6a:	00176713          	or	a4,a4,1
  6e:	c6e6ac23          	sw	a4,-904(a3)
  72:	0847a703          	lw	a4,132(a5) # 60033084 <.L192+0x600328b4>
  76:	200006b7          	lui	a3,0x20000
  7a:	16fd                	add	a3,a3,-1 # 1fffffff <.L192+0x1ffff82f>
  7c:	8f75                	and	a4,a4,a3
  7e:	08e7a223          	sw	a4,132(a5)
  82:	0807a703          	lw	a4,128(a5)
  86:	f00006b7          	lui	a3,0xf0000
  8a:	16fd                	add	a3,a3,-1 # efffffff <.L192+0xeffff82f>
  8c:	8f75                	and	a4,a4,a3
  8e:	6a05                	lui	s4,0x1
  90:	08e7a023          	sw	a4,128(a5)
  94:	4901                	li	s2,0
  96:	60033d37          	lui	s10,0x60033
  9a:	19fd                	add	s3,s3,-1 # ffff <.L192+0xf82f>
  9c:	20348493          	add	s1,s1,515 # 34010203 <.L192+0x3400fa33>
  a0:	1a7d                	add	s4,s4,-1 # fff <.L192+0x82f>
  a2:	00000b37          	lui	s6,0x0
  a6:	00000bb7          	lui	s7,0x0
  aa:	00000c37          	lui	s8,0x0

000000ae <.L377>:
  ae:	084d2783          	lw	a5,132(s10) # 60033084 <.L192+0x600328b4>
  b2:	40000737          	lui	a4,0x40000
  b6:	8fd9                	or	a5,a5,a4
  b8:	08fd2223          	sw	a5,132(s10)

000000bc <.L369>:
  bc:	084d2783          	lw	a5,132(s10)
  c0:	00179713          	sll	a4,a5,0x1
  c4:	14074663          	bltz	a4,210 <.L371>
  c8:	4881                	li	a7,0

000000ca <.L370>:
  ca:	094d2783          	lw	a5,148(s10)
  ce:	00ff0637          	lui	a2,0xff0
  d2:	43dc                	lw	a5,4(a5)
  d4:	080d2503          	lw	a0,128(s10)
  d8:	0ff57513          	zext.b	a0,a0
  dc:	953e                	add	a0,a0,a5
  de:	03050d93          	add	s11,a0,48 # 30 <auto_ack_test+0x30>
  e2:	00cda683          	lw	a3,12(s11)
  e6:	0086d713          	srl	a4,a3,0x8
  ea:	01071c93          	sll	s9,a4,0x10
  ee:	00ccfcb3          	and	s9,s9,a2
  f2:	0186d813          	srl	a6,a3,0x18
  f6:	01869613          	sll	a2,a3,0x18
  fa:	01066633          	or	a2,a2,a6
  fe:	0106d793          	srl	a5,a3,0x10
 102:	00ccecb3          	or	s9,s9,a2
 106:	00879613          	sll	a2,a5,0x8
 10a:	01367633          	and	a2,a2,s3
 10e:	00ccecb3          	or	s9,s9,a2
 112:	009c9363          	bne	s9,s1,118 <.L372>
 116:	0905                	add	s2,s2,1 # 1 <auto_ack_test+0x1>

00000118 <.L372>:
 118:	410c                	lw	a1,0(a0)
 11a:	6631                	lui	a2,0xc
 11c:	8e6d                	and	a2,a2,a1
 11e:	10060163          	beqz	a2,220 <.L373>
 122:	4140                	lw	s0,4(a0)
 124:	00a5d613          	srl	a2,a1,0xa
 128:	03067613          	and	a2,a2,48
 12c:	07f47593          	and	a1,s0,127
 130:	962e                	add	a2,a2,a1
 132:	8021                	srl	s0,s0,0x8
 134:	01861313          	sll	t1,a2,0x18
 138:	0442                	sll	s0,s0,0x10
 13a:	41835313          	sra	t1,t1,0x18
 13e:	8041                	srl	s0,s0,0x10

00000140 <.L374>:
 140:	080a8463          	beqz	s5,1c8 <.L375>
 144:	008da603          	lw	a2,8(s11)
 148:	00050e03          	lb	t3,0(a0)
 14c:	0ff7f793          	zext.b	a5,a5
 150:	01065593          	srl	a1,a2,0x10
 154:	0ff77713          	zext.b	a4,a4
 158:	0ff6f693          	zext.b	a3,a3
 15c:	8261                	srl	a2,a2,0x18
 15e:	0ff5f593          	zext.b	a1,a1
 162:	000b0513          	mv	a0,s6
 166:	c446                	sw	a7,8(sp)
 168:	c61a                	sw	t1,12(sp)
 16a:	c272                	sw	t3,4(sp)
 16c:	00000097          	auipc	ra,0x0
 170:	000080e7          	jalr	ra # 16c <.L374+0x2c>
 174:	004da583          	lw	a1,4(s11)
 178:	008da783          	lw	a5,8(s11)
 17c:	000b8513          	mv	a0,s7
 180:	0105d693          	srl	a3,a1,0x10
 184:	0087d813          	srl	a6,a5,0x8
 188:	0085d613          	srl	a2,a1,0x8
 18c:	0185d713          	srl	a4,a1,0x18
 190:	0ff87813          	zext.b	a6,a6
 194:	0ff7f793          	zext.b	a5,a5
 198:	0ff6f693          	zext.b	a3,a3
 19c:	0ff67613          	zext.b	a2,a2
 1a0:	0ff5f593          	zext.b	a1,a1
 1a4:	00000097          	auipc	ra,0x0
 1a8:	000080e7          	jalr	ra # 1a4 <.L374+0x64>
 1ac:	4332                	lw	t1,12(sp)
 1ae:	4e12                	lw	t3,4(sp)
 1b0:	87e6                	mv	a5,s9
 1b2:	8726                	mv	a4,s1
 1b4:	86a2                	mv	a3,s0
 1b6:	861a                	mv	a2,t1
 1b8:	85f2                	mv	a1,t3
 1ba:	000c0513          	mv	a0,s8
 1be:	00000097          	auipc	ra,0x0
 1c2:	000080e7          	jalr	ra # 1be <.L374+0x7e>
 1c6:	48a2                	lw	a7,8(sp)

000001c8 <.L375>:
 1c8:	020da403          	lw	s0,32(s11)
 1cc:	00089863          	bnez	a7,1dc <.L376>
 1d0:	00000097          	auipc	ra,0x0
 1d4:	000080e7          	jalr	ra # 1d0 <.L375+0x8>
 1d8:	ec051be3          	bnez	a0,ae <.L377>

000001dc <.L376>:
 1dc:	01045613          	srl	a2,s0,0x10
 1e0:	4426                	lw	s0,72(sp)
 1e2:	40b6                	lw	ra,76(sp)
 1e4:	4496                	lw	s1,68(sp)
 1e6:	59f2                	lw	s3,60(sp)
 1e8:	5a62                	lw	s4,56(sp)
 1ea:	5ad2                	lw	s5,52(sp)
 1ec:	5b42                	lw	s6,48(sp)
 1ee:	5bb2                	lw	s7,44(sp)
 1f0:	5c22                	lw	s8,40(sp)
 1f2:	5c92                	lw	s9,36(sp)
 1f4:	5d02                	lw	s10,32(sp)
 1f6:	4df2                	lw	s11,28(sp)
 1f8:	fff90593          	add	a1,s2,-1
 1fc:	4906                	lw	s2,64(sp)
 1fe:	00000537          	lui	a0,0x0
 202:	00050513          	mv	a0,a0
 206:	6161                	add	sp,sp,80
 208:	00000317          	auipc	t1,0x0
 20c:	00030067          	jr	t1 # 208 <.L376+0x2c>

00000210 <.L371>:
 210:	00000097          	auipc	ra,0x0
 214:	000080e7          	jalr	ra # 210 <.L371>
 218:	ea0512e3          	bnez	a0,bc <.L369>
 21c:	4885                	li	a7,1
 21e:	b575                	j	ca <.L370>

00000220 <.L373>:
 220:	0085d613          	srl	a2,a1,0x8
 224:	81c1                	srl	a1,a1,0x10
 226:	01f67313          	and	t1,a2,31
 22a:	0145f433          	and	s0,a1,s4
 22e:	bf09                	j	140 <.L374>

Disassembly of section .text.esp_txrx_test:

00000000 <esp_txrx_test>:
   0:	7179                	add	sp,sp,-48
   2:	d04a                	sw	s2,32(sp)
   4:	892a                	mv	s2,a0
   6:	8536                	mv	a0,a3
   8:	d422                	sw	s0,40(sp)
   a:	d226                	sw	s1,36(sp)
   c:	d606                	sw	ra,44(sp)
   e:	84b2                	mv	s1,a2
  10:	842e                	mv	s0,a1
  12:	ce3a                	sw	a4,28(sp)
  14:	cc3e                	sw	a5,24(sp)
  16:	ca42                	sw	a6,20(sp)
  18:	c846                	sw	a7,16(sp)
  1a:	00000097          	auipc	ra,0x0
  1e:	000080e7          	jalr	ra # 1a <esp_txrx_test+0x1a>
  22:	4642                	lw	a2,16(sp)
  24:	02090d63          	beqz	s2,5e <.L385>
  28:	4852                	lw	a6,20(sp)
  2a:	47e2                	lw	a5,24(sp)
  2c:	4772                	lw	a4,28(sp)
  2e:	4685                	li	a3,1
  30:	01350537          	lui	a0,0x1350
  34:	c236                	sw	a3,4(sp)
  36:	c042                	sw	a6,0(sp)
  38:	88be                	mv	a7,a5
  3a:	86a6                	mv	a3,s1
  3c:	8622                	mv	a2,s0
  3e:	4805                	li	a6,1
  40:	478d                	li	a5,3
  42:	30200593          	li	a1,770
  46:	e1850513          	add	a0,a0,-488 # 134fe18 <.L192+0x134f648>
  4a:	00000097          	auipc	ra,0x0
  4e:	000080e7          	jalr	ra # 4a <esp_txrx_test+0x4a>
  52:	50b2                	lw	ra,44(sp)
  54:	5422                	lw	s0,40(sp)
  56:	5492                	lw	s1,36(sp)
  58:	5902                	lw	s2,32(sp)
  5a:	6145                	add	sp,sp,48
  5c:	8082                	ret

0000005e <.L385>:
  5e:	8522                	mv	a0,s0
  60:	5422                	lw	s0,40(sp)
  62:	50b2                	lw	ra,44(sp)
  64:	5902                	lw	s2,32(sp)
  66:	0ff4f593          	zext.b	a1,s1
  6a:	5492                	lw	s1,36(sp)
  6c:	6145                	add	sp,sp,48
  6e:	00000317          	auipc	t1,0x0
  72:	00030067          	jr	t1 # 6e <.L385+0x10>

crypto_common.o:     file format elf32-littleriscv


Disassembly of section .text.crypto_disable:

00000000 <crypto_disable>:
   0:	600347b7          	lui	a5,0x60034
   4:	8007a023          	sw	zero,-2048(a5) # 60033800 <crypto_disable+0x60033800>
   8:	8007aa23          	sw	zero,-2028(a5)
   c:	8082                	ret

mac_common.o:     file format elf32-littleriscv


Disassembly of section .text.mac_write:

00000000 <mac_write>:
   0:	c10c                	sw	a1,0(a0)
   2:	8082                	ret

Disassembly of section .text.mac_read:

00000000 <mac_read>:
   0:	4108                	lw	a0,0(a0)
   2:	8082                	ret

Disassembly of section .text.mac_buffer_get:

00000000 <mac_buffer_get>:
   0:	000007b7          	lui	a5,0x0
   4:	00078793          	mv	a5,a5
   8:	00000737          	lui	a4,0x0
   c:	40078693          	add	a3,a5,1024 # 400 <.L52+0x80>
  10:	00f72023          	sw	a5,0(a4) # 0 <mac_buffer_get>
  14:	00000737          	lui	a4,0x0
  18:	00d72023          	sw	a3,0(a4) # 0 <mac_buffer_get>
  1c:	6705                	lui	a4,0x1
  1e:	c0070693          	add	a3,a4,-1024 # c00 <.L52+0x880>
  22:	96be                	add	a3,a3,a5
  24:	00000637          	lui	a2,0x0
  28:	00d62023          	sw	a3,0(a2) # 0 <mac_buffer_get>
  2c:	20070693          	add	a3,a4,512
  30:	30070713          	add	a4,a4,768
  34:	96be                	add	a3,a3,a5
  36:	97ba                	add	a5,a5,a4
  38:	00000737          	lui	a4,0x0
  3c:	00f72023          	sw	a5,0(a4) # 0 <mac_buffer_get>
  40:	000007b7          	lui	a5,0x0
  44:	00000737          	lui	a4,0x0
  48:	00078793          	mv	a5,a5
  4c:	00f72023          	sw	a5,0(a4) # 0 <mac_buffer_get>
  50:	000007b7          	lui	a5,0x0
  54:	00000737          	lui	a4,0x0
  58:	00078793          	mv	a5,a5
  5c:	00f72023          	sw	a5,0(a4) # 0 <mac_buffer_get>
  60:	000007b7          	lui	a5,0x0
  64:	00000737          	lui	a4,0x0
  68:	00078793          	mv	a5,a5
  6c:	00f72023          	sw	a5,0(a4) # 0 <mac_buffer_get>
  70:	000007b7          	lui	a5,0x0
  74:	00000737          	lui	a4,0x0
  78:	00078793          	mv	a5,a5
  7c:	00f72023          	sw	a5,0(a4) # 0 <mac_buffer_get>
  80:	000007b7          	lui	a5,0x0
  84:	00000737          	lui	a4,0x0
  88:	00078793          	mv	a5,a5
  8c:	00f72023          	sw	a5,0(a4) # 0 <mac_buffer_get>
  90:	000007b7          	lui	a5,0x0
  94:	00000637          	lui	a2,0x0
  98:	00000737          	lui	a4,0x0
  9c:	00078793          	mv	a5,a5
  a0:	00d62023          	sw	a3,0(a2) # 0 <mac_buffer_get>
  a4:	00f72023          	sw	a5,0(a4) # 0 <mac_buffer_get>
  a8:	8082                	ret

Disassembly of section .text.DurAddrGet:

00000000 <DurAddrGet>:
   0:	1555                	add	a0,a0,-11
   2:	4799                	li	a5,6
   4:	00a7eb63          	bltu	a5,a0,1a <.L6>
   8:	00251793          	sll	a5,a0,0x2
   c:	00000537          	lui	a0,0x0
  10:	00050513          	mv	a0,a0
  14:	953e                	add	a0,a0,a5
  16:	4108                	lw	a0,0(a0)
  18:	8082                	ret

0000001a <.L6>:
  1a:	60034537          	lui	a0,0x60034
  1e:	31850513          	add	a0,a0,792 # 60034318 <.L52+0x60033f98>
  22:	8082                	ret

Disassembly of section .text.RealQGet:

00000000 <RealQGet>:
   0:	157d                	add	a0,a0,-1
   2:	47e9                	li	a5,26
   4:	00a7ea63          	bltu	a5,a0,18 <.L9>
   8:	000007b7          	lui	a5,0x0
   c:	00078793          	mv	a5,a5
  10:	97aa                	add	a5,a5,a0
  12:	0007c503          	lbu	a0,0(a5) # 0 <RealQGet>
  16:	8082                	ret

00000018 <.L9>:
  18:	4501                	li	a0,0
  1a:	8082                	ret

Disassembly of section .text.Plcp0AddrGet:

00000000 <Plcp0AddrGet>:
   0:	157d                	add	a0,a0,-1
   2:	47e9                	li	a5,26
   4:	00a7eb63          	bltu	a5,a0,1a <.L12>
   8:	00251793          	sll	a5,a0,0x2
   c:	00000537          	lui	a0,0x0
  10:	00050513          	mv	a0,a0
  14:	953e                	add	a0,a0,a5
  16:	4108                	lw	a0,0(a0)
  18:	8082                	ret

0000001a <.L12>:
  1a:	60034537          	lui	a0,0x60034
  1e:	d0850513          	add	a0,a0,-760 # 60033d08 <.L52+0x60033988>
  22:	8082                	ret

Disassembly of section .text.Plcp1AddrGet:

00000000 <Plcp1AddrGet>:
   0:	157d                	add	a0,a0,-1
   2:	47e9                	li	a5,26
   4:	00a7eb63          	bltu	a5,a0,1a <.L15>
   8:	00251793          	sll	a5,a0,0x2
   c:	00000537          	lui	a0,0x0
  10:	00050513          	mv	a0,a0
  14:	953e                	add	a0,a0,a5
  16:	4108                	lw	a0,0(a0)
  18:	8082                	ret

0000001a <.L15>:
  1a:	60034537          	lui	a0,0x60034
  1e:	2f850513          	add	a0,a0,760 # 600342f8 <.L52+0x60033f78>
  22:	8082                	ret

Disassembly of section .text.HT40LenAddrGet:

00000000 <HT40LenAddrGet>:
   0:	1555                	add	a0,a0,-11
   2:	4799                	li	a5,6
   4:	00a7eb63          	bltu	a5,a0,1a <.L18>
   8:	00251793          	sll	a5,a0,0x2
   c:	00000537          	lui	a0,0x0
  10:	00050513          	mv	a0,a0
  14:	953e                	add	a0,a0,a5
  16:	4108                	lw	a0,0(a0)
  18:	8082                	ret

0000001a <.L18>:
  1a:	60034537          	lui	a0,0x60034
  1e:	31050513          	add	a0,a0,784 # 60034310 <.L52+0x60033f90>
  22:	8082                	ret

Disassembly of section .text.HTsigAddrGet:

00000000 <HTsigAddrGet>:
   0:	157d                	add	a0,a0,-1
   2:	47e9                	li	a5,26
   4:	00a7eb63          	bltu	a5,a0,1a <.L21>
   8:	00251793          	sll	a5,a0,0x2
   c:	00000537          	lui	a0,0x0
  10:	00050513          	mv	a0,a0
  14:	953e                	add	a0,a0,a5
  16:	4108                	lw	a0,0(a0)
  18:	8082                	ret

0000001a <.L21>:
  1a:	60034537          	lui	a0,0x60034
  1e:	30050513          	add	a0,a0,768 # 60034300 <.L52+0x60033f80>
  22:	8082                	ret

Disassembly of section .text.ConfAddrGet:

00000000 <ConfAddrGet>:
   0:	1555                	add	a0,a0,-11
   2:	4799                	li	a5,6
   4:	00a7eb63          	bltu	a5,a0,1a <.L24>
   8:	00251793          	sll	a5,a0,0x2
   c:	00000537          	lui	a0,0x0
  10:	00050513          	mv	a0,a0
  14:	953e                	add	a0,a0,a5
  16:	4108                	lw	a0,0(a0)
  18:	8082                	ret

0000001a <.L24>:
  1a:	60034537          	lui	a0,0x60034
  1e:	d0450513          	add	a0,a0,-764 # 60033d04 <.L52+0x60033984>
  22:	8082                	ret

Disassembly of section .text.BackOffCountGet:

00000000 <BackOffCountGet>:
   0:	1559                	add	a0,a0,-10
   2:	47c5                	li	a5,17
   4:	06a7e563          	bltu	a5,a0,6e <.L26>
   8:	000007b7          	lui	a5,0x0
   c:	00078793          	mv	a5,a5
  10:	050a                	sll	a0,a0,0x2
  12:	953e                	add	a0,a0,a5
  14:	411c                	lw	a5,0(a0)
  16:	6505                	lui	a0,0x1
  18:	157d                	add	a0,a0,-1 # fff <.L52+0xc7f>
  1a:	8782                	jr	a5

0000001c <.L43>:
  1c:	600347b7          	lui	a5,0x60034
  20:	d047a783          	lw	a5,-764(a5) # 60033d04 <.L52+0x60033984>

00000024 <.L45>:
  24:	8d7d                	and	a0,a0,a5
  26:	8082                	ret

00000028 <.L42>:
  28:	600347b7          	lui	a5,0x60034
  2c:	cfc7a783          	lw	a5,-772(a5) # 60033cfc <.L52+0x6003397c>
  30:	bfd5                	j	24 <.L45>

00000032 <.L41>:
  32:	600347b7          	lui	a5,0x60034
  36:	cf47a783          	lw	a5,-780(a5) # 60033cf4 <.L52+0x60033974>
  3a:	b7ed                	j	24 <.L45>

0000003c <.L40>:
  3c:	600347b7          	lui	a5,0x60034
  40:	cec7a783          	lw	a5,-788(a5) # 60033cec <.L52+0x6003396c>
  44:	b7c5                	j	24 <.L45>

00000046 <.L39>:
  46:	600347b7          	lui	a5,0x60034
  4a:	ce47a783          	lw	a5,-796(a5) # 60033ce4 <.L52+0x60033964>
  4e:	bfd9                	j	24 <.L45>

00000050 <.L38>:
  50:	600347b7          	lui	a5,0x60034
  54:	cdc7a783          	lw	a5,-804(a5) # 60033cdc <.L52+0x6003395c>
  58:	b7f1                	j	24 <.L45>

0000005a <.L37>:
  5a:	600347b7          	lui	a5,0x60034
  5e:	cd47a783          	lw	a5,-812(a5) # 60033cd4 <.L52+0x60033954>
  62:	b7c9                	j	24 <.L45>

00000064 <.L36>:
  64:	600347b7          	lui	a5,0x60034
  68:	ccc7a783          	lw	a5,-820(a5) # 60033ccc <.L52+0x6003394c>
  6c:	bf65                	j	24 <.L45>

0000006e <.L26>:
  6e:	600347b7          	lui	a5,0x60034
  72:	d047a503          	lw	a0,-764(a5) # 60033d04 <.L52+0x60033984>
  76:	6785                	lui	a5,0x1
  78:	17fd                	add	a5,a5,-1 # fff <.L52+0xc7f>
  7a:	b76d                	j	24 <.L45>

Disassembly of section .text.fill_tx_frame:

00000000 <fill_tx_frame>:
   0:	7111                	add	sp,sp,-256
   2:	c646                	sw	a7,12(sp)
   4:	df86                	sw	ra,252(sp)
   6:	dda2                	sw	s0,248(sp)
   8:	dba6                	sw	s1,244(sp)
   a:	10812403          	lw	s0,264(sp)
   e:	d9ca                	sw	s2,240(sp)
  10:	d7ce                	sw	s3,236(sp)
  12:	0ff57913          	zext.b	s2,a0
  16:	89b2                	mv	s3,a2
  18:	d5d2                	sw	s4,232(sp)
  1a:	d3d6                	sw	s5,228(sp)
  1c:	8a36                	mv	s4,a3
  1e:	8aba                	mv	s5,a4
  20:	d1da                	sw	s6,224(sp)
  22:	cfde                	sw	s7,220(sp)
  24:	8b3e                	mv	s6,a5
  26:	8bc2                	mv	s7,a6
  28:	cde2                	sw	s8,216(sp)
  2a:	cbe6                	sw	s9,212(sp)
  2c:	c9ea                	sw	s10,208(sp)
  2e:	8cae                	mv	s9,a1
  30:	c7ee                	sw	s11,204(sp)
  32:	8d2a                	mv	s10,a0
  34:	00000097          	auipc	ra,0x0
  38:	000080e7          	jalr	ra # 34 <fill_tx_frame+0x34>
  3c:	854a                	mv	a0,s2
  3e:	00000097          	auipc	ra,0x0
  42:	000080e7          	jalr	ra # 3e <fill_tx_frame+0x3e>
  46:	84aa                	mv	s1,a0
  48:	854a                	mv	a0,s2
  4a:	00000097          	auipc	ra,0x0
  4e:	000080e7          	jalr	ra # 4a <fill_tx_frame+0x4a>
  52:	8daa                	mv	s11,a0
  54:	854a                	mv	a0,s2
  56:	00000097          	auipc	ra,0x0
  5a:	000080e7          	jalr	ra # 56 <fill_tx_frame+0x56>
  5e:	8c2a                	mv	s8,a0
  60:	854a                	mv	a0,s2
  62:	00000097          	auipc	ra,0x0
  66:	000080e7          	jalr	ra # 62 <fill_tx_frame+0x62>
  6a:	10012683          	lw	a3,256(sp)
  6e:	48b2                	lw	a7,12(sp)
  70:	6785                	lui	a5,0x1
  72:	17fd                	add	a5,a5,-1 # fff <.L52+0xc7f>
  74:	01c41313          	sll	t1,s0,0x1c
  78:	400005b7          	lui	a1,0x40000
  7c:	00052023          	sw	zero,0(a0)
  80:	463d                	li	a2,15
  82:	00f9f7b3          	and	a5,s3,a5
  86:	06de                	sll	a3,a3,0x17
  88:	08c6                	sll	a7,a7,0x11
  8a:	00899713          	sll	a4,s3,0x8
  8e:	01f41e13          	sll	t3,s0,0x1f
  92:	00b37333          	and	t1,t1,a1
  96:	05966e63          	bltu	a2,s9,f2 <.L47>
  9a:	98b6                	add	a7,a7,a3
  9c:	00cc9693          	sll	a3,s9,0xc
  a0:	98b6                	add	a7,a7,a3
  a2:	9366                	add	t1,t1,s9
  a4:	98be                	add	a7,a7,a5
  a6:	9372                	add	t1,t1,t3
  a8:	011da023          	sw	a7,0(s11)
  ac:	933a                	add	t1,t1,a4
  ae:	006c2023          	sw	t1,0(s8)

000000b2 <.L48>:
  b2:	017b67b3          	or	a5,s6,s7
  b6:	0157e7b3          	or	a5,a5,s5
  ba:	0147e7b3          	or	a5,a5,s4
  be:	2c078163          	beqz	a5,380 <.L52>
  c2:	000005b7          	lui	a1,0x0
  c6:	0005a783          	lw	a5,0(a1) # 0 <fill_tx_frame>
  ca:	00100737          	lui	a4,0x100
  ce:	177d                	add	a4,a4,-1 # fffff <.L52+0xffc7f>
  d0:	8ff9                	and	a5,a5,a4
  d2:	c09c                	sw	a5,0(s1)
  d4:	00058593          	mv	a1,a1
  d8:	4190                	lw	a2,0(a1)
  da:	4791                	li	a5,4
  dc:	0a0b9263          	bnez	s7,180 <.L74>
  e0:	080b1f63          	bnez	s6,17e <.L67>
  e4:	4789                	li	a5,2
  e6:	080a9d63          	bnez	s5,180 <.L74>
  ea:	4785                	li	a5,1
  ec:	c00006b7          	lui	a3,0xc0000
  f0:	a851                	j	184 <.L54>

000000f2 <.L47>:
  f2:	00f8e8b3          	or	a7,a7,a5
  f6:	00d8e8b3          	or	a7,a7,a3
  fa:	0200b7b7          	lui	a5,0x200b
  fe:	00f8e8b3          	or	a7,a7,a5
 102:	011da023          	sw	a7,0(s11)
 106:	47cd                	li	a5,19
 108:	00fcfc93          	and	s9,s9,15
 10c:	0527f263          	bgeu	a5,s2,150 <.L49>
 110:	0f0007b7          	lui	a5,0xf000

00000114 <.L73>:
 114:	9e3e                	add	t3,t3,a5
 116:	9372                	add	t1,t1,t3
 118:	9366                	add	t1,t1,s9
 11a:	933a                	add	t1,t1,a4
 11c:	006c2023          	sw	t1,0(s8)
 120:	60034737          	lui	a4,0x60034
 124:	c6c72783          	lw	a5,-916(a4) # 60033c6c <.L52+0x600338ec>
 128:	9bbd                	and	a5,a5,-17
 12a:	c6f72623          	sw	a5,-916(a4)

0000012e <.L50>:
 12e:	854a                	mv	a0,s2
 130:	00000097          	auipc	ra,0x0
 134:	000080e7          	jalr	ra # 130 <.L50+0x2>
 138:	411c                	lw	a5,0(a0)
 13a:	fff80737          	lui	a4,0xfff80
 13e:	8ff9                	and	a5,a5,a4
 140:	00080737          	lui	a4,0x80
 144:	177d                	add	a4,a4,-1 # 7ffff <.L52+0x7fc7f>
 146:	00e9f733          	and	a4,s3,a4
 14a:	8fd9                	or	a5,a5,a4
 14c:	c11c                	sw	a5,0(a0)
 14e:	b795                	j	b2 <.L48>

00000150 <.L49>:
 150:	008d5d13          	srl	s10,s10,0x8
 154:	0ffd7d13          	zext.b	s10,s10
 158:	000d1563          	bnez	s10,162 <.L51>
 15c:	070007b7          	lui	a5,0x7000
 160:	bf55                	j	114 <.L73>

00000162 <.L51>:
 162:	0f0007b7          	lui	a5,0xf000
 166:	9e3e                	add	t3,t3,a5
 168:	9372                	add	t1,t1,t3
 16a:	9366                	add	t1,t1,s9
 16c:	933a                	add	t1,t1,a4
 16e:	006c2023          	sw	t1,0(s8)
 172:	600347b7          	lui	a5,0x60034
 176:	4741                	li	a4,16
 178:	c6e7a623          	sw	a4,-916(a5) # 60033c6c <.L52+0x600338ec>
 17c:	bf4d                	j	12e <.L50>

0000017e <.L67>:
 17e:	478d                	li	a5,3

00000180 <.L74>:
 180:	800006b7          	lui	a3,0x80000

00000184 <.L54>:
 184:	00ca1713          	sll	a4,s4,0xc
 188:	9752                	add	a4,a4,s4
 18a:	9736                	add	a4,a4,a3
 18c:	c218                	sw	a4,0(a2)
 18e:	00000537          	lui	a0,0x0
 192:	00052683          	lw	a3,0(a0) # 0 <fill_tx_frame>
 196:	4198                	lw	a4,0(a1)
 198:	00050513          	mv	a0,a0
 19c:	c354                	sw	a3,4(a4)
 19e:	4198                	lw	a4,0(a1)
 1a0:	01070693          	add	a3,a4,16
 1a4:	c714                	sw	a3,8(a4)
 1a6:	4709                	li	a4,2
 1a8:	4190                	lw	a2,0(a1)
 1aa:	c00006b7          	lui	a3,0xc0000
 1ae:	00e78463          	beq	a5,a4,1b6 <.L55>
 1b2:	800006b7          	lui	a3,0x80000

000001b6 <.L55>:
 1b6:	00ca9713          	sll	a4,s5,0xc
 1ba:	9756                	add	a4,a4,s5
 1bc:	9736                	add	a4,a4,a3
 1be:	ca18                	sw	a4,16(a2)
 1c0:	00000737          	lui	a4,0x0
 1c4:	00072603          	lw	a2,0(a4) # 0 <fill_tx_frame>
 1c8:	4194                	lw	a3,0(a1)
 1ca:	488d                	li	a7,3
 1cc:	cad0                	sw	a2,20(a3)
 1ce:	4194                	lw	a3,0(a1)
 1d0:	02068613          	add	a2,a3,32 # 80000020 <.L52+0x7ffffca0>
 1d4:	ce90                	sw	a2,24(a3)
 1d6:	0005a803          	lw	a6,0(a1)
 1da:	00070613          	mv	a2,a4
 1de:	c00006b7          	lui	a3,0xc0000
 1e2:	01178463          	beq	a5,a7,1ea <.L56>
 1e6:	800006b7          	lui	a3,0x80000

000001ea <.L56>:
 1ea:	00cb1713          	sll	a4,s6,0xc
 1ee:	975a                	add	a4,a4,s6
 1f0:	9736                	add	a4,a4,a3
 1f2:	02e82023          	sw	a4,32(a6)
 1f6:	00000737          	lui	a4,0x0
 1fa:	00072803          	lw	a6,0(a4) # 0 <fill_tx_frame>
 1fe:	4194                	lw	a3,0(a1)
 200:	0306a223          	sw	a6,36(a3) # 80000024 <.L52+0x7ffffca4>
 204:	4194                	lw	a3,0(a1)
 206:	03068813          	add	a6,a3,48
 20a:	0306a423          	sw	a6,40(a3)
 20e:	4811                	li	a6,4
 210:	00070693          	mv	a3,a4
 214:	0005a883          	lw	a7,0(a1)
 218:	c0000737          	lui	a4,0xc0000
 21c:	01078463          	beq	a5,a6,224 <.L57>
 220:	80000737          	lui	a4,0x80000

00000224 <.L57>:
 224:	00cb9813          	sll	a6,s7,0xc
 228:	985e                	add	a6,a6,s7
 22a:	983a                	add	a6,a6,a4
 22c:	000007b7          	lui	a5,0x0
 230:	0308a823          	sw	a6,48(a7)
 234:	00078793          	mv	a5,a5
 238:	0007a803          	lw	a6,0(a5) # 0 <fill_tx_frame>
 23c:	4198                	lw	a4,0(a1)
 23e:	ce02                	sw	zero,28(sp)
 240:	9ad2                	add	s5,s5,s4
 242:	03072a23          	sw	a6,52(a4) # 80000034 <.L52+0x7ffffcb4>
 246:	4198                	lw	a4,0(a1)
 248:	4585                	li	a1,1
 24a:	ca2e                	sw	a1,20(sp)
 24c:	02072c23          	sw	zero,56(a4)
 250:	4118                	lw	a4,0(a0)
 252:	4388                	lw	a0,0(a5)
 254:	000007b7          	lui	a5,0x0
 258:	0007c783          	lbu	a5,0(a5) # 0 <fill_tx_frame>
 25c:	4210                	lw	a2,0(a2)
 25e:	4294                	lw	a3,0(a3)
 260:	c83e                	sw	a5,16(sp)
 262:	02c00793          	li	a5,44
 266:	cc3e                	sw	a5,24(sp)
 268:	12012783          	lw	a5,288(sp)
 26c:	9b56                	add	s6,s6,s5
 26e:	d03e                	sw	a5,32(sp)
 270:	11c12783          	lw	a5,284(sp)
 274:	d23e                	sw	a5,36(sp)
 276:	11812783          	lw	a5,280(sp)
 27a:	d43e                	sw	a5,40(sp)
 27c:	11412783          	lw	a5,276(sp)
 280:	d63e                	sw	a5,44(sp)
 282:	11012783          	lw	a5,272(sp)
 286:	d83e                	sw	a5,48(sp)
 288:	10c12783          	lw	a5,268(sp)
 28c:	da3e                	sw	a5,52(sp)
 28e:	000007b7          	lui	a5,0x0
 292:	00078793          	mv	a5,a5
 296:	0007c803          	lbu	a6,0(a5) # 0 <fill_tx_frame>
 29a:	dc42                	sw	a6,56(sp)
 29c:	0017c803          	lbu	a6,1(a5)
 2a0:	de42                	sw	a6,60(sp)
 2a2:	0027c803          	lbu	a6,2(a5)
 2a6:	c0c2                	sw	a6,64(sp)
 2a8:	0037c803          	lbu	a6,3(a5)
 2ac:	cf2e                	sw	a1,156(sp)
 2ae:	d882                	sw	zero,112(sp)
 2b0:	c2c2                	sw	a6,68(sp)
 2b2:	0047c803          	lbu	a6,4(a5)
 2b6:	0057c783          	lbu	a5,5(a5)
 2ba:	da82                	sw	zero,116(sp)
 2bc:	c4c2                	sw	a6,72(sp)
 2be:	c6be                	sw	a5,76(sp)
 2c0:	0ff00793          	li	a5,255
 2c4:	c8be                	sw	a5,80(sp)
 2c6:	cabe                	sw	a5,84(sp)
 2c8:	ccbe                	sw	a5,88(sp)
 2ca:	cebe                	sw	a5,92(sp)
 2cc:	d0be                	sw	a5,96(sp)
 2ce:	d2be                	sw	a5,100(sp)
 2d0:	06000793          	li	a5,96
 2d4:	d4be                	sw	a5,104(sp)
 2d6:	04700793          	li	a5,71
 2da:	d6be                	sw	a5,108(sp)
 2dc:	0aa00793          	li	a5,170
 2e0:	dcbe                	sw	a5,120(sp)
 2e2:	debe                	sw	a5,124(sp)
 2e4:	478d                	li	a5,3
 2e6:	c13e                	sw	a5,128(sp)
 2e8:	47a1                	li	a5,8
 2ea:	c93e                	sw	a5,144(sp)
 2ec:	d13e                	sw	a5,160(sp)
 2ee:	4789                	li	a5,2
 2f0:	4819                	li	a6,6
 2f2:	d33e                	sw	a5,164(sp)
 2f4:	4791                	li	a5,4
 2f6:	cb42                	sw	a6,148(sp)
 2f8:	d53e                	sw	a5,168(sp)
 2fa:	06b00813          	li	a6,107
 2fe:	47ad                	li	a5,11
 300:	cd42                	sw	a6,152(sp)
 302:	c302                	sw	zero,132(sp)
 304:	c502                	sw	zero,136(sp)
 306:	c702                	sw	zero,140(sp)
 308:	d73e                	sw	a5,172(sp)
 30a:	d902                	sw	zero,176(sp)
 30c:	db02                	sw	zero,180(sp)
 30e:	dd02                	sw	zero,184(sp)
 310:	4581                	li	a1,0
 312:	df02                	sw	zero,188(sp)
 314:	02700813          	li	a6,39

00000318 <.L58>:
 318:	03359163          	bne	a1,s3,33a <.L65>

0000031c <.L46>:
 31c:	50fe                	lw	ra,252(sp)
 31e:	546e                	lw	s0,248(sp)
 320:	54de                	lw	s1,244(sp)
 322:	594e                	lw	s2,240(sp)
 324:	59be                	lw	s3,236(sp)
 326:	5a2e                	lw	s4,232(sp)
 328:	5a9e                	lw	s5,228(sp)
 32a:	5b0e                	lw	s6,224(sp)
 32c:	4bfe                	lw	s7,220(sp)
 32e:	4c6e                	lw	s8,216(sp)
 330:	4cde                	lw	s9,212(sp)
 332:	4d4e                	lw	s10,208(sp)
 334:	4dbe                	lw	s11,204(sp)
 336:	6111                	add	sp,sp,256
 338:	8082                	ret

0000033a <.L65>:
 33a:	0345f163          	bgeu	a1,s4,35c <.L59>
 33e:	00b86c63          	bltu	a6,a1,356 <.L60>
 342:	00259793          	sll	a5,a1,0x2
 346:	0800                	add	s0,sp,16
 348:	97a2                	add	a5,a5,s0
 34a:	439c                	lw	a5,0(a5)
 34c:	00f70023          	sb	a5,0(a4)

00000350 <.L61>:
 350:	0705                	add	a4,a4,1

00000352 <.L62>:
 352:	0585                	add	a1,a1,1
 354:	b7d1                	j	318 <.L58>

00000356 <.L60>:
 356:	00b70023          	sb	a1,0(a4)
 35a:	bfdd                	j	350 <.L61>

0000035c <.L59>:
 35c:	0ff5f793          	zext.b	a5,a1
 360:	0155f663          	bgeu	a1,s5,36c <.L63>
 364:	00f60023          	sb	a5,0(a2)
 368:	0605                	add	a2,a2,1
 36a:	b7e5                	j	352 <.L62>

0000036c <.L63>:
 36c:	0165f663          	bgeu	a1,s6,378 <.L64>
 370:	00f68023          	sb	a5,0(a3)
 374:	0685                	add	a3,a3,1
 376:	bff1                	j	352 <.L62>

00000378 <.L64>:
 378:	00f50023          	sb	a5,0(a0)
 37c:	0505                	add	a0,a0,1
 37e:	bfd1                	j	352 <.L62>

00000380 <.L52>:
 380:	10412783          	lw	a5,260(sp)
 384:	00100737          	lui	a4,0x100
 388:	177d                	add	a4,a4,-1 # fffff <.L52+0xffc7f>
 38a:	8ff9                	and	a5,a5,a4
 38c:	c09c                	sw	a5,0(s1)
 38e:	b779                	j	31c <.L46>

Disassembly of section .text.rx_buffer_init:

00000000 <rx_buffer_init>:
   0:	1ff00793          	li	a5,511
   4:	4885                	li	a7,1
   6:	00b7f463          	bgeu	a5,a1,e <.L76>
   a:	0085d893          	srl	a7,a1,0x8

0000000e <.L76>:
   e:	800005b7          	lui	a1,0x80000
  12:	4781                	li	a5,0
  14:	4601                	li	a2,0
  16:	00000337          	lui	t1,0x0
  1a:	4e31                	li	t3,12
  1c:	10058593          	add	a1,a1,256 # 80000100 <.L52+0x7ffffd80>

00000020 <.L77>:
  20:	00030693          	mv	a3,t1
  24:	4298                	lw	a4,0(a3)
  26:	00c89d63          	bne	a7,a2,40 <.L78>
  2a:	c798                	sw	a4,8(a5)
  2c:	4298                	lw	a4,0(a3)
  2e:	600337b7          	lui	a5,0x60033
  32:	08e7a423          	sw	a4,136(a5) # 60033088 <.L52+0x60032d08>
  36:	80000737          	lui	a4,0x80000
  3a:	08e7a223          	sw	a4,132(a5)
  3e:	8082                	ret

00000040 <.L78>:
  40:	03c607b3          	mul	a5,a2,t3
  44:	00861813          	sll	a6,a2,0x8
  48:	982a                	add	a6,a6,a0
  4a:	0605                	add	a2,a2,1
  4c:	973e                	add	a4,a4,a5
  4e:	c30c                	sw	a1,0(a4)
  50:	4298                	lw	a4,0(a3)
  52:	0711                	add	a4,a4,4 # 80000004 <.L52+0x7ffffc84>
  54:	973e                	add	a4,a4,a5
  56:	01072023          	sw	a6,0(a4)
  5a:	4298                	lw	a4,0(a3)
  5c:	00c78813          	add	a6,a5,12
  60:	983a                	add	a6,a6,a4
  62:	0721                	add	a4,a4,8
  64:	973e                	add	a4,a4,a5
  66:	01072023          	sw	a6,0(a4)
  6a:	4298                	lw	a4,0(a3)
  6c:	97ba                	add	a5,a5,a4
  6e:	bf4d                	j	20 <.L77>

Disassembly of section .text.rx_link_des:

00000000 <rx_link_des>:
   0:	600337b7          	lui	a5,0x60033
   4:	0847a703          	lw	a4,132(a5) # 60033084 <.L52+0x60032d04>
   8:	800006b7          	lui	a3,0x80000
   c:	fff6c693          	not	a3,a3
  10:	8f75                	and	a4,a4,a3
  12:	08e7a223          	sw	a4,132(a5)
  16:	0807a223          	sw	zero,132(a5)
  1a:	8082                	ret

Disassembly of section .text.rx_buffer_ena:

00000000 <rx_buffer_ena>:
   0:	60033737          	lui	a4,0x60033
   4:	08472783          	lw	a5,132(a4) # 60033084 <.L52+0x60032d04>
   8:	800006b7          	lui	a3,0x80000
   c:	8fd5                	or	a5,a5,a3
   e:	08f72223          	sw	a5,132(a4)
  12:	8082                	ret

Disassembly of section .text.rx_ampdu_buffer_fresh:

00000000 <rx_ampdu_buffer_fresh>:
   0:	1ff00793          	li	a5,511
   4:	4885                	li	a7,1
   6:	00b7f463          	bgeu	a5,a1,e <.L83>
   a:	0085d893          	srl	a7,a1,0x8

0000000e <.L83>:
   e:	801005b7          	lui	a1,0x80100
  12:	4781                	li	a5,0
  14:	4681                	li	a3,0
  16:	00000337          	lui	t1,0x0
  1a:	4e31                	li	t3,12
  1c:	10058593          	add	a1,a1,256 # 80100100 <.L52+0x800ffd80>

00000020 <.L84>:
  20:	00030613          	mv	a2,t1
  24:	4218                	lw	a4,0(a2)
  26:	00d89463          	bne	a7,a3,2e <.L85>
  2a:	c798                	sw	a4,8(a5)
  2c:	8082                	ret

0000002e <.L85>:
  2e:	03c687b3          	mul	a5,a3,t3
  32:	00869813          	sll	a6,a3,0x8
  36:	982a                	add	a6,a6,a0
  38:	0685                	add	a3,a3,1 # 80000001 <.L52+0x7ffffc81>
  3a:	973e                	add	a4,a4,a5
  3c:	c30c                	sw	a1,0(a4)
  3e:	4218                	lw	a4,0(a2)
  40:	0711                	add	a4,a4,4
  42:	973e                	add	a4,a4,a5
  44:	01072023          	sw	a6,0(a4)
  48:	4218                	lw	a4,0(a2)
  4a:	00c78813          	add	a6,a5,12
  4e:	983a                	add	a6,a6,a4
  50:	0721                	add	a4,a4,8
  52:	973e                	add	a4,a4,a5
  54:	01072023          	sw	a6,0(a4)
  58:	4218                	lw	a4,0(a2)
  5a:	97ba                	add	a5,a5,a4
  5c:	b7d1                	j	20 <.L84>

Disassembly of section .text.rx_ampdu_buffer_init:

00000000 <rx_ampdu_buffer_init>:
   0:	1141                	add	sp,sp,-16
   2:	c606                	sw	ra,12(sp)
   4:	00000097          	auipc	ra,0x0
   8:	000080e7          	jalr	ra # 4 <rx_ampdu_buffer_init+0x4>
   c:	000007b7          	lui	a5,0x0
  10:	0007a703          	lw	a4,0(a5) # 0 <rx_ampdu_buffer_init>
  14:	40b2                	lw	ra,12(sp)
  16:	600337b7          	lui	a5,0x60033
  1a:	08e7a423          	sw	a4,136(a5) # 60033088 <.L52+0x60032d08>
  1e:	0141                	add	sp,sp,16
  20:	8082                	ret

Disassembly of section .text.rx_ampdu_entry_fresh:

00000000 <rx_ampdu_entry_fresh>:
   0:	47bd                	li	a5,15
   2:	4885                	li	a7,1
   4:	00b7f463          	bgeu	a5,a1,c <.L90>
   8:	0035d893          	srl	a7,a1,0x3

0000000c <.L90>:
   c:	800085b7          	lui	a1,0x80008
  10:	4781                	li	a5,0
  12:	4681                	li	a3,0
  14:	00000337          	lui	t1,0x0
  18:	4e31                	li	t3,12
  1a:	05a1                	add	a1,a1,8 # 80008008 <.L52+0x80007c88>

0000001c <.L91>:
  1c:	00030613          	mv	a2,t1
  20:	4218                	lw	a4,0(a2)
  22:	00d89463          	bne	a7,a3,2a <.L92>
  26:	c798                	sw	a4,8(a5)
  28:	8082                	ret

0000002a <.L92>:
  2a:	03c687b3          	mul	a5,a3,t3
  2e:	00369813          	sll	a6,a3,0x3
  32:	982a                	add	a6,a6,a0
  34:	0685                	add	a3,a3,1
  36:	973e                	add	a4,a4,a5
  38:	c30c                	sw	a1,0(a4)
  3a:	4218                	lw	a4,0(a2)
  3c:	0711                	add	a4,a4,4
  3e:	973e                	add	a4,a4,a5
  40:	01072023          	sw	a6,0(a4)
  44:	4218                	lw	a4,0(a2)
  46:	00c78813          	add	a6,a5,12
  4a:	983a                	add	a6,a6,a4
  4c:	0721                	add	a4,a4,8
  4e:	973e                	add	a4,a4,a5
  50:	01072023          	sw	a6,0(a4)
  54:	4218                	lw	a4,0(a2)
  56:	97ba                	add	a5,a5,a4
  58:	b7d1                	j	1c <.L91>

Disassembly of section .text.rx_ampdu_entry_init:

00000000 <rx_ampdu_entry_init>:
   0:	00000317          	auipc	t1,0x0
   4:	00030067          	jr	t1 # 0 <rx_ampdu_entry_init>

Disassembly of section .text.rx_ampdu_entrysd_fresh:

00000000 <rx_ampdu_entrysd_fresh>:
   0:	47bd                	li	a5,15
   2:	4885                	li	a7,1
   4:	00b7f463          	bgeu	a5,a1,c <.L96>
   8:	0035d893          	srl	a7,a1,0x3

0000000c <.L96>:
   c:	800085b7          	lui	a1,0x80008
  10:	4781                	li	a5,0
  12:	4681                	li	a3,0
  14:	00000337          	lui	t1,0x0
  18:	4e31                	li	t3,12
  1a:	05a1                	add	a1,a1,8 # 80008008 <.L52+0x80007c88>

0000001c <.L97>:
  1c:	00030613          	mv	a2,t1
  20:	4218                	lw	a4,0(a2)
  22:	00d89463          	bne	a7,a3,2a <.L98>
  26:	c798                	sw	a4,8(a5)
  28:	8082                	ret

0000002a <.L98>:
  2a:	03c687b3          	mul	a5,a3,t3
  2e:	00369813          	sll	a6,a3,0x3
  32:	982a                	add	a6,a6,a0
  34:	0685                	add	a3,a3,1
  36:	973e                	add	a4,a4,a5
  38:	c30c                	sw	a1,0(a4)
  3a:	4218                	lw	a4,0(a2)
  3c:	0711                	add	a4,a4,4
  3e:	973e                	add	a4,a4,a5
  40:	01072023          	sw	a6,0(a4)
  44:	4218                	lw	a4,0(a2)
  46:	00c78813          	add	a6,a5,12
  4a:	983a                	add	a6,a6,a4
  4c:	0721                	add	a4,a4,8
  4e:	973e                	add	a4,a4,a5
  50:	01072023          	sw	a6,0(a4)
  54:	4218                	lw	a4,0(a2)
  56:	97ba                	add	a5,a5,a4
  58:	b7d1                	j	1c <.L97>

Disassembly of section .text.rx_ampdu_entrysd_init:

00000000 <rx_ampdu_entrysd_init>:
   0:	00000317          	auipc	t1,0x0
   4:	00030067          	jr	t1 # 0 <rx_ampdu_entrysd_init>

Disassembly of section .text.mac_init:

00000000 <mac_init>:
   0:	1141                	add	sp,sp,-16
   2:	c606                	sw	ra,12(sp)
   4:	c422                	sw	s0,8(sp)
   6:	c226                	sw	s1,4(sp)
   8:	c04a                	sw	s2,0(sp)
   a:	00000097          	auipc	ra,0x0
   e:	000080e7          	jalr	ra # a <mac_init+0xa>
  12:	60034737          	lui	a4,0x60034
  16:	d1472783          	lw	a5,-748(a4) # 60033d14 <.L52+0x60033994>
  1a:	0027e793          	or	a5,a5,2
  1e:	d0f72a23          	sw	a5,-748(a4)
  22:	600347b7          	lui	a5,0x60034

00000026 <.L102>:
  26:	d147a703          	lw	a4,-748(a5) # 60033d14 <.L52+0x60033994>
  2a:	8b05                	and	a4,a4,1
  2c:	df6d                	beqz	a4,26 <.L102>
  2e:	60033437          	lui	s0,0x60033
  32:	0d842703          	lw	a4,216(s0) # 600330d8 <.L52+0x60032d58>
  36:	800006b7          	lui	a3,0x80000
  3a:	fff6c693          	not	a3,a3
  3e:	9b61                	and	a4,a4,-8
  40:	0ce42c23          	sw	a4,216(s0)
  44:	0dc42703          	lw	a4,220(s0)
  48:	10000937          	lui	s2,0x10000
  4c:	f00004b7          	lui	s1,0xf0000
  50:	9b61                	and	a4,a4,-8
  52:	0ce42e23          	sw	a4,220(s0)
  56:	0e042703          	lw	a4,224(s0)
  5a:	14fd                	add	s1,s1,-1 # efffffff <.L52+0xeffffc7f>
  5c:	6585                	lui	a1,0x1
  5e:	9b61                	and	a4,a4,-8
  60:	0ee42023          	sw	a4,224(s0)
  64:	0e442703          	lw	a4,228(s0)
  68:	9b61                	and	a4,a4,-8
  6a:	0ee42223          	sw	a4,228(s0)
  6e:	c6c7a703          	lw	a4,-916(a5)
  72:	9b75                	and	a4,a4,-3
  74:	c6e7a623          	sw	a4,-916(a5)
  78:	c6c7a703          	lw	a4,-916(a5)
  7c:	9b3d                	and	a4,a4,-17
  7e:	c6e7a623          	sw	a4,-916(a5)
  82:	c6c7a703          	lw	a4,-916(a5)
  86:	8f75                	and	a4,a4,a3
  88:	c6e7a623          	sw	a4,-916(a5)
  8c:	08042703          	lw	a4,128(s0)
  90:	01276733          	or	a4,a4,s2
  94:	08e42023          	sw	a4,128(s0)
  98:	08042703          	lw	a4,128(s0)
  9c:	f0077713          	and	a4,a4,-256
  a0:	00c76713          	or	a4,a4,12
  a4:	08e42023          	sw	a4,128(s0)
  a8:	477d                	li	a4,31
  aa:	c2e7aa23          	sw	a4,-972(a5)
  ae:	07060737          	lui	a4,0x7060
  b2:	50470713          	add	a4,a4,1284 # 7060504 <.L52+0x7060184>
  b6:	c038                	sw	a4,64(s0)
  b8:	6705                	lui	a4,0x1
  ba:	90870713          	add	a4,a4,-1784 # 908 <.L52+0x588>
  be:	c078                	sw	a4,68(s0)
  c0:	00080737          	lui	a4,0x80
  c4:	c6e7a023          	sw	a4,-928(a5)
  c8:	04013737          	lui	a4,0x4013
  cc:	d0e7a223          	sw	a4,-764(a5)
  d0:	000c2737          	lui	a4,0xc2
  d4:	04070713          	add	a4,a4,64 # c2040 <.L52+0xc1cc0>
  d8:	d8e7a823          	sw	a4,-624(a5)
  dc:	c187a703          	lw	a4,-1000(a5)
  e0:	8ef9                	and	a3,a3,a4
  e2:	c0d7ac23          	sw	a3,-1000(a5)
  e6:	c6c7a703          	lw	a4,-916(a5)
  ea:	008006b7          	lui	a3,0x800
  ee:	8f55                	or	a4,a4,a3
  f0:	c6e7a623          	sw	a4,-916(a5)
  f4:	0d842703          	lw	a4,216(s0)
  f8:	000007b7          	lui	a5,0x0
  fc:	02076713          	or	a4,a4,32
 100:	0ce42c23          	sw	a4,216(s0)
 104:	08042703          	lw	a4,128(s0)
 108:	8f65                	and	a4,a4,s1
 10a:	08e42023          	sw	a4,128(s0)
 10e:	0007a503          	lw	a0,0(a5) # 0 <mac_init>
 112:	00000097          	auipc	ra,0x0
 116:	000080e7          	jalr	ra # 112 <.L102+0xec>
 11a:	08042783          	lw	a5,128(s0)
 11e:	12c00593          	li	a1,300
 122:	0127e7b3          	or	a5,a5,s2
 126:	08f42023          	sw	a5,128(s0)
 12a:	000007b7          	lui	a5,0x0
 12e:	0007a503          	lw	a0,0(a5) # 0 <mac_init>
 132:	00000097          	auipc	ra,0x0
 136:	000080e7          	jalr	ra # 132 <.L102+0x10c>
 13a:	000007b7          	lui	a5,0x0
 13e:	0007a503          	lw	a0,0(a5) # 0 <mac_init>
 142:	06400593          	li	a1,100
 146:	00000097          	auipc	ra,0x0
 14a:	000080e7          	jalr	ra # 146 <.L102+0x120>
 14e:	00000097          	auipc	ra,0x0
 152:	000080e7          	jalr	ra # 14e <.L102+0x128>
 156:	08042783          	lw	a5,128(s0)
 15a:	40b2                	lw	ra,12(sp)
 15c:	4902                	lw	s2,0(sp)
 15e:	8cfd                	and	s1,s1,a5
 160:	08942023          	sw	s1,128(s0)
 164:	4422                	lw	s0,8(sp)
 166:	4492                	lw	s1,4(sp)
 168:	0141                	add	sp,sp,16
 16a:	8082                	ret

Disassembly of section .text.adctrig:

00000000 <adctrig>:
   0:	7159                	add	sp,sp,-112
   2:	c4e2                	sw	s8,72(sp)
   4:	8c36                	mv	s8,a3
   6:	600346b7          	lui	a3,0x60034
   a:	d4a2                	sw	s0,104(sp)
   c:	843e                	mv	s0,a5
   e:	d5c6a783          	lw	a5,-676(a3) # 60033d5c <.L52+0x600339dc>
  12:	c2e6                	sw	s9,68(sp)
  14:	8cba                	mv	s9,a4
  16:	80000737          	lui	a4,0x80000
  1a:	fff74713          	not	a4,a4
  1e:	d2a6                	sw	s1,100(sp)
  20:	d0ca                	sw	s2,96(sp)
  22:	cece                	sw	s3,92(sp)
  24:	ccd2                	sw	s4,88(sp)
  26:	c6de                	sw	s7,76(sp)
  28:	c0ea                	sw	s10,64(sp)
  2a:	de6e                	sw	s11,60(sp)
  2c:	d686                	sw	ra,108(sp)
  2e:	cad6                	sw	s5,84(sp)
  30:	c8da                	sw	s6,80(sp)
  32:	8ff9                	and	a5,a5,a4
  34:	5a46                	lw	s4,112(sp)
  36:	00020737          	lui	a4,0x20
  3a:	d4f6ae23          	sw	a5,-676(a3)
  3e:	011c9793          	sll	a5,s9,0x11
  42:	8ff9                	and	a5,a5,a4
  44:	01c59713          	sll	a4,a1,0x1c
  48:	97ba                	add	a5,a5,a4
  4a:	001c7713          	and	a4,s8,1
  4e:	00173713          	seqz	a4,a4
  52:	0742                	sll	a4,a4,0x10
  54:	97ba                	add	a5,a5,a4
  56:	01461713          	sll	a4,a2,0x14
  5a:	97ba                	add	a5,a5,a4
  5c:	97aa                	add	a5,a5,a0
  5e:	0785                	add	a5,a5,1
  60:	d4f6ae23          	sw	a5,-676(a3)
  64:	600c1737          	lui	a4,0x600c1
  68:	531c                	lw	a5,32(a4)
  6a:	892a                	mv	s2,a0
  6c:	84ae                	mv	s1,a1
  6e:	9be1                	and	a5,a5,-8
  70:	0027e793          	or	a5,a5,2
  74:	d31c                	sw	a5,32(a4)
  76:	531c                	lw	a5,32(a4)
  78:	8bb2                	mv	s7,a2
  7a:	8d42                	mv	s10,a6
  7c:	0087e793          	or	a5,a5,8
  80:	d31c                	sw	a5,32(a4)
  82:	4791                	li	a5,4
  84:	89c6                	mv	s3,a7
  86:	01889d93          	sll	s11,a7,0x18
  8a:	10f41e63          	bne	s0,a5,1a6 <.L108>
  8e:	6001c737          	lui	a4,0x6001c
  92:	575c                	lw	a5,44(a4)
  94:	010006b7          	lui	a3,0x1000
  98:	16fd                	add	a3,a3,-1 # ffffff <.L52+0xfffc7f>
  9a:	8ff5                	and	a5,a5,a3
  9c:	01b7e7b3          	or	a5,a5,s11
  a0:	d75c                	sw	a5,44(a4)
  a2:	575c                	lw	a5,44(a4)
  a4:	008006b7          	lui	a3,0x800
  a8:	8fd5                	or	a5,a5,a3
  aa:	d75c                	sw	a5,44(a4)

000000ac <.L132>:
  ac:	4505                	li	a0,1
  ae:	00000097          	auipc	ra,0x0
  b2:	000080e7          	jalr	ra # ae <.L132+0x2>

000000b6 <.L109>:
  b6:	60034737          	lui	a4,0x60034
  ba:	d5c72783          	lw	a5,-676(a4) # 60033d5c <.L52+0x600339dc>
  be:	800006b7          	lui	a3,0x80000
  c2:	8fd5                	or	a5,a5,a3
  c4:	d4f72e23          	sw	a5,-676(a4)
  c8:	018d1793          	sll	a5,s10,0x18
  cc:	d03e                	sw	a5,32(sp)
  ce:	4785                	li	a5,1
  d0:	0ef41b63          	bne	s0,a5,1c6 <.L110>
  d4:	6001c737          	lui	a4,0x6001c
  d8:	575c                	lw	a5,44(a4)
  da:	010006b7          	lui	a3,0x1000
  de:	16fd                	add	a3,a3,-1 # ffffff <.L52+0xfffc7f>
  e0:	8ff5                	and	a5,a5,a3
  e2:	018d1693          	sll	a3,s10,0x18
  e6:	8fd5                	or	a5,a5,a3
  e8:	d75c                	sw	a5,44(a4)
  ea:	575c                	lw	a5,44(a4)
  ec:	008006b7          	lui	a3,0x800
  f0:	8fd5                	or	a5,a5,a3
  f2:	d75c                	sw	a5,44(a4)
  f4:	10048363          	beqz	s1,1fa <.L116>

000000f8 <.L112>:
  f8:	010d1793          	sll	a5,s10,0x10
  fc:	83c1                	srl	a5,a5,0x10
  fe:	d23e                	sw	a5,36(sp)
 100:	01099793          	sll	a5,s3,0x10
 104:	010a1b13          	sll	s6,s4,0x10
 108:	83c1                	srl	a5,a5,0x10
 10a:	00000ab7          	lui	s5,0x0
 10e:	010b5b13          	srl	s6,s6,0x10
 112:	d43e                	sw	a5,40(sp)

00000114 <.L120>:
 114:	010007b7          	lui	a5,0x1000
 118:	17fd                	add	a5,a5,-1 # ffffff <.L52+0xfffc7f>
 11a:	ce3e                	sw	a5,28(sp)
 11c:	ffb48793          	add	a5,s1,-5
 120:	d63e                	sw	a5,44(sp)

00000122 <.L123>:
 122:	600347b7          	lui	a5,0x60034
 126:	d5c7a783          	lw	a5,-676(a5) # 60033d5c <.L52+0x600339dc>
 12a:	00d79713          	sll	a4,a5,0xd
 12e:	12075d63          	bgez	a4,268 <.L124>
 132:	600c1737          	lui	a4,0x600c1
 136:	531c                	lw	a5,32(a4)
 138:	3e800513          	li	a0,1000
 13c:	9be1                	and	a5,a5,-8
 13e:	d31c                	sw	a5,32(a4)
 140:	00000097          	auipc	ra,0x0
 144:	000080e7          	jalr	ra # 140 <.L123+0x1e>
 148:	600347b7          	lui	a5,0x60034
 14c:	d607a603          	lw	a2,-672(a5) # 60033d60 <.L52+0x600339e0>
 150:	d607a683          	lw	a3,-672(a5)
 154:	6591                	lui	a1,0x4
 156:	8239                	srl	a2,a2,0xe
 158:	8a05                	and	a2,a2,1
 15a:	15fd                	add	a1,a1,-1 # 3fff <.L52+0x3c7f>
 15c:	00e61793          	sll	a5,a2,0xe
 160:	8eed                	and	a3,a3,a1
 162:	00190713          	add	a4,s2,1 # 10000001 <.L52+0xffffc81>
 166:	8fd5                	or	a5,a5,a3
 168:	18f70e63          	beq	a4,a5,304 <.L125>
 16c:	180c9c63          	bnez	s9,304 <.L125>
 170:	5426                	lw	s0,104(sp)
 172:	50b6                	lw	ra,108(sp)
 174:	49f6                	lw	s3,92(sp)
 176:	4a66                	lw	s4,88(sp)
 178:	4ad6                	lw	s5,84(sp)
 17a:	4b46                	lw	s6,80(sp)
 17c:	4c96                	lw	s9,68(sp)
 17e:	4d06                	lw	s10,64(sp)
 180:	5df2                	lw	s11,60(sp)
 182:	8762                	mv	a4,s8
 184:	86de                	mv	a3,s7
 186:	4c26                	lw	s8,72(sp)
 188:	4bb6                	lw	s7,76(sp)
 18a:	8626                	mv	a2,s1
 18c:	85ca                	mv	a1,s2
 18e:	5496                	lw	s1,100(sp)
 190:	5906                	lw	s2,96(sp)
 192:	00000537          	lui	a0,0x0
 196:	4781                	li	a5,0
 198:	00050513          	mv	a0,a0
 19c:	6165                	add	sp,sp,112
 19e:	00000317          	auipc	t1,0x0
 1a2:	00030067          	jr	t1 # 19e <.L123+0x7c>

000001a6 <.L108>:
 1a6:	4795                	li	a5,5
 1a8:	f0f417e3          	bne	s0,a5,b6 <.L109>
 1ac:	000007b7          	lui	a5,0x0
 1b0:	0007a783          	lw	a5,0(a5) # 0 <adctrig>
 1b4:	01089613          	sll	a2,a7,0x10
 1b8:	8241                	srl	a2,a2,0x10
 1ba:	1cc7a783          	lw	a5,460(a5)
 1be:	4585                	li	a1,1
 1c0:	4501                	li	a0,0
 1c2:	9782                	jalr	a5
 1c4:	b5e5                	j	ac <.L132>

000001c6 <.L110>:
 1c6:	478d                	li	a5,3
 1c8:	08f41063          	bne	s0,a5,248 <.L114>
 1cc:	6001c737          	lui	a4,0x6001c
 1d0:	575c                	lw	a5,44(a4)
 1d2:	010006b7          	lui	a3,0x1000
 1d6:	16fd                	add	a3,a3,-1 # ffffff <.L52+0xfffc7f>
 1d8:	8ff5                	and	a5,a5,a3
 1da:	01b7e7b3          	or	a5,a5,s11
 1de:	d75c                	sw	a5,44(a4)
 1e0:	575c                	lw	a5,44(a4)
 1e2:	008006b7          	lui	a3,0x800
 1e6:	010a1513          	sll	a0,s4,0x10
 1ea:	8fd5                	or	a5,a5,a3
 1ec:	d75c                	sw	a5,44(a4)
 1ee:	8141                	srl	a0,a0,0x10
 1f0:	00000097          	auipc	ra,0x0
 1f4:	000080e7          	jalr	ra # 1f0 <.L110+0x2a>
 1f8:	e49d                	bnez	s1,226 <.L115>

000001fa <.L116>:
 1fa:	600347b7          	lui	a5,0x60034
 1fe:	d5c7a703          	lw	a4,-676(a5) # 60033d5c <.L52+0x600339dc>
 202:	000806b7          	lui	a3,0x80
 206:	8f55                	or	a4,a4,a3
 208:	d4e7ae23          	sw	a4,-676(a5)
 20c:	d5c7a703          	lw	a4,-676(a5)
 210:	fff806b7          	lui	a3,0xfff80
 214:	16fd                	add	a3,a3,-1 # fff7ffff <.L52+0xfff7fc7f>
 216:	8f75                	and	a4,a4,a3
 218:	d4e7ae23          	sw	a4,-676(a5)

0000021c <.L118>:
 21c:	ffe40793          	add	a5,s0,-2
 220:	4705                	li	a4,1
 222:	ecf76be3          	bltu	a4,a5,f8 <.L112>

00000226 <.L115>:
 226:	6001c737          	lui	a4,0x6001c
 22a:	575c                	lw	a5,44(a4)
 22c:	010006b7          	lui	a3,0x1000
 230:	16fd                	add	a3,a3,-1 # ffffff <.L52+0xfffc7f>
 232:	8ff5                	and	a5,a5,a3
 234:	018d1693          	sll	a3,s10,0x18
 238:	8fd5                	or	a5,a5,a3
 23a:	d75c                	sw	a5,44(a4)
 23c:	575c                	lw	a5,44(a4)
 23e:	008006b7          	lui	a3,0x800
 242:	8fd5                	or	a5,a5,a3
 244:	d75c                	sw	a5,44(a4)
 246:	bd4d                	j	f8 <.L112>

00000248 <.L114>:
 248:	f8f1                	bnez	s1,21c <.L118>
 24a:	47a9                	li	a5,10
 24c:	faf417e3          	bne	s0,a5,1fa <.L116>
 250:	00000097          	auipc	ra,0x0
 254:	000080e7          	jalr	ra # 250 <.L114+0x8>
 258:	010a1513          	sll	a0,s4,0x10
 25c:	8141                	srl	a0,a0,0x10
 25e:	00000097          	auipc	ra,0x0
 262:	000080e7          	jalr	ra # 25e <.L114+0x16>
 266:	bf51                	j	1fa <.L116>

00000268 <.L124>:
 268:	4791                	li	a5,4
 26a:	06f41463          	bne	s0,a5,2d2 <.L121>
 26e:	6001c737          	lui	a4,0x6001c
 272:	575c                	lw	a5,44(a4)
 274:	46f2                	lw	a3,28(sp)
 276:	855a                	mv	a0,s6
 278:	8ff5                	and	a5,a5,a3
 27a:	5682                	lw	a3,32(sp)
 27c:	8fd5                	or	a5,a5,a3
 27e:	d75c                	sw	a5,44(a4)
 280:	00000097          	auipc	ra,0x0
 284:	000080e7          	jalr	ra # 280 <.L124+0x18>
 288:	6001c737          	lui	a4,0x6001c
 28c:	575c                	lw	a5,44(a4)
 28e:	46f2                	lw	a3,28(sp)
 290:	8ff5                	and	a5,a5,a3
 292:	01b7e7b3          	or	a5,a5,s11
 296:	d75c                	sw	a5,44(a4)

00000298 <.L133>:
 298:	855a                	mv	a0,s6
 29a:	00000097          	auipc	ra,0x0
 29e:	000080e7          	jalr	ra # 29a <.L133+0x2>

000002a2 <.L122>:
 2a2:	5732                	lw	a4,44(sp)
 2a4:	4785                	li	a5,1
 2a6:	e6e7eee3          	bltu	a5,a4,122 <.L123>
 2aa:	000aa783          	lw	a5,0(s5) # 0 <adctrig>
 2ae:	4b9c                	lw	a5,16(a5)
 2b0:	9782                	jalr	a5
 2b2:	3e800513          	li	a0,1000
 2b6:	00000097          	auipc	ra,0x0
 2ba:	000080e7          	jalr	ra # 2b6 <.L122+0x14>
 2be:	4529                	li	a0,10
 2c0:	00000097          	auipc	ra,0x0
 2c4:	000080e7          	jalr	ra # 2c0 <.L122+0x1e>
 2c8:	000aa783          	lw	a5,0(s5)
 2cc:	4bdc                	lw	a5,20(a5)
 2ce:	9782                	jalr	a5
 2d0:	b591                	j	114 <.L120>

000002d2 <.L121>:
 2d2:	4795                	li	a5,5
 2d4:	fcf417e3          	bne	s0,a5,2a2 <.L122>
 2d8:	000aa783          	lw	a5,0(s5)
 2dc:	5612                	lw	a2,36(sp)
 2de:	4585                	li	a1,1
 2e0:	1cc7a783          	lw	a5,460(a5)
 2e4:	4501                	li	a0,0
 2e6:	9782                	jalr	a5
 2e8:	855a                	mv	a0,s6
 2ea:	00000097          	auipc	ra,0x0
 2ee:	000080e7          	jalr	ra # 2ea <.L121+0x18>
 2f2:	000aa783          	lw	a5,0(s5)
 2f6:	5622                	lw	a2,40(sp)
 2f8:	4585                	li	a1,1
 2fa:	1cc7a783          	lw	a5,460(a5)
 2fe:	4501                	li	a0,0
 300:	9782                	jalr	a5
 302:	bf59                	j	298 <.L133>

00000304 <.L125>:
 304:	600347b7          	lui	a5,0x60034
 308:	d607a583          	lw	a1,-672(a5) # 60033d60 <.L52+0x600339e0>
 30c:	d5c7a703          	lw	a4,-676(a5)
 310:	800006b7          	lui	a3,0x80000
 314:	fff6c693          	not	a3,a3
 318:	8f75                	and	a4,a4,a3
 31a:	d4e7ae23          	sw	a4,-676(a5)
 31e:	6791                	lui	a5,0x4
 320:	17fd                	add	a5,a5,-1 # 3fff <.L52+0x3c7f>
