In archive /Users/dimajolkin/GolandProjects/espradio/blobs/libs/esp32c3/librftest.a:

phy_test.o:     file format elf32-littleriscv


Disassembly of section .text.check_noise_floor1:

00000000 <check_noise_floor1>:
   0:	6001c7b7          	lui	a5,0x6001c
   4:	4f98                	lw	a4,24(a5)
   6:	ff8006b7          	lui	a3,0xff800
   a:	16fd                	add	a3,a3,-1 # ff7fffff <.L79+0xff7ffe97>
   c:	8f75                	and	a4,a4,a3
   e:	cf98                	sw	a4,24(a5)
  10:	4f98                	lw	a4,24(a5)
  12:	020006b7          	lui	a3,0x2000
  16:	6001c637          	lui	a2,0x6001c
  1a:	8f55                	or	a4,a4,a3
  1c:	cf98                	sw	a4,24(a5)
  1e:	4f98                	lw	a4,24(a5)
  20:	fe0006b7          	lui	a3,0xfe000
  24:	16fd                	add	a3,a3,-1 # fdffffff <.L79+0xfdfffe97>
  26:	8f75                	and	a4,a4,a3
  28:	cf98                	sw	a4,24(a5)
  2a:	4f98                	lw	a4,24(a5)
  2c:	008006b7          	lui	a3,0x800
  30:	600355b7          	lui	a1,0x60035
  34:	8f55                	or	a4,a4,a3
  36:	cf98                	sw	a4,24(a5)
  38:	600357b7          	lui	a5,0x60035
  3c:	4394                	lw	a3,0(a5)
  3e:	6789                	lui	a5,0x2
  40:	4701                	li	a4,0
  42:	71178793          	add	a5,a5,1809 # 2711 <.L79+0x25a9>

00000046 <.L2>:
  46:	4e08                	lw	a0,24(a2)
  48:	00751813          	sll	a6,a0,0x7
  4c:	00084363          	bltz	a6,52 <.L3>
  50:	c321                	beqz	a4,90 <.L4>

00000052 <.L3>:
  52:	6001c7b7          	lui	a5,0x6001c
  56:	4bb4                	lw	a3,80(a5)
  58:	e7800613          	li	a2,-392
  5c:	c006e693          	or	a3,a3,-1024
  60:	87b6                	mv	a5,a3
  62:	00c6d463          	bge	a3,a2,6a <.L5>
  66:	e7800793          	li	a5,-392

0000006a <.L5>:
  6a:	01079613          	sll	a2,a5,0x10
  6e:	8641                	sra	a2,a2,0x10
  70:	ea000693          	li	a3,-352
  74:	00c6d463          	bge	a3,a2,7c <.L6>
  78:	ea000793          	li	a5,-352

0000007c <.L6>:
  7c:	01079513          	sll	a0,a5,0x10
  80:	8541                	sra	a0,a0,0x10
  82:	c711                	beqz	a4,8e <.L7>
  84:	40f007b3          	neg	a5,a5
  88:	01079513          	sll	a0,a5,0x10
  8c:	8541                	sra	a0,a0,0x10

0000008e <.L7>:
  8e:	8082                	ret

00000090 <.L4>:
  90:	4198                	lw	a4,0(a1)
  92:	8f15                	sub	a4,a4,a3
  94:	00f73733          	sltu	a4,a4,a5
  98:	00174713          	xor	a4,a4,1
  9c:	b76d                	j	46 <.L2>

Disassembly of section .text.force_iq_set:

00000000 <force_iq_set>:
   0:	1101                	add	sp,sp,-32
   2:	8736                	mv	a4,a3
   4:	cc22                	sw	s0,24(sp)
   6:	ca26                	sw	s1,20(sp)
   8:	c84a                	sw	s2,16(sp)
   a:	c64e                	sw	s3,12(sp)
   c:	892a                	mv	s2,a0
   e:	89ae                	mv	s3,a1
  10:	84b2                	mv	s1,a2
  12:	8436                	mv	s0,a3
  14:	86b2                	mv	a3,a2
  16:	862e                	mv	a2,a1
  18:	85aa                	mv	a1,a0
  1a:	00000537          	lui	a0,0x0
  1e:	00050513          	mv	a0,a0
  22:	ce06                	sw	ra,28(sp)
  24:	00000097          	auipc	ra,0x0
  28:	000080e7          	jalr	ra # 24 <force_iq_set+0x24>
  2c:	600067b7          	lui	a5,0x60006
  30:	5ff8                	lw	a4,124(a5)
  32:	6685                	lui	a3,0x1
  34:	80068693          	add	a3,a3,-2048 # 800 <.L79+0x698>
  38:	8f55                	or	a4,a4,a3
  3a:	dff8                	sw	a4,124(a5)
  3c:	5ff8                	lw	a4,124(a5)
  3e:	080006b7          	lui	a3,0x8000
  42:	8f55                	or	a4,a4,a3
  44:	dff8                	sw	a4,124(a5)
  46:	5ff8                	lw	a4,124(a5)
  48:	04098063          	beqz	s3,88 <.L12>
  4c:	76fd                	lui	a3,0xfffff
  4e:	16fd                	add	a3,a3,-1 # ffffefff <.L79+0xffffee97>
  50:	00193913          	seqz	s2,s2
  54:	8f75                	and	a4,a4,a3
  56:	0932                	sll	s2,s2,0xc
  58:	01276933          	or	s2,a4,s2
  5c:	0727ae23          	sw	s2,124(a5) # 6000607c <.L79+0x60005f14>
  60:	5ff8                	lw	a4,124(a5)
  62:	88fd                	and	s1,s1,31
  64:	0416                	sll	s0,s0,0x5
  66:	9b01                	and	a4,a4,-32
  68:	8cd9                	or	s1,s1,a4
  6a:	dfe4                	sw	s1,124(a5)
  6c:	5ff8                	lw	a4,124(a5)
  6e:	7e047413          	and	s0,s0,2016
  72:	81f77713          	and	a4,a4,-2017

00000076 <.L19>:
  76:	8c59                	or	s0,s0,a4
  78:	dfe0                	sw	s0,124(a5)
  7a:	40f2                	lw	ra,28(sp)
  7c:	4462                	lw	s0,24(sp)
  7e:	44d2                	lw	s1,20(sp)
  80:	4942                	lw	s2,16(sp)
  82:	49b2                	lw	s3,12(sp)
  84:	6105                	add	sp,sp,32
  86:	8082                	ret

00000088 <.L12>:
  88:	f00006b7          	lui	a3,0xf0000
  8c:	16fd                	add	a3,a3,-1 # efffffff <.L79+0xeffffe97>
  8e:	00193913          	seqz	s2,s2
  92:	8f75                	and	a4,a4,a3
  94:	0972                	sll	s2,s2,0x1c
  96:	01276933          	or	s2,a4,s2
  9a:	0727ae23          	sw	s2,124(a5)
  9e:	5ff8                	lw	a4,124(a5)
  a0:	001f06b7          	lui	a3,0x1f0
  a4:	04c2                	sll	s1,s1,0x10
  a6:	8cf5                	and	s1,s1,a3
  a8:	ffe106b7          	lui	a3,0xffe10
  ac:	16fd                	add	a3,a3,-1 # ffe0ffff <.L79+0xffe0fe97>
  ae:	8f75                	and	a4,a4,a3
  b0:	8cd9                	or	s1,s1,a4
  b2:	dfe4                	sw	s1,124(a5)
  b4:	07e006b7          	lui	a3,0x7e00
  b8:	5ff8                	lw	a4,124(a5)
  ba:	0456                	sll	s0,s0,0x15
  bc:	8c75                	and	s0,s0,a3
  be:	f82006b7          	lui	a3,0xf8200
  c2:	16fd                	add	a3,a3,-1 # f81fffff <.L79+0xf81ffe97>
  c4:	8f75                	and	a4,a4,a3
  c6:	bf45                	j	76 <.L19>

Disassembly of section .text.rxiq_get_pwr:

00000000 <rxiq_get_pwr>:
   0:	7179                	add	sp,sp,-48
   2:	c85a                	sw	s6,16(sp)
   4:	00000b37          	lui	s6,0x0
   8:	000b2783          	lw	a5,0(s6) # 0 <rxiq_get_pwr>
   c:	d606                	sw	ra,44(sp)
   e:	d422                	sw	s0,40(sp)
  10:	4bbc                	lw	a5,80(a5)
  12:	d226                	sw	s1,36(sp)
  14:	d04a                	sw	s2,32(sp)
  16:	ce4e                	sw	s3,28(sp)
  18:	892a                	mv	s2,a0
  1a:	cc52                	sw	s4,24(sp)
  1c:	ca56                	sw	s5,20(sp)
  1e:	c65e                	sw	s7,12(sp)
  20:	c462                	sw	s8,8(sp)
  22:	c266                	sw	s9,4(sp)
  24:	4505                	li	a0,1
  26:	8aae                	mv	s5,a1
  28:	9782                	jalr	a5
  2a:	000b2783          	lw	a5,0(s6)
  2e:	4c05                	li	s8,1
  30:	012c1c33          	sll	s8,s8,s2
  34:	4bfc                	lw	a5,84(a5)
  36:	4505                	li	a0,1
  38:	0c42                	sll	s8,s8,0x10
  3a:	9782                	jalr	a5
  3c:	010c5c13          	srl	s8,s8,0x10
  40:	02000b93          	li	s7,32
  44:	4481                	li	s1,0
  46:	4a01                	li	s4,0
  48:	4401                	li	s0,0
  4a:	4981                	li	s3,0
  4c:	60006cb7          	lui	s9,0x60006
  50:	1979                	add	s2,s2,-2

00000052 <.L21>:
  52:	000b2783          	lw	a5,0(s6)
  56:	85e2                	mv	a1,s8
  58:	4505                	li	a0,1
  5a:	1047a783          	lw	a5,260(a5)
  5e:	1bfd                	add	s7,s7,-1
  60:	0ffbfb93          	zext.b	s7,s7
  64:	9782                	jalr	a5
  66:	148ca783          	lw	a5,328(s9) # 60006148 <.L79+0x60005fe0>
  6a:	154ca583          	lw	a1,340(s9)
  6e:	150ca703          	lw	a4,336(s9)
  72:	4127d7b3          	sra	a5,a5,s2
  76:	4125d5b3          	sra	a1,a1,s2
  7a:	41275633          	sra	a2,a4,s2
  7e:	14cca703          	lw	a4,332(s9)
  82:	40b786b3          	sub	a3,a5,a1
  86:	97ae                	add	a5,a5,a1
  88:	41275733          	sra	a4,a4,s2
  8c:	00e60533          	add	a0,a2,a4
  90:	8f11                	sub	a4,a4,a2
  92:	02e705b3          	mul	a1,a4,a4
  96:	02f78633          	mul	a2,a5,a5
  9a:	02e71733          	mulh	a4,a4,a4
  9e:	95b2                	add	a1,a1,a2
  a0:	00c5b633          	sltu	a2,a1,a2
  a4:	02f797b3          	mulh	a5,a5,a5
  a8:	97ba                	add	a5,a5,a4
  aa:	97b2                	add	a5,a5,a2
  ac:	00b48633          	add	a2,s1,a1
  b0:	00963733          	sltu	a4,a2,s1
  b4:	9a3e                	add	s4,s4,a5
  b6:	9a3a                	add	s4,s4,a4
  b8:	02a507b3          	mul	a5,a0,a0
  bc:	84b2                	mv	s1,a2
  be:	02d68733          	mul	a4,a3,a3
  c2:	02a51533          	mulh	a0,a0,a0
  c6:	97ba                	add	a5,a5,a4
  c8:	00e7b733          	sltu	a4,a5,a4
  cc:	97a2                	add	a5,a5,s0
  ce:	02d696b3          	mulh	a3,a3,a3
  d2:	96aa                	add	a3,a3,a0
  d4:	9736                	add	a4,a4,a3
  d6:	0087b6b3          	sltu	a3,a5,s0
  da:	843e                	mv	s0,a5
  dc:	000b2783          	lw	a5,0(s6)
  e0:	974e                	add	a4,a4,s3
  e2:	00e689b3          	add	s3,a3,a4
  e6:	1087a783          	lw	a5,264(a5)
  ea:	9782                	jalr	a5
  ec:	f60b93e3          	bnez	s7,52 <.L21>
  f0:	01ba1793          	sll	a5,s4,0x1b
  f4:	8095                	srl	s1,s1,0x5
  f6:	8cdd                	or	s1,s1,a5
  f8:	8015                	srl	s0,s0,0x5
  fa:	01b99793          	sll	a5,s3,0x1b
  fe:	8c5d                	or	s0,s0,a5
 100:	008aa423          	sw	s0,8(s5)
 104:	50b2                	lw	ra,44(sp)
 106:	5422                	lw	s0,40(sp)
 108:	405a5a13          	sra	s4,s4,0x5
 10c:	4059d713          	sra	a4,s3,0x5
 110:	009aa023          	sw	s1,0(s5)
 114:	014aa223          	sw	s4,4(s5)
 118:	00eaa623          	sw	a4,12(s5)
 11c:	5492                	lw	s1,36(sp)
 11e:	5902                	lw	s2,32(sp)
 120:	49f2                	lw	s3,28(sp)
 122:	4a62                	lw	s4,24(sp)
 124:	4ad2                	lw	s5,20(sp)
 126:	4b42                	lw	s6,16(sp)
 128:	4bb2                	lw	s7,12(sp)
 12a:	4c22                	lw	s8,8(sp)
 12c:	4c92                	lw	s9,4(sp)
 12e:	6145                	add	sp,sp,48
 130:	8082                	ret

Disassembly of section .text.txdc_delta_max:

00000000 <txdc_delta_max>:
   0:	1101                	add	sp,sp,-32
   2:	c84a                	sw	s2,16(sp)
   4:	00000937          	lui	s2,0x0
   8:	00092783          	lw	a5,0(s2) # 0 <txdc_delta_max>
   c:	cc22                	sw	s0,24(sp)
   e:	842a                	mv	s0,a0
  10:	1007a783          	lw	a5,256(a5)
  14:	00051503          	lh	a0,0(a0) # 0 <txdc_delta_max>
  18:	ce06                	sw	ra,28(sp)
  1a:	ca26                	sw	s1,20(sp)
  1c:	c64e                	sw	s3,12(sp)
  1e:	84ae                	mv	s1,a1
  20:	9782                	jalr	a5
  22:	00092783          	lw	a5,0(s2)
  26:	89aa                	mv	s3,a0
  28:	00241503          	lh	a0,2(s0)
  2c:	1007a783          	lw	a5,256(a5)
  30:	9782                	jalr	a5
  32:	00092783          	lw	a5,0(s2)
  36:	1007a783          	lw	a5,256(a5)
  3a:	03355e63          	bge	a0,s3,76 <.L25>
  3e:	00049503          	lh	a0,0(s1)
  42:	9782                	jalr	a5
  44:	00092783          	lw	a5,0(s2)
  48:	89aa                	mv	s3,a0
  4a:	00041503          	lh	a0,0(s0)
  4e:	1007a783          	lw	a5,256(a5)

00000052 <.L32>:
  52:	9782                	jalr	a5
  54:	00a9da63          	bge	s3,a0,68 <.L24>
  58:	00041783          	lh	a5,0(s0)
  5c:	00f49023          	sh	a5,0(s1)
  60:	00241783          	lh	a5,2(s0)
  64:	00f49123          	sh	a5,2(s1)

00000068 <.L24>:
  68:	40f2                	lw	ra,28(sp)
  6a:	4462                	lw	s0,24(sp)
  6c:	44d2                	lw	s1,20(sp)
  6e:	4942                	lw	s2,16(sp)
  70:	49b2                	lw	s3,12(sp)
  72:	6105                	add	sp,sp,32
  74:	8082                	ret

00000076 <.L25>:
  76:	00249503          	lh	a0,2(s1)
  7a:	9782                	jalr	a5
  7c:	00092783          	lw	a5,0(s2)
  80:	89aa                	mv	s3,a0
  82:	00241503          	lh	a0,2(s0)
  86:	1007a783          	lw	a5,256(a5)
  8a:	b7e1                	j	52 <.L32>

Disassembly of section .text.txdc_stable_sub:

00000000 <txdc_stable_sub>:
   0:	7139                	add	sp,sp,-64
   2:	dc22                	sw	s0,56(sp)
   4:	00000437          	lui	s0,0x0
   8:	00042783          	lw	a5,0(s0) # 0 <txdc_stable_sub>
   c:	d84a                	sw	s2,48(sp)
   e:	d64e                	sw	s3,44(sp)
  10:	1d47a783          	lw	a5,468(a5)
  14:	d452                	sw	s4,40(sp)
  16:	d256                	sw	s5,36(sp)
  18:	de06                	sw	ra,60(sp)
  1a:	da26                	sw	s1,52(sp)
  1c:	d05a                	sw	s6,32(sp)
  1e:	ce5e                	sw	s7,28(sp)
  20:	c202                	sw	zero,4(sp)
  22:	8aaa                	mv	s5,a0
  24:	892e                	mv	s2,a1
  26:	9782                	jalr	a5
  28:	00042783          	lw	a5,0(s0)
  2c:	4581                	li	a1,0
  2e:	453d                	li	a0,15
  30:	1ec7a783          	lw	a5,492(a5)
  34:	4981                	li	s3,0
  36:	4a01                	li	s4,0
  38:	9782                	jalr	a5
  3a:	020a8263          	beqz	s5,5e <.L34>
  3e:	00042783          	lw	a5,0(s0)
  42:	4585                	li	a1,1
  44:	4505                	li	a0,1
  46:	1cc7a483          	lw	s1,460(a5)
  4a:	1d07a783          	lw	a5,464(a5)
  4e:	9782                	jalr	a5
  50:	00256613          	or	a2,a0,2
  54:	0642                	sll	a2,a2,0x10
  56:	8241                	srl	a2,a2,0x10
  58:	4585                	li	a1,1
  5a:	4505                	li	a0,1
  5c:	9482                	jalr	s1

0000005e <.L34>:
  5e:	4481                	li	s1,0
  60:	00000bb7          	lui	s7,0x0
  64:	4b51                	li	s6,20

00000066 <.L37>:
  66:	0028                	add	a0,sp,8
  68:	00000097          	auipc	ra,0x0
  6c:	000080e7          	jalr	ra # 68 <.L37+0x2>
  70:	00e15803          	lhu	a6,14(sp)
  74:	00c15783          	lhu	a5,12(sp)
  78:	00a15703          	lhu	a4,10(sp)
  7c:	00815683          	lhu	a3,8(sp)
  80:	8626                	mv	a2,s1
  82:	85d6                	mv	a1,s5
  84:	000b8513          	mv	a0,s7
  88:	00000097          	auipc	ra,0x0
  8c:	000080e7          	jalr	ra # 88 <.L37+0x22>
  90:	06400513          	li	a0,100
  94:	00000097          	auipc	ra,0x0
  98:	000080e7          	jalr	ra # 94 <.L37+0x2e>
  9c:	e4b1                	bnez	s1,e8 <.L35>
  9e:	00815983          	lhu	s3,8(sp)
  a2:	00a15a03          	lhu	s4,10(sp)

000000a6 <.L36>:
  a6:	0485                	add	s1,s1,1
  a8:	fb649fe3          	bne	s1,s6,66 <.L37>
  ac:	00042783          	lw	a5,0(s0)
  b0:	4501                	li	a0,0
  b2:	1e47a783          	lw	a5,484(a5)
  b6:	9782                	jalr	a5
  b8:	00042783          	lw	a5,0(s0)
  bc:	1d87a783          	lw	a5,472(a5)
  c0:	9782                	jalr	a5
  c2:	00415783          	lhu	a5,4(sp)
  c6:	50f2                	lw	ra,60(sp)
  c8:	5462                	lw	s0,56(sp)
  ca:	00f91023          	sh	a5,0(s2)
  ce:	00615783          	lhu	a5,6(sp)
  d2:	54d2                	lw	s1,52(sp)
  d4:	59b2                	lw	s3,44(sp)
  d6:	00f91123          	sh	a5,2(s2)
  da:	5a22                	lw	s4,40(sp)
  dc:	5942                	lw	s2,48(sp)
  de:	5a92                	lw	s5,36(sp)
  e0:	5b02                	lw	s6,32(sp)
  e2:	4bf2                	lw	s7,28(sp)
  e4:	6121                	add	sp,sp,64
  e6:	8082                	ret

000000e8 <.L35>:
  e8:	00815783          	lhu	a5,8(sp)
  ec:	004c                	add	a1,sp,4
  ee:	850a                	mv	a0,sp
  f0:	413787b3          	sub	a5,a5,s3
  f4:	00f11023          	sh	a5,0(sp)
  f8:	00a15783          	lhu	a5,10(sp)
  fc:	414787b3          	sub	a5,a5,s4
 100:	00f11123          	sh	a5,2(sp)
 104:	00000097          	auipc	ra,0x0
 108:	000080e7          	jalr	ra # 104 <.L35+0x1c>
 10c:	bf69                	j	a6 <.L36>

Disassembly of section .text.txdc_stable_test:

00000000 <txdc_stable_test>:
   0:	7179                	add	sp,sp,-48
   2:	d422                	sw	s0,40(sp)
   4:	080c                	add	a1,sp,16
   6:	842a                	mv	s0,a0
   8:	4501                	li	a0,0
   a:	d606                	sw	ra,44(sp)
   c:	c602                	sw	zero,12(sp)
   e:	00000097          	auipc	ra,0x0
  12:	000080e7          	jalr	ra # e <txdc_stable_test+0xe>
  16:	006c                	add	a1,sp,12
  18:	0808                	add	a0,sp,16
  1a:	00000097          	auipc	ra,0x0
  1e:	000080e7          	jalr	ra # 1a <txdc_stable_test+0x1a>
  22:	084c                	add	a1,sp,20
  24:	4505                	li	a0,1
  26:	00000097          	auipc	ra,0x0
  2a:	000080e7          	jalr	ra # 26 <txdc_stable_test+0x26>
  2e:	006c                	add	a1,sp,12
  30:	0848                	add	a0,sp,20
  32:	00000097          	auipc	ra,0x0
  36:	000080e7          	jalr	ra # 32 <txdc_stable_test+0x32>
  3a:	cc09                	beqz	s0,54 <.L43>
  3c:	00e11603          	lh	a2,14(sp)
  40:	00c11583          	lh	a1,12(sp)
  44:	00000537          	lui	a0,0x0
  48:	00050513          	mv	a0,a0
  4c:	00000097          	auipc	ra,0x0
  50:	000080e7          	jalr	ra # 4c <txdc_stable_test+0x4c>

00000054 <.L43>:
  54:	50b2                	lw	ra,44(sp)
  56:	5422                	lw	s0,40(sp)
  58:	6145                	add	sp,sp,48
  5a:	8082                	ret

Disassembly of section .text.force_txon_mode:

00000000 <force_txon_mode>:
   0:	60006737          	lui	a4,0x60006
   4:	431c                	lw	a5,0(a4)
   6:	11072703          	lw	a4,272(a4) # 60006110 <.L79+0x60005fa8>
   a:	76f5                	lui	a3,0xffffd
   c:	16fd                	add	a3,a3,-1 # ffffcfff <.L79+0xffffce97>
   e:	8f75                	and	a4,a4,a3
  10:	83c9                	srl	a5,a5,0x12
  12:	668d                	lui	a3,0x3
  14:	e191                	bnez	a1,18 <.L50>
  16:	4681                	li	a3,0

00000018 <.L50>:
  18:	8f55                	or	a4,a4,a3
  1a:	600066b7          	lui	a3,0x60006
  1e:	10e6a823          	sw	a4,272(a3) # 60006110 <.L79+0x60005fa8>
  22:	4298                	lw	a4,0(a3)
  24:	00a03833          	snez	a6,a0
  28:	0806                	sll	a6,a6,0x1
  2a:	9b75                	and	a4,a4,-3
  2c:	01076733          	or	a4,a4,a6
  30:	c298                	sw	a4,0(a3)
  32:	4298                	lw	a4,0(a3)
  34:	fffc06b7          	lui	a3,0xfffc0
  38:	3ff68693          	add	a3,a3,1023 # fffc03ff <.L79+0xfffc0297>
  3c:	8f75                	and	a4,a4,a3
  3e:	0ff7f793          	zext.b	a5,a5
  42:	c191                	beqz	a1,46 <.L52>
  44:	0641                	add	a2,a2,16 # 6001c010 <.L79+0x6001bea8>

00000046 <.L52>:
  46:	97b2                	add	a5,a5,a2
  48:	000406b7          	lui	a3,0x40
  4c:	07aa                	sll	a5,a5,0xa
  4e:	c0068693          	add	a3,a3,-1024 # 3fc00 <.L79+0x3fa98>
  52:	8ff5                	and	a5,a5,a3
  54:	8fd9                	or	a5,a5,a4
  56:	60006737          	lui	a4,0x60006
  5a:	c31c                	sw	a5,0(a4)
  5c:	000007b7          	lui	a5,0x0
  60:	0007a783          	lw	a5,0(a5) # 0 <force_txon_mode>
  64:	0c87a303          	lw	t1,200(a5)
  68:	8302                	jr	t1

Disassembly of section .text.bt_rx_force:

00000000 <bt_rx_force>:
   0:	6001c737          	lui	a4,0x6001c
   4:	1141                	add	sp,sp,-16
   6:	08072783          	lw	a5,128(a4) # 6001c080 <.L79+0x6001bf18>
   a:	c606                	sw	ra,12(sp)
   c:	c422                	sw	s0,8(sp)
   e:	c139                	beqz	a0,54 <.L59>
  10:	0c07e793          	or	a5,a5,192
  14:	08f72023          	sw	a5,128(a4)
  18:	4529                	li	a0,10
  1a:	00000097          	auipc	ra,0x0
  1e:	000080e7          	jalr	ra # 1a <bt_rx_force+0x1a>
  22:	60006437          	lui	s0,0x60006
  26:	11042783          	lw	a5,272(s0) # 60006110 <.L79+0x60005fa8>
  2a:	4505                	li	a0,1
  2c:	cff7f793          	and	a5,a5,-769
  30:	2007e793          	or	a5,a5,512
  34:	10f42823          	sw	a5,272(s0)
  38:	00000097          	auipc	ra,0x0
  3c:	000080e7          	jalr	ra # 38 <bt_rx_force+0x38>
  40:	11042783          	lw	a5,272(s0)
  44:	3007e793          	or	a5,a5,768

00000048 <.L62>:
  48:	10f42823          	sw	a5,272(s0)
  4c:	40b2                	lw	ra,12(sp)
  4e:	4422                	lw	s0,8(sp)
  50:	0141                	add	sp,sp,16
  52:	8082                	ret

00000054 <.L59>:
  54:	f3f7f793          	and	a5,a5,-193
  58:	08f72023          	sw	a5,128(a4)
  5c:	4529                	li	a0,10
  5e:	60006437          	lui	s0,0x60006
  62:	00000097          	auipc	ra,0x0
  66:	000080e7          	jalr	ra # 62 <.L59+0xe>
  6a:	11042783          	lw	a5,272(s0) # 60006110 <.L79+0x60005fa8>
  6e:	4505                	li	a0,1
  70:	cff7f793          	and	a5,a5,-769
  74:	2007e793          	or	a5,a5,512
  78:	10f42823          	sw	a5,272(s0)
  7c:	00000097          	auipc	ra,0x0
  80:	000080e7          	jalr	ra # 7c <.L59+0x28>
  84:	11042783          	lw	a5,272(s0)
  88:	4505                	li	a0,1
  8a:	3007e793          	or	a5,a5,768
  8e:	10f42823          	sw	a5,272(s0)
  92:	00000097          	auipc	ra,0x0
  96:	000080e7          	jalr	ra # 92 <.L59+0x3e>
  9a:	11042783          	lw	a5,272(s0)
  9e:	cff7f793          	and	a5,a5,-769
  a2:	b75d                	j	48 <.L62>

Disassembly of section .text.force_rx_gain:

00000000 <force_rx_gain>:
   0:	1101                	add	sp,sp,-32
   2:	cc22                	sw	s0,24(sp)
   4:	842a                	mv	s0,a0
   6:	8d71                	and	a0,a0,a2
   8:	c62e                	sw	a1,12(sp)
   a:	c432                	sw	a2,8(sp)
   c:	ce06                	sw	ra,28(sp)
   e:	00000097          	auipc	ra,0x0
  12:	000080e7          	jalr	ra # e <force_rx_gain+0xe>
  16:	45b2                	lw	a1,12(sp)
  18:	4622                	lw	a2,8(sp)
  1a:	01741713          	sll	a4,s0,0x17
  1e:	01859513          	sll	a0,a1,0x18
  22:	008006b7          	lui	a3,0x800
  26:	010005b7          	lui	a1,0x1000
  2a:	8ef9                	and	a3,a3,a4
  2c:	fff58713          	add	a4,a1,-1 # ffffff <.L79+0xfffe97>
  30:	ca31                	beqz	a2,84 <.L64>
  32:	600127b7          	lui	a5,0x60012
  36:	8407a583          	lw	a1,-1984(a5) # 60011840 <.L79+0x600116d8>
  3a:	fff44413          	not	s0,s0
  3e:	043e                	sll	s0,s0,0xf
  40:	8df9                	and	a1,a1,a4
  42:	8dc9                	or	a1,a1,a0
  44:	84b7a023          	sw	a1,-1984(a5)
  48:	8407a583          	lw	a1,-1984(a5)
  4c:	ff800737          	lui	a4,0xff800
  50:	fff70613          	add	a2,a4,-1 # ff7fffff <.L79+0xff7ffe97>
  54:	00c5f733          	and	a4,a1,a2
  58:	84e7a023          	sw	a4,-1984(a5)
  5c:	8407a703          	lw	a4,-1984(a5)
  60:	8f71                	and	a4,a4,a2
  62:	8f55                	or	a4,a4,a3
  64:	84e7a023          	sw	a4,-1984(a5)
  68:	600116b7          	lui	a3,0x60011
  6c:	4afc                	lw	a5,84(a3)
  6e:	6721                	lui	a4,0x8
  70:	8c79                	and	s0,s0,a4
  72:	7761                	lui	a4,0xffff8
  74:	177d                	add	a4,a4,-1 # ffff7fff <.L79+0xffff7e97>
  76:	8ff9                	and	a5,a5,a4
  78:	8c5d                	or	s0,s0,a5
  7a:	cae0                	sw	s0,84(a3)

0000007c <.L63>:
  7c:	40f2                	lw	ra,28(sp)
  7e:	4462                	lw	s0,24(sp)
  80:	6105                	add	sp,sp,32
  82:	8082                	ret

00000084 <.L64>:
  84:	6001c7b7          	lui	a5,0x6001c
  88:	57cc                	lw	a1,44(a5)
  8a:	8df9                	and	a1,a1,a4
  8c:	8dc9                	or	a1,a1,a0
  8e:	d7cc                	sw	a1,44(a5)
  90:	57cc                	lw	a1,44(a5)
  92:	ff800737          	lui	a4,0xff800
  96:	fff70613          	add	a2,a4,-1 # ff7fffff <.L79+0xff7ffe97>
  9a:	00c5f733          	and	a4,a1,a2
  9e:	d7d8                	sw	a4,44(a5)
  a0:	57d8                	lw	a4,44(a5)
  a2:	8f71                	and	a4,a4,a2
  a4:	8f55                	or	a4,a4,a3
  a6:	d7d8                	sw	a4,44(a5)
  a8:	bfd1                	j	7c <.L63>

Disassembly of section .text.phy_corr_get_pwr:

00000000 <phy_corr_get_pwr>:
   0:	60006737          	lui	a4,0x60006
   4:	14872783          	lw	a5,328(a4) # 60006148 <.L79+0x60005fe0>
   8:	14c72683          	lw	a3,332(a4)
   c:	15072803          	lw	a6,336(a4)
  10:	15472883          	lw	a7,340(a4)
  14:	410685b3          	sub	a1,a3,a6
  18:	01178733          	add	a4,a5,a7
  1c:	02e70633          	mul	a2,a4,a4
  20:	411787b3          	sub	a5,a5,a7
  24:	96c2                	add	a3,a3,a6
  26:	02e71533          	mulh	a0,a4,a4
  2a:	02b58733          	mul	a4,a1,a1
  2e:	02b595b3          	mulh	a1,a1,a1
  32:	9732                	add	a4,a4,a2
  34:	00c73633          	sltu	a2,a4,a2
  38:	95aa                	add	a1,a1,a0
  3a:	00b60533          	add	a0,a2,a1
  3e:	02f78633          	mul	a2,a5,a5
  42:	02d685b3          	mul	a1,a3,a3
  46:	02f797b3          	mulh	a5,a5,a5
  4a:	95b2                	add	a1,a1,a2
  4c:	00c5b633          	sltu	a2,a1,a2
  50:	972e                	add	a4,a4,a1
  52:	00b735b3          	sltu	a1,a4,a1
  56:	8349                	srl	a4,a4,0x12
  58:	02d696b3          	mulh	a3,a3,a3
  5c:	97b6                	add	a5,a5,a3
  5e:	97b2                	add	a5,a5,a2
  60:	97aa                	add	a5,a5,a0
  62:	95be                	add	a1,a1,a5
  64:	00e59513          	sll	a0,a1,0xe
  68:	8d59                	or	a0,a0,a4
  6a:	81c9                	srl	a1,a1,0x12
  6c:	8082                	ret

Disassembly of section .text.phy_corr_pwr_sum:

00000000 <phy_corr_pwr_sum>:
   0:	1101                	add	sp,sp,-32
   2:	c64e                	sw	s3,12(sp)
   4:	85aa                	mv	a1,a0
   6:	89aa                	mv	s3,a0
   8:	4781                	li	a5,0
   a:	4701                	li	a4,0
   c:	4681                	li	a3,0
   e:	4601                	li	a2,0
  10:	4505                	li	a0,1
  12:	cc22                	sw	s0,24(sp)
  14:	ca26                	sw	s1,20(sp)
  16:	c84a                	sw	s2,16(sp)
  18:	c452                	sw	s4,8(sp)
  1a:	ce06                	sw	ra,28(sp)
  1c:	4941                	li	s2,16
  1e:	00000097          	auipc	ra,0x0
  22:	000080e7          	jalr	ra # 1e <phy_corr_pwr_sum+0x1e>
  26:	4481                	li	s1,0
  28:	4401                	li	s0,0
  2a:	00000a37          	lui	s4,0x0

0000002e <.L69>:
  2e:	000a2783          	lw	a5,0(s4) # 0 <phy_corr_pwr_sum>
  32:	3ff00593          	li	a1,1023
  36:	4505                	li	a0,1
  38:	1047a783          	lw	a5,260(a5) # 6001c104 <.L79+0x6001bf9c>
  3c:	197d                	add	s2,s2,-1
  3e:	0ff97913          	zext.b	s2,s2
  42:	9782                	jalr	a5
  44:	00000097          	auipc	ra,0x0
  48:	000080e7          	jalr	ra # 44 <.L69+0x16>
  4c:	9526                	add	a0,a0,s1
  4e:	009537b3          	sltu	a5,a0,s1
  52:	942e                	add	s0,s0,a1
  54:	943e                	add	s0,s0,a5
  56:	000a2783          	lw	a5,0(s4)
  5a:	84aa                	mv	s1,a0
  5c:	1087a783          	lw	a5,264(a5)
  60:	9782                	jalr	a5
  62:	fc0916e3          	bnez	s2,2e <.L69>
  66:	85ce                	mv	a1,s3
  68:	4501                	li	a0,0
  6a:	4781                	li	a5,0
  6c:	4701                	li	a4,0
  6e:	4681                	li	a3,0
  70:	4601                	li	a2,0
  72:	00000097          	auipc	ra,0x0
  76:	000080e7          	jalr	ra # 72 <.L69+0x44>
  7a:	0462                	sll	s0,s0,0x18
  7c:	0084d513          	srl	a0,s1,0x8
  80:	8d41                	or	a0,a0,s0
  82:	40f2                	lw	ra,28(sp)
  84:	4462                	lw	s0,24(sp)
  86:	44d2                	lw	s1,20(sp)
  88:	4942                	lw	s2,16(sp)
  8a:	49b2                	lw	s3,12(sp)
  8c:	4a22                	lw	s4,8(sp)
  8e:	6105                	add	sp,sp,32
  90:	8082                	ret

Disassembly of section .text.ble_recorrect_open:

00000000 <ble_recorrect_open>:
   0:	600127b7          	lui	a5,0x60012
   4:	8687a703          	lw	a4,-1944(a5) # 60011868 <.L79+0x60011700>
   8:	6689                	lui	a3,0x2
   a:	8f55                	or	a4,a4,a3
   c:	86e7a423          	sw	a4,-1944(a5)
  10:	8687a703          	lw	a4,-1944(a5)
  14:	6685                	lui	a3,0x1
  16:	8f55                	or	a4,a4,a3
  18:	86e7a423          	sw	a4,-1944(a5)
  1c:	8687a703          	lw	a4,-1944(a5)
  20:	02076713          	or	a4,a4,32
  24:	86e7a423          	sw	a4,-1944(a5)
  28:	8082                	ret

Disassembly of section .text.phy_2480m_opt:

00000000 <phy_2480m_opt>:
   0:	7179                	add	sp,sp,-48
   2:	ce4e                	sw	s3,28(sp)
   4:	89aa                	mv	s3,a0
   6:	6505                	lui	a0,0x1
   8:	4581                	li	a1,0
   a:	9b550513          	add	a0,a0,-1611 # 9b5 <.L79+0x84d>
   e:	d422                	sw	s0,40(sp)
  10:	d226                	sw	s1,36(sp)
  12:	d04a                	sw	s2,32(sp)
  14:	d606                	sw	ra,44(sp)
  16:	cc52                	sw	s4,24(sp)
  18:	c402                	sw	zero,8(sp)
  1a:	c602                	sw	zero,12(sp)
  1c:	00000097          	auipc	ra,0x0
  20:	000080e7          	jalr	ra # 1c <phy_2480m_opt+0x1c>
  24:	6001c737          	lui	a4,0x6001c
  28:	575c                	lw	a5,44(a4)
  2a:	010006b7          	lui	a3,0x1000
  2e:	16fd                	add	a3,a3,-1 # ffffff <.L79+0xfffe97>
  30:	8ff5                	and	a5,a5,a3
  32:	370006b7          	lui	a3,0x37000
  36:	8fd5                	or	a5,a5,a3
  38:	d75c                	sw	a5,44(a4)
  3a:	575c                	lw	a5,44(a4)
  3c:	008006b7          	lui	a3,0x800
  40:	00810913          	add	s2,sp,8
  44:	8fd5                	or	a5,a5,a3
  46:	d75c                	sw	a5,44(a4)
  48:	4481                	li	s1,0
  4a:	00000437          	lui	s0,0x0

0000004e <.L75>:
  4e:	00042783          	lw	a5,0(s0) # 0 <phy_2480m_opt>
  52:	4709                	li	a4,2
  54:	468d                	li	a3,3
  56:	1bc7a803          	lw	a6,444(a5)
  5a:	4611                	li	a2,4
  5c:	4581                	li	a1,0
  5e:	06600513          	li	a0,102
  62:	00248793          	add	a5,s1,2
  66:	9802                	jalr	a6
  68:	00042783          	lw	a5,0(s0)
  6c:	0911                	add	s2,s2,4
  6e:	1d47a783          	lw	a5,468(a5)
  72:	9782                	jalr	a5
  74:	00042783          	lw	a5,0(s0)
  78:	4601                	li	a2,0
  7a:	4585                	li	a1,1
  7c:	1cc7a783          	lw	a5,460(a5)
  80:	4505                	li	a0,1
  82:	9782                	jalr	a5
  84:	06400513          	li	a0,100
  88:	00000097          	auipc	ra,0x0
  8c:	000080e7          	jalr	ra # 88 <.L75+0x3a>
  90:	00042783          	lw	a5,0(s0)
  94:	18900613          	li	a2,393
  98:	4585                	li	a1,1
  9a:	1cc7a783          	lw	a5,460(a5)
  9e:	4505                	li	a0,1
  a0:	9782                	jalr	a5
  a2:	00042783          	lw	a5,0(s0)
  a6:	1d87a783          	lw	a5,472(a5)
  aa:	9782                	jalr	a5
  ac:	4601                	li	a2,0
  ae:	03700593          	li	a1,55
  b2:	4505                	li	a0,1
  b4:	00000097          	auipc	ra,0x0
  b8:	000080e7          	jalr	ra # b4 <.L75+0x66>
  bc:	06400513          	li	a0,100
  c0:	00000097          	auipc	ra,0x0
  c4:	000080e7          	jalr	ra # c0 <.L75+0x72>
  c8:	08000513          	li	a0,128
  cc:	00000097          	auipc	ra,0x0
  d0:	000080e7          	jalr	ra # cc <.L75+0x7e>
  d4:	fea92e23          	sw	a0,-4(s2)
  d8:	c8c1                	beqz	s1,168 <.L79>
  da:	4922                	lw	s2,8(sp)
  dc:	4a32                	lw	s4,12(sp)
  de:	4489                	li	s1,2
  e0:	01496363          	bltu	s2,s4,e6 <.L76>
  e4:	448d                	li	s1,3

000000e6 <.L76>:
  e6:	00042783          	lw	a5,0(s0)
  ea:	4709                	li	a4,2
  ec:	468d                	li	a3,3
  ee:	1bc7a803          	lw	a6,444(a5)
  f2:	4611                	li	a2,4
  f4:	87a6                	mv	a5,s1
  f6:	4581                	li	a1,0
  f8:	06600513          	li	a0,102
  fc:	9802                	jalr	a6
  fe:	00042783          	lw	a5,0(s0)
 102:	4611                	li	a2,4
 104:	4581                	li	a1,0
 106:	1ac7a783          	lw	a5,428(a5)
 10a:	06600513          	li	a0,102
 10e:	00000437          	lui	s0,0x0
 112:	9782                	jalr	a5
 114:	00040793          	mv	a5,s0
 118:	30a78ea3          	sb	a0,797(a5)
 11c:	00040413          	mv	s0,s0
 120:	00098d63          	beqz	s3,13a <.L77>
 124:	00000537          	lui	a0,0x0
 128:	86d2                	mv	a3,s4
 12a:	864a                	mv	a2,s2
 12c:	85a6                	mv	a1,s1
 12e:	00050513          	mv	a0,a0
 132:	00000097          	auipc	ra,0x0
 136:	000080e7          	jalr	ra # 132 <.L76+0x4c>

0000013a <.L77>:
 13a:	6001c6b7          	lui	a3,0x6001c
 13e:	56dc                	lw	a5,44(a3)
 140:	ff800737          	lui	a4,0xff800
 144:	177d                	add	a4,a4,-1 # ff7fffff <.L79+0xff7ffe97>
 146:	8ff9                	and	a5,a5,a4
 148:	d6dc                	sw	a5,44(a3)
 14a:	1f440583          	lb	a1,500(s0) # 1f4 <.L79+0x8c>
 14e:	1f240503          	lb	a0,498(s0)
 152:	5422                	lw	s0,40(sp)
 154:	50b2                	lw	ra,44(sp)
 156:	5492                	lw	s1,36(sp)
 158:	5902                	lw	s2,32(sp)
 15a:	49f2                	lw	s3,28(sp)
 15c:	4a62                	lw	s4,24(sp)
 15e:	6145                	add	sp,sp,48
 160:	00000317          	auipc	t1,0x0
 164:	00030067          	jr	t1 # 160 <.L77+0x26>

00000168 <.L79>:
 168:	4485                	li	s1,1
 16a:	b5d5                	j	4e <.L75>

Disassembly of section .text.tx_2400_opt:

00000000 <tx_2400_opt>:
   0:	7179                	add	sp,sp,-48
   2:	c462                	sw	s8,8(sp)
   4:	00000c37          	lui	s8,0x0
   8:	000c2783          	lw	a5,0(s8) # 0 <tx_2400_opt>
   c:	d606                	sw	ra,44(sp)
   e:	d226                	sw	s1,36(sp)
  10:	1b87a783          	lw	a5,440(a5)
  14:	d04a                	sw	s2,32(sp)
  16:	ce4e                	sw	s3,28(sp)
  18:	cc52                	sw	s4,24(sp)
  1a:	ca56                	sw	s5,20(sp)
  1c:	c85a                	sw	s6,16(sp)
  1e:	c65e                	sw	s7,12(sp)
  20:	4701                	li	a4,0
  22:	4691                	li	a3,4
  24:	4619                	li	a2,6
  26:	4581                	li	a1,0
  28:	d422                	sw	s0,40(sp)
  2a:	c266                	sw	s9,4(sp)
  2c:	c06a                	sw	s10,0(sp)
  2e:	06d00513          	li	a0,109
  32:	9782                	jalr	a5
  34:	000c2783          	lw	a5,0(s8)
  38:	00000937          	lui	s2,0x0
  3c:	00a91023          	sh	a0,0(s2) # 0 <tx_2400_opt>
  40:	1bc7a803          	lw	a6,444(a5)
  44:	470d                	li	a4,3
  46:	4785                	li	a5,1
  48:	468d                	li	a3,3
  4a:	461d                	li	a2,7
  4c:	4585                	li	a1,1
  4e:	06900513          	li	a0,105
  52:	000009b7          	lui	s3,0x0
  56:	9802                	jalr	a6
  58:	4481                	li	s1,0
  5a:	00090913          	mv	s2,s2
  5e:	4afd                	li	s5,31
  60:	4a21                	li	s4,8
  62:	06400b13          	li	s6,100
  66:	00098993          	mv	s3,s3
  6a:	08400b93          	li	s7,132

0000006e <.L90>:
  6e:	00094703          	lbu	a4,0(s2)
  72:	9726                	add	a4,a4,s1
  74:	0ff77713          	zext.b	a4,a4
  78:	0ff77793          	zext.b	a5,a4
  7c:	00eaf363          	bgeu	s5,a4,82 <.L86>
  80:	47fd                	li	a5,31

00000082 <.L86>:
  82:	000c2703          	lw	a4,0(s8)
  86:	4691                	li	a3,4
  88:	4619                	li	a2,6
  8a:	1bc72803          	lw	a6,444(a4)
  8e:	4581                	li	a1,0
  90:	4701                	li	a4,0
  92:	06d00513          	li	a0,109
  96:	9802                	jalr	a6
  98:	4c91                	li	s9,4

0000009a <.L88>:
  9a:	000c2783          	lw	a5,0(s8)
  9e:	4701                	li	a4,0
  a0:	4685                	li	a3,1
  a2:	1bc7a803          	lw	a6,444(a5)
  a6:	461d                	li	a2,7
  a8:	4789                	li	a5,2
  aa:	4585                	li	a1,1
  ac:	06900513          	li	a0,105
  b0:	9802                	jalr	a6
  b2:	4529                	li	a0,10
  b4:	00000097          	auipc	ra,0x0
  b8:	000080e7          	jalr	ra # b4 <.L88+0x1a>
  bc:	4d21                	li	s10,8
  be:	4401                	li	s0,0

000000c0 <.L87>:
  c0:	000c2783          	lw	a5,0(s8)
  c4:	450d                	li	a0,3
  c6:	1d7d                	add	s10,s10,-1
  c8:	1507a783          	lw	a5,336(a5)
  cc:	0ffd7d13          	zext.b	s10,s10
  d0:	9782                	jalr	a5
  d2:	942a                	add	s0,s0,a0
  d4:	0442                	sll	s0,s0,0x10
  d6:	8041                	srl	s0,s0,0x10
  d8:	fe0d14e3          	bnez	s10,c0 <.L87>
  dc:	1cfd                	add	s9,s9,-1
  de:	0ffcfc93          	zext.b	s9,s9
  e2:	fa0c9ce3          	bnez	s9,9a <.L88>
  e6:	800d                	srl	s0,s0,0x3
  e8:	03640433          	mul	s0,s0,s6
  ec:	0de9d783          	lhu	a5,222(s3) # de <.L87+0x1e>
  f0:	02f44433          	div	s0,s0,a5
  f4:	0442                	sll	s0,s0,0x10
  f6:	8041                	srl	s0,s0,0x10
  f8:	008be763          	bltu	s7,s0,106 <.L89>
  fc:	0485                	add	s1,s1,1
  fe:	0ff4f493          	zext.b	s1,s1
 102:	f74496e3          	bne	s1,s4,6e <.L90>

00000106 <.L89>:
 106:	000c2783          	lw	a5,0(s8)
 10a:	4701                	li	a4,0
 10c:	4691                	li	a3,4
 10e:	1b87a783          	lw	a5,440(a5)
 112:	4619                	li	a2,6
 114:	4581                	li	a1,0
 116:	06d00513          	li	a0,109
 11a:	9782                	jalr	a5
 11c:	000007b7          	lui	a5,0x0
 120:	00a79023          	sh	a0,0(a5) # 0 <tx_2400_opt>
 124:	000c2783          	lw	a5,0(s8)
 128:	4701                	li	a4,0
 12a:	4691                	li	a3,4
 12c:	1bc7a803          	lw	a6,444(a5)
 130:	00094783          	lbu	a5,0(s2)
 134:	4619                	li	a2,6
 136:	4581                	li	a1,0
 138:	06d00513          	li	a0,109
 13c:	9802                	jalr	a6
 13e:	000c2783          	lw	a5,0(s8)
 142:	470d                	li	a4,3
 144:	468d                	li	a3,3
 146:	1bc7a803          	lw	a6,444(a5)
 14a:	461d                	li	a2,7
 14c:	4781                	li	a5,0
 14e:	4585                	li	a1,1
 150:	06900513          	li	a0,105
 154:	9802                	jalr	a6
 156:	000c2783          	lw	a5,0(s8)
 15a:	5422                	lw	s0,40(sp)
 15c:	50b2                	lw	ra,44(sp)
 15e:	1bc7a303          	lw	t1,444(a5)
 162:	5492                	lw	s1,36(sp)
 164:	5902                	lw	s2,32(sp)
 166:	49f2                	lw	s3,28(sp)
 168:	4a62                	lw	s4,24(sp)
 16a:	4ad2                	lw	s5,20(sp)
 16c:	4b42                	lw	s6,16(sp)
 16e:	4bb2                	lw	s7,12(sp)
 170:	4c22                	lw	s8,8(sp)
 172:	4c92                	lw	s9,4(sp)
 174:	4d02                	lw	s10,0(sp)
 176:	4781                	li	a5,0
 178:	4701                	li	a4,0
 17a:	4685                	li	a3,1
 17c:	461d                	li	a2,7
 17e:	4585                	li	a1,1
 180:	06900513          	li	a0,105
 184:	6145                	add	sp,sp,48
 186:	8302                	jr	t1

Disassembly of section .text.test_div_adc:

00000000 <test_div_adc>:
   0:	711d                	add	sp,sp,-96
   2:	02800613          	li	a2,40
   6:	c0da                	sw	s6,64(sp)
   8:	de5e                	sw	s7,60(sp)
   a:	8b2a                	mv	s6,a0
   c:	8bae                	mv	s7,a1
   e:	0028                	add	a0,sp,8
  10:	4581                	li	a1,0
  12:	ce86                	sw	ra,92(sp)
  14:	cca2                	sw	s0,88(sp)
  16:	caa6                	sw	s1,84(sp)
  18:	c4d2                	sw	s4,72(sp)
  1a:	c2d6                	sw	s5,68(sp)
  1c:	dc62                	sw	s8,56(sp)
  1e:	da66                	sw	s9,52(sp)
  20:	6a05                	lui	s4,0x1
  22:	c8ca                	sw	s2,80(sp)
  24:	c6ce                	sw	s3,76(sp)
  26:	00000097          	auipc	ra,0x0
  2a:	000080e7          	jalr	ra # 26 <test_div_adc+0x26>
  2e:	9b5a0513          	add	a0,s4,-1611 # 9b5 <.L79+0x84d>
  32:	4581                	li	a1,0
  34:	00000097          	auipc	ra,0x0
  38:	000080e7          	jalr	ra # 34 <test_div_adc+0x34>
  3c:	4601                	li	a2,0
  3e:	03700593          	li	a1,55
  42:	4505                	li	a0,1
  44:	00000097          	auipc	ra,0x0
  48:	000080e7          	jalr	ra # 44 <test_div_adc+0x44>
  4c:	4481                	li	s1,0
  4e:	00000437          	lui	s0,0x0
  52:	03010a93          	add	s5,sp,48
  56:	bb8a0a13          	add	s4,s4,-1096
  5a:	00000c37          	lui	s8,0x0
  5e:	4ca9                	li	s9,10

00000060 <.L100>:
  60:	00042783          	lw	a5,0(s0) # 0 <test_div_adc>
  64:	4709                	li	a4,2
  66:	468d                	li	a3,3
  68:	1bc7a803          	lw	a6,444(a5)
  6c:	4611                	li	a2,4
  6e:	00248793          	add	a5,s1,2
  72:	4581                	li	a1,0
  74:	06600513          	li	a0,102
  78:	0ff4f913          	zext.b	s2,s1
  7c:	9802                	jalr	a6
  7e:	020b0e63          	beqz	s6,ba <.L97>
  82:	00042783          	lw	a5,0(s0)
  86:	1d47a783          	lw	a5,468(a5)
  8a:	9782                	jalr	a5
  8c:	00042783          	lw	a5,0(s0)
  90:	865e                	mv	a2,s7
  92:	4585                	li	a1,1
  94:	1cc7a783          	lw	a5,460(a5)
  98:	4505                	li	a0,1
  9a:	9782                	jalr	a5
  9c:	06400513          	li	a0,100
  a0:	00000097          	auipc	ra,0x0
  a4:	000080e7          	jalr	ra # a0 <.L100+0x40>
  a8:	00042783          	lw	a5,0(s0)
  ac:	18900613          	li	a2,393
  b0:	4585                	li	a1,1
  b2:	1cc7a783          	lw	a5,460(a5)
  b6:	4505                	li	a0,1
  b8:	9782                	jalr	a5

000000ba <.L97>:
  ba:	85ca                	mv	a1,s2
  bc:	460d                	li	a2,3
  be:	4509                	li	a0,2
  c0:	00000097          	auipc	ra,0x0
  c4:	000080e7          	jalr	ra # c0 <.L97+0x6>
  c8:	06400513          	li	a0,100
  cc:	00810993          	add	s3,sp,8
  d0:	00000097          	auipc	ra,0x0
  d4:	000080e7          	jalr	ra # d0 <.L97+0x16>
  d8:	894e                	mv	s2,s3

000000da <.L98>:
  da:	08000513          	li	a0,128
  de:	00000097          	auipc	ra,0x0
  e2:	000080e7          	jalr	ra # de <.L98+0x4>
  e6:	00a92023          	sw	a0,0(s2)
  ea:	8552                	mv	a0,s4
  ec:	0911                	add	s2,s2,4
  ee:	00000097          	auipc	ra,0x0
  f2:	000080e7          	jalr	ra # ee <.L98+0x14>
  f6:	ff5912e3          	bne	s2,s5,da <.L98>
  fa:	4901                	li	s2,0

000000fc <.L99>:
  fc:	0009a683          	lw	a3,0(s3)
 100:	864a                	mv	a2,s2
 102:	85a6                	mv	a1,s1
 104:	000c0513          	mv	a0,s8
 108:	0905                	add	s2,s2,1
 10a:	00000097          	auipc	ra,0x0
 10e:	000080e7          	jalr	ra # 10a <.L99+0xe>
 112:	0991                	add	s3,s3,4
 114:	ff9914e3          	bne	s2,s9,fc <.L99>
 118:	c895                	beqz	s1,14c <.L102>
 11a:	00042783          	lw	a5,0(s0)
 11e:	1d87a783          	lw	a5,472(a5)
 122:	9782                	jalr	a5
 124:	4466                	lw	s0,88(sp)
 126:	40f6                	lw	ra,92(sp)
 128:	44d6                	lw	s1,84(sp)
 12a:	4946                	lw	s2,80(sp)
 12c:	49b6                	lw	s3,76(sp)
 12e:	4a26                	lw	s4,72(sp)
 130:	4a96                	lw	s5,68(sp)
 132:	4b06                	lw	s6,64(sp)
 134:	5bf2                	lw	s7,60(sp)
 136:	5c62                	lw	s8,56(sp)
 138:	5cd2                	lw	s9,52(sp)
 13a:	4601                	li	a2,0
 13c:	03700593          	li	a1,55
 140:	4501                	li	a0,0
 142:	6125                	add	sp,sp,96
 144:	00000317          	auipc	t1,0x0
 148:	00030067          	jr	t1 # 144 <.L99+0x48>

0000014c <.L102>:
 14c:	4485                	li	s1,1
 14e:	bf09                	j	60 <.L100>

Disassembly of section .text.get_tx_rate:

00000000 <get_tx_rate>:
   0:	6000e7b7          	lui	a5,0x6000e
   4:	53a8                	lw	a0,96(a5)
   6:	8161                	srl	a0,a0,0x18
   8:	07f57513          	and	a0,a0,127
   c:	8082                	ret

Disassembly of section .text.get_tx_rate_pwr:

00000000 <get_tx_rate_pwr>:
   0:	1141                	add	sp,sp,-16
   2:	c606                	sw	ra,12(sp)
   4:	00000097          	auipc	ra,0x0
   8:	000080e7          	jalr	ra # 4 <get_tx_rate_pwr+0x4>
   c:	00355793          	srl	a5,a0,0x3
  10:	18002737          	lui	a4,0x18002
  14:	86070713          	add	a4,a4,-1952 # 18001860 <.L79+0x180016f8>
  18:	0ff7f793          	zext.b	a5,a5
  1c:	97ba                	add	a5,a5,a4
  1e:	078a                	sll	a5,a5,0x2
  20:	4398                	lw	a4,0(a5)
  22:	891d                	and	a0,a0,7
  24:	050a                	sll	a0,a0,0x2
  26:	47bd                	li	a5,15
  28:	00a797b3          	sll	a5,a5,a0
  2c:	8ff9                	and	a5,a5,a4
  2e:	00a7d7b3          	srl	a5,a5,a0
  32:	40b2                	lw	ra,12(sp)
  34:	00000737          	lui	a4,0x0
  38:	0ff7f793          	zext.b	a5,a5
  3c:	00070713          	mv	a4,a4
  40:	97ba                	add	a5,a5,a4
  42:	0f47c503          	lbu	a0,244(a5) # 6000e0f4 <.L79+0x6000df8c>
  46:	0141                	add	sp,sp,16
  48:	8082                	ret

Disassembly of section .text.cpu_reset:

00000000 <cpu_reset>:
   0:	60008737          	lui	a4,0x60008
   4:	431c                	lw	a5,0(a4)
   6:	0207e793          	or	a5,a5,32
   a:	c31c                	sw	a5,0(a4)
   c:	8082                	ret

Disassembly of section .text.phy_close_lna:

00000000 <phy_close_lna>:
   0:	1141                	add	sp,sp,-16
   2:	c422                	sw	s0,8(sp)
   4:	c606                	sw	ra,12(sp)
   6:	00000437          	lui	s0,0x0
   a:	00042783          	lw	a5,0(s0) # 0 <phy_close_lna>
   e:	cd19                	beqz	a0,2c <.L114>
  10:	1d47a783          	lw	a5,468(a5)
  14:	9782                	jalr	a5
  16:	00042783          	lw	a5,0(s0)
  1a:	4422                	lw	s0,8(sp)
  1c:	40b2                	lw	ra,12(sp)
  1e:	1cc7a303          	lw	t1,460(a5)
  22:	4601                	li	a2,0
  24:	4585                	li	a1,1
  26:	4501                	li	a0,0
  28:	0141                	add	sp,sp,16
  2a:	8302                	jr	t1

0000002c <.L114>:
  2c:	1d87a783          	lw	a5,472(a5)
  30:	9782                	jalr	a5
  32:	600267b7          	lui	a5,0x60026
  36:	47d8                	lw	a4,12(a5)
  38:	40b2                	lw	ra,12(sp)
  3a:	4422                	lw	s0,8(sp)
  3c:	9b75                	and	a4,a4,-3
  3e:	c7d8                	sw	a4,12(a5)
  40:	47d8                	lw	a4,12(a5)
  42:	00276713          	or	a4,a4,2
  46:	c7d8                	sw	a4,12(a5)
  48:	0141                	add	sp,sp,16
  4a:	8082                	ret

Disassembly of section .text.freq_stable_test:

00000000 <freq_stable_test>:
   0:	1141                	add	sp,sp,-16
   2:	c606                	sw	ra,12(sp)

00000004 <.L117>:
   4:	4629                	li	a2,10
   6:	4581                	li	a1,0
   8:	4505                	li	a0,1
   a:	00000097          	auipc	ra,0x0
   e:	000080e7          	jalr	ra # a <.L117+0x6>
  12:	4781                	li	a5,0
  14:	4701                	li	a4,0
  16:	4681                	li	a3,0
  18:	03c00613          	li	a2,60
  1c:	08000593          	li	a1,128
  20:	4505                	li	a0,1
  22:	00000097          	auipc	ra,0x0
  26:	000080e7          	jalr	ra # 22 <.L117+0x1e>
  2a:	4601                	li	a2,0
  2c:	4581                	li	a1,0
  2e:	4531                	li	a0,12
  30:	00000097          	auipc	ra,0x0
  34:	000080e7          	jalr	ra # 30 <.L117+0x2c>
  38:	03c00513          	li	a0,60
  3c:	00000097          	auipc	ra,0x0
  40:	000080e7          	jalr	ra # 3c <.L117+0x38>
  44:	4781                	li	a5,0
  46:	4701                	li	a4,0
  48:	4681                	li	a3,0
  4a:	03c00613          	li	a2,60
  4e:	08000593          	li	a1,128
  52:	4501                	li	a0,0
  54:	00000097          	auipc	ra,0x0
  58:	000080e7          	jalr	ra # 54 <.L117+0x50>
  5c:	4629                	li	a2,10
  5e:	4581                	li	a1,0
  60:	4501                	li	a0,0
  62:	00000097          	auipc	ra,0x0
  66:	000080e7          	jalr	ra # 62 <.L117+0x5e>
  6a:	4601                	li	a2,0
  6c:	4581                	li	a1,0
  6e:	05400513          	li	a0,84
  72:	00000097          	auipc	ra,0x0
  76:	000080e7          	jalr	ra # 72 <.L117+0x6e>
  7a:	03c00513          	li	a0,60
  7e:	00000097          	auipc	ra,0x0
  82:	000080e7          	jalr	ra # 7e <.L117+0x7a>
  86:	00000097          	auipc	ra,0x0
  8a:	000080e7          	jalr	ra # 86 <.L117+0x82>
  8e:	f93d                	bnez	a0,4 <.L117>
  90:	40b2                	lw	ra,12(sp)
  92:	0141                	add	sp,sp,16
  94:	8082                	ret

esp_phy_api.o:     file format elf32-littleriscv


Disassembly of section .text.esp_phy_rftest_config:

00000000 <esp_phy_rftest_config>:
   0:	00000317          	auipc	t1,0x0
   4:	00030067          	jr	t1 # 0 <esp_phy_rftest_config>

Disassembly of section .text.esp_phy_rftest_init:

00000000 <esp_phy_rftest_init>:
   0:	00000317          	auipc	t1,0x0
   4:	00030067          	jr	t1 # 0 <esp_phy_rftest_init>

Disassembly of section .text.esp_phy_tx_contin_en:

00000000 <esp_phy_tx_contin_en>:
   0:	00000317          	auipc	t1,0x0
   4:	00030067          	jr	t1 # 0 <esp_phy_tx_contin_en>

Disassembly of section .text.esp_phy_cbw40m_en:

00000000 <esp_phy_cbw40m_en>:
   0:	00000317          	auipc	t1,0x0
   4:	00030067          	jr	t1 # 0 <esp_phy_cbw40m_en>

Disassembly of section .text.esp_phy_wifi_tx:

00000000 <esp_phy_wifi_tx>:
   0:	7179                	add	sp,sp,-48
   2:	c42a                	sw	a0,8(sp)
   4:	c62e                	sw	a1,12(sp)
   6:	0028                	add	a0,sp,8
   8:	4599                	li	a1,6
   a:	d606                	sw	ra,44(sp)
   c:	c832                	sw	a2,16(sp)
   e:	ca36                	sw	a3,20(sp)
  10:	cc3a                	sw	a4,24(sp)
  12:	ce3e                	sw	a5,28(sp)
  14:	00000097          	auipc	ra,0x0
  18:	000080e7          	jalr	ra # 14 <esp_phy_wifi_tx+0x14>
  1c:	50b2                	lw	ra,44(sp)
  1e:	6145                	add	sp,sp,48
  20:	8082                	ret

Disassembly of section .text.esp_phy_wifi_rx:

00000000 <esp_phy_wifi_rx>:
   0:	1101                	add	sp,sp,-32
   2:	c42a                	sw	a0,8(sp)
   4:	0028                	add	a0,sp,8
   6:	ce06                	sw	ra,28(sp)
   8:	c62e                	sw	a1,12(sp)
   a:	00000097          	auipc	ra,0x0
   e:	000080e7          	jalr	ra # a <esp_phy_wifi_rx+0xa>
  12:	40f2                	lw	ra,28(sp)
  14:	6105                	add	sp,sp,32
  16:	8082                	ret

Disassembly of section .text.esp_phy_get_rx_result:

00000000 <esp_phy_get_rx_result>:
   0:	000007b7          	lui	a5,0x0
   4:	0007a703          	lw	a4,0(a5) # 0 <esp_phy_get_rx_result>
   8:	00078793          	mv	a5,a5
   c:	c118                	sw	a4,0(a0)
   e:	43d8                	lw	a4,4(a5)
  10:	479c                	lw	a5,8(a5)
  12:	c158                	sw	a4,4(a0)
  14:	c51c                	sw	a5,8(a0)
  16:	000007b7          	lui	a5,0x0
  1a:	0007c783          	lbu	a5,0(a5) # 0 <esp_phy_get_rx_result>
  1e:	c55c                	sw	a5,12(a0)
  20:	8082                	ret

Disassembly of section .text.esp_phy_wifi_tx_tone:

00000000 <esp_phy_wifi_tx_tone>:
   0:	1101                	add	sp,sp,-32
   2:	c22a                	sw	a0,4(sp)
   4:	0048                	add	a0,sp,4
   6:	ce06                	sw	ra,28(sp)
   8:	c42e                	sw	a1,8(sp)
   a:	c632                	sw	a2,12(sp)
   c:	00000097          	auipc	ra,0x0
  10:	000080e7          	jalr	ra # c <esp_phy_wifi_tx_tone+0xc>
  14:	40f2                	lw	ra,28(sp)
  16:	6105                	add	sp,sp,32
  18:	8082                	ret

Disassembly of section .text.esp_phy_short_gi_en:

00000000 <esp_phy_short_gi_en>:
   0:	000007b7          	lui	a5,0x0
   4:	85aa                	mv	a1,a0
   6:	00a7a023          	sw	a0,0(a5) # 0 <esp_phy_short_gi_en>
   a:	00000537          	lui	a0,0x0
   e:	00050513          	mv	a0,a0
  12:	00000317          	auipc	t1,0x0
  16:	00030067          	jr	t1 # 12 <esp_phy_short_gi_en+0x12>

Disassembly of section .text.esp_phy_ble_tx:

00000000 <esp_phy_ble_tx>:
   0:	00000317          	auipc	t1,0x0
   4:	00030067          	jr	t1 # 0 <esp_phy_ble_tx>

Disassembly of section .text.esp_phy_ble_rx:

00000000 <esp_phy_ble_rx>:
   0:	00000317          	auipc	t1,0x0
   4:	00030067          	jr	t1 # 0 <esp_phy_ble_rx>

Disassembly of section .text.esp_phy_bt_tx_tone:

00000000 <esp_phy_bt_tx_tone>:
   0:	00000317          	auipc	t1,0x0
   4:	00030067          	jr	t1 # 0 <esp_phy_bt_tx_tone>

bb_common.o:     file format elf32-littleriscv


Disassembly of section .text.delay_ns:

00000000 <delay_ns>:
   0:	8082                	ret

Disassembly of section .text.tx_add_pocketnum:

00000000 <tx_add_pocketnum>:
   0:	000007b7          	lui	a5,0x0
   4:	00000737          	lui	a4,0x0
   8:	0007a683          	lw	a3,0(a5) # 0 <tx_add_pocketnum>
   c:	00075783          	lhu	a5,0(a4) # 0 <tx_add_pocketnum>
  10:	00000637          	lui	a2,0x0
  14:	00060613          	mv	a2,a2
  18:	e399                	bnez	a5,1e <.L3>
  1a:	00061023          	sh	zero,0(a2) # 0 <tx_add_pocketnum>

0000001e <.L3>:
  1e:	00065603          	lhu	a2,0(a2)
  22:	00479593          	sll	a1,a5,0x4
  26:	00b68b23          	sb	a1,22(a3)
  2a:	0047d593          	srl	a1,a5,0x4
  2e:	0785                	add	a5,a5,1
  30:	00b68ba3          	sb	a1,23(a3)
  34:	07c2                	sll	a5,a5,0x10
  36:	00865593          	srl	a1,a2,0x8
  3a:	02b68023          	sb	a1,32(a3)
  3e:	02c680a3          	sb	a2,33(a3)
  42:	83c1                	srl	a5,a5,0x10
  44:	6685                	lui	a3,0x1
  46:	00d7f563          	bgeu	a5,a3,50 <.L4>
  4a:	00f71023          	sh	a5,0(a4)
  4e:	8082                	ret

00000050 <.L4>:
  50:	00071023          	sh	zero,0(a4)
  54:	8082                	ret

Disassembly of section .text.trig_tx_frame:

00000000 <trig_tx_frame>:
   0:	1141                	add	sp,sp,-16
   2:	c422                	sw	s0,8(sp)
   4:	00000437          	lui	s0,0x0
   8:	00040413          	mv	s0,s0
   c:	4008                	lw	a0,0(s0)
   e:	c606                	sw	ra,12(sp)
  10:	c226                	sw	s1,4(sp)
  12:	00000097          	auipc	ra,0x0
  16:	000080e7          	jalr	ra # 12 <trig_tx_frame+0x12>
  1a:	84aa                	mv	s1,a0
  1c:	4008                	lw	a0,0(s0)
  1e:	00000097          	auipc	ra,0x0
  22:	000080e7          	jalr	ra # 1e <trig_tx_frame+0x1e>
  26:	000007b7          	lui	a5,0x0
  2a:	0007c783          	lbu	a5,0(a5) # 0 <trig_tx_frame>
  2e:	c3ad                	beqz	a5,90 <.L6>
  30:	600347b7          	lui	a5,0x60034
  34:	c3c7a703          	lw	a4,-964(a5) # 60033c3c <.L192+0x6003346c>
  38:	8b09                	and	a4,a4,2
  3a:	cb39                	beqz	a4,90 <.L6>
  3c:	00000737          	lui	a4,0x0
  40:	60035637          	lui	a2,0x60035
  44:	00070713          	mv	a4,a4
  48:	430c                	lw	a1,0(a4)
  4a:	4214                	lw	a3,0(a2)
  4c:	8e8d                	sub	a3,a3,a1
  4e:	000005b7          	lui	a1,0x0
  52:	0005a583          	lw	a1,0(a1) # 0 <trig_tx_frame>
  56:	02d5fd63          	bgeu	a1,a3,90 <.L6>
  5a:	c347a683          	lw	a3,-972(a5)
  5e:	0026e693          	or	a3,a3,2
  62:	c2d7aa23          	sw	a3,-972(a5)
  66:	c407a683          	lw	a3,-960(a5)
  6a:	0036e693          	or	a3,a3,3
  6e:	c4d7a023          	sw	a3,-960(a5)
  72:	411c                	lw	a5,0(a0)
  74:	ffc016b7          	lui	a3,0xffc01
  78:	16fd                	add	a3,a3,-1 # ffc00fff <.L192+0xffc0082f>
  7a:	8ff5                	and	a5,a5,a3
  7c:	6685                	lui	a3,0x1
  7e:	8fd5                	or	a5,a5,a3
  80:	c11c                	sw	a5,0(a0)
  82:	409c                	lw	a5,0(s1)
  84:	c00006b7          	lui	a3,0xc0000
  88:	8fd5                	or	a5,a5,a3
  8a:	c09c                	sw	a5,0(s1)
  8c:	421c                	lw	a5,0(a2)
  8e:	c31c                	sw	a5,0(a4)

00000090 <.L6>:
  90:	40b2                	lw	ra,12(sp)
  92:	4422                	lw	s0,8(sp)
  94:	4492                	lw	s1,4(sp)
  96:	0141                	add	sp,sp,16
  98:	8082                	ret

Disassembly of section .text.tx_a_frame_trig:

00000000 <tx_a_frame_trig>:
   0:	1141                	add	sp,sp,-16
   2:	4529                	li	a0,10
   4:	c606                	sw	ra,12(sp)
   6:	c422                	sw	s0,8(sp)
   8:	00000097          	auipc	ra,0x0
   c:	000080e7          	jalr	ra # 8 <tx_a_frame_trig+0x8>
  10:	842a                	mv	s0,a0
  12:	4529                	li	a0,10
  14:	00000097          	auipc	ra,0x0
  18:	000080e7          	jalr	ra # 14 <tx_a_frame_trig+0x14>
  1c:	000007b7          	lui	a5,0x0
  20:	4729                	li	a4,10
  22:	00e7a023          	sw	a4,0(a5) # 0 <tx_a_frame_trig>
  26:	600347b7          	lui	a5,0x60034
  2a:	c347a703          	lw	a4,-972(a5) # 60033c34 <.L192+0x60033464>
  2e:	40b2                	lw	ra,12(sp)
  30:	00276713          	or	a4,a4,2
  34:	c2e7aa23          	sw	a4,-972(a5)
  38:	c407a703          	lw	a4,-960(a5)
  3c:	00376713          	or	a4,a4,3
  40:	c4e7a023          	sw	a4,-960(a5)
  44:	411c                	lw	a5,0(a0)
  46:	ffc01737          	lui	a4,0xffc01
  4a:	177d                	add	a4,a4,-1 # ffc00fff <.L192+0xffc0082f>
  4c:	8ff9                	and	a5,a5,a4
  4e:	6705                	lui	a4,0x1
  50:	8fd9                	or	a5,a5,a4
  52:	c11c                	sw	a5,0(a0)
  54:	401c                	lw	a5,0(s0)
  56:	c0000737          	lui	a4,0xc0000
  5a:	8fd9                	or	a5,a5,a4
  5c:	c01c                	sw	a5,0(s0)
  5e:	4422                	lw	s0,8(sp)
  60:	0141                	add	sp,sp,16
  62:	8082                	ret

Disassembly of section .text.tx_a_frame:

00000000 <tx_a_frame>:
   0:	7179                	add	sp,sp,-48
   2:	d606                	sw	ra,44(sp)
   4:	d422                	sw	s0,40(sp)
   6:	d226                	sw	s1,36(sp)
   8:	842a                	mv	s0,a0
   a:	d04a                	sw	s2,32(sp)
   c:	ce4e                	sw	s3,28(sp)
   e:	ca56                	sw	s5,20(sp)
  10:	c85a                	sw	s6,16(sp)
  12:	c65e                	sw	s7,12(sp)
  14:	cc52                	sw	s4,24(sp)
  16:	00000097          	auipc	ra,0x0
  1a:	000080e7          	jalr	ra # 16 <tx_a_frame+0x16>
  1e:	84aa                	mv	s1,a0
  20:	8522                	mv	a0,s0
  22:	00000097          	auipc	ra,0x0
  26:	000080e7          	jalr	ra # 22 <tx_a_frame+0x22>
  2a:	000007b7          	lui	a5,0x0
  2e:	0087a023          	sw	s0,0(a5) # 0 <tx_a_frame>
  32:	600347b7          	lui	a5,0x60034
  36:	c347a703          	lw	a4,-972(a5) # 60033c34 <.L192+0x60033464>
  3a:	0007a9b7          	lui	s3,0x7a
  3e:	892a                	mv	s2,a0
  40:	00276713          	or	a4,a4,2
  44:	c2e7aa23          	sw	a4,-972(a5)
  48:	c407a703          	lw	a4,-960(a5)
  4c:	60034437          	lui	s0,0x60034
  50:	00000b37          	lui	s6,0x0
  54:	00376713          	or	a4,a4,3
  58:	c4e7a023          	sw	a4,-960(a5)
  5c:	411c                	lw	a5,0(a0)
  5e:	ffc01737          	lui	a4,0xffc01
  62:	177d                	add	a4,a4,-1 # ffc00fff <.L192+0xffc0082f>
  64:	8ff9                	and	a5,a5,a4
  66:	6705                	lui	a4,0x1
  68:	8fd9                	or	a5,a5,a4
  6a:	c11c                	sw	a5,0(a0)
  6c:	409c                	lw	a5,0(s1)
  6e:	c0000737          	lui	a4,0xc0000
  72:	60035bb7          	lui	s7,0x60035
  76:	8fd9                	or	a5,a5,a4
  78:	c09c                	sw	a5,0(s1)
  7a:	600357b7          	lui	a5,0x60035
  7e:	0007aa83          	lw	s5,0(a5) # 60035000 <.L192+0x60034830>
  82:	11f98993          	add	s3,s3,287 # 7a11f <.L192+0x7994f>

00000086 <.L20>:
  86:	c3c42783          	lw	a5,-964(s0) # 60033c3c <.L192+0x6003346c>
  8a:	8b89                	and	a5,a5,2
  8c:	cf81                	beqz	a5,a4 <.L19>
  8e:	50b2                	lw	ra,44(sp)
  90:	5422                	lw	s0,40(sp)
  92:	5492                	lw	s1,36(sp)
  94:	5902                	lw	s2,32(sp)
  96:	49f2                	lw	s3,28(sp)
  98:	4a62                	lw	s4,24(sp)
  9a:	4ad2                	lw	s5,20(sp)
  9c:	4b42                	lw	s6,16(sp)
  9e:	4bb2                	lw	s7,12(sp)
  a0:	6145                	add	sp,sp,48
  a2:	8082                	ret

000000a4 <.L19>:
  a4:	6505                	lui	a0,0x1
  a6:	00000097          	auipc	ra,0x0
  aa:	000080e7          	jalr	ra # a6 <.L19+0x2>
  ae:	000b4783          	lbu	a5,0(s6) # 0 <tx_a_frame>
  b2:	fbf1                	bnez	a5,86 <.L20>
  b4:	000baa03          	lw	s4,0(s7) # 60035000 <.L192+0x60034830>
  b8:	415a07b3          	sub	a5,s4,s5
  bc:	fcf9f5e3          	bgeu	s3,a5,86 <.L20>
  c0:	00000537          	lui	a0,0x0
  c4:	00050513          	mv	a0,a0
  c8:	00000097          	auipc	ra,0x0
  cc:	000080e7          	jalr	ra # c8 <.L19+0x24>
  d0:	408c                	lw	a1,0(s1)
  d2:	00092603          	lw	a2,0(s2)
  d6:	00000537          	lui	a0,0x0
  da:	00050513          	mv	a0,a0
  de:	00000097          	auipc	ra,0x0
  e2:	000080e7          	jalr	ra # de <.L19+0x3a>
  e6:	ca842603          	lw	a2,-856(s0)
  ea:	6001d7b7          	lui	a5,0x6001d
  ee:	ca042683          	lw	a3,-864(s0)
  f2:	d8442703          	lw	a4,-636(s0)
  f6:	5422                	lw	s0,40(sp)
  f8:	50b2                	lw	ra,44(sp)
  fa:	5492                	lw	s1,36(sp)
  fc:	5902                	lw	s2,32(sp)
  fe:	49f2                	lw	s3,28(sp)
 100:	4ad2                	lw	s5,20(sp)
 102:	4b42                	lw	s6,16(sp)
 104:	4bb2                	lw	s7,12(sp)
 106:	479c                	lw	a5,8(a5)
 108:	85d2                	mv	a1,s4
 10a:	4a62                	lw	s4,24(sp)
 10c:	00000537          	lui	a0,0x0
 110:	00050513          	mv	a0,a0
 114:	6145                	add	sp,sp,48
 116:	00000317          	auipc	t1,0x0
 11a:	00030067          	jr	t1 # 116 <.L19+0x72>

Disassembly of section .text.test_tx_frame:

00000000 <test_tx_frame>:
   0:	715d                	add	sp,sp,-80
   2:	c62e                	sw	a1,12(sp)
   4:	c43a                	sw	a4,8(sp)
   6:	c23e                	sw	a5,4(sp)
   8:	c686                	sw	ra,76(sp)
   a:	c4a2                	sw	s0,72(sp)
   c:	c2a6                	sw	s1,68(sp)
   e:	c0ca                	sw	s2,64(sp)
  10:	84aa                	mv	s1,a0
  12:	8932                	mv	s2,a2
  14:	de4e                	sw	s3,60(sp)
  16:	dc52                	sw	s4,56(sp)
  18:	89b6                	mv	s3,a3
  1a:	da56                	sw	s5,52(sp)
  1c:	d85a                	sw	s6,48(sp)
  1e:	d65e                	sw	s7,44(sp)
  20:	d462                	sw	s8,40(sp)
  22:	d266                	sw	s9,36(sp)
  24:	d06a                	sw	s10,32(sp)
  26:	ce6e                	sw	s11,28(sp)
  28:	00000097          	auipc	ra,0x0
  2c:	000080e7          	jalr	ra # 28 <test_tx_frame+0x28>
  30:	842a                	mv	s0,a0
  32:	8526                	mv	a0,s1
  34:	00000097          	auipc	ra,0x0
  38:	000080e7          	jalr	ra # 34 <test_tx_frame+0x34>
  3c:	8a2a                	mv	s4,a0
  3e:	8526                	mv	a0,s1
  40:	00000097          	auipc	ra,0x0
  44:	000080e7          	jalr	ra # 40 <test_tx_frame+0x40>
  48:	45b2                	lw	a1,12(sp)
  4a:	46bd                	li	a3,15
  4c:	4792                	lw	a5,4(sp)
  4e:	4722                	lw	a4,8(sp)
  50:	00b6f963          	bgeu	a3,a1,62 <.L23>
  54:	000006b7          	lui	a3,0x0
  58:	0006c683          	lbu	a3,0(a3) # 0 <test_tx_frame>
  5c:	4805                	li	a6,1
  5e:	09069f63          	bne	a3,a6,fc <.L24>

00000062 <.L23>:
  62:	4014                	lw	a3,0(s0)
  64:	667d                	lui	a2,0x1f
  66:	05b2                	sll	a1,a1,0xc
  68:	8df1                	and	a1,a1,a2
  6a:	7605                	lui	a2,0xfffe1
  6c:	167d                	add	a2,a2,-1 # fffe0fff <.L192+0xfffe082f>
  6e:	8ef1                	and	a3,a3,a2
  70:	8dd5                	or	a1,a1,a3
  72:	c00c                	sw	a1,0(s0)
  74:	4014                	lw	a3,0(s0)
  76:	fa000637          	lui	a2,0xfa000
  7a:	167d                	add	a2,a2,-1 # f9ffffff <.L192+0xf9fff82f>
  7c:	8ef1                	and	a3,a3,a2
  7e:	c014                	sw	a3,0(s0)

00000080 <.L25>:
  80:	4014                	lw	a3,0(s0)
  82:	08000637          	lui	a2,0x8000
  86:	07ee                	sll	a5,a5,0x1b
  88:	8ff1                	and	a5,a5,a2
  8a:	f8000637          	lui	a2,0xf8000
  8e:	167d                	add	a2,a2,-1 # f7ffffff <.L192+0xf7fff82f>
  90:	8ef1                	and	a3,a3,a2
  92:	8fd5                	or	a5,a5,a3
  94:	c01c                	sw	a5,0(s0)
  96:	000a2683          	lw	a3,0(s4)
  9a:	00771793          	sll	a5,a4,0x7
  9e:	0ff7f793          	zext.b	a5,a5
  a2:	f7f6f693          	and	a3,a3,-129
  a6:	8fd5                	or	a5,a5,a3
  a8:	00fa2023          	sw	a5,0(s4)
  ac:	401c                	lw	a5,0(s0)
  ae:	cf49                	beqz	a4,148 <.L26>
  b0:	20000737          	lui	a4,0x20000
  b4:	8fd9                	or	a5,a5,a4

000000b6 <.L43>:
  b6:	c01c                	sw	a5,0(s0)
  b8:	000f4ab7          	lui	s5,0xf4
  bc:	00000437          	lui	s0,0x0
  c0:	4a01                	li	s4,0
  c2:	00000b37          	lui	s6,0x0
  c6:	00000bb7          	lui	s7,0x0
  ca:	00000c37          	lui	s8,0x0
  ce:	00000cb7          	lui	s9,0x0
  d2:	23fa8a93          	add	s5,s5,575 # f423f <.L192+0xf3a6f>
  d6:	00040413          	mv	s0,s0

000000da <.L27>:
  da:	07491c63          	bne	s2,s4,152 <.L32>
  de:	40b6                	lw	ra,76(sp)
  e0:	4426                	lw	s0,72(sp)
  e2:	4496                	lw	s1,68(sp)
  e4:	4906                	lw	s2,64(sp)
  e6:	59f2                	lw	s3,60(sp)
  e8:	5a62                	lw	s4,56(sp)
  ea:	5ad2                	lw	s5,52(sp)
  ec:	5b42                	lw	s6,48(sp)
  ee:	5bb2                	lw	s7,44(sp)
  f0:	5c22                	lw	s8,40(sp)
  f2:	5c92                	lw	s9,36(sp)
  f4:	5d02                	lw	s10,32(sp)
  f6:	4df2                	lw	s11,28(sp)
  f8:	6161                	add	sp,sp,80
  fa:	8082                	ret

000000fc <.L24>:
  fc:	4014                	lw	a3,0(s0)
  fe:	7605                	lui	a2,0xfffe1
 100:	167d                	add	a2,a2,-1 # fffe0fff <.L192+0xfffe082f>
 102:	8ef1                	and	a3,a3,a2
 104:	662d                	lui	a2,0xb
 106:	8ed1                	or	a3,a3,a2
 108:	c014                	sw	a3,0(s0)
 10a:	4014                	lw	a3,0(s0)
 10c:	fa000637          	lui	a2,0xfa000
 110:	167d                	add	a2,a2,-1 # f9ffffff <.L192+0xf9fff82f>
 112:	8ef1                	and	a3,a3,a2
 114:	02000637          	lui	a2,0x2000
 118:	8ed1                	or	a3,a3,a2
 11a:	c014                	sw	a3,0(s0)
 11c:	000a2603          	lw	a2,0(s4)
 120:	ff058693          	add	a3,a1,-16
 124:	07f6f693          	and	a3,a3,127
 128:	f8067613          	and	a2,a2,-128
 12c:	8ed1                	or	a3,a3,a2
 12e:	00da2023          	sw	a3,0(s4)
 132:	f50717e3          	bne	a4,a6,80 <.L25>
 136:	4114                	lw	a3,0(a0)
 138:	10000637          	lui	a2,0x10000
 13c:	167d                	add	a2,a2,-1 # fffffff <.L192+0xffff82f>
 13e:	8ef1                	and	a3,a3,a2
 140:	05f2                	sll	a1,a1,0x1c
 142:	8dd5                	or	a1,a1,a3
 144:	c10c                	sw	a1,0(a0)
 146:	bf2d                	j	80 <.L25>

00000148 <.L26>:
 148:	e0000737          	lui	a4,0xe0000
 14c:	177d                	add	a4,a4,-1 # dfffffff <.L192+0xdffff82f>
 14e:	8ff9                	and	a5,a5,a4
 150:	b79d                	j	b6 <.L43>

00000152 <.L32>:
 152:	8526                	mv	a0,s1
 154:	00000097          	auipc	ra,0x0
 158:	000080e7          	jalr	ra # 154 <.L32+0x2>
 15c:	000b4783          	lbu	a5,0(s6) # 0 <test_tx_frame>
 160:	000b8d13          	mv	s10,s7
 164:	cb89                	beqz	a5,176 <.L29>
 166:	000d4583          	lbu	a1,0(s10)
 16a:	000c4503          	lbu	a0,0(s8) # 0 <test_tx_frame>
 16e:	00000097          	auipc	ra,0x0
 172:	000080e7          	jalr	ra # 16e <.L32+0x1c>

00000176 <.L29>:
 176:	000d4783          	lbu	a5,0(s10)
 17a:	cf8d                	beqz	a5,1b4 <.L30>
 17c:	60035db7          	lui	s11,0x60035
 180:	000c8d13          	mv	s10,s9
 184:	000da783          	lw	a5,0(s11) # 60035000 <.L192+0x60034830>
 188:	000d2703          	lw	a4,0(s10)
 18c:	8f99                	sub	a5,a5,a4
 18e:	02faf363          	bgeu	s5,a5,1b4 <.L30>
 192:	00000097          	auipc	ra,0x0
 196:	000080e7          	jalr	ra # 192 <.L29+0x1c>
 19a:	85aa                	mv	a1,a0
 19c:	00000537          	lui	a0,0x0
 1a0:	00050513          	mv	a0,a0
 1a4:	00000097          	auipc	ra,0x0
 1a8:	000080e7          	jalr	ra # 1a4 <.L29+0x2e>
 1ac:	000da783          	lw	a5,0(s11)
 1b0:	00fd2023          	sw	a5,0(s10)

000001b4 <.L30>:
 1b4:	09c44783          	lbu	a5,156(s0) # 9c <.L25+0x1c>
 1b8:	c799                	beqz	a5,1c6 <.L31>
 1ba:	09b44503          	lbu	a0,155(s0)
 1be:	00000097          	auipc	ra,0x0
 1c2:	000080e7          	jalr	ra # 1be <.L30+0xa>

000001c6 <.L31>:
 1c6:	01099513          	sll	a0,s3,0x10
 1ca:	8141                	srl	a0,a0,0x10
 1cc:	00000097          	auipc	ra,0x0
 1d0:	000080e7          	jalr	ra # 1cc <.L31+0x6>
 1d4:	0a05                	add	s4,s4,1
 1d6:	b711                	j	da <.L27>

Disassembly of section .text.set_mac_filter:

00000000 <set_mac_filter>:
   0:	600337b7          	lui	a5,0x60033
   4:	c3a8                	sw	a0,64(a5)
   6:	c3ec                	sw	a1,68(a5)
   8:	473d                	li	a4,15
   a:	0ce7ae23          	sw	a4,220(a5) # 600330dc <.L192+0x6003290c>
   e:	0ee7a023          	sw	a4,224(a5)
  12:	0ee7a223          	sw	a4,228(a5)
  16:	577d                	li	a4,-1
  18:	d3b8                	sw	a4,96(a5)
  1a:	00020737          	lui	a4,0x20
  1e:	177d                	add	a4,a4,-1 # 1ffff <.L192+0x1f82f>
  20:	d3f8                	sw	a4,100(a5)
  22:	8082                	ret

Disassembly of section .text.get_rxctrl_addr:

00000000 <get_rxctrl_addr>:
   0:	600336b7          	lui	a3,0x60033
   4:	600347b7          	lui	a5,0x60034
   8:	c647a783          	lw	a5,-924(a5) # 60033c64 <.L192+0x60033494>
   c:	0946a703          	lw	a4,148(a3) # 60033094 <.L192+0x600328c4>
  10:	fff00637          	lui	a2,0xfff00
  14:	8ff1                	and	a5,a5,a2
  16:	0711                	add	a4,a4,4
  18:	97ba                	add	a5,a5,a4
  1a:	4388                	lw	a0,0(a5)
  1c:	0806a783          	lw	a5,128(a3)
  20:	0ff7f793          	zext.b	a5,a5
  24:	953e                	add	a0,a0,a5
  26:	8082                	ret

Disassembly of section .text.get_rx_freq_local:

00000000 <get_rx_freq_local>:
   0:	1141                	add	sp,sp,-16
   2:	c606                	sw	ra,12(sp)
   4:	00000097          	auipc	ra,0x0
   8:	000080e7          	jalr	ra # 4 <get_rx_freq_local+0x4>
   c:	411c                	lw	a5,0(a0)
   e:	6731                	lui	a4,0xc
  10:	8f7d                	and	a4,a4,a5
  12:	c31d                	beqz	a4,38 <.L47>
  14:	4158                	lw	a4,4(a0)
  16:	83a9                	srl	a5,a5,0xa
  18:	0307f793          	and	a5,a5,48
  1c:	07f77713          	and	a4,a4,127
  20:	97ba                	add	a5,a5,a4

00000022 <.L48>:
  22:	00000737          	lui	a4,0x0
  26:	00072703          	lw	a4,0(a4) # 0 <get_rx_freq_local>
  2a:	490c                	lw	a1,16(a0)
  2c:	40b2                	lw	ra,12(sp)
  2e:	0dc72303          	lw	t1,220(a4)
  32:	853e                	mv	a0,a5
  34:	0141                	add	sp,sp,16
  36:	8302                	jr	t1

00000038 <.L47>:
  38:	83a1                	srl	a5,a5,0x8
  3a:	8bfd                	and	a5,a5,31
  3c:	b7dd                	j	22 <.L48>

Disassembly of section .text.esp_get_rx_result:

00000000 <esp_get_rx_result>:
   0:	000007b7          	lui	a5,0x0
   4:	00078793          	mv	a5,a5
   8:	4398                	lw	a4,0(a5)
   a:	c118                	sw	a4,0(a0)
   c:	43d8                	lw	a4,4(a5)
   e:	c158                	sw	a4,4(a0)
  10:	479c                	lw	a5,8(a5)
  12:	c51c                	sw	a5,8(a0)
  14:	000007b7          	lui	a5,0x0
  18:	0007c503          	lbu	a0,0(a5) # 0 <esp_get_rx_result>
  1c:	8082                	ret

Disassembly of section .text.do_rx_poll:

00000000 <do_rx_poll>:
   0:	7115                	add	sp,sp,-224
   2:	cda2                	sw	s0,216(sp)
   4:	d96a                	sw	s10,176(sp)
   6:	1180                	add	s0,sp,224
   8:	cf86                	sw	ra,220(sp)
   a:	cba6                	sw	s1,212(sp)
   c:	c9ca                	sw	s2,208(sp)
   e:	c7ce                	sw	s3,204(sp)
  10:	c5d2                	sw	s4,200(sp)
  12:	c3d6                	sw	s5,196(sp)
  14:	c1da                	sw	s6,192(sp)
  16:	df5e                	sw	s7,188(sp)
  18:	dd62                	sw	s8,184(sp)
  1a:	db66                	sw	s9,180(sp)
  1c:	d76e                	sw	s11,172(sp)
  1e:	01051793          	sll	a5,a0,0x10
  22:	83c1                	srl	a5,a5,0x10
  24:	f4f42e23          	sw	a5,-164(s0)
  28:	01155793          	srl	a5,a0,0x11
  2c:	8b85                	and	a5,a5,1
  2e:	f4f42023          	sw	a5,-192(s0)
  32:	01855793          	srl	a5,a0,0x18
  36:	f0078713          	add	a4,a5,-256
  3a:	83010113          	add	sp,sp,-2000
  3e:	f6f42023          	sw	a5,-160(s0)
  42:	47a9                	li	a5,10
  44:	02f70d33          	mul	s10,a4,a5
  48:	081c                	add	a5,sp,16
  4a:	83010113          	add	sp,sp,-2000
  4e:	f8f42423          	sw	a5,-120(s0)
  52:	081c                	add	a5,sp,16
  54:	83010113          	add	sp,sp,-2000
  58:	000006b7          	lui	a3,0x0
  5c:	f6f42e23          	sw	a5,-132(s0)
  60:	081c                	add	a5,sp,16
  62:	83010113          	add	sp,sp,-2000
  66:	00068713          	mv	a4,a3
  6a:	f6f42823          	sw	a5,-144(s0)
  6e:	081c                	add	a5,sp,16
  70:	f6f42423          	sw	a5,-152(s0)
  74:	00068023          	sb	zero,0(a3) # 0 <do_rx_poll>
  78:	4781                	li	a5,0
  7a:	f2e42e23          	sw	a4,-196(s0)
  7e:	7d000693          	li	a3,2000

00000082 <.L52>:
  82:	f8842703          	lw	a4,-120(s0)
  86:	00f70633          	add	a2,a4,a5
  8a:	f7c42703          	lw	a4,-132(s0)
  8e:	00062023          	sw	zero,0(a2) # fff00000 <.L192+0xffeff830>
  92:	00f70633          	add	a2,a4,a5
  96:	f7042703          	lw	a4,-144(s0)
  9a:	00062023          	sw	zero,0(a2)
  9e:	00f70633          	add	a2,a4,a5
  a2:	f6842703          	lw	a4,-152(s0)
  a6:	00062023          	sw	zero,0(a2)
  aa:	00f70633          	add	a2,a4,a5
  ae:	00062023          	sw	zero,0(a2)
  b2:	0791                	add	a5,a5,4
  b4:	fcd797e3          	bne	a5,a3,82 <.L52>
  b8:	600347b7          	lui	a5,0x60034
  bc:	fa041c23          	sh	zero,-72(s0)
  c0:	8007a023          	sw	zero,-2048(a5) # 60033800 <.L192+0x60033030>
  c4:	600356b7          	lui	a3,0x60035
  c8:	0006a223          	sw	zero,4(a3) # 60035004 <.L192+0x60034834>
  cc:	c407a683          	lw	a3,-960(a5)
  d0:	4481                	li	s1,0
  d2:	4c81                	li	s9,0
  d4:	00c6e693          	or	a3,a3,12
  d8:	c4d7a023          	sw	a3,-960(a5)
  dc:	6001c7b7          	lui	a5,0x6001c
  e0:	4f9c                	lw	a5,24(a5)
  e2:	46a9                	li	a3,10
  e4:	f6042223          	sw	zero,-156(s0)
  e8:	8395                	srl	a5,a5,0x5
  ea:	c007e793          	or	a5,a5,-1024
  ee:	02d787b3          	mul	a5,a5,a3
  f2:	4691                	li	a3,4
  f4:	f6042623          	sw	zero,-148(s0)
  f8:	f6042a23          	sw	zero,-140(s0)
  fc:	f6042c23          	sw	zero,-136(s0)
 100:	f8042023          	sw	zero,-128(s0)
 104:	f8042223          	sw	zero,-124(s0)
 108:	f8042623          	sw	zero,-116(s0)
 10c:	f8042823          	sw	zero,-112(s0)
 110:	f8042a23          	sw	zero,-108(s0)
 114:	02d7c7b3          	div	a5,a5,a3
 118:	f8042c23          	sw	zero,-104(s0)
 11c:	f8042e23          	sw	zero,-100(s0)
 120:	b0000d93          	li	s11,-1280
 124:	fa042023          	sw	zero,-96(s0)
 128:	4c01                	li	s8,0
 12a:	4901                	li	s2,0
 12c:	4b81                	li	s7,0
 12e:	4981                	li	s3,0
 130:	4b01                	li	s6,0
 132:	4a01                	li	s4,0
 134:	4a81                	li	s5,0
 136:	fa042223          	sw	zero,-92(s0)
 13a:	fa042423          	sw	zero,-88(s0)
 13e:	fa042623          	sw	zero,-84(s0)
 142:	f4f42c23          	sw	a5,-168(s0)
 146:	67c1                	lui	a5,0x10
 148:	17c1                	add	a5,a5,-16 # fff0 <.L192+0xf820>
 14a:	8fe9                	and	a5,a5,a0
 14c:	f2f42c23          	sw	a5,-200(s0)
 150:	fd3d0793          	add	a5,s10,-45
 154:	f4f42a23          	sw	a5,-172(s0)
 158:	fddd0793          	add	a5,s10,-35
 15c:	f4f42823          	sw	a5,-176(s0)
 160:	fe7d0793          	add	a5,s10,-25
 164:	f4f42623          	sw	a5,-180(s0)
 168:	ff1d0793          	add	a5,s10,-15
 16c:	f4f42423          	sw	a5,-184(s0)
 170:	ffbd0793          	add	a5,s10,-5
 174:	f4f42223          	sw	a5,-188(s0)

00000178 <.L81>:
 178:	02000513          	li	a0,32
 17c:	00000097          	auipc	ra,0x0
 180:	000080e7          	jalr	ra # 17c <.L81+0x4>
 184:	60034637          	lui	a2,0x60034
 188:	c3c62683          	lw	a3,-964(a2) # 60033c3c <.L192+0x6003346c>
 18c:	600337b7          	lui	a5,0x60033
 190:	0a87a783          	lw	a5,168(a5) # 600330a8 <.L192+0x600328d8>
 194:	0046f513          	and	a0,a3,4
 198:	36050963          	beqz	a0,50a <.L53>
 19c:	1f300693          	li	a3,499
 1a0:	0ff7f793          	zext.b	a5,a5
 1a4:	0526c663          	blt	a3,s2,1f0 <.L54>
 1a8:	f8842703          	lw	a4,-120(s0)
 1ac:	00291693          	sll	a3,s2,0x2
 1b0:	00d70633          	add	a2,a4,a3
 1b4:	f7c42703          	lw	a4,-132(s0)
 1b8:	c21c                	sw	a5,0(a2)
 1ba:	60035637          	lui	a2,0x60035
 1be:	4210                	lw	a2,0(a2)
 1c0:	00d70533          	add	a0,a4,a3
 1c4:	f6842703          	lw	a4,-152(s0)
 1c8:	c110                	sw	a2,0(a0)
 1ca:	00d70533          	add	a0,a4,a3
 1ce:	fa442703          	lw	a4,-92(s0)
 1d2:	c118                	sw	a4,0(a0)
 1d4:	f7042703          	lw	a4,-144(s0)
 1d8:	41860533          	sub	a0,a2,s8
 1dc:	96ba                	add	a3,a3,a4
 1de:	c288                	sw	a0,0(a3)
 1e0:	c791                	beqz	a5,1ec <.L55>
 1e2:	04100693          	li	a3,65
 1e6:	00d78363          	beq	a5,a3,1ec <.L55>
 1ea:	8662                	mv	a2,s8

000001ec <.L55>:
 1ec:	0905                	add	s2,s2,1
 1ee:	8c32                	mv	s8,a2

000001f0 <.L54>:
 1f0:	2a079b63          	bnez	a5,4a6 <.L56>
 1f4:	600337b7          	lui	a5,0x60033
 1f8:	0ac7a603          	lw	a2,172(a5) # 600330ac <.L192+0x600328dc>
 1fc:	0b07a803          	lw	a6,176(a5)
 200:	f2c42823          	sw	a2,-208(s0)
 204:	f3042a23          	sw	a6,-204(s0)
 208:	00000097          	auipc	ra,0x0
 20c:	000080e7          	jalr	ra # 208 <.L54+0x18>
 210:	f3842783          	lw	a5,-200(s0)
 214:	f3442803          	lw	a6,-204(s0)
 218:	f3042603          	lw	a2,-208(s0)
 21c:	cfe5                	beqz	a5,314 <.L57>
 21e:	08087793          	and	a5,a6,128
 222:	cbed                	beqz	a5,314 <.L57>
 224:	01550783          	lb	a5,21(a0) # 15 <do_rx_poll+0x15>

00000228 <.L58>:
 228:	01665693          	srl	a3,a2,0x16
 22c:	8a8d                	and	a3,a3,3
 22e:	c6f5                	beqz	a3,31a <.L59>
 230:	00f87613          	and	a2,a6,15
 234:	01066613          	or	a2,a2,16

00000238 <.L60>:
 238:	f5c42703          	lw	a4,-164(s0)
 23c:	0692                	sll	a3,a3,0x4
 23e:	8ed1                	or	a3,a3,a2
 240:	0a05                	add	s4,s4,1
 242:	0ce68f63          	beq	a3,a4,320 <.L61>
 246:	0985                	add	s3,s3,1

00000248 <.L62>:
 248:	600346b7          	lui	a3,0x60034
 24c:	c406a783          	lw	a5,-960(a3) # 60033c40 <.L192+0x60033470>
 250:	00c7e793          	or	a5,a5,12
 254:	c4f6a023          	sw	a5,-960(a3)

00000258 <.L80>:
 258:	00000097          	auipc	ra,0x0
 25c:	000080e7          	jalr	ra # 258 <.L80>
 260:	fd01                	bnez	a0,178 <.L81>
 262:	60034737          	lui	a4,0x60034
 266:	c4072783          	lw	a5,-960(a4) # 60033c40 <.L192+0x60033470>
 26a:	00c7e793          	or	a5,a5,12
 26e:	c4f72023          	sw	a5,-960(a4)
 272:	2c0a8563          	beqz	s5,53c <.L91>
 276:	fac42783          	lw	a5,-84(s0)
 27a:	4729                	li	a4,10
 27c:	02e78733          	mul	a4,a5,a4
 280:	fa842783          	lw	a5,-88(s0)
 284:	03574733          	div	a4,a4,s5
 288:	0357c6b3          	div	a3,a5,s5

0000028c <.L82>:
 28c:	f3c42603          	lw	a2,-196(s0)
 290:	4785                	li	a5,1
 292:	00f60023          	sb	a5,0(a2) # 60035000 <.L192+0x60034830>
 296:	000007b7          	lui	a5,0x0
 29a:	00078793          	mv	a5,a5
 29e:	0157a023          	sw	s5,0(a5) # 0 <do_rx_poll>
 2a2:	c3d4                	sw	a3,4(a5)
 2a4:	0147a423          	sw	s4,8(a5)
 2a8:	f4042783          	lw	a5,-192(s0)
 2ac:	2c078763          	beqz	a5,57a <.L83>
 2b0:	fb841783          	lh	a5,-72(s0)
 2b4:	00000537          	lui	a0,0x0
 2b8:	c04e                	sw	s3,0(sp)
 2ba:	c43e                	sw	a5,8(sp)
 2bc:	f5842783          	lw	a5,-168(s0)
 2c0:	85d2                	mv	a1,s4
 2c2:	c202                	sw	zero,4(sp)
 2c4:	88de                	mv	a7,s7
 2c6:	885a                	mv	a6,s6
 2c8:	8656                	mv	a2,s5
 2ca:	00050513          	mv	a0,a0
 2ce:	00000097          	auipc	ra,0x0
 2d2:	000080e7          	jalr	ra # 2ce <.L82+0x42>
 2d6:	4481                	li	s1,0
 2d8:	4981                	li	s3,0
 2da:	00000a37          	lui	s4,0x0

000002de <.L84>:
 2de:	27299263          	bne	s3,s2,542 <.L85>
 2e2:	00000537          	lui	a0,0x0
 2e6:	00050513          	mv	a0,a0

000002ea <.L113>:
 2ea:	00000097          	auipc	ra,0x0
 2ee:	000080e7          	jalr	ra # 2ea <.L113>
 2f2:	f2040113          	add	sp,s0,-224
 2f6:	40fe                	lw	ra,220(sp)
 2f8:	446e                	lw	s0,216(sp)
 2fa:	44de                	lw	s1,212(sp)
 2fc:	494e                	lw	s2,208(sp)
 2fe:	49be                	lw	s3,204(sp)
 300:	4a2e                	lw	s4,200(sp)
 302:	4a9e                	lw	s5,196(sp)
 304:	4b0e                	lw	s6,192(sp)
 306:	5bfa                	lw	s7,188(sp)
 308:	5c6a                	lw	s8,184(sp)
 30a:	5cda                	lw	s9,180(sp)
 30c:	5d4a                	lw	s10,176(sp)
 30e:	5dba                	lw	s11,172(sp)
 310:	612d                	add	sp,sp,224
 312:	8082                	ret

00000314 <.L57>:
 314:	00050783          	lb	a5,0(a0) # 0 <do_rx_poll>
 318:	bf01                	j	228 <.L58>

0000031a <.L59>:
 31a:	8241                	srl	a2,a2,0x10
 31c:	8a7d                	and	a2,a2,31
 31e:	bf29                	j	238 <.L60>

00000320 <.L61>:
 320:	46a9                	li	a3,10
 322:	02d787b3          	mul	a5,a5,a3
 326:	600356b7          	lui	a3,0x60035
 32a:	0006ac03          	lw	s8,0(a3) # 60035000 <.L192+0x60034830>
 32e:	fac42703          	lw	a4,-84(s0)
 332:	fa442683          	lw	a3,-92(s0)
 336:	0a85                	add	s5,s5,1
 338:	9736                	add	a4,a4,a3
 33a:	fae42623          	sw	a4,-84(s0)
 33e:	fa842703          	lw	a4,-88(s0)
 342:	973e                	add	a4,a4,a5
 344:	fae42423          	sw	a4,-88(s0)
 348:	fa042703          	lw	a4,-96(s0)
 34c:	00e7d463          	bge	a5,a4,354 <.L63>
 350:	faf42023          	sw	a5,-96(s0)

00000354 <.L63>:
 354:	00fdd363          	bge	s11,a5,35a <.L64>
 358:	8dbe                	mv	s11,a5

0000035a <.L64>:
 35a:	f2f42a23          	sw	a5,-204(s0)
 35e:	00000097          	auipc	ra,0x0
 362:	000080e7          	jalr	ra # 35e <.L64+0x4>
 366:	00149693          	sll	a3,s1,0x1
 36a:	fc040793          	add	a5,s0,-64
 36e:	0485                	add	s1,s1,1
 370:	96be                	add	a3,a3,a5
 372:	04c2                	sll	s1,s1,0x10
 374:	fea69c23          	sh	a0,-8(a3)
 378:	84c1                	sra	s1,s1,0x10
 37a:	4691                	li	a3,4
 37c:	f3442783          	lw	a5,-204(s0)
 380:	00d49363          	bne	s1,a3,386 <.L65>
 384:	4481                	li	s1,0

00000386 <.L65>:
 386:	f5442703          	lw	a4,-172(s0)
 38a:	00e7dc63          	bge	a5,a4,3a2 <.L66>
 38e:	fc9d0693          	add	a3,s10,-55
 392:	00d7c863          	blt	a5,a3,3a2 <.L66>
 396:	f9c42783          	lw	a5,-100(s0)
 39a:	0785                	add	a5,a5,1
 39c:	f8f42e23          	sw	a5,-100(s0)
 3a0:	b565                	j	248 <.L62>

000003a2 <.L66>:
 3a2:	f5042703          	lw	a4,-176(s0)
 3a6:	00e7dc63          	bge	a5,a4,3be <.L67>
 3aa:	f5442703          	lw	a4,-172(s0)
 3ae:	00e7c863          	blt	a5,a4,3be <.L67>
 3b2:	f9842783          	lw	a5,-104(s0)
 3b6:	0785                	add	a5,a5,1
 3b8:	f8f42c23          	sw	a5,-104(s0)
 3bc:	b571                	j	248 <.L62>

000003be <.L67>:
 3be:	f4c42703          	lw	a4,-180(s0)
 3c2:	00e7dc63          	bge	a5,a4,3da <.L68>
 3c6:	f5042703          	lw	a4,-176(s0)
 3ca:	00e7c863          	blt	a5,a4,3da <.L68>
 3ce:	f9442783          	lw	a5,-108(s0)
 3d2:	0785                	add	a5,a5,1
 3d4:	f8f42a23          	sw	a5,-108(s0)
 3d8:	bd85                	j	248 <.L62>

000003da <.L68>:
 3da:	f4842703          	lw	a4,-184(s0)
 3de:	00e7dc63          	bge	a5,a4,3f6 <.L69>
 3e2:	f4c42703          	lw	a4,-180(s0)
 3e6:	00e7c863          	blt	a5,a4,3f6 <.L69>
 3ea:	f9042783          	lw	a5,-112(s0)
 3ee:	0785                	add	a5,a5,1
 3f0:	f8f42823          	sw	a5,-112(s0)
 3f4:	bd91                	j	248 <.L62>

000003f6 <.L69>:
 3f6:	f4442703          	lw	a4,-188(s0)
 3fa:	00e7dc63          	bge	a5,a4,412 <.L70>
 3fe:	f4842703          	lw	a4,-184(s0)
 402:	00e7c863          	blt	a5,a4,412 <.L70>
 406:	f8c42783          	lw	a5,-116(s0)
 40a:	0785                	add	a5,a5,1
 40c:	f8f42623          	sw	a5,-116(s0)
 410:	bd25                	j	248 <.L62>

00000412 <.L70>:
 412:	004d0693          	add	a3,s10,4
 416:	00f6cc63          	blt	a3,a5,42e <.L71>
 41a:	f4442703          	lw	a4,-188(s0)
 41e:	00e7c863          	blt	a5,a4,42e <.L71>
 422:	f8442783          	lw	a5,-124(s0)
 426:	0785                	add	a5,a5,1
 428:	f8f42223          	sw	a5,-124(s0)
 42c:	bd31                	j	248 <.L62>

0000042e <.L71>:
 42e:	00ed0613          	add	a2,s10,14
 432:	00f64a63          	blt	a2,a5,446 <.L72>
 436:	00f6d863          	bge	a3,a5,446 <.L72>
 43a:	f8042783          	lw	a5,-128(s0)
 43e:	0785                	add	a5,a5,1
 440:	f8f42023          	sw	a5,-128(s0)
 444:	b511                	j	248 <.L62>

00000446 <.L72>:
 446:	018d0693          	add	a3,s10,24
 44a:	00f6ca63          	blt	a3,a5,45e <.L73>
 44e:	00f65863          	bge	a2,a5,45e <.L73>
 452:	f7842783          	lw	a5,-136(s0)
 456:	0785                	add	a5,a5,1
 458:	f6f42c23          	sw	a5,-136(s0)
 45c:	b3f5                	j	248 <.L62>

0000045e <.L73>:
 45e:	022d0613          	add	a2,s10,34
 462:	00f64a63          	blt	a2,a5,476 <.L74>
 466:	00f6d863          	bge	a3,a5,476 <.L74>
 46a:	f7442783          	lw	a5,-140(s0)
 46e:	0785                	add	a5,a5,1
 470:	f6f42a23          	sw	a5,-140(s0)
 474:	bbd1                	j	248 <.L62>

00000476 <.L74>:
 476:	02cd0693          	add	a3,s10,44
 47a:	00f6ca63          	blt	a3,a5,48e <.L75>
 47e:	00f65863          	bge	a2,a5,48e <.L75>
 482:	f6c42783          	lw	a5,-148(s0)
 486:	0785                	add	a5,a5,1
 488:	f6f42623          	sw	a5,-148(s0)
 48c:	bb75                	j	248 <.L62>

0000048e <.L75>:
 48e:	036d0613          	add	a2,s10,54
 492:	daf64be3          	blt	a2,a5,248 <.L62>
 496:	daf6d9e3          	bge	a3,a5,248 <.L62>
 49a:	f6442783          	lw	a5,-156(s0)
 49e:	0785                	add	a5,a5,1
 4a0:	f6f42223          	sw	a5,-156(s0)
 4a4:	b355                	j	248 <.L62>

000004a6 <.L56>:
 4a6:	08000693          	li	a3,128
 4aa:	0b05                	add	s6,s6,1
 4ac:	02d79263          	bne	a5,a3,4d0 <.L76>
 4b0:	0985                	add	s3,s3,1

000004b2 <.L77>:
 4b2:	f6042703          	lw	a4,-160(s0)
 4b6:	d8f719e3          	bne	a4,a5,248 <.L62>
 4ba:	4791                	li	a5,4
 4bc:	d997c6e3          	blt	a5,s9,248 <.L62>
 4c0:	600337b7          	lui	a5,0x60033
 4c4:	0ac7a683          	lw	a3,172(a5) # 600330ac <.L192+0x600328dc>
 4c8:	0c85                	add	s9,s9,1 # 1 <do_rx_poll+0x1>
 4ca:	0ac7a783          	lw	a5,172(a5)
 4ce:	bbad                	j	248 <.L62>

000004d0 <.L76>:
 4d0:	04100693          	li	a3,65
 4d4:	fcd79fe3          	bne	a5,a3,4b2 <.L77>
 4d8:	600336b7          	lui	a3,0x60033
 4dc:	0ac6a603          	lw	a2,172(a3) # 600330ac <.L192+0x600328dc>
 4e0:	0b06a503          	lw	a0,176(a3)
 4e4:	01665693          	srl	a3,a2,0x16
 4e8:	8a8d                	and	a3,a3,3
 4ea:	ce89                	beqz	a3,504 <.L78>
 4ec:	00f57613          	and	a2,a0,15
 4f0:	01066613          	or	a2,a2,16

000004f4 <.L79>:
 4f4:	f5c42703          	lw	a4,-164(s0)
 4f8:	0692                	sll	a3,a3,0x4
 4fa:	8ed1                	or	a3,a3,a2
 4fc:	fae69be3          	bne	a3,a4,4b2 <.L77>
 500:	0b85                	add	s7,s7,1 # 1 <do_rx_poll+0x1>
 502:	bf45                	j	4b2 <.L77>

00000504 <.L78>:
 504:	8241                	srl	a2,a2,0x10
 506:	8a7d                	and	a2,a2,31
 508:	b7f5                	j	4f4 <.L79>

0000050a <.L53>:
 50a:	8aa1                	and	a3,a3,8
 50c:	d40686e3          	beqz	a3,258 <.L80>
 510:	6001c7b7          	lui	a5,0x6001c
 514:	57fc                	lw	a5,108(a5)
 516:	0ff7f793          	zext.b	a5,a5
 51a:	faf42223          	sw	a5,-92(s0)
 51e:	c4062783          	lw	a5,-960(a2)
 522:	0087e793          	or	a5,a5,8
 526:	c4f62023          	sw	a5,-960(a2)
 52a:	4791                	li	a5,4
 52c:	d397c6e3          	blt	a5,s9,258 <.L80>
 530:	4579                	li	a0,30
 532:	00000097          	auipc	ra,0x0
 536:	000080e7          	jalr	ra # 532 <.L53+0x28>
 53a:	bb39                	j	258 <.L80>

0000053c <.L91>:
 53c:	4681                	li	a3,0
 53e:	4701                	li	a4,0
 540:	b3b1                	j	28c <.L82>

00000542 <.L85>:
 542:	f7042783          	lw	a5,-144(s0)
 546:	000a0513          	mv	a0,s4
 54a:	0985                	add	s3,s3,1
 54c:	00978733          	add	a4,a5,s1
 550:	f6842783          	lw	a5,-152(s0)
 554:	4318                	lw	a4,0(a4)
 556:	009786b3          	add	a3,a5,s1
 55a:	f7c42783          	lw	a5,-132(s0)
 55e:	4294                	lw	a3,0(a3)
 560:	00978633          	add	a2,a5,s1
 564:	f8842783          	lw	a5,-120(s0)
 568:	4210                	lw	a2,0(a2)
 56a:	97a6                	add	a5,a5,s1
 56c:	438c                	lw	a1,0(a5)
 56e:	0491                	add	s1,s1,4
 570:	00000097          	auipc	ra,0x0
 574:	000080e7          	jalr	ra # 570 <.L85+0x2e>
 578:	b39d                	j	2de <.L84>

0000057a <.L83>:
 57a:	000007b7          	lui	a5,0x0
 57e:	0007c783          	lbu	a5,0(a5) # 0 <do_rx_poll>
 582:	c7c9                	beqz	a5,60c <.L87>
 584:	00000537          	lui	a0,0x0
 588:	8636                	mv	a2,a3
 58a:	85d6                	mv	a1,s5
 58c:	00050513          	mv	a0,a0
 590:	00000097          	auipc	ra,0x0
 594:	000080e7          	jalr	ra # 590 <.L83+0x16>

00000598 <.L88>:
 598:	000007b7          	lui	a5,0x0
 59c:	0007c783          	lbu	a5,0(a5) # 0 <do_rx_poll>
 5a0:	cf81                	beqz	a5,5b8 <.L89>
 5a2:	fa042583          	lw	a1,-96(s0)
 5a6:	00000537          	lui	a0,0x0
 5aa:	866e                	mv	a2,s11
 5ac:	00050513          	mv	a0,a0
 5b0:	00000097          	auipc	ra,0x0
 5b4:	000080e7          	jalr	ra # 5b0 <.L88+0x18>

000005b8 <.L89>:
 5b8:	f6042783          	lw	a5,-160(s0)
 5bc:	c3b9                	beqz	a5,602 <.L90>
 5be:	f6442783          	lw	a5,-156(s0)
 5c2:	f8042883          	lw	a7,-128(s0)
 5c6:	f8442803          	lw	a6,-124(s0)
 5ca:	c63e                	sw	a5,12(sp)
 5cc:	f6c42783          	lw	a5,-148(s0)
 5d0:	f9042703          	lw	a4,-112(s0)
 5d4:	f9442683          	lw	a3,-108(s0)
 5d8:	c43e                	sw	a5,8(sp)
 5da:	f7442783          	lw	a5,-140(s0)
 5de:	f9842603          	lw	a2,-104(s0)
 5e2:	f9c42583          	lw	a1,-100(s0)
 5e6:	c23e                	sw	a5,4(sp)
 5e8:	f7842783          	lw	a5,-136(s0)
 5ec:	00000537          	lui	a0,0x0
 5f0:	00050513          	mv	a0,a0
 5f4:	c03e                	sw	a5,0(sp)
 5f6:	f8c42783          	lw	a5,-116(s0)
 5fa:	00000097          	auipc	ra,0x0
 5fe:	000080e7          	jalr	ra # 5fa <.L89+0x42>

00000602 <.L90>:
 602:	00000537          	lui	a0,0x0
 606:	00050513          	mv	a0,a0
 60a:	b1c5                	j	2ea <.L113>

0000060c <.L87>:
 60c:	fb841783          	lh	a5,-72(s0)
 610:	00000537          	lui	a0,0x0
 614:	88de                	mv	a7,s7
 616:	c03e                	sw	a5,0(sp)
 618:	87ba                	mv	a5,a4
 61a:	f5842703          	lw	a4,-168(s0)
 61e:	885a                	mv	a6,s6
 620:	8656                	mv	a2,s5
 622:	85d2                	mv	a1,s4
 624:	00050513          	mv	a0,a0
 628:	00000097          	auipc	ra,0x0
 62c:	000080e7          	jalr	ra # 628 <.L87+0x1c>
 630:	b7a5                	j	598 <.L88>

Disassembly of section .text.beacon_print:

00000000 <beacon_print>:
   0:	7139                	add	sp,sp,-64
   2:	d64e                	sw	s3,44(sp)
   4:	6585                	lui	a1,0x1
   6:	89aa                	mv	s3,a0
   8:	07060537          	lui	a0,0x7060
   c:	90858593          	add	a1,a1,-1784 # 908 <.L192+0x138>
  10:	50450513          	add	a0,a0,1284 # 7060504 <.L192+0x705fd34>
  14:	de06                	sw	ra,60(sp)
  16:	dc22                	sw	s0,56(sp)
  18:	da26                	sw	s1,52(sp)
  1a:	d84a                	sw	s2,48(sp)
  1c:	d452                	sw	s4,40(sp)
  1e:	d256                	sw	s5,36(sp)
  20:	d05a                	sw	s6,32(sp)
  22:	ce5e                	sw	s7,28(sp)
  24:	cc62                	sw	s8,24(sp)
  26:	ca66                	sw	s9,20(sp)
  28:	c86a                	sw	s10,16(sp)
  2a:	c66e                	sw	s11,12(sp)
  2c:	00000097          	auipc	ra,0x0
  30:	000080e7          	jalr	ra # 2c <beacon_print+0x2c>
  34:	600347b7          	lui	a5,0x60034
  38:	8007a023          	sw	zero,-2048(a5) # 60033800 <.L192+0x60033030>
  3c:	60035737          	lui	a4,0x60035
  40:	00072223          	sw	zero,4(a4) # 60035004 <.L192+0x60034834>
  44:	00072a03          	lw	s4,0(a4)
  48:	c407a703          	lw	a4,-960(a5)
  4c:	6b41                	lui	s6,0x10
  4e:	4901                	li	s2,0
  50:	00c76713          	or	a4,a4,12
  54:	c4e7a023          	sw	a4,-960(a5)
  58:	6001c7b7          	lui	a5,0x6001c
  5c:	4f80                	lw	s0,24(a5)
  5e:	00000097          	auipc	ra,0x0
  62:	000080e7          	jalr	ra # 5e <beacon_print+0x5e>
  66:	47a9                	li	a5,10
  68:	8015                	srl	s0,s0,0x5
  6a:	c0046413          	or	s0,s0,-1024
  6e:	02f40433          	mul	s0,s0,a5
  72:	02800793          	li	a5,40
  76:	8aaa                	mv	s5,a0
  78:	03050c93          	add	s9,a0,48
  7c:	4b81                	li	s7,0
  7e:	600344b7          	lui	s1,0x60034
  82:	60033c37          	lui	s8,0x60033
  86:	6001cdb7          	lui	s11,0x6001c
  8a:	08000313          	li	t1,128
  8e:	1b7d                	add	s6,s6,-1 # ffff <.L192+0xf82f>
  90:	02f44433          	div	s0,s0,a5
  94:	60035d37          	lui	s10,0x60035
  98:	00000e37          	lui	t3,0x0

0000009c <.L119>:
  9c:	c3c4a783          	lw	a5,-964(s1) # 60033c3c <.L192+0x6003346c>
  a0:	0a8c2703          	lw	a4,168(s8) # 600330a8 <.L192+0x600328d8>
  a4:	0047f693          	and	a3,a5,4
  a8:	cec5                	beqz	a3,160 <.L115>
  aa:	0ff77793          	zext.b	a5,a4
  ae:	e7b5                	bnez	a5,11a <.L116>
  b0:	0acc2603          	lw	a2,172(s8)
  b4:	0b0c2783          	lw	a5,176(s8)
  b8:	000ca803          	lw	a6,0(s9)
  bc:	01665793          	srl	a5,a2,0x16
  c0:	01065593          	srl	a1,a2,0x10
  c4:	034aa503          	lw	a0,52(s5)
  c8:	8b8d                	and	a5,a5,3
  ca:	038aa683          	lw	a3,56(s5)
  ce:	89fd                	and	a1,a1,31
  d0:	03caa703          	lw	a4,60(s5)
  d4:	8fcd                	or	a5,a5,a1
  d6:	e3b1                	bnez	a5,11a <.L116>
  d8:	04681163          	bne	a6,t1,11a <.L116>
  dc:	57fd                	li	a5,-1
  de:	02f51e63          	bne	a0,a5,11a <.L116>
  e2:	0166f7b3          	and	a5,a3,s6
  e6:	03679a63          	bne	a5,s6,11a <.L116>
  ea:	01865793          	srl	a5,a2,0x18
  ee:	00065463          	bgez	a2,f6 <.L117>
  f2:	f0078793          	add	a5,a5,-256 # 6001bf00 <.L192+0x6001b730>

000000f6 <.L117>:
  f6:	000d2603          	lw	a2,0(s10) # 60035000 <.L192+0x60034830>
  fa:	85de                	mv	a1,s7
  fc:	000e0513          	mv	a0,t3
 100:	4881                	li	a7,0
 102:	884a                	mv	a6,s2
 104:	97a2                	add	a5,a5,s0
 106:	82c1                	srl	a3,a3,0x10
 108:	00000097          	auipc	ra,0x0
 10c:	000080e7          	jalr	ra # 108 <.L117+0x12>
 110:	0b85                	add	s7,s7,1
 112:	08000313          	li	t1,128
 116:	00000e37          	lui	t3,0x0

0000011a <.L116>:
 11a:	c404a783          	lw	a5,-960(s1)
 11e:	00c7e793          	or	a5,a5,12

00000122 <.L125>:
 122:	c4f4a023          	sw	a5,-960(s1)

00000126 <.L118>:
 126:	000d2783          	lw	a5,0(s10)
 12a:	414787b3          	sub	a5,a5,s4
 12e:	f6f9f7e3          	bgeu	s3,a5,9c <.L119>
 132:	60034737          	lui	a4,0x60034
 136:	c4072783          	lw	a5,-960(a4) # 60033c40 <.L192+0x60033470>
 13a:	50f2                	lw	ra,60(sp)
 13c:	5462                	lw	s0,56(sp)
 13e:	00c7e793          	or	a5,a5,12
 142:	c4f72023          	sw	a5,-960(a4)
 146:	54d2                	lw	s1,52(sp)
 148:	5942                	lw	s2,48(sp)
 14a:	59b2                	lw	s3,44(sp)
 14c:	5a22                	lw	s4,40(sp)
 14e:	5a92                	lw	s5,36(sp)
 150:	5b02                	lw	s6,32(sp)
 152:	4bf2                	lw	s7,28(sp)
 154:	4c62                	lw	s8,24(sp)
 156:	4cd2                	lw	s9,20(sp)
 158:	4d42                	lw	s10,16(sp)
 15a:	4db2                	lw	s11,12(sp)
 15c:	6121                	add	sp,sp,64
 15e:	8082                	ret

00000160 <.L115>:
 160:	8ba1                	and	a5,a5,8
 162:	d3f1                	beqz	a5,126 <.L118>
 164:	06cda903          	lw	s2,108(s11) # 6001c06c <.L192+0x6001b89c>
 168:	c404a783          	lw	a5,-960(s1)
 16c:	0ff97913          	zext.b	s2,s2
 170:	0087e793          	or	a5,a5,8
 174:	b77d                	j	122 <.L125>

Disassembly of section .text.rx_data_check:

00000000 <rx_data_check>:
   0:	6741                	lui	a4,0x10
   2:	fff70793          	add	a5,a4,-1 # ffff <.L192+0xf82f>
   6:	473d                	li	a4,15
   8:	8d7d                	and	a0,a0,a5
   a:	06b77763          	bgeu	a4,a1,78 <.L127>
   e:	4158                	lw	a4,4(a0)
  10:	8321                	srl	a4,a4,0x8

00000012 <.L135>:
  12:	8f7d                	and	a4,a4,a5
  14:	00275813          	srl	a6,a4,0x2
  18:	00c50613          	add	a2,a0,12
  1c:	6541                	lui	a0,0x10
  1e:	187d                	add	a6,a6,-1
  20:	4781                	li	a5,0
  22:	000208b7          	lui	a7,0x20
  26:	00ff0337          	lui	t1,0xff0
  2a:	03000e37          	lui	t3,0x3000
  2e:	157d                	add	a0,a0,-1 # ffff <.L192+0xf82f>

00000030 <.L129>:
  30:	0507e963          	bltu	a5,a6,82 <.L131>
  34:	8b0d                	and	a4,a4,3
  36:	4505                	li	a0,1
  38:	c351                	beqz	a4,bc <.L126>
  3a:	078a                	sll	a5,a5,0x2
  3c:	00378693          	add	a3,a5,3
  40:	0ff7f593          	zext.b	a1,a5
  44:	06e2                	sll	a3,a3,0x18
  46:	96ae                	add	a3,a3,a1
  48:	00278593          	add	a1,a5,2
  4c:	00ff0837          	lui	a6,0xff0
  50:	05c2                	sll	a1,a1,0x10
  52:	0105f5b3          	and	a1,a1,a6
  56:	96ae                	add	a3,a3,a1
  58:	0785                	add	a5,a5,1
  5a:	65c1                	lui	a1,0x10
  5c:	15fd                	add	a1,a1,-1 # ffff <.L192+0xf82f>
  5e:	07a2                	sll	a5,a5,0x8
  60:	8fed                	and	a5,a5,a1
  62:	97b6                	add	a5,a5,a3
  64:	4214                	lw	a3,0(a2)
  66:	070e                	sll	a4,a4,0x3
  68:	00e51733          	sll	a4,a0,a4
  6c:	8fb5                	xor	a5,a5,a3
  6e:	177d                	add	a4,a4,-1
  70:	8ff9                	and	a5,a5,a4
  72:	0017b513          	seqz	a0,a5
  76:	8082                	ret

00000078 <.L127>:
  78:	6785                	lui	a5,0x1
  7a:	00255703          	lhu	a4,2(a0)
  7e:	17fd                	add	a5,a5,-1 # fff <.L192+0x82f>
  80:	bf49                	j	12 <.L135>

00000082 <.L131>:
  82:	01279693          	sll	a3,a5,0x12
  86:	96c6                	add	a3,a3,a7
  88:	01a79593          	sll	a1,a5,0x1a
  8c:	95f2                	add	a1,a1,t3
  8e:	0066f6b3          	and	a3,a3,t1
  92:	96ae                	add	a3,a3,a1
  94:	00a79593          	sll	a1,a5,0xa
  98:	10058593          	add	a1,a1,256
  9c:	8de9                	and	a1,a1,a0
  9e:	96ae                	add	a3,a3,a1
  a0:	00279593          	sll	a1,a5,0x2
  a4:	0ff5f593          	zext.b	a1,a1
  a8:	96ae                	add	a3,a3,a1
  aa:	420c                	lw	a1,0(a2)
  ac:	00d59763          	bne	a1,a3,ba <.L132>
  b0:	00062023          	sw	zero,0(a2)
  b4:	0785                	add	a5,a5,1
  b6:	0611                	add	a2,a2,4
  b8:	bfa5                	j	30 <.L129>

000000ba <.L132>:
  ba:	4501                	li	a0,0

000000bc <.L126>:
  bc:	8082                	ret

Disassembly of section .text.read_macaddr_from_otp:

00000000 <read_macaddr_from_otp>:
   0:	60009737          	lui	a4,0x60009
   4:	84472783          	lw	a5,-1980(a4) # 60008844 <.L192+0x60008074>
   8:	84872703          	lw	a4,-1976(a4)
   c:	00f502a3          	sb	a5,5(a0)
  10:	00875693          	srl	a3,a4,0x8
  14:	00e500a3          	sb	a4,1(a0)
  18:	0187d713          	srl	a4,a5,0x18
  1c:	00e50123          	sb	a4,2(a0)
  20:	0107d713          	srl	a4,a5,0x10
  24:	00e501a3          	sb	a4,3(a0)
  28:	0087d713          	srl	a4,a5,0x8
  2c:	00d50023          	sb	a3,0(a0)
  30:	00e50223          	sb	a4,4(a0)
  34:	8082                	ret

Disassembly of section .text.fill_txaddr:

00000000 <fill_txaddr>:
   0:	1101                	add	sp,sp,-32
   2:	0028                	add	a0,sp,8
   4:	ce06                	sw	ra,28(sp)
   6:	00000097          	auipc	ra,0x0
   a:	000080e7          	jalr	ra # 6 <fill_txaddr+0x6>
   e:	4722                	lw	a4,8(sp)
  10:	600337b7          	lui	a5,0x60033
  14:	40f2                	lw	ra,28(sp)
  16:	c3b8                	sw	a4,64(a5)
  18:	00c15703          	lhu	a4,12(sp)
  1c:	c3f8                	sw	a4,68(a5)
  1e:	6105                	add	sp,sp,32
  20:	8082                	ret

Disassembly of section .text.fill_txdataframe:

00000000 <fill_txdataframe>:
   0:	7159                	add	sp,sp,-112
   2:	d2a6                	sw	s1,100(sp)
   4:	84aa                	mv	s1,a0
   6:	4529                	li	a0,10
   8:	de2e                	sw	a1,60(sp)
   a:	d686                	sw	ra,108(sp)
   c:	d0ca                	sw	s2,96(sp)
   e:	cece                	sw	s3,92(sp)
  10:	ccd2                	sw	s4,88(sp)
  12:	cad6                	sw	s5,84(sp)
  14:	c8da                	sw	s6,80(sp)
  16:	8abe                	mv	s5,a5
  18:	c6de                	sw	s7,76(sp)
  1a:	c4e2                	sw	s8,72(sp)
  1c:	c2e6                	sw	s9,68(sp)
  1e:	c0ea                	sw	s10,64(sp)
  20:	8932                	mv	s2,a2
  22:	8b36                	mv	s6,a3
  24:	89ba                	mv	s3,a4
  26:	8bc2                	mv	s7,a6
  28:	d4a2                	sw	s0,104(sp)
  2a:	00000097          	auipc	ra,0x0
  2e:	000080e7          	jalr	ra # 2a <fill_txdataframe+0x2a>
  32:	8c2a                	mv	s8,a0
  34:	4529                	li	a0,10
  36:	00000097          	auipc	ra,0x0
  3a:	000080e7          	jalr	ra # 36 <fill_txdataframe+0x36>
  3e:	600337b7          	lui	a5,0x60033
  42:	0407ac83          	lw	s9,64(a5) # 60033040 <.L192+0x60032870>
  46:	0447ad03          	lw	s10,68(a5)
  4a:	4799                	li	a5,6
  4c:	8a2a                	mv	s4,a0
  4e:	55f2                	lw	a1,60(sp)
  50:	16f49463          	bne	s1,a5,1b8 <.L140>
  54:	47ad                	li	a5,11
  56:	00faa023          	sw	a5,0(s5)
  5a:	000ba023          	sw	zero,0(s7)
  5e:	4401                	li	s0,0

00000060 <.L141>:
  60:	6705                	lui	a4,0x1
  62:	80070693          	add	a3,a4,-2048 # 800 <.L192+0x30>
  66:	1eb6db63          	bge	a3,a1,25c <.L154>
  6a:	e0070793          	add	a5,a4,-512
  6e:	1cb7c663          	blt	a5,a1,23a <.L149>
  72:	80058713          	add	a4,a1,-2048
  76:	4801                	li	a6,0
  78:	4781                	li	a5,0

0000007a <.L148>:
  7a:	000ba603          	lw	a2,0(s7)
  7e:	d002                	sw	zero,32(sp)
  80:	ce02                	sw	zero,28(sp)
  82:	c432                	sw	a2,8(sp)
  84:	00000637          	lui	a2,0x0
  88:	00062603          	lw	a2,0(a2) # 0 <fill_txdataframe>
  8c:	cc02                	sw	zero,24(sp)
  8e:	ca02                	sw	zero,20(sp)
  90:	c232                	sw	a2,4(sp)
  92:	862e                	mv	a2,a1
  94:	000aa583          	lw	a1,0(s5)
  98:	c802                	sw	zero,16(sp)
  9a:	c602                	sw	zero,12(sp)
  9c:	c002                	sw	zero,0(sp)
  9e:	4881                	li	a7,0
  a0:	4529                	li	a0,10
  a2:	00000097          	auipc	ra,0x0
  a6:	000080e7          	jalr	ra # a2 <.L148+0x28>
  aa:	000c2783          	lw	a5,0(s8)
  ae:	f9000737          	lui	a4,0xf9000
  b2:	177d                	add	a4,a4,-1 # f8ffffff <.L192+0xf8fff82f>
  b4:	8ff9                	and	a5,a5,a4
  b6:	0462                	sll	s0,s0,0x18
  b8:	8c5d                	or	s0,s0,a5
  ba:	008c2023          	sw	s0,0(s8)
  be:	000a2783          	lw	a5,0(s4) # 0 <fill_txdataframe>
  c2:	ffc01737          	lui	a4,0xffc01
  c6:	177d                	add	a4,a4,-1 # ffc00fff <.L192+0xffc0082f>
  c8:	8ff9                	and	a5,a5,a4
  ca:	6705                	lui	a4,0x1
  cc:	8fd9                	or	a5,a5,a4
  ce:	00fa2023          	sw	a5,0(s4)
  d2:	4799                	li	a5,6
  d4:	08000613          	li	a2,128
  d8:	00f48563          	beq	s1,a5,e2 <.L151>
  dc:	00fa0637          	lui	a2,0xfa0
  e0:	0621                	add	a2,a2,8 # fa0008 <.L192+0xf9f838>

000000e2 <.L151>:
  e2:	6741                	lui	a4,0x10
  e4:	177d                	add	a4,a4,-1 # ffff <.L192+0xf82f>
  e6:	010c9793          	sll	a5,s9,0x10
  ea:	00eb7b33          	and	s6,s6,a4
  ee:	00fb6b33          	or	s6,s6,a5
  f2:	010d1693          	sll	a3,s10,0x10
  f6:	010cd793          	srl	a5,s9,0x10
  fa:	8edd                	or	a3,a3,a5
  fc:	4799                	li	a5,6
  fe:	16f49963          	bne	s1,a5,270 <.L157>
 102:	00ed7733          	and	a4,s10,a4
 106:	5d8007b7          	lui	a5,0x5d800
 10a:	8f5d                	or	a4,a4,a5

0000010c <.L152>:
 10c:	000007b7          	lui	a5,0x0
 110:	0007a583          	lw	a1,0(a5) # 0 <fill_txdataframe>
 114:	c190                	sw	a2,0(a1)
 116:	0007a603          	lw	a2,0(a5)
 11a:	01262223          	sw	s2,4(a2)
 11e:	0007a603          	lw	a2,0(a5)
 122:	01662423          	sw	s6,8(a2)
 126:	0007a603          	lw	a2,0(a5)
 12a:	c654                	sw	a3,12(a2)
 12c:	0007a683          	lw	a3,0(a5)
 130:	0196a823          	sw	s9,16(a3)
 134:	0007a683          	lw	a3,0(a5)
 138:	cad8                	sw	a4,20(a3)
 13a:	0007a683          	lw	a3,0(a5)
 13e:	000a0737          	lui	a4,0xa0
 142:	43170713          	add	a4,a4,1073 # a0431 <.L192+0x9fc61>
 146:	ce98                	sw	a4,24(a3)
 148:	0007a703          	lw	a4,0(a5)
 14c:	00072e23          	sw	zero,28(a4)
 150:	0007a703          	lw	a4,0(a5)
 154:	03372023          	sw	s3,32(a4)
 158:	4719                	li	a4,6
 15a:	02e49d63          	bne	s1,a4,194 <.L153>
 15e:	60035737          	lui	a4,0x60035
 162:	5f78                	lw	a4,124(a4)
 164:	000a2683          	lw	a3,0(s4)
 168:	f1000637          	lui	a2,0xf1000
 16c:	167d                	add	a2,a2,-1 # f0ffffff <.L192+0xf0fff82f>
 16e:	8ef1                	and	a3,a3,a2
 170:	01000637          	lui	a2,0x1000
 174:	8ed1                	or	a3,a3,a2
 176:	00da2023          	sw	a3,0(s4)
 17a:	000a2683          	lw	a3,0(s4)
 17e:	03f77713          	and	a4,a4,63
 182:	ffc01637          	lui	a2,0xffc01
 186:	0729                	add	a4,a4,10 # 6003500a <.L192+0x6003483a>
 188:	167d                	add	a2,a2,-1 # ffc00fff <.L192+0xffc0082f>
 18a:	0732                	sll	a4,a4,0xc
 18c:	8ef1                	and	a3,a3,a2
 18e:	8f55                	or	a4,a4,a3
 190:	00ea2023          	sw	a4,0(s4)

00000194 <.L153>:
 194:	0007a503          	lw	a0,0(a5)
 198:	50b6                	lw	ra,108(sp)
 19a:	5426                	lw	s0,104(sp)
 19c:	5496                	lw	s1,100(sp)
 19e:	5906                	lw	s2,96(sp)
 1a0:	49f6                	lw	s3,92(sp)
 1a2:	4a66                	lw	s4,88(sp)
 1a4:	4ad6                	lw	s5,84(sp)
 1a6:	4b46                	lw	s6,80(sp)
 1a8:	4bb6                	lw	s7,76(sp)
 1aa:	4c26                	lw	s8,72(sp)
 1ac:	4c96                	lw	s9,68(sp)
 1ae:	4d06                	lw	s10,64(sp)
 1b0:	02450513          	add	a0,a0,36
 1b4:	6165                	add	sp,sp,112
 1b6:	8082                	ret

000001b8 <.L140>:
 1b8:	4795                	li	a5,5
 1ba:	00f49963          	bne	s1,a5,1cc <.L142>
 1be:	47ad                	li	a5,11
 1c0:	00faa023          	sw	a5,0(s5)
 1c4:	000ba023          	sw	zero,0(s7)

000001c8 <.L163>:
 1c8:	440d                	li	s0,3
 1ca:	a811                	j	1de <.L143>

000001cc <.L142>:
 1cc:	4791                	li	a5,4
 1ce:	00f49b63          	bne	s1,a5,1e4 <.L144>
 1d2:	47a1                	li	a5,8
 1d4:	00faa023          	sw	a5,0(s5)
 1d8:	000ba023          	sw	zero,0(s7)
 1dc:	4401                	li	s0,0

000001de <.L143>:
 1de:	02858593          	add	a1,a1,40
 1e2:	bdbd                	j	60 <.L141>

000001e4 <.L144>:
 1e4:	478d                	li	a5,3
 1e6:	00f49963          	bne	s1,a5,1f8 <.L145>
 1ea:	47d9                	li	a5,22
 1ec:	00faa023          	sw	a5,0(s5)
 1f0:	4785                	li	a5,1

000001f2 <.L162>:
 1f2:	00fba023          	sw	a5,0(s7)
 1f6:	bfc9                	j	1c8 <.L163>

000001f8 <.L145>:
 1f8:	4789                	li	a5,2
 1fa:	00f49d63          	bne	s1,a5,214 <.L146>
 1fe:	000007b7          	lui	a5,0x0
 202:	0007a783          	lw	a5,0(a5) # 0 <fill_txdataframe>
 206:	00faa023          	sw	a5,0(s5)
 20a:	000007b7          	lui	a5,0x0
 20e:	0007a783          	lw	a5,0(a5) # 0 <fill_txdataframe>
 212:	b7c5                	j	1f2 <.L162>

00000214 <.L146>:
 214:	4785                	li	a5,1
 216:	00f49c63          	bne	s1,a5,22e <.L147>
 21a:	000007b7          	lui	a5,0x0
 21e:	0007a783          	lw	a5,0(a5) # 0 <fill_txdataframe>
 222:	00faa023          	sw	a5,0(s5)
 226:	000ba023          	sw	zero,0(s7)

0000022a <.L161>:
 22a:	4405                	li	s0,1
 22c:	bf4d                	j	1de <.L143>

0000022e <.L147>:
 22e:	475d                	li	a4,23
 230:	00eaa023          	sw	a4,0(s5)
 234:	00fba023          	sw	a5,0(s7)
 238:	bfcd                	j	22a <.L161>

0000023a <.L149>:
 23a:	f0070813          	add	a6,a4,-256
 23e:	00b84863          	blt	a6,a1,24e <.L150>
 242:	40f587b3          	sub	a5,a1,a5
 246:	4801                	li	a6,0

00000248 <.L160>:
 248:	60000713          	li	a4,1536
 24c:	b53d                	j	7a <.L148>

0000024e <.L150>:
 24e:	00b74c63          	blt	a4,a1,266 <.L155>
 252:	41058833          	sub	a6,a1,a6
 256:	10000793          	li	a5,256
 25a:	b7fd                	j	248 <.L160>

0000025c <.L154>:
 25c:	86ae                	mv	a3,a1
 25e:	4801                	li	a6,0
 260:	4781                	li	a5,0
 262:	4701                	li	a4,0
 264:	bd19                	j	7a <.L148>

00000266 <.L155>:
 266:	4801                	li	a6,0
 268:	4781                	li	a5,0
 26a:	4701                	li	a4,0
 26c:	4681                	li	a3,0
 26e:	b531                	j	7a <.L148>

00000270 <.L157>:
 270:	4701                	li	a4,0
 272:	4c81                	li	s9,0
 274:	bd61                	j	10c <.L152>

Disassembly of section .text.fill_txbeacon:

00000000 <fill_txbeacon>:
   0:	7179                	add	sp,sp,-48
   2:	d606                	sw	ra,44(sp)
   4:	d422                	sw	s0,40(sp)
   6:	d226                	sw	s1,36(sp)
   8:	843a                	mv	s0,a4
   a:	d04a                	sw	s2,32(sp)
   c:	ce4e                	sw	s3,28(sp)
   e:	8932                	mv	s2,a2
  10:	89aa                	mv	s3,a0
  12:	cc52                	sw	s4,24(sp)
  14:	84b6                	mv	s1,a3
  16:	8a2e                	mv	s4,a1
  18:	00000097          	auipc	ra,0x0
  1c:	000080e7          	jalr	ra # 18 <fill_txbeacon+0x18>
  20:	66c1                	lui	a3,0x10
  22:	003c                	add	a5,sp,8
  24:	4701                	li	a4,0
  26:	00c10813          	add	a6,sp,12
  2a:	16fd                	add	a3,a3,-1 # ffff <.L192+0xf82f>
  2c:	567d                	li	a2,-1
  2e:	0d400593          	li	a1,212
  32:	4519                	li	a0,6
  34:	00000097          	auipc	ra,0x0
  38:	000080e7          	jalr	ra # 34 <fill_txbeacon+0x34>
  3c:	534507b7          	lui	a5,0x53450
  40:	70078793          	add	a5,a5,1792 # 53450700 <.L192+0x5344ff30>
  44:	c11c                	sw	a5,0(a0)
  46:	363247b7          	lui	a5,0x36324
  4a:	85078793          	add	a5,a5,-1968 # 36323850 <.L192+0x36323080>
  4e:	c15c                	sw	a5,4(a0)
  50:	820807b7          	lui	a5,0x82080
  54:	13678793          	add	a5,a5,310 # 82080136 <.L192+0x8207f966>
  58:	c51c                	sw	a5,8(a0)
  5a:	0c9697b7          	lui	a5,0xc969
  5e:	b8478793          	add	a5,a5,-1148 # c968b84 <.L192+0xc9683b4>
  62:	c55c                	sw	a5,12(a0)
  64:	032427b7          	lui	a5,0x3242
  68:	81278793          	add	a5,a5,-2030 # 3241812 <.L192+0x3241042>
  6c:	c91c                	sw	a5,16(a0)
  6e:	040517b7          	lui	a5,0x4051
  72:	b0178793          	add	a5,a5,-1279 # 4050b01 <.L192+0x4050331>
  76:	c95c                	sw	a5,20(a0)
  78:	20000793          	li	a5,512
  7c:	cd1c                	sw	a5,24(a0)
  7e:	483007b7          	lui	a5,0x48300
  82:	43278793          	add	a5,a5,1074 # 48300432 <.L192+0x482ffc62>
  86:	cd5c                	sw	a5,28(a0)
  88:	88dd77b7          	lui	a5,0x88dd7
  8c:	c6078793          	add	a5,a5,-928 # 88dd6c60 <.L192+0x88dd6490>
  90:	d11c                	sw	a5,32(a0)
  92:	ff3507b7          	lui	a5,0xff350
  96:	e1878793          	add	a5,a5,-488 # ff34fe18 <.L192+0xff34f648>
  9a:	d15c                	sw	a5,36(a0)
  9c:	000a4783          	lbu	a5,0(s4)
  a0:	0009c703          	lbu	a4,0(s3)
  a4:	04050513          	add	a0,a0,64
  a8:	07a2                	sll	a5,a5,0x8
  aa:	8fd9                	or	a5,a5,a4
  ac:	00094703          	lbu	a4,0(s2)
  b0:	0742                	sll	a4,a4,0x10
  b2:	8fd9                	or	a5,a5,a4
  b4:	ff000737          	lui	a4,0xff000
  b8:	8fd9                	or	a5,a5,a4
  ba:	fef52423          	sw	a5,-24(a0)
  be:	00144703          	lbu	a4,1(s0)
  c2:	00044783          	lbu	a5,0(s0)
  c6:	0722                	sll	a4,a4,0x8
  c8:	8f5d                	or	a4,a4,a5
  ca:	00244783          	lbu	a5,2(s0)
  ce:	07c2                	sll	a5,a5,0x10
  d0:	8f5d                	or	a4,a4,a5
  d2:	00344783          	lbu	a5,3(s0)
  d6:	07e2                	sll	a5,a5,0x18
  d8:	8fd9                	or	a5,a5,a4
  da:	fef52623          	sw	a5,-20(a0)
  de:	00544703          	lbu	a4,5(s0)
  e2:	00444783          	lbu	a5,4(s0)
  e6:	0722                	sll	a4,a4,0x8
  e8:	8f5d                	or	a4,a4,a5
  ea:	00644783          	lbu	a5,6(s0)
  ee:	07c2                	sll	a5,a5,0x10
  f0:	8f5d                	or	a4,a4,a5
  f2:	00744783          	lbu	a5,7(s0)
  f6:	07e2                	sll	a5,a5,0x18
  f8:	8fd9                	or	a5,a5,a4
  fa:	fef52823          	sw	a5,-16(a0)
  fe:	00944703          	lbu	a4,9(s0)
 102:	00844783          	lbu	a5,8(s0)
 106:	0722                	sll	a4,a4,0x8
 108:	8f5d                	or	a4,a4,a5
 10a:	00a44783          	lbu	a5,10(s0)
 10e:	07c2                	sll	a5,a5,0x10
 110:	8f5d                	or	a4,a4,a5
 112:	00b44783          	lbu	a5,11(s0)
 116:	07e2                	sll	a5,a5,0x18
 118:	8fd9                	or	a5,a5,a4
 11a:	fef52a23          	sw	a5,-12(a0)
 11e:	00d44783          	lbu	a5,13(s0)
 122:	00c44703          	lbu	a4,12(s0)
 126:	07a2                	sll	a5,a5,0x8
 128:	8fd9                	or	a5,a5,a4
 12a:	55550737          	lui	a4,0x55550
 12e:	8fd9                	or	a5,a5,a4
 130:	fef52c23          	sw	a5,-8(a0)
 134:	555557b7          	lui	a5,0x55555
 138:	55578793          	add	a5,a5,1365 # 55555555 <.L192+0x55554d85>
 13c:	fef52e23          	sw	a5,-4(a0)
 140:	06c00713          	li	a4,108
 144:	4781                	li	a5,0

00000146 <.L165>:
 146:	00f48633          	add	a2,s1,a5
 14a:	4210                	lw	a2,0(a2)
 14c:	00f506b3          	add	a3,a0,a5
 150:	0791                	add	a5,a5,4
 152:	c290                	sw	a2,0(a3)
 154:	fee799e3          	bne	a5,a4,146 <.L165>
 158:	50b2                	lw	ra,44(sp)
 15a:	5422                	lw	s0,40(sp)
 15c:	5492                	lw	s1,36(sp)
 15e:	5902                	lw	s2,32(sp)
 160:	49f2                	lw	s3,28(sp)
 162:	4a62                	lw	s4,24(sp)
 164:	6145                	add	sp,sp,48
 166:	8082                	ret

Disassembly of section .text.setmacaddr:

00000000 <setmacaddr>:
   0:	600337b7          	lui	a5,0x60033
   4:	c3a8                	sw	a0,64(a5)
   6:	c3ec                	sw	a1,68(a5)
   8:	8082                	ret

Disassembly of section .text.settxframe_chipid:

00000000 <settxframe_chipid>:
   0:	feb52023          	sw	a1,-32(a0)
   4:	fe452783          	lw	a5,-28(a0)
   8:	7741                	lui	a4,0xffff0
   a:	0642                	sll	a2,a2,0x10
   c:	8ff9                	and	a5,a5,a4
   e:	8241                	srl	a2,a2,0x10
  10:	8fd1                	or	a5,a5,a2
  12:	fef52223          	sw	a5,-28(a0)
  16:	8082                	ret

Disassembly of section .text.settxframe_rate:

00000000 <settxframe_rate>:
   0:	47c1                	li	a5,16
   2:	02860613          	add	a2,a2,40
   6:	02d7f063          	bgeu	a5,a3,26 <.L171>
   a:	411c                	lw	a5,0(a0)
   c:	fa000737          	lui	a4,0xfa000
  10:	177d                	add	a4,a4,-1 # f9ffffff <.L192+0xf9fff82f>
  12:	8ff9                	and	a5,a5,a4
  14:	02000737          	lui	a4,0x2000
  18:	8fd9                	or	a5,a5,a4
  1a:	8a9d                	and	a3,a3,7
  1c:	0622                	sll	a2,a2,0x8
  1e:	c11c                	sw	a5,0(a0)
  20:	8ed1                	or	a3,a3,a2
  22:	c194                	sw	a3,0(a1)
  24:	8082                	ret

00000026 <.L171>:
  26:	06b2                	sll	a3,a3,0xc
  28:	8ed1                	or	a3,a3,a2
  2a:	c114                	sw	a3,0(a0)
  2c:	8082                	ret

Disassembly of section .text.get_macaddr:

00000000 <get_macaddr>:
   0:	1101                	add	sp,sp,-32
   2:	cc22                	sw	s0,24(sp)
   4:	842a                	mv	s0,a0
   6:	0028                	add	a0,sp,8
   8:	ce06                	sw	ra,28(sp)
   a:	00000097          	auipc	ra,0x0
   e:	000080e7          	jalr	ra # a <get_macaddr+0xa>
  12:	47a2                	lw	a5,8(sp)
  14:	40f2                	lw	ra,28(sp)
  16:	c01c                	sw	a5,0(s0)
  18:	00c15783          	lhu	a5,12(sp)
  1c:	c05c                	sw	a5,4(s0)
  1e:	4462                	lw	s0,24(sp)
  20:	6105                	add	sp,sp,32
  22:	8082                	ret

Disassembly of section .text.set_macrxfilter:

00000000 <set_macrxfilter>:
   0:	600337b7          	lui	a5,0x60033
   4:	0d87a703          	lw	a4,216(a5) # 600330d8 <.L192+0x60032908>
   8:	c12d                	beqz	a0,6a <.L176>
   a:	00d76713          	or	a4,a4,13
   e:	0ce7ac23          	sw	a4,216(a5)
  12:	0dc7a703          	lw	a4,220(a5)
  16:	00d76713          	or	a4,a4,13
  1a:	0ce7ae23          	sw	a4,220(a5)
  1e:	0e07a703          	lw	a4,224(a5)
  22:	00d76713          	or	a4,a4,13
  26:	0ee7a023          	sw	a4,224(a5)
  2a:	0e47a703          	lw	a4,228(a5)
  2e:	00d76713          	or	a4,a4,13

00000032 <.L178>:
  32:	0ee7a223          	sw	a4,228(a5)
  36:	600337b7          	lui	a5,0x60033
  3a:	0d87a683          	lw	a3,216(a5) # 600330d8 <.L192+0x60032908>
  3e:	777d                	lui	a4,0xfffff
  40:	7ff70713          	add	a4,a4,2047 # fffff7ff <.L192+0xfffff02f>
  44:	8ef9                	and	a3,a3,a4
  46:	0cd7ac23          	sw	a3,216(a5)
  4a:	0dc7a683          	lw	a3,220(a5)
  4e:	8ef9                	and	a3,a3,a4
  50:	0cd7ae23          	sw	a3,220(a5)
  54:	0e07a683          	lw	a3,224(a5)
  58:	8ef9                	and	a3,a3,a4
  5a:	0ed7a023          	sw	a3,224(a5)
  5e:	0e47a683          	lw	a3,228(a5)
  62:	8f75                	and	a4,a4,a3
  64:	0ee7a223          	sw	a4,228(a5)
  68:	8082                	ret

0000006a <.L176>:
  6a:	9b49                	and	a4,a4,-14
  6c:	0ce7ac23          	sw	a4,216(a5)
  70:	0dc7a703          	lw	a4,220(a5)
  74:	9b49                	and	a4,a4,-14
  76:	0ce7ae23          	sw	a4,220(a5)
  7a:	0e07a703          	lw	a4,224(a5)
  7e:	9b49                	and	a4,a4,-14
  80:	0ee7a023          	sw	a4,224(a5)
  84:	0e47a703          	lw	a4,228(a5)
  88:	9b49                	and	a4,a4,-14
  8a:	b765                	j	32 <.L178>

Disassembly of section .text.tx_data_frame:

00000000 <tx_data_frame>:
   0:	1141                	add	sp,sp,-16
   2:	c422                	sw	s0,8(sp)
   4:	842a                	mv	s0,a0
   6:	4529                	li	a0,10
   8:	c606                	sw	ra,12(sp)
   a:	00000097          	auipc	ra,0x0
   e:	000080e7          	jalr	ra # a <tx_data_frame+0xa>
  12:	40000737          	lui	a4,0x40000
  16:	600347b7          	lui	a5,0x60034
  1a:	0709                	add	a4,a4,2 # 40000002 <.L192+0x3ffff832>
  1c:	c0e7a223          	sw	a4,-1020(a5) # 60033c04 <.L192+0x60033434>
  20:	c347a703          	lw	a4,-972(a5)
  24:	60035637          	lui	a2,0x60035
  28:	08076713          	or	a4,a4,128
  2c:	c2e7aa23          	sw	a4,-972(a5)
  30:	c407a703          	lw	a4,-960(a5)
  34:	08076713          	or	a4,a4,128
  38:	c4e7a023          	sw	a4,-960(a5)
  3c:	411c                	lw	a5,0(a0)
  3e:	c0000737          	lui	a4,0xc0000
  42:	8fd9                	or	a5,a5,a4
  44:	c11c                	sw	a5,0(a0)
  46:	600357b7          	lui	a5,0x60035
  4a:	4394                	lw	a3,0(a5)
  4c:	600347b7          	lui	a5,0x60034

00000050 <.L180>:
  50:	c3c7a703          	lw	a4,-964(a5) # 60033c3c <.L192+0x6003346c>
  54:	08077713          	and	a4,a4,128
  58:	cf09                	beqz	a4,72 <.L182>
  5a:	c407a703          	lw	a4,-960(a5)
  5e:	08076713          	or	a4,a4,128
  62:	c4e7a023          	sw	a4,-960(a5)
  66:	c687a503          	lw	a0,-920(a5)

0000006a <.L179>:
  6a:	40b2                	lw	ra,12(sp)
  6c:	4422                	lw	s0,8(sp)
  6e:	0141                	add	sp,sp,16
  70:	8082                	ret

00000072 <.L182>:
  72:	4218                	lw	a4,0(a2)
  74:	8f15                	sub	a4,a4,a3
  76:	fc876de3          	bltu	a4,s0,50 <.L180>
  7a:	557d                	li	a0,-1
  7c:	b7fd                	j	6a <.L179>

Disassembly of section .text.test_delay_us:

00000000 <test_delay_us>:
   0:	1141                	add	sp,sp,-16
   2:	c422                	sw	s0,8(sp)
   4:	c226                	sw	s1,4(sp)
   6:	643d                	lui	s0,0xf
   8:	74c5                	lui	s1,0xffff1
   a:	c606                	sw	ra,12(sp)
   c:	c04a                	sw	s2,0(sp)
   e:	5a048493          	add	s1,s1,1440 # ffff15a0 <.L192+0xffff0dd0>
  12:	a6040413          	add	s0,s0,-1440 # ea60 <.L192+0xe290>

00000016 <.L187>:
  16:	00950933          	add	s2,a0,s1
  1a:	01205963          	blez	s2,2c <.L186>
  1e:	8522                	mv	a0,s0
  20:	00000097          	auipc	ra,0x0
  24:	000080e7          	jalr	ra # 20 <.L187+0xa>
  28:	854a                	mv	a0,s2
  2a:	b7f5                	j	16 <.L187>

0000002c <.L186>:
  2c:	4422                	lw	s0,8(sp)
  2e:	40b2                	lw	ra,12(sp)
  30:	4492                	lw	s1,4(sp)
  32:	4902                	lw	s2,0(sp)
  34:	0542                	sll	a0,a0,0x10
  36:	8141                	srl	a0,a0,0x10
  38:	0141                	add	sp,sp,16
  3a:	00000317          	auipc	t1,0x0
  3e:	00030067          	jr	t1 # 3a <.L186+0xe>

Disassembly of section .text.ate_txframe_dut:

00000000 <ate_txframe_dut>:
   0:	7169                	add	sp,sp,-304
   2:	4529                	li	a0,10
   4:	12112623          	sw	ra,300(sp)
   8:	cab6                	sw	a3,84(sp)
   a:	da3a                	sw	a4,52(sp)
   c:	12812423          	sw	s0,296(sp)
  10:	12912223          	sw	s1,292(sp)
  14:	13212023          	sw	s2,288(sp)
  18:	842e                	mv	s0,a1
  1a:	8932                	mv	s2,a2
  1c:	11312e23          	sw	s3,284(sp)
  20:	11412c23          	sw	s4,280(sp)
  24:	11512a23          	sw	s5,276(sp)
  28:	11612823          	sw	s6,272(sp)
  2c:	11712623          	sw	s7,268(sp)
  30:	11812423          	sw	s8,264(sp)
  34:	11912223          	sw	s9,260(sp)
  38:	11a12023          	sw	s10,256(sp)
  3c:	dfee                	sw	s11,252(sp)
  3e:	00000097          	auipc	ra,0x0
  42:	000080e7          	jalr	ra # 3e <ate_txframe_dut+0x3e>
  46:	02000613          	li	a2,32
  4a:	4581                	li	a1,0
  4c:	84aa                	mv	s1,a0
  4e:	1908                	add	a0,sp,176
  50:	cd02                	sw	zero,152(sp)
  52:	cf02                	sw	zero,156(sp)
  54:	d102                	sw	zero,160(sp)
  56:	d302                	sw	zero,164(sp)
  58:	00000097          	auipc	ra,0x0
  5c:	000080e7          	jalr	ra # 58 <ate_txframe_dut+0x58>
  60:	02000613          	li	a2,32
  64:	4581                	li	a1,0
  66:	0988                	add	a0,sp,208
  68:	00000097          	auipc	ra,0x0
  6c:	000080e7          	jalr	ra # 68 <ate_txframe_dut+0x68>
  70:	d502                	sw	zero,168(sp)
  72:	d702                	sw	zero,172(sp)
  74:	cc19                	beqz	s0,92 <.L190>
  76:	01841513          	sll	a0,s0,0x18
  7a:	4585                	li	a1,1
  7c:	8561                	sra	a0,a0,0x18
  7e:	00000097          	auipc	ra,0x0
  82:	000080e7          	jalr	ra # 7e <ate_txframe_dut+0x7e>
  86:	4581                	li	a1,0
  88:	854a                	mv	a0,s2
  8a:	00000097          	auipc	ra,0x0
  8e:	000080e7          	jalr	ra # 8a <ate_txframe_dut+0x8a>

00000092 <.L190>:
  92:	6001c7b7          	lui	a5,0x6001c
  96:	4f9c                	lw	a5,24(a5)
  98:	c6be                	sw	a5,76(sp)
  9a:	57d2                	lw	a5,52(sp)
  9c:	cb99                	beqz	a5,b2 <.L191>
  9e:	00000537          	lui	a0,0x0
  a2:	864a                	mv	a2,s2
  a4:	85a2                	mv	a1,s0
  a6:	00050513          	mv	a0,a0
  aa:	00000097          	auipc	ra,0x0
  ae:	000080e7          	jalr	ra # aa <.L190+0x18>

000000b2 <.L191>:
  b2:	4505                	li	a0,1
  b4:	00000097          	auipc	ra,0x0
  b8:	000080e7          	jalr	ra # b4 <.L191+0x2>
  bc:	0908                	add	a0,sp,144
  be:	00000097          	auipc	ra,0x0
  c2:	000080e7          	jalr	ra # be <.L191+0xc>
  c6:	474a                	lw	a4,144(sp)
  c8:	47da                	lw	a5,148(sp)
  ca:	60033937          	lui	s2,0x60033
  ce:	04e92023          	sw	a4,64(s2) # 60033040 <.L192+0x60032870>
  d2:	60034437          	lui	s0,0x60034
  d6:	04f92223          	sw	a5,68(s2)
  da:	c7842783          	lw	a5,-904(s0) # 60033c78 <.L192+0x600334a8>
  de:	74657737          	lui	a4,0x74657
  e2:	6689                	lui	a3,0x2
  e4:	0027e793          	or	a5,a5,2
  e8:	60504637          	lui	a2,0x60504
  ec:	c6f42c23          	sw	a5,-904(s0)
  f0:	08c10813          	add	a6,sp,140
  f4:	013c                	add	a5,sp,136
  f6:	37370713          	add	a4,a4,883 # 74657373 <.L192+0x74656ba3>
  fa:	06c1                	add	a3,a3,16 # 2010 <.L192+0x1840>
  fc:	03060613          	add	a2,a2,48 # 60504030 <.L192+0x60503860>
 100:	02000593          	li	a1,32
 104:	4515                	li	a0,5
 106:	00000097          	auipc	ra,0x0
 10a:	000080e7          	jalr	ra # 106 <.L191+0x54>
 10e:	08492783          	lw	a5,132(s2)
 112:	20000737          	lui	a4,0x20000
 116:	177d                	add	a4,a4,-1 # 1fffffff <.L192+0x1ffff82f>
 118:	ce2a                	sw	a0,28(sp)
 11a:	8ff9                	and	a5,a5,a4
 11c:	08f92223          	sw	a5,132(s2)
 120:	08092783          	lw	a5,128(s2)
 124:	f0000737          	lui	a4,0xf0000
 128:	177d                	add	a4,a4,-1 # efffffff <.L192+0xeffff82f>
 12a:	8ff9                	and	a5,a5,a4
 12c:	08f92023          	sw	a5,128(s2)
 130:	c4442783          	lw	a5,-956(s0)
 134:	7741                	lui	a4,0xffff0
 136:	0ff70713          	add	a4,a4,255 # ffff00ff <.L192+0xfffef92f>
 13a:	8ff9                	and	a5,a5,a4
 13c:	6711                	lui	a4,0x4
 13e:	8fd9                	or	a5,a5,a4
 140:	c4f42223          	sw	a5,-956(s0)
 144:	c4442783          	lw	a5,-956(s0)
 148:	ffc01937          	lui	s2,0xffc01
 14c:	6985                	lui	s3,0x1
 14e:	f007f793          	and	a5,a5,-256
 152:	0407e793          	or	a5,a5,64
 156:	c4f42223          	sw	a5,-956(s0)
 15a:	00000097          	auipc	ra,0x0
 15e:	000080e7          	jalr	ra # 15a <.L191+0xa8>
 162:	05450793          	add	a5,a0,84 # 54 <ate_txframe_dut+0x54>
 166:	c4be                	sw	a5,72(sp)
 168:	600357b7          	lui	a5,0x60035
 16c:	439c                	lw	a5,0(a5)
 16e:	842a                	mv	s0,a0
 170:	de02                	sw	zero,60(sp)
 172:	c8be                	sw	a5,80(sp)
 174:	57fd                	li	a5,-1
 176:	dc3e                	sw	a5,56(sp)
 178:	4a01                	li	s4,0
 17a:	4b01                	li	s6,0
 17c:	4a85                	li	s5,1
 17e:	60033c37          	lui	s8,0x60033
 182:	40000bb7          	lui	s7,0x40000
 186:	60035cb7          	lui	s9,0x60035
 18a:	197d                	add	s2,s2,-1 # ffc00fff <.L192+0xffc0082f>
 18c:	38898993          	add	s3,s3,904 # 1388 <.L192+0xbb8>
 190:	ff000d37          	lui	s10,0xff000
 194:	00000db7          	lui	s11,0x0

00000198 <.L194>:
 198:	57f2                	lw	a5,60(sp)
 19a:	854e                	mv	a0,s3
 19c:	0785                	add	a5,a5,1 # 60035001 <.L192+0x60034831>
 19e:	de3e                	sw	a5,60(sp)
 1a0:	47f2                	lw	a5,28(sp)
 1a2:	0157a023          	sw	s5,0(a5)
 1a6:	084c2783          	lw	a5,132(s8) # 60033084 <.L192+0x600328b4>
 1aa:	0177e7b3          	or	a5,a5,s7
 1ae:	08fc2223          	sw	a5,132(s8)
 1b2:	07cca783          	lw	a5,124(s9) # 6003507c <.L192+0x600348ac>
 1b6:	4094                	lw	a3,0(s1)
 1b8:	8b9d                	and	a5,a5,7
 1ba:	0785                	add	a5,a5,1
 1bc:	0126f6b3          	and	a3,a3,s2
 1c0:	07be                	sll	a5,a5,0xf
 1c2:	8fd5                	or	a5,a5,a3
 1c4:	c09c                	sw	a5,0(s1)
 1c6:	00000097          	auipc	ra,0x0
 1ca:	000080e7          	jalr	ra # 1c6 <.L194+0x2e>
 1ce:	01a577b3          	and	a5,a0,s10
 1d2:	85aa                	mv	a1,a0
 1d4:	5e079e63          	bnez	a5,7d0 <.L192>
 1d8:	084c2783          	lw	a5,132(s8)
 1dc:	00179713          	sll	a4,a5,0x1
 1e0:	5e074863          	bltz	a4,7d0 <.L192>
 1e4:	47a6                	lw	a5,72(sp)
 1e6:	00040a03          	lb	s4,0(s0)
 1ea:	0007ab03          	lw	s6,0(a5)
 1ee:	4789                	li	a5,2
 1f0:	5efb1063          	bne	s6,a5,7d0 <.L192>
 1f4:	4c3c                	lw	a5,88(s0)
 1f6:	dc3e                	sw	a5,56(sp)
 1f8:	57d2                	lw	a5,52(sp)
 1fa:	18078d63          	beqz	a5,394 <.L233>
 1fe:	4785                	li	a5,1
 200:	d83e                	sw	a5,48(sp)

00000202 <.L231>:
 202:	86da                	mv	a3,s6
 204:	8652                	mv	a2,s4
 206:	000d8513          	mv	a0,s11
 20a:	00000097          	auipc	ra,0x0
 20e:	000080e7          	jalr	ra # 20a <.L231+0x8>
 212:	57c2                	lw	a5,48(sp)
 214:	01578763          	beq	a5,s5,222 <.L193>

00000218 <.L232>:
 218:	5772                	lw	a4,60(sp)
 21a:	47d5                	li	a5,21
 21c:	f6f71ee3          	bne	a4,a5,198 <.L194>
 220:	d802                	sw	zero,48(sp)

00000222 <.L193>:
 222:	5762                	lw	a4,56(sp)
 224:	57fd                	li	a5,-1
 226:	2af70663          	beq	a4,a5,4d2 <.L234>
 22a:	000005b7          	lui	a1,0x0
 22e:	0005a583          	lw	a1,0(a1) # 0 <ate_txframe_dut>
 232:	74657737          	lui	a4,0x74657
 236:	6689                	lui	a3,0x2
 238:	60504637          	lui	a2,0x60504
 23c:	08c10813          	add	a6,sp,140
 240:	013c                	add	a5,sp,136
 242:	37370713          	add	a4,a4,883 # 74657373 <.L192+0x74656ba3>
 246:	06c1                	add	a3,a3,16 # 2010 <.L192+0x1840>
 248:	03060613          	add	a2,a2,48 # 60504030 <.L192+0x60503860>
 24c:	4509                	li	a0,2
 24e:	00000097          	auipc	ra,0x0
 252:	000080e7          	jalr	ra # 24e <.L193+0x2c>
 256:	409c                	lw	a5,0(s1)
 258:	ffc01737          	lui	a4,0xffc01
 25c:	177d                	add	a4,a4,-1 # ffc00fff <.L192+0xffc0082f>
 25e:	8ff9                	and	a5,a5,a4
 260:	6905                	lui	s2,0x1
 262:	0127e7b3          	or	a5,a5,s2
 266:	c09c                	sw	a5,0(s1)
 268:	8c2a                	mv	s8,a0
 26a:	3e800513          	li	a0,1000
 26e:	00000097          	auipc	ra,0x0
 272:	000080e7          	jalr	ra # 26e <.L193+0x4c>
 276:	478d                	li	a5,3
 278:	00fc2023          	sw	a5,0(s8)
 27c:	600357b7          	lui	a5,0x60035
 280:	439c                	lw	a5,0(a5)
 282:	4cc1                	li	s9,16
 284:	4a81                	li	s5,0
 286:	c0be                	sw	a5,64(sp)
 288:	57fd                	li	a5,-1
 28a:	c2be                	sw	a5,68(sp)
 28c:	38890793          	add	a5,s2,904 # 1388 <.L192+0xbb8>
 290:	4b01                	li	s6,0
 292:	ce02                	sw	zero,28(sp)
 294:	4a01                	li	s4,0
 296:	d202                	sw	zero,36(sp)
 298:	d602                	sw	zero,44(sp)
 29a:	d402                	sw	zero,40(sp)
 29c:	d002                	sw	zero,32(sp)
 29e:	4481                	li	s1,0
 2a0:	4981                	li	s3,0
 2a2:	4d01                	li	s10,0
 2a4:	ccbe                	sw	a5,88(sp)

000002a6 <.L196>:
 2a6:	000007b7          	lui	a5,0x0
 2aa:	00079783          	lh	a5,0(a5) # 0 <ate_txframe_dut>
 2ae:	00499913          	sll	s2,s3,0x4
 2b2:	0ef9e463          	bltu	s3,a5,39a <.L206>

000002b6 <.L195>:
 2b6:	67a1                	lui	a5,0x8
 2b8:	60033737          	lui	a4,0x60033
 2bc:	96078793          	add	a5,a5,-1696 # 7960 <.L192+0x7190>
 2c0:	0cf72c23          	sw	a5,216(a4) # 600330d8 <.L192+0x60032908>
 2c4:	800007b7          	lui	a5,0x80000
 2c8:	08f72223          	sw	a5,132(a4)
 2cc:	57d2                	lw	a5,52(sp)
 2ce:	c39d                	beqz	a5,2f4 <.L207>
 2d0:	47b6                	lw	a5,76(sp)
 2d2:	00000537          	lui	a0,0x0
 2d6:	00050513          	mv	a0,a0
 2da:	0057d593          	srl	a1,a5,0x5
 2de:	c005e593          	or	a1,a1,-1024
 2e2:	00258613          	add	a2,a1,2
 2e6:	4791                	li	a5,4
 2e8:	02f64633          	div	a2,a2,a5
 2ec:	00000097          	auipc	ra,0x0
 2f0:	000080e7          	jalr	ra # 2ec <.L195+0x36>

000002f4 <.L207>:
 2f4:	57b2                	lw	a5,44(sp)
 2f6:	02c15d83          	lhu	s11,44(sp)
 2fa:	02815403          	lhu	s0,40(sp)
 2fe:	83c1                	srl	a5,a5,0x10
 300:	cebe                	sw	a5,92(sp)
 302:	010b5793          	srl	a5,s6,0x10
 306:	d0be                	sw	a5,96(sp)
 308:	57a2                	lw	a5,40(sp)
 30a:	01c15383          	lhu	t2,28(sp)
 30e:	0984                	add	s1,sp,208
 310:	83c1                	srl	a5,a5,0x10
 312:	cabe                	sw	a5,84(sp)
 314:	47f2                	lw	a5,28(sp)
 316:	0b010993          	add	s3,sp,176
 31a:	010b1c93          	sll	s9,s6,0x10
 31e:	83c1                	srl	a5,a5,0x10
 320:	ccbe                	sw	a5,88(sp)
 322:	5782                	lw	a5,32(sp)
 324:	09810f93          	add	t6,sp,152
 328:	0a010f13          	add	t5,sp,160
 32c:	83c1                	srl	a5,a5,0x10
 32e:	c4be                	sw	a5,72(sp)
 330:	010a5793          	srl	a5,s4,0x10
 334:	c6be                	sw	a5,76(sp)
 336:	5792                	lw	a5,36(sp)
 338:	85ce                	mv	a1,s3
 33a:	8726                	mv	a4,s1
 33c:	83c1                	srl	a5,a5,0x10
 33e:	d2be                	sw	a5,100(sp)
 340:	010ad793          	srl	a5,s5,0x10
 344:	d4be                	sw	a5,104(sp)
 346:	02015783          	lhu	a5,32(sp)
 34a:	4c01                	li	s8,0
 34c:	4b81                	li	s7,0
 34e:	d6be                	sw	a5,108(sp)
 350:	010a1793          	sll	a5,s4,0x10
 354:	83c1                	srl	a5,a5,0x10
 356:	d8be                	sw	a5,112(sp)
 358:	000007b7          	lui	a5,0x0
 35c:	00078793          	mv	a5,a5
 360:	dabe                	sw	a5,116(sp)
 362:	02415783          	lhu	a5,36(sp)
 366:	4301                	li	t1,0
 368:	010cdc93          	srl	s9,s9,0x10
 36c:	dcbe                	sw	a5,120(sp)
 36e:	010a9793          	sll	a5,s5,0x10
 372:	83c1                	srl	a5,a5,0x10
 374:	debe                	sw	a5,124(sp)
 376:	42c1                	li	t0,16
 378:	07f00e13          	li	t3,127
 37c:	f8100e93          	li	t4,-127

00000380 <.L223>:
 380:	fff30793          	add	a5,t1,-1
 384:	4699                	li	a3,6
 386:	40f6e663          	bltu	a3,a5,792 <.L208>
 38a:	56d6                	lw	a3,116(sp)
 38c:	078a                	sll	a5,a5,0x2
 38e:	97b6                	add	a5,a5,a3
 390:	439c                	lw	a5,0(a5)
 392:	8782                	jr	a5

00000394 <.L233>:
 394:	4785                	li	a5,1
 396:	d83e                	sw	a5,48(sp)
 398:	b569                	j	222 <.L193>

0000039a <.L206>:
 39a:	47d6                	lw	a5,84(sp)
 39c:	00199513          	sll	a0,s3,0x1
 3a0:	e799                	bnez	a5,3ae <.L263>
 3a2:	000007b7          	lui	a5,0x0
 3a6:	0007a503          	lw	a0,0(a5) # 0 <ate_txframe_dut>
 3aa:	0509                	add	a0,a0,2 # 2 <ate_txframe_dut+0x2>
 3ac:	050a                	sll	a0,a0,0x2

000003ae <.L263>:
 3ae:	0562                	sll	a0,a0,0x18
 3b0:	8561                	sra	a0,a0,0x18
 3b2:	00000097          	auipc	ra,0x0
 3b6:	000080e7          	jalr	ra # 3b2 <.L263+0x4>
 3ba:	00299713          	sll	a4,s3,0x2
 3be:	191c                	add	a5,sp,176
 3c0:	00e78d33          	add	s10,a5,a4
 3c4:	099c                	add	a5,sp,208
 3c6:	00e78bb3          	add	s7,a5,a4
 3ca:	000d2023          	sw	zero,0(s10) # ff000000 <.L192+0xfefff830>
 3ce:	000ba023          	sw	zero,0(s7) # 40000000 <.L192+0x3ffff830>
 3d2:	60033db7          	lui	s11,0x60033

000003d6 <.L205>:
 3d6:	084da783          	lw	a5,132(s11) # 60033084 <.L192+0x600328b4>
 3da:	40000737          	lui	a4,0x40000
 3de:	4566                	lw	a0,88(sp)
 3e0:	8fd9                	or	a5,a5,a4
 3e2:	08fda223          	sw	a5,132(s11)
 3e6:	57e2                	lw	a5,56(sp)
 3e8:	012c2423          	sw	s2,8(s8)
 3ec:	0905                	add	s2,s2,1
 3ee:	00fc2223          	sw	a5,4(s8)
 3f2:	00000097          	auipc	ra,0x0
 3f6:	000080e7          	jalr	ra # 3f2 <.L205+0x1c>
 3fa:	ff0007b7          	lui	a5,0xff000
 3fe:	8d7d                	and	a0,a0,a5
 400:	e149                	bnez	a0,482 <.L199>
 402:	084da783          	lw	a5,132(s11)
 406:	00179713          	sll	a4,a5,0x1
 40a:	06074963          	bltz	a4,47c <.L200>
 40e:	47a6                	lw	a5,72(sp)
 410:	4711                	li	a4,4
 412:	439c                	lw	a5,0(a5)
 414:	06e79463          	bne	a5,a4,47c <.L200>
 418:	00040583          	lb	a1,0(s0)
 41c:	000d2503          	lw	a0,0(s10)
 420:	06042303          	lw	t1,96(s0)
 424:	4c7c                	lw	a5,92(s0)
 426:	952e                	add	a0,a0,a1
 428:	000ba583          	lw	a1,0(s7)
 42c:	00ad2023          	sw	a0,0(s10)
 430:	d03e                	sw	a5,32(sp)
 432:	959a                	add	a1,a1,t1
 434:	00bba023          	sw	a1,0(s7)
 438:	00000097          	auipc	ra,0x0
 43c:	000080e7          	jalr	ra # 438 <.L205+0x62>
 440:	00149593          	sll	a1,s1,0x1
 444:	199c                	add	a5,sp,240
 446:	0485                	add	s1,s1,1
 448:	95be                	add	a1,a1,a5
 44a:	04c2                	sll	s1,s1,0x10
 44c:	faa59c23          	sh	a0,-72(a1)
 450:	84c1                	sra	s1,s1,0x10
 452:	4711                	li	a4,4
 454:	5782                	lw	a5,32(sp)
 456:	46fd                	li	a3,31
 458:	4605                	li	a2,1
 45a:	00e49363          	bne	s1,a4,460 <.L201>
 45e:	4481                	li	s1,0

00000460 <.L201>:
 460:	5078                	lw	a4,100(s0)
 462:	d03a                	sw	a4,32(sp)
 464:	5438                	lw	a4,104(s0)
 466:	d43a                	sw	a4,40(sp)
 468:	5478                	lw	a4,108(s0)
 46a:	d63a                	sw	a4,44(sp)
 46c:	5838                	lw	a4,112(s0)
 46e:	d23a                	sw	a4,36(sp)
 470:	02f6e563          	bltu	a3,a5,49a <.L202>
 474:	00f617b3          	sll	a5,a2,a5
 478:	00fa6a33          	or	s4,s4,a5

0000047c <.L200>:
 47c:	600357b7          	lui	a5,0x60035
 480:	439c                	lw	a5,0(a5)

00000482 <.L199>:
 482:	600357b7          	lui	a5,0x60035
 486:	439c                	lw	a5,0(a5)
 488:	f59917e3          	bne	s2,s9,3d6 <.L205>
 48c:	4706                	lw	a4,64(sp)
 48e:	0985                	add	s3,s3,1
 490:	0cc1                	add	s9,s9,16
 492:	8f99                	sub	a5,a5,a4
 494:	c2be                	sw	a5,68(sp)
 496:	4d05                	li	s10,1
 498:	b539                	j	2a6 <.L196>

0000049a <.L202>:
 49a:	fe078593          	add	a1,a5,-32 # 60034fe0 <.L192+0x60034810>
 49e:	00b6e863          	bltu	a3,a1,4ae <.L203>
 4a2:	47f2                	lw	a5,28(sp)
 4a4:	00b615b3          	sll	a1,a2,a1
 4a8:	8fcd                	or	a5,a5,a1
 4aa:	ce3e                	sw	a5,28(sp)
 4ac:	bfc1                	j	47c <.L200>

000004ae <.L203>:
 4ae:	fc078593          	add	a1,a5,-64
 4b2:	00b6e763          	bltu	a3,a1,4c0 <.L204>
 4b6:	00b615b3          	sll	a1,a2,a1
 4ba:	00bb6b33          	or	s6,s6,a1
 4be:	bf7d                	j	47c <.L200>

000004c0 <.L204>:
 4c0:	fa078793          	add	a5,a5,-96
 4c4:	faf6ece3          	bltu	a3,a5,47c <.L200>
 4c8:	00f617b3          	sll	a5,a2,a5
 4cc:	00faeab3          	or	s5,s5,a5
 4d0:	b775                	j	47c <.L200>

000004d2 <.L234>:
 4d2:	57fd                	li	a5,-1
 4d4:	4a81                	li	s5,0
 4d6:	4b01                	li	s6,0
 4d8:	ce02                	sw	zero,28(sp)
 4da:	4a01                	li	s4,0
 4dc:	d202                	sw	zero,36(sp)
 4de:	d602                	sw	zero,44(sp)
 4e0:	d402                	sw	zero,40(sp)
 4e2:	d002                	sw	zero,32(sp)
 4e4:	4d01                	li	s10,0
 4e6:	c2be                	sw	a5,68(sp)
 4e8:	c082                	sw	zero,64(sp)
 4ea:	4901                	li	s2,0
 4ec:	b3e9                	j	2b6 <.L195>

000004ee <.L214>:
 4ee:	4666                	lw	a2,88(sp)
 4f0:	46d6                	lw	a3,84(sp)

000004f2 <.L216>:
 4f2:	4501                	li	a0,0
 4f4:	4781                	li	a5,0
 4f6:	4801                	li	a6,0

000004f8 <.L217>:
 4f8:	410658b3          	sra	a7,a2,a6
 4fc:	0018f893          	and	a7,a7,1
 500:	97c6                	add	a5,a5,a7
 502:	4106d8b3          	sra	a7,a3,a6
 506:	0018f893          	and	a7,a7,1
 50a:	9546                	add	a0,a0,a7
 50c:	0805                	add	a6,a6,1 # ff0001 <.L192+0xfef831>
 50e:	0ff7f793          	zext.b	a5,a5
 512:	0ff57513          	zext.b	a0,a0
 516:	fe5811e3          	bne	a6,t0,4f8 <.L217>
 51a:	00ff8023          	sb	a5,0(t6)
 51e:	00af0023          	sb	a0,0(t5)
 522:	cb89                	beqz	a5,534 <.L218>
 524:	4194                	lw	a3,0(a1)
 526:	4310                	lw	a2,0(a4)
 528:	02f6c6b3          	div	a3,a3,a5
 52c:	c194                	sw	a3,0(a1)
 52e:	02f646b3          	div	a3,a2,a5
 532:	c314                	sw	a3,0(a4)

00000534 <.L218>:
 534:	4314                	lw	a3,0(a4)
 536:	4190                	lw	a2,0(a1)
 538:	fa068693          	add	a3,a3,-96
 53c:	c314                	sw	a3,0(a4)
 53e:	26ce5f63          	bge	t3,a2,7bc <.L219>
 542:	01c5a023          	sw	t3,0(a1)

00000546 <.L220>:
 546:	28de5063          	bge	t3,a3,7c6 <.L221>
 54a:	01c72023          	sw	t3,0(a4) # 40000000 <.L192+0x3ffff830>

0000054e <.L222>:
 54e:	9c3e                	add	s8,s8,a5
 550:	9baa                	add	s7,s7,a0
 552:	0305                	add	t1,t1,1
 554:	47a1                	li	a5,8
 556:	0ffbfb93          	zext.b	s7,s7
 55a:	0ffc7c13          	zext.b	s8,s8
 55e:	0711                	add	a4,a4,4
 560:	0591                	add	a1,a1,4
 562:	0f85                	add	t6,t6,1
 564:	0f05                	add	t5,t5,1
 566:	e0f31de3          	bne	t1,a5,380 <.L223>
 56a:	4401                	li	s0,0
 56c:	4d81                	li	s11,0
 56e:	4781                	li	a5,0
 570:	46a1                	li	a3,8

00000572 <.L224>:
 572:	5702                	lw	a4,32(sp)
 574:	00f75733          	srl	a4,a4,a5
 578:	8b05                	and	a4,a4,1
 57a:	9dba                	add	s11,s11,a4
 57c:	00fa5733          	srl	a4,s4,a5
 580:	8b05                	and	a4,a4,1
 582:	943a                	add	s0,s0,a4
 584:	0785                	add	a5,a5,1
 586:	0ffdfd93          	zext.b	s11,s11
 58a:	0ff47413          	zext.b	s0,s0
 58e:	fed792e3          	bne	a5,a3,572 <.L224>
 592:	57d2                	lw	a5,52(sp)
 594:	1c078463          	beqz	a5,75c <.L189>
 598:	00000537          	lui	a0,0x0
 59c:	00050513          	mv	a0,a0
 5a0:	00000097          	auipc	ra,0x0
 5a4:	000080e7          	jalr	ra # 5a0 <.L224+0x2e>
 5a8:	000007b7          	lui	a5,0x0
 5ac:	02048713          	add	a4,s1,32
 5b0:	8cbe                	mv	s9,a5

000005b2 <.L226>:
 5b2:	408c                	lw	a1,0(s1)
 5b4:	00078513          	mv	a0,a5
 5b8:	da3a                	sw	a4,52(sp)
 5ba:	00000097          	auipc	ra,0x0
 5be:	000080e7          	jalr	ra # 5ba <.L226+0x8>
 5c2:	5752                	lw	a4,52(sp)
 5c4:	0491                	add	s1,s1,4
 5c6:	000007b7          	lui	a5,0x0
 5ca:	fe9714e3          	bne	a4,s1,5b2 <.L226>
 5ce:	000004b7          	lui	s1,0x0
 5d2:	00048513          	mv	a0,s1
 5d6:	00000097          	auipc	ra,0x0
 5da:	000080e7          	jalr	ra # 5d6 <.L226+0x24>
 5de:	00000537          	lui	a0,0x0
 5e2:	00050513          	mv	a0,a0
 5e6:	00000097          	auipc	ra,0x0
 5ea:	000080e7          	jalr	ra # 5e6 <.L226+0x34>
 5ee:	02098793          	add	a5,s3,32

000005f2 <.L227>:
 5f2:	0009a583          	lw	a1,0(s3)
 5f6:	000c8513          	mv	a0,s9
 5fa:	da3e                	sw	a5,52(sp)
 5fc:	00000097          	auipc	ra,0x0
 600:	000080e7          	jalr	ra # 5fc <.L227+0xa>
 604:	57d2                	lw	a5,52(sp)
 606:	0991                	add	s3,s3,4
 608:	ff3795e3          	bne	a5,s3,5f2 <.L227>
 60c:	00048513          	mv	a0,s1
 610:	00000097          	auipc	ra,0x0
 614:	000080e7          	jalr	ra # 610 <.L227+0x1e>
 618:	00000537          	lui	a0,0x0
 61c:	00050513          	mv	a0,a0
 620:	00000097          	auipc	ra,0x0
 624:	000080e7          	jalr	ra # 620 <.L227+0x2e>
 628:	4981                	li	s3,0

0000062a <.L228>:
 62a:	111c                	add	a5,sp,160
 62c:	01378733          	add	a4,a5,s3
 630:	00074583          	lbu	a1,0(a4)
 634:	000c8513          	mv	a0,s9
 638:	0985                	add	s3,s3,1
 63a:	00000097          	auipc	ra,0x0
 63e:	000080e7          	jalr	ra # 63a <.L228+0x10>
 642:	47a1                	li	a5,8
 644:	fef993e3          	bne	s3,a5,62a <.L228>
 648:	00048513          	mv	a0,s1
 64c:	00000097          	auipc	ra,0x0
 650:	000080e7          	jalr	ra # 64c <.L228+0x22>
 654:	00000537          	lui	a0,0x0
 658:	00050513          	mv	a0,a0
 65c:	00000097          	auipc	ra,0x0
 660:	000080e7          	jalr	ra # 65c <.L228+0x32>
 664:	4981                	li	s3,0

00000666 <.L229>:
 666:	093c                	add	a5,sp,152
 668:	01378733          	add	a4,a5,s3
 66c:	00074583          	lbu	a1,0(a4)
 670:	000c8513          	mv	a0,s9
 674:	0985                	add	s3,s3,1
 676:	00000097          	auipc	ra,0x0
 67a:	000080e7          	jalr	ra # 676 <.L229+0x10>
 67e:	47a1                	li	a5,8
 680:	fef993e3          	bne	s3,a5,666 <.L229>
 684:	00048513          	mv	a0,s1
 688:	00000097          	auipc	ra,0x0
 68c:	000080e7          	jalr	ra # 688 <.L229+0x22>
 690:	00000537          	lui	a0,0x0
 694:	00050513          	mv	a0,a0
 698:	00000097          	auipc	ra,0x0
 69c:	000080e7          	jalr	ra # 698 <.L229+0x32>
 6a0:	6785                	lui	a5,0x1
 6a2:	0a810993          	add	s3,sp,168
 6a6:	c1800693          	li	a3,-1000
 6aa:	9b478793          	add	a5,a5,-1612 # 9b4 <.L192+0x1e4>

000006ae <.L230>:
 6ae:	00099583          	lh	a1,0(s3)
 6b2:	000c8513          	mv	a0,s9
 6b6:	0989                	add	s3,s3,2
 6b8:	02d585b3          	mul	a1,a1,a3
 6bc:	02f5c5b3          	div	a1,a1,a5
 6c0:	feb99f23          	sh	a1,-2(s3)
 6c4:	00000097          	auipc	ra,0x0
 6c8:	000080e7          	jalr	ra # 6c4 <.L230+0x16>
 6cc:	6785                	lui	a5,0x1
 6ce:	1918                	add	a4,sp,176
 6d0:	9b478793          	add	a5,a5,-1612 # 9b4 <.L192+0x1e4>
 6d4:	c1800693          	li	a3,-1000
 6d8:	fd371be3          	bne	a4,s3,6ae <.L230>
 6dc:	00048513          	mv	a0,s1
 6e0:	00000097          	auipc	ra,0x0
 6e4:	000080e7          	jalr	ra # 6e0 <.L230+0x32>
 6e8:	48f2                	lw	a7,28(sp)
 6ea:	5702                	lw	a4,32(sp)
 6ec:	56a2                	lw	a3,40(sp)
 6ee:	5632                	lw	a2,44(sp)
 6f0:	5592                	lw	a1,36(sp)
 6f2:	00000537          	lui	a0,0x0
 6f6:	885a                	mv	a6,s6
 6f8:	87d6                	mv	a5,s5
 6fa:	c052                	sw	s4,0(sp)
 6fc:	00050513          	mv	a0,a0
 700:	00000097          	auipc	ra,0x0
 704:	000080e7          	jalr	ra # 700 <.L230+0x52>
 708:	418b86b3          	sub	a3,s7,s8
 70c:	00d40733          	add	a4,s0,a3
 710:	41b70733          	sub	a4,a4,s11
 714:	00000537          	lui	a0,0x0
 718:	0ff77713          	zext.b	a4,a4
 71c:	8662                	mv	a2,s8
 71e:	85de                	mv	a1,s7
 720:	00050513          	mv	a0,a0
 724:	00000097          	auipc	ra,0x0
 728:	000080e7          	jalr	ra # 724 <.L230+0x76>
 72c:	5642                	lw	a2,48(sp)
 72e:	55e2                	lw	a1,56(sp)
 730:	4796                	lw	a5,68(sp)
 732:	56f2                	lw	a3,60(sp)
 734:	00000537          	lui	a0,0x0
 738:	884a                	mv	a6,s2
 73a:	876a                	mv	a4,s10
 73c:	00050513          	mv	a0,a0
 740:	00000097          	auipc	ra,0x0
 744:	000080e7          	jalr	ra # 740 <.L230+0x92>
 748:	4606                	lw	a2,64(sp)
 74a:	45c6                	lw	a1,80(sp)
 74c:	00000537          	lui	a0,0x0
 750:	00050513          	mv	a0,a0
 754:	00000097          	auipc	ra,0x0
 758:	000080e7          	jalr	ra # 754 <.L230+0xa6>

0000075c <.L189>:
 75c:	12c12083          	lw	ra,300(sp)
 760:	12812403          	lw	s0,296(sp)
 764:	12412483          	lw	s1,292(sp)
 768:	12012903          	lw	s2,288(sp)
 76c:	11c12983          	lw	s3,284(sp)
 770:	11812a03          	lw	s4,280(sp)
 774:	11412a83          	lw	s5,276(sp)
 778:	11012b03          	lw	s6,272(sp)
 77c:	10c12b83          	lw	s7,268(sp)
 780:	10812c03          	lw	s8,264(sp)
 784:	10412c83          	lw	s9,260(sp)
 788:	10012d03          	lw	s10,256(sp)
 78c:	5dfe                	lw	s11,252(sp)
 78e:	6155                	add	sp,sp,304
 790:	8082                	ret

00000792 <.L208>:
 792:	56b6                	lw	a3,108(sp)
 794:	5646                	lw	a2,112(sp)
 796:	bbb1                	j	4f2 <.L216>

00000798 <.L215>:
 798:	86a2                	mv	a3,s0
 79a:	861e                	mv	a2,t2
 79c:	bb99                	j	4f2 <.L216>

0000079e <.L213>:
 79e:	86ee                	mv	a3,s11
 7a0:	8666                	mv	a2,s9
 7a2:	bb81                	j	4f2 <.L216>

000007a4 <.L212>:
 7a4:	5606                	lw	a2,96(sp)
 7a6:	46f6                	lw	a3,92(sp)
 7a8:	b3a9                	j	4f2 <.L216>

000007aa <.L211>:
 7aa:	56e6                	lw	a3,120(sp)
 7ac:	5676                	lw	a2,124(sp)
 7ae:	b391                	j	4f2 <.L216>

000007b0 <.L209>:
 7b0:	5626                	lw	a2,104(sp)
 7b2:	5696                	lw	a3,100(sp)
 7b4:	bb3d                	j	4f2 <.L216>

000007b6 <.L235>:
 7b6:	4636                	lw	a2,76(sp)
 7b8:	46a6                	lw	a3,72(sp)
 7ba:	bb25                	j	4f2 <.L216>

000007bc <.L219>:
 7bc:	d9d655e3          	bge	a2,t4,546 <.L220>
 7c0:	01d5a023          	sw	t4,0(a1)
 7c4:	b349                	j	546 <.L220>

000007c6 <.L221>:
 7c6:	d9d6d4e3          	bge	a3,t4,54e <.L222>
 7ca:	01d72023          	sw	t4,0(a4)
 7ce:	b341                	j	54e <.L222>

000007d0 <.L192>:
 7d0:	57d2                	lw	a5,52(sp)
 7d2:	a40783e3          	beqz	a5,218 <.L232>
 7d6:	d802                	sw	zero,48(sp)
 7d8:	b42d                	j	202 <.L231>

Disassembly of section .text.tx_ack_start:

00000000 <tx_ack_start>:
   0:	711d                	add	sp,sp,-96
   2:	ca2a                	sw	a0,20(sp)
   4:	4529                	li	a0,10
   6:	cca2                	sw	s0,88(sp)
   8:	caa6                	sw	s1,84(sp)
   a:	c8ca                	sw	s2,80(sp)
   c:	c6ce                	sw	s3,76(sp)
   e:	c4d2                	sw	s4,72(sp)
  10:	c2d6                	sw	s5,68(sp)
  12:	c0da                	sw	s6,64(sp)
  14:	de5e                	sw	s7,60(sp)
  16:	dc62                	sw	s8,56(sp)
  18:	da66                	sw	s9,52(sp)
  1a:	d86a                	sw	s10,48(sp)
  1c:	d66e                	sw	s11,44(sp)
  1e:	c632                	sw	a2,12(sp)
  20:	cc36                	sw	a3,24(sp)
  22:	ce86                	sw	ra,92(sp)
  24:	84ae                	mv	s1,a1
  26:	8cba                	mv	s9,a4
  28:	00000097          	auipc	ra,0x0
  2c:	000080e7          	jalr	ra # 28 <tx_ack_start+0x28>
  30:	000007b7          	lui	a5,0x0
  34:	4632                	lw	a2,12(sp)
  36:	00079023          	sh	zero,0(a5) # 0 <tx_ack_start>
  3a:	6001c7b7          	lui	a5,0x6001c
  3e:	4f9c                	lw	a5,24(a5)
  40:	411c                	lw	a5,0(a0)
  42:	0f0006b7          	lui	a3,0xf000
  46:	0662                	sll	a2,a2,0x18
  48:	8e75                	and	a2,a2,a3
  4a:	f10006b7          	lui	a3,0xf1000
  4e:	16fd                	add	a3,a3,-1 # f0ffffff <.L192+0xf0fff82f>
  50:	8ff5                	and	a5,a5,a3
  52:	8e5d                	or	a2,a2,a5
  54:	ffc01bb7          	lui	s7,0xffc01
  58:	6c31                	lui	s8,0xc
  5a:	89aa                	mv	s3,a0
  5c:	c110                	sw	a2,0(a0)
  5e:	c802                	sw	zero,16(sp)
  60:	4a01                	li	s4,0
  62:	4901                	li	s2,0
  64:	4401                	li	s0,0
  66:	4a81                	li	s5,0
  68:	b0000b13          	li	s6,-1280
  6c:	c602                	sw	zero,12(sp)
  6e:	b0000d93          	li	s11,-1280
  72:	4d01                	li	s10,0
  74:	1bfd                	add	s7,s7,-1 # ffc00fff <.L192+0xffc0082f>
  76:	350c0c13          	add	s8,s8,848 # c350 <.L192+0xbb80>

0000007a <.L265>:
  7a:	47d2                	lw	a5,20(sp)
  7c:	04faea63          	bltu	s5,a5,d0 <.L275>
  80:	47a5                	li	a5,9
  82:	1147ff63          	bgeu	a5,s4,1a0 <.L276>
  86:	4429                	li	s0,10
  88:	02890433          	mul	s0,s2,s0
  8c:	ffca0913          	add	s2,s4,-4
  90:	4d32                	lw	s10,12(sp)
  92:	8dda                	mv	s11,s6
  94:	03244433          	div	s0,s0,s2
  98:	0442                	sll	s0,s0,0x10
  9a:	8441                	sra	s0,s0,0x10

0000009c <.L277>:
  9c:	47c2                	lw	a5,16(sp)
  9e:	008ca423          	sw	s0,8(s9)
  a2:	40f6                	lw	ra,92(sp)
  a4:	4466                	lw	s0,88(sp)
  a6:	014ca223          	sw	s4,4(s9)
  aa:	01bca623          	sw	s11,12(s9)
  ae:	01aca823          	sw	s10,16(s9)
  b2:	00fca023          	sw	a5,0(s9)
  b6:	44d6                	lw	s1,84(sp)
  b8:	4946                	lw	s2,80(sp)
  ba:	49b6                	lw	s3,76(sp)
  bc:	4a26                	lw	s4,72(sp)
  be:	4a96                	lw	s5,68(sp)
  c0:	4b06                	lw	s6,64(sp)
  c2:	5bf2                	lw	s7,60(sp)
  c4:	5c62                	lw	s8,56(sp)
  c6:	5cd2                	lw	s9,52(sp)
  c8:	5d42                	lw	s10,48(sp)
  ca:	5db2                	lw	s11,44(sp)
  cc:	6125                	add	sp,sp,96
  ce:	8082                	ret

000000d0 <.L275>:
  d0:	00000097          	auipc	ra,0x0
  d4:	000080e7          	jalr	ra # d0 <.L275>
  d8:	e499                	bnez	s1,e6 <.L266>
  da:	600357b7          	lui	a5,0x60035
  de:	5fe4                	lw	s1,124(a5)
  e0:	88bd                	and	s1,s1,15
  e2:	0485                	add	s1,s1,1 # 1 <tx_ack_start+0x1>
  e4:	048e                	sll	s1,s1,0x3

000000e6 <.L266>:
  e6:	0009a503          	lw	a0,0(s3)
  ea:	003ff737          	lui	a4,0x3ff
  ee:	00c49793          	sll	a5,s1,0xc
  f2:	8ff9                	and	a5,a5,a4
  f4:	01757533          	and	a0,a0,s7
  f8:	8fc9                	or	a5,a5,a0
  fa:	00f9a023          	sw	a5,0(s3)
  fe:	8562                	mv	a0,s8
 100:	00000097          	auipc	ra,0x0
 104:	000080e7          	jalr	ra # 100 <.L266+0x1a>
 108:	ff0007b7          	lui	a5,0xff000
 10c:	8d7d                	and	a0,a0,a5
 10e:	e92d                	bnez	a0,180 <.L267>
 110:	600337b7          	lui	a5,0x60033
 114:	0ac7a783          	lw	a5,172(a5) # 600330ac <.L192+0x600328dc>
 118:	87e1                	sra	a5,a5,0x18
 11a:	01a7d363          	bge	a5,s10,120 <.L268>
 11e:	8d3e                	mv	s10,a5

00000120 <.L268>:
 120:	00fdd363          	bge	s11,a5,126 <.L269>
 124:	8dbe                	mv	s11,a5

00000126 <.L269>:
 126:	01079513          	sll	a0,a5,0x10
 12a:	8141                	srl	a0,a0,0x10
 12c:	942a                	add	s0,s0,a0
 12e:	0442                	sll	s0,s0,0x10
 130:	48fd                	li	a7,31
 132:	8441                	sra	s0,s0,0x10
 134:	0158e963          	bltu	a7,s5,146 <.L270>
 138:	4742                	lw	a4,16(sp)
 13a:	4885                	li	a7,1
 13c:	015898b3          	sll	a7,a7,s5
 140:	01176733          	or	a4,a4,a7
 144:	c83a                	sw	a4,16(sp)

00000146 <.L270>:
 146:	00000737          	lui	a4,0x0
 14a:	00070313          	mv	t1,a4
 14e:	00035883          	lhu	a7,0(t1)
 152:	001a0693          	add	a3,s4,1
 156:	01069a13          	sll	s4,a3,0x10
 15a:	0885                	add	a7,a7,1 # 20001 <.L192+0x1f831>
 15c:	01131023          	sh	a7,0(t1)
 160:	010a5a13          	srl	s4,s4,0x10
 164:	4891                	li	a7,4
 166:	0148fd63          	bgeu	a7,s4,180 <.L267>
 16a:	4732                	lw	a4,12(sp)
 16c:	00e7d363          	bge	a5,a4,172 <.L271>
 170:	c63e                	sw	a5,12(sp)

00000172 <.L271>:
 172:	00fb5363          	bge	s6,a5,178 <.L272>
 176:	8b3e                	mv	s6,a5

00000178 <.L272>:
 178:	992a                	add	s2,s2,a0
 17a:	0942                	sll	s2,s2,0x10
 17c:	41095913          	sra	s2,s2,0x10

00000180 <.L267>:
 180:	4781                	li	a5,0

00000182 <.L273>:
 182:	4762                	lw	a4,24(sp)
 184:	00e79463          	bne	a5,a4,18c <.L274>
 188:	0a85                	add	s5,s5,1
 18a:	bdc5                	j	7a <.L265>

0000018c <.L274>:
 18c:	3e800513          	li	a0,1000
 190:	ce3e                	sw	a5,28(sp)
 192:	00000097          	auipc	ra,0x0
 196:	000080e7          	jalr	ra # 192 <.L274+0x6>
 19a:	47f2                	lw	a5,28(sp)
 19c:	0785                	add	a5,a5,1
 19e:	b7d5                	j	182 <.L273>

000001a0 <.L276>:
 1a0:	000a0a63          	beqz	s4,1b4 <.L278>
 1a4:	47a9                	li	a5,10
 1a6:	02f40433          	mul	s0,s0,a5
 1aa:	03444433          	div	s0,s0,s4
 1ae:	0442                	sll	s0,s0,0x10
 1b0:	8441                	sra	s0,s0,0x10
 1b2:	b5ed                	j	9c <.L277>

000001b4 <.L278>:
 1b4:	4401                	li	s0,0
 1b6:	b0000d93          	li	s11,-1280
 1ba:	4d01                	li	s10,0
 1bc:	b5c5                	j	9c <.L277>

Disassembly of section .text.tx_ack_init:

00000000 <tx_ack_init>:
   0:	715d                	add	sp,sp,-80
   2:	c2a6                	sw	s1,68(sp)
   4:	84ba                	mv	s1,a4
   6:	01350737          	lui	a4,0x1350
   a:	e1870713          	add	a4,a4,-488 # 134fe18 <.L192+0x134f648>
   e:	cc3a                	sw	a4,24(sp)
  10:	05040737          	lui	a4,0x5040
  14:	30270713          	add	a4,a4,770 # 5040302 <.L192+0x503fb32>
  18:	da56                	sw	s5,52(sp)
  1a:	8aaa                	mv	s5,a0
  1c:	4529                	li	a0,10
  1e:	c63e                	sw	a5,12(sp)
  20:	c686                	sw	ra,76(sp)
  22:	de4e                	sw	s3,60(sp)
  24:	dc52                	sw	s4,56(sp)
  26:	d85a                	sw	s6,48(sp)
  28:	8a36                	mv	s4,a3
  2a:	8b2e                	mv	s6,a1
  2c:	d65e                	sw	s7,44(sp)
  2e:	ce3a                	sw	a4,28(sp)
  30:	8bb2                	mv	s7,a2
  32:	c4a2                	sw	s0,72(sp)
  34:	c0ca                	sw	s2,64(sp)
  36:	00000097          	auipc	ra,0x0
  3a:	000080e7          	jalr	ra # 36 <tx_ack_init+0x36>
  3e:	00000737          	lui	a4,0x0
  42:	01572023          	sw	s5,0(a4) # 0 <tx_ack_init>
  46:	00000737          	lui	a4,0x0
  4a:	01672023          	sw	s6,0(a4) # 0 <tx_ack_init>
  4e:	00000737          	lui	a4,0x0
  52:	01772023          	sw	s7,0(a4) # 0 <tx_ack_init>
  56:	89aa                	mv	s3,a0
  58:	00000737          	lui	a4,0x0
  5c:	4505                	li	a0,1
  5e:	01472023          	sw	s4,0(a4) # 0 <tx_ack_init>
  62:	00000097          	auipc	ra,0x0
  66:	000080e7          	jalr	ra # 62 <tx_ack_init+0x62>
  6a:	47b2                	lw	a5,12(sp)
  6c:	e791                	bnez	a5,78 <.L281>
  6e:	0828                	add	a0,sp,24
  70:	00000097          	auipc	ra,0x0
  74:	000080e7          	jalr	ra # 70 <tx_ack_init+0x70>

00000078 <.L281>:
  78:	4762                	lw	a4,24(sp)
  7a:	47f2                	lw	a5,28(sp)
  7c:	60033437          	lui	s0,0x60033
  80:	c038                	sw	a4,64(s0)
  82:	60034937          	lui	s2,0x60034
  86:	c07c                	sw	a5,68(s0)
  88:	c7892783          	lw	a5,-904(s2) # 60033c78 <.L192+0x600334a8>
  8c:	74657737          	lui	a4,0x74657
  90:	01410813          	add	a6,sp,20
  94:	0027e793          	or	a5,a5,2
  98:	c6f92c23          	sw	a5,-904(s2)
  9c:	000007b7          	lui	a5,0x0
  a0:	0177a023          	sw	s7,0(a5) # 0 <tx_ack_init>
  a4:	37370713          	add	a4,a4,883 # 74657373 <.L192+0x74656ba3>
  a8:	081c                	add	a5,sp,16
  aa:	86da                	mv	a3,s6
  ac:	8656                	mv	a2,s5
  ae:	85d2                	mv	a1,s4
  b0:	4505                	li	a0,1
  b2:	00000097          	auipc	ra,0x0
  b6:	000080e7          	jalr	ra # b2 <.L281+0x3a>
  ba:	0009a783          	lw	a5,0(s3)
  be:	049e                	sll	s1,s1,0x7
  c0:	0ff4f493          	zext.b	s1,s1
  c4:	f7f7f793          	and	a5,a5,-129
  c8:	8cdd                	or	s1,s1,a5
  ca:	0099a023          	sw	s1,0(s3)
  ce:	08442783          	lw	a5,132(s0) # 60033084 <.L192+0x600328b4>
  d2:	20000737          	lui	a4,0x20000
  d6:	177d                	add	a4,a4,-1 # 1fffffff <.L192+0x1ffff82f>
  d8:	8ff9                	and	a5,a5,a4
  da:	08f42223          	sw	a5,132(s0)
  de:	08042783          	lw	a5,128(s0)
  e2:	f0000737          	lui	a4,0xf0000
  e6:	177d                	add	a4,a4,-1 # efffffff <.L192+0xeffff82f>
  e8:	8ff9                	and	a5,a5,a4
  ea:	08f42023          	sw	a5,128(s0)
  ee:	08442783          	lw	a5,132(s0)
  f2:	80000737          	lui	a4,0x80000
  f6:	40b6                	lw	ra,76(sp)
  f8:	8fd9                	or	a5,a5,a4
  fa:	08f42223          	sw	a5,132(s0)
  fe:	c4492783          	lw	a5,-956(s2)
 102:	7741                	lui	a4,0xffff0
 104:	0ff70713          	add	a4,a4,255 # ffff00ff <.L192+0xfffef92f>
 108:	8ff9                	and	a5,a5,a4
 10a:	6711                	lui	a4,0x4
 10c:	8fd9                	or	a5,a5,a4
 10e:	c4f92223          	sw	a5,-956(s2)
 112:	c4492783          	lw	a5,-956(s2)
 116:	4426                	lw	s0,72(sp)
 118:	4496                	lw	s1,68(sp)
 11a:	f007f793          	and	a5,a5,-256
 11e:	0407e793          	or	a5,a5,64
 122:	c4f92223          	sw	a5,-956(s2)
 126:	59f2                	lw	s3,60(sp)
 128:	4906                	lw	s2,64(sp)
 12a:	5a62                	lw	s4,56(sp)
 12c:	5ad2                	lw	s5,52(sp)
 12e:	5b42                	lw	s6,48(sp)
 130:	5bb2                	lw	s7,44(sp)
 132:	6161                	add	sp,sp,80
 134:	8082                	ret

Disassembly of section .text.tx_ack_test:

00000000 <tx_ack_test>:
   0:	7139                	add	sp,sp,-64
   2:	da26                	sw	s1,52(sp)
   4:	84be                	mv	s1,a5
   6:	000007b7          	lui	a5,0x0
   a:	d84a                	sw	s2,48(sp)
   c:	0007a903          	lw	s2,0(a5) # 0 <tx_ack_test>
  10:	000007b7          	lui	a5,0x0
  14:	dc22                	sw	s0,56(sp)
  16:	00079023          	sh	zero,0(a5) # 0 <tx_ack_test>
  1a:	8436                	mv	s0,a3
  1c:	04414783          	lbu	a5,68(sp)
  20:	86ba                	mv	a3,a4
  22:	04014703          	lbu	a4,64(sp)
  26:	de06                	sw	ra,60(sp)
  28:	c642                	sw	a6,12(sp)
  2a:	c446                	sw	a7,8(sp)
  2c:	00000097          	auipc	ra,0x0
  30:	000080e7          	jalr	ra # 2c <tx_ack_test+0x2c>
  34:	48a2                	lw	a7,8(sp)
  36:	4832                	lw	a6,12(sp)
  38:	04000793          	li	a5,64
  3c:	00f90023          	sb	a5,0(s2)
  40:	0878                	add	a4,sp,28
  42:	86c6                	mv	a3,a7
  44:	8642                	mv	a2,a6
  46:	85a6                	mv	a1,s1
  48:	8522                	mv	a0,s0
  4a:	00000097          	auipc	ra,0x0
  4e:	000080e7          	jalr	ra # 4a <tx_ack_test+0x4a>
  52:	5832                	lw	a6,44(sp)
  54:	57a2                	lw	a5,40(sp)
  56:	5712                	lw	a4,36(sp)
  58:	02015683          	lhu	a3,32(sp)
  5c:	45f2                	lw	a1,28(sp)
  5e:	00000537          	lui	a0,0x0
  62:	8622                	mv	a2,s0
  64:	00050513          	mv	a0,a0
  68:	00000097          	auipc	ra,0x0
  6c:	000080e7          	jalr	ra # 68 <tx_ack_test+0x68>
  70:	50f2                	lw	ra,60(sp)
  72:	5462                	lw	s0,56(sp)
  74:	54d2                	lw	s1,52(sp)
  76:	5942                	lw	s2,48(sp)
  78:	6121                	add	sp,sp,64
  7a:	8082                	ret

Disassembly of section .text.test_txtone_pwr:

00000000 <test_txtone_pwr>:
   0:	1101                	add	sp,sp,-32
   2:	ca26                	sw	s1,20(sp)
   4:	84b2                	mv	s1,a2
   6:	c84a                	sw	s2,16(sp)
   8:	c64e                	sw	s3,12(sp)
   a:	c452                	sw	s4,8(sp)
   c:	ce06                	sw	ra,28(sp)
   e:	cc22                	sw	s0,24(sp)
  10:	892a                	mv	s2,a0
  12:	89ae                	mv	s3,a1
  14:	8a36                	mv	s4,a3
  16:	00000097          	auipc	ra,0x0
  1a:	000080e7          	jalr	ra # 16 <test_txtone_pwr+0x16>
  1e:	e8b1                	bnez	s1,72 <.L286>
  20:	4781                	li	a5,0
  22:	4701                	li	a4,0
  24:	4681                	li	a3,0
  26:	0ff97613          	zext.b	a2,s2
  2a:	85d2                	mv	a1,s4
  2c:	4505                	li	a0,1
  2e:	00000097          	auipc	ra,0x0
  32:	000080e7          	jalr	ra # 2e <test_txtone_pwr+0x2e>
  36:	4401                	li	s0,0

00000038 <.L287>:
  38:	0334c463          	blt	s1,s3,60 <.L288>

0000003c <.L289>:
  3c:	00000537          	lui	a0,0x0
  40:	85a2                	mv	a1,s0
  42:	00050513          	mv	a0,a0
  46:	00000097          	auipc	ra,0x0
  4a:	000080e7          	jalr	ra # 46 <.L289+0xa>
  4e:	8522                	mv	a0,s0
  50:	40f2                	lw	ra,28(sp)
  52:	4462                	lw	s0,24(sp)
  54:	44d2                	lw	s1,20(sp)
  56:	4942                	lw	s2,16(sp)
  58:	49b2                	lw	s3,12(sp)
  5a:	4a22                	lw	s4,8(sp)
  5c:	6105                	add	sp,sp,32
  5e:	8082                	ret

00000060 <.L288>:
  60:	0f400513          	li	a0,244
  64:	00000097          	auipc	ra,0x0
  68:	000080e7          	jalr	ra # 64 <.L288+0x4>
  6c:	942a                	add	s0,s0,a0
  6e:	0485                	add	s1,s1,1
  70:	b7e1                	j	38 <.L287>

00000072 <.L286>:
  72:	4785                	li	a5,1
  74:	4401                	li	s0,0
  76:	fcf493e3          	bne	s1,a5,3c <.L289>
  7a:	0c800513          	li	a0,200
  7e:	00000097          	auipc	ra,0x0
  82:	000080e7          	jalr	ra # 7e <.L286+0xc>
  86:	4481                	li	s1,0
  88:	0ff97913          	zext.b	s2,s2

0000008c <.L290>:
  8c:	0134c763          	blt	s1,s3,9a <.L291>
  90:	00000097          	auipc	ra,0x0
  94:	000080e7          	jalr	ra # 90 <.L290+0x4>
  98:	b755                	j	3c <.L289>

0000009a <.L291>:
  9a:	4781                	li	a5,0
  9c:	4701                	li	a4,0
  9e:	4681                	li	a3,0
  a0:	864a                	mv	a2,s2
  a2:	85d2                	mv	a1,s4
  a4:	4505                	li	a0,1
  a6:	00000097          	auipc	ra,0x0
  aa:	000080e7          	jalr	ra # a6 <.L291+0xc>
  ae:	0f400513          	li	a0,244
  b2:	00000097          	auipc	ra,0x0
  b6:	000080e7          	jalr	ra # b2 <.L291+0x18>
  ba:	942a                	add	s0,s0,a0
  bc:	4505                	li	a0,1
  be:	00000097          	auipc	ra,0x0
  c2:	000080e7          	jalr	ra # be <.L291+0x24>
  c6:	0485                	add	s1,s1,1
  c8:	b7d1                	j	8c <.L290>

Disassembly of section .text.get_rx_buffer:

00000000 <get_rx_buffer>:
   0:	711d                	add	sp,sp,-96
   2:	600357b7          	lui	a5,0x60035
   6:	c0da                	sw	s6,64(sp)
   8:	0007ab03          	lw	s6,0(a5) # 60035000 <.L192+0x60034830>
   c:	600337b7          	lui	a5,0x60033
  10:	0847a703          	lw	a4,132(a5) # 60033084 <.L192+0x600328b4>
  14:	200006b7          	lui	a3,0x20000
  18:	16fd                	add	a3,a3,-1 # 1fffffff <.L192+0x1ffff82f>
  1a:	c43a                	sw	a4,8(sp)
  1c:	0807a703          	lw	a4,128(a5)
  20:	caa6                	sw	s1,84(sp)
  22:	c8ca                	sw	s2,80(sp)
  24:	c63a                	sw	a4,12(sp)
  26:	0847a703          	lw	a4,132(a5)
  2a:	c6ce                	sw	s3,76(sp)
  2c:	c4d2                	sw	s4,72(sp)
  2e:	de5e                	sw	s7,60(sp)
  30:	dc62                	sw	s8,56(sp)
  32:	8f75                	and	a4,a4,a3
  34:	ce86                	sw	ra,92(sp)
  36:	cca2                	sw	s0,88(sp)
  38:	c2d6                	sw	s5,68(sp)
  3a:	da66                	sw	s9,52(sp)
  3c:	d86a                	sw	s10,48(sp)
  3e:	d66e                	sw	s11,44(sp)
  40:	08e7a223          	sw	a4,132(a5)
  44:	0807a703          	lw	a4,128(a5)
  48:	f00006b7          	lui	a3,0xf0000
  4c:	16fd                	add	a3,a3,-1 # efffffff <.L192+0xeffff82f>
  4e:	8f75                	and	a4,a4,a3
  50:	08e7a023          	sw	a4,128(a5)
  54:	000f47b7          	lui	a5,0xf4
  58:	24078793          	add	a5,a5,576 # f4240 <.L192+0xf3a70>
  5c:	8baa                	mv	s7,a0
  5e:	8c2e                	mv	s8,a1
  60:	4a01                	li	s4,0
  62:	4981                	li	s3,0
  64:	4901                	li	s2,0
  66:	4481                	li	s1,0
  68:	ca3e                	sw	a5,20(sp)

0000006a <.L312>:
  6a:	60033737          	lui	a4,0x60033
  6e:	08472783          	lw	a5,132(a4) # 60033084 <.L192+0x600328b4>
  72:	400006b7          	lui	a3,0x40000
  76:	60035437          	lui	s0,0x60035
  7a:	8fd5                	or	a5,a5,a3
  7c:	08f72223          	sw	a5,132(a4)

00000080 <.L295>:
  80:	60033ab7          	lui	s5,0x60033

00000084 <.L297>:
  84:	084aa783          	lw	a5,132(s5) # 60033084 <.L192+0x600328b4>
  88:	00179713          	sll	a4,a5,0x1
  8c:	00074563          	bltz	a4,96 <.L301>
  90:	0485                	add	s1,s1,1
  92:	4a81                	li	s5,0
  94:	a0a5                	j	fc <.L296>

00000096 <.L301>:
  96:	00000097          	auipc	ra,0x0
  9a:	000080e7          	jalr	ra # 96 <.L301>
  9e:	cd31                	beqz	a0,fa <.L313>
  a0:	401c                	lw	a5,0(s0)
  a2:	4752                	lw	a4,20(sp)
  a4:	416787b3          	sub	a5,a5,s6
  a8:	fcf77ee3          	bgeu	a4,a5,84 <.L297>
  ac:	000007b7          	lui	a5,0x0
  b0:	00078513          	mv	a0,a5
  b4:	85a6                	mv	a1,s1
  b6:	00000097          	auipc	ra,0x0
  ba:	000080e7          	jalr	ra # b6 <.L301+0x20>
  be:	47a9                	li	a5,10
  c0:	0327e663          	bltu	a5,s2,ec <.L314>
  c4:	02090663          	beqz	s2,f0 <.L299>

000000c8 <.L298>:
  c8:	02099463          	bnez	s3,f0 <.L299>
  cc:	4785                	li	a5,1
  ce:	02fb9163          	bne	s7,a5,f0 <.L299>
  d2:	000007b7          	lui	a5,0x0
  d6:	00078513          	mv	a0,a5

000000da <.L326>:
  da:	00000097          	auipc	ra,0x0
  de:	000080e7          	jalr	ra # da <.L326>
  e2:	0905                	add	s2,s2,1
  e4:	00042b03          	lw	s6,0(s0) # 60035000 <.L192+0x60034830>
  e8:	4981                	li	s3,0
  ea:	bf59                	j	80 <.L295>

000000ec <.L314>:
  ec:	8a5e                	mv	s4,s7
  ee:	bfe9                	j	c8 <.L298>

000000f0 <.L299>:
  f0:	000007b7          	lui	a5,0x0
  f4:	00078513          	mv	a0,a5
  f8:	b7cd                	j	da <.L326>

000000fa <.L313>:
  fa:	4a85                	li	s5,1

000000fc <.L296>:
  fc:	00000097          	auipc	ra,0x0
 100:	000080e7          	jalr	ra # fc <.L296>
 104:	00050783          	lb	a5,0(a0) # 0 <get_rx_buffer>
 108:	4100                	lw	s0,0(a0)
 10a:	8d2a                	mv	s10,a0
 10c:	c83e                	sw	a5,16(sp)
 10e:	67b1                	lui	a5,0xc
 110:	8fe1                	and	a5,a5,s0
 112:	03050d93          	add	s11,a0,48
 116:	1a078563          	beqz	a5,2c0 <.L303>
 11a:	4158                	lw	a4,4(a0)
 11c:	00a45893          	srl	a7,s0,0xa
 120:	0308f893          	and	a7,a7,48
 124:	07f77713          	and	a4,a4,127
 128:	00e88cb3          	add	s9,a7,a4

0000012c <.L304>:
 12c:	010d2583          	lw	a1,16(s10)
 130:	18078d63          	beqz	a5,2ca <.L305>
 134:	004d2403          	lw	s0,4(s10)
 138:	8021                	srl	s0,s0,0x8
 13a:	0442                	sll	s0,s0,0x10
 13c:	8041                	srl	s0,s0,0x10

0000013e <.L306>:
 13e:	000007b7          	lui	a5,0x0
 142:	0007a783          	lw	a5,0(a5) # 0 <get_rx_buffer>
 146:	8566                	mv	a0,s9
 148:	0dc7a783          	lw	a5,220(a5)
 14c:	9782                	jalr	a5
 14e:	00cda683          	lw	a3,12(s11)
 152:	00ff05b7          	lui	a1,0xff0
 156:	8eaa                	mv	t4,a0
 158:	0086d713          	srl	a4,a3,0x8
 15c:	01071613          	sll	a2,a4,0x10
 160:	8e6d                	and	a2,a2,a1
 162:	0186d813          	srl	a6,a3,0x18
 166:	01869593          	sll	a1,a3,0x18
 16a:	0105e5b3          	or	a1,a1,a6
 16e:	8e4d                	or	a2,a2,a1
 170:	0106d793          	srl	a5,a3,0x10
 174:	65c1                	lui	a1,0x10
 176:	00879513          	sll	a0,a5,0x8
 17a:	15fd                	add	a1,a1,-1 # ffff <.L192+0xf82f>
 17c:	8d6d                	and	a0,a0,a1
 17e:	8e49                	or	a2,a2,a0
 180:	41860633          	sub	a2,a2,s8
 184:	00163613          	seqz	a2,a2
 188:	4505                	li	a0,1
 18a:	99b2                	add	s3,s3,a2
 18c:	02aa0563          	beq	s4,a0,1b6 <.L308>
 190:	4609                	li	a2,2
 192:	02ca1363          	bne	s4,a2,1b8 <.L309>
 196:	008da503          	lw	a0,8(s11)
 19a:	01055613          	srl	a2,a0,0x10
 19e:	8161                	srl	a0,a0,0x18
 1a0:	0542                	sll	a0,a0,0x10
 1a2:	0662                	sll	a2,a2,0x18
 1a4:	8e49                	or	a2,a2,a0
 1a6:	00869513          	sll	a0,a3,0x8
 1aa:	8de9                	and	a1,a1,a0
 1ac:	8e4d                	or	a2,a2,a1
 1ae:	41860633          	sub	a2,a2,s8
 1b2:	00163613          	seqz	a2,a2

000001b6 <.L308>:
 1b6:	ce4d                	beqz	a2,270 <.L310>

000001b8 <.L309>:
 1b8:	008da603          	lw	a2,8(s11)
 1bc:	014daf03          	lw	t5,20(s11)
 1c0:	00000537          	lui	a0,0x0
 1c4:	01065593          	srl	a1,a2,0x10
 1c8:	0ff7f793          	zext.b	a5,a5
 1cc:	0ff77713          	zext.b	a4,a4
 1d0:	0ff6f693          	zext.b	a3,a3
 1d4:	8261                	srl	a2,a2,0x18
 1d6:	0ff5f593          	zext.b	a1,a1
 1da:	00050513          	mv	a0,a0
 1de:	ce76                	sw	t4,28(sp)
 1e0:	cc7a                	sw	t5,24(sp)
 1e2:	00000097          	auipc	ra,0x0
 1e6:	000080e7          	jalr	ra # 1e2 <.L309+0x2a>
 1ea:	004da583          	lw	a1,4(s11)
 1ee:	008da783          	lw	a5,8(s11)
 1f2:	00000537          	lui	a0,0x0
 1f6:	0105d693          	srl	a3,a1,0x10
 1fa:	0087d813          	srl	a6,a5,0x8
 1fe:	0085d613          	srl	a2,a1,0x8
 202:	0ff7f793          	zext.b	a5,a5
 206:	0185d713          	srl	a4,a1,0x18
 20a:	0ff87813          	zext.b	a6,a6
 20e:	0ff6f693          	zext.b	a3,a3
 212:	0ff67613          	zext.b	a2,a2
 216:	0ff5f593          	zext.b	a1,a1
 21a:	00050513          	mv	a0,a0
 21e:	00000097          	auipc	ra,0x0
 222:	000080e7          	jalr	ra # 21e <.L309+0x66>
 226:	030d2583          	lw	a1,48(s10)
 22a:	00000537          	lui	a0,0x0
 22e:	00050513          	mv	a0,a0
 232:	0085d693          	srl	a3,a1,0x8
 236:	0105d613          	srl	a2,a1,0x10
 23a:	0ff5f713          	zext.b	a4,a1
 23e:	0ff6f693          	zext.b	a3,a3
 242:	0ff67613          	zext.b	a2,a2
 246:	81e1                	srl	a1,a1,0x18
 248:	00000097          	auipc	ra,0x0
 24c:	000080e7          	jalr	ra # 248 <.L309+0x90>
 250:	4f62                	lw	t5,24(sp)
 252:	4ef2                	lw	t4,28(sp)
 254:	45c2                	lw	a1,16(sp)
 256:	00000537          	lui	a0,0x0
 25a:	014f5793          	srl	a5,t5,0x14
 25e:	8776                	mv	a4,t4
 260:	86a2                	mv	a3,s0
 262:	8666                	mv	a2,s9
 264:	00050513          	mv	a0,a0
 268:	00000097          	auipc	ra,0x0
 26c:	000080e7          	jalr	ra # 268 <.L309+0xb0>

00000270 <.L310>:
 270:	000a9863          	bnez	s5,280 <.L311>
 274:	00000097          	auipc	ra,0x0
 278:	000080e7          	jalr	ra # 274 <.L310+0x4>
 27c:	de0517e3          	bnez	a0,6a <.L312>

00000280 <.L311>:
 280:	00000537          	lui	a0,0x0
 284:	85a6                	mv	a1,s1
 286:	00050513          	mv	a0,a0
 28a:	00000097          	auipc	ra,0x0
 28e:	000080e7          	jalr	ra # 28a <.L311+0xa>
 292:	4722                	lw	a4,8(sp)
 294:	600337b7          	lui	a5,0x60033
 298:	40f6                	lw	ra,92(sp)
 29a:	08e7a223          	sw	a4,132(a5) # 60033084 <.L192+0x600328b4>
 29e:	4732                	lw	a4,12(sp)
 2a0:	4466                	lw	s0,88(sp)
 2a2:	44d6                	lw	s1,84(sp)
 2a4:	08e7a023          	sw	a4,128(a5)
 2a8:	4946                	lw	s2,80(sp)
 2aa:	49b6                	lw	s3,76(sp)
 2ac:	4a26                	lw	s4,72(sp)
 2ae:	4a96                	lw	s5,68(sp)
 2b0:	4b06                	lw	s6,64(sp)
 2b2:	5bf2                	lw	s7,60(sp)
 2b4:	5c62                	lw	s8,56(sp)
 2b6:	5cd2                	lw	s9,52(sp)
 2b8:	5d42                	lw	s10,48(sp)
 2ba:	5db2                	lw	s11,44(sp)
 2bc:	6125                	add	sp,sp,96
 2be:	8082                	ret

000002c0 <.L303>:
 2c0:	00845893          	srl	a7,s0,0x8
 2c4:	01f8fc93          	and	s9,a7,31
 2c8:	b595                	j	12c <.L304>

000002ca <.L305>:
 2ca:	0412                	sll	s0,s0,0x4
 2cc:	8051                	srl	s0,s0,0x14
 2ce:	bd85                	j	13e <.L306>

Disassembly of section .text.get_rx_buffer1:

00000000 <get_rx_buffer1>:
   0:	600357b7          	lui	a5,0x60035
   4:	439c                	lw	a5,0(a5)
   6:	7159                	add	sp,sp,-112
   8:	200006b7          	lui	a3,0x20000
   c:	c83e                	sw	a5,16(sp)
   e:	600337b7          	lui	a5,0x60033
  12:	0847a703          	lw	a4,132(a5) # 60033084 <.L192+0x600328b4>
  16:	16fd                	add	a3,a3,-1 # 1fffffff <.L192+0x1ffff82f>
  18:	d2a6                	sw	s1,100(sp)
  1a:	ce3a                	sw	a4,28(sp)
  1c:	0807a703          	lw	a4,128(a5)
  20:	cece                	sw	s3,92(sp)
  22:	ccd2                	sw	s4,88(sp)
  24:	d03a                	sw	a4,32(sp)
  26:	0847a703          	lw	a4,132(a5)
  2a:	cad6                	sw	s5,84(sp)
  2c:	c8da                	sw	s6,80(sp)
  2e:	c6de                	sw	s7,76(sp)
  30:	ca2a                	sw	a0,20(sp)
  32:	d686                	sw	ra,108(sp)
  34:	d4a2                	sw	s0,104(sp)
  36:	d0ca                	sw	s2,96(sp)
  38:	c4e2                	sw	s8,72(sp)
  3a:	c2e6                	sw	s9,68(sp)
  3c:	c0ea                	sw	s10,64(sp)
  3e:	de6e                	sw	s11,60(sp)
  40:	cc2e                	sw	a1,24(sp)
  42:	8f75                	and	a4,a4,a3
  44:	08e7a223          	sw	a4,132(a5)
  48:	0807a703          	lw	a4,128(a5)
  4c:	f00006b7          	lui	a3,0xf0000
  50:	16fd                	add	a3,a3,-1 # efffffff <.L192+0xeffff82f>
  52:	8f75                	and	a4,a4,a3
  54:	08e7a023          	sw	a4,128(a5)
  58:	4501                	li	a0,0
  5a:	00000097          	auipc	ra,0x0
  5e:	000080e7          	jalr	ra # 5a <get_rx_buffer1+0x5a>
  62:	000f47b7          	lui	a5,0xf4
  66:	24078793          	add	a5,a5,576 # f4240 <.L192+0xf3a70>
  6a:	4b81                	li	s7,0
  6c:	4b01                	li	s6,0
  6e:	4a01                	li	s4,0
  70:	4a81                	li	s5,0
  72:	4981                	li	s3,0
  74:	600334b7          	lui	s1,0x60033
  78:	d43e                	sw	a5,40(sp)

0000007a <.L348>:
  7a:	0844a783          	lw	a5,132(s1) # 60033084 <.L192+0x600328b4>
  7e:	40000737          	lui	a4,0x40000
  82:	8fd9                	or	a5,a5,a4
  84:	08f4a223          	sw	a5,132(s1)
  88:	0844a783          	lw	a5,132(s1)
  8c:	20000737          	lui	a4,0x20000
  90:	8fd9                	or	a5,a5,a4
  92:	08f4a223          	sw	a5,132(s1)
  96:	47a9                	li	a5,10
  98:	0777fd63          	bgeu	a5,s7,112 <.L328>
  9c:	4881                	li	a7,0
  9e:	4801                	li	a6,0
  a0:	4781                	li	a5,0
  a2:	4701                	li	a4,0
  a4:	4685                	li	a3,1
  a6:	4601                	li	a2,0
  a8:	4581                	li	a1,0
  aa:	6509                	lui	a0,0x2
  ac:	c002                	sw	zero,0(sp)
  ae:	00000097          	auipc	ra,0x0
  b2:	000080e7          	jalr	ra # ae <.L348+0x34>
  b6:	00000537          	lui	a0,0x0
  ba:	00050513          	mv	a0,a0
  be:	00000097          	auipc	ra,0x0
  c2:	000080e7          	jalr	ra # be <.L348+0x44>
  c6:	4d81                	li	s11,0
  c8:	3fcb0c37          	lui	s8,0x3fcb0
  cc:	00000937          	lui	s2,0x0
  d0:	6405                	lui	s0,0x1

000000d2 <.L330>:
  d2:	007df793          	and	a5,s11,7
  d6:	eb89                	bnez	a5,e8 <.L329>
  d8:	000007b7          	lui	a5,0x0
  dc:	00078513          	mv	a0,a5
  e0:	00000097          	auipc	ra,0x0
  e4:	000080e7          	jalr	ra # e0 <.L330+0xe>

000000e8 <.L329>:
  e8:	002d9793          	sll	a5,s11,0x2
  ec:	97e2                	add	a5,a5,s8
  ee:	438c                	lw	a1,0(a5)
  f0:	00090513          	mv	a0,s2
  f4:	0d85                	add	s11,s11,1
  f6:	00000097          	auipc	ra,0x0
  fa:	000080e7          	jalr	ra # f6 <.L329+0xe>
  fe:	fc8d9ae3          	bne	s11,s0,d2 <.L330>
 102:	00000537          	lui	a0,0x0
 106:	00050513          	mv	a0,a0
 10a:	00000097          	auipc	ra,0x0
 10e:	000080e7          	jalr	ra # 10a <.L329+0x22>

00000112 <.L328>:
 112:	00000437          	lui	s0,0x0

00000116 <.L331>:
 116:	0844a783          	lw	a5,132(s1)
 11a:	00279713          	sll	a4,a5,0x2
 11e:	20074563          	bltz	a4,328 <.L337>
 122:	4c01                	li	s8,0

00000124 <.L332>:
 124:	6001c7b7          	lui	a5,0x6001c
 128:	57f8                	lw	a4,108(a5)
 12a:	600347b7          	lui	a5,0x60034
 12e:	0ac4a583          	lw	a1,172(s1)
 132:	c3c7a603          	lw	a2,-964(a5) # 60033c3c <.L192+0x6003346c>
 136:	0a84a903          	lw	s2,168(s1)
 13a:	600357b7          	lui	a5,0x60035
 13e:	439c                	lw	a5,0(a5)
 140:	0ff97913          	zext.b	s2,s2
 144:	00000537          	lui	a0,0x0
 148:	0ff77713          	zext.b	a4,a4
 14c:	86ca                	mv	a3,s2
 14e:	00050513          	mv	a0,a0
 152:	00000097          	auipc	ra,0x0
 156:	000080e7          	jalr	ra # 152 <.L332+0x2e>
 15a:	000c1563          	bnez	s8,164 <.L338>
 15e:	00091363          	bnez	s2,164 <.L338>
 162:	0985                	add	s3,s3,1

00000164 <.L338>:
 164:	00000097          	auipc	ra,0x0
 168:	000080e7          	jalr	ra # 164 <.L338>
 16c:	00050783          	lb	a5,0(a0) # 0 <get_rx_buffer1>
 170:	4100                	lw	s0,0(a0)
 172:	8caa                	mv	s9,a0
 174:	d23e                	sw	a5,36(sp)
 176:	67b1                	lui	a5,0xc
 178:	8fe1                	and	a5,a5,s0
 17a:	03050d13          	add	s10,a0,48
 17e:	22078863          	beqz	a5,3ae <.L339>
 182:	4158                	lw	a4,4(a0)
 184:	00a45893          	srl	a7,s0,0xa
 188:	0308f893          	and	a7,a7,48
 18c:	07f77713          	and	a4,a4,127
 190:	00e88db3          	add	s11,a7,a4

00000194 <.L340>:
 194:	010ca583          	lw	a1,16(s9)
 198:	22078063          	beqz	a5,3b8 <.L341>
 19c:	004ca403          	lw	s0,4(s9)
 1a0:	8021                	srl	s0,s0,0x8
 1a2:	0442                	sll	s0,s0,0x10
 1a4:	8041                	srl	s0,s0,0x10

000001a6 <.L342>:
 1a6:	000007b7          	lui	a5,0x0
 1aa:	0007a783          	lw	a5,0(a5) # 0 <get_rx_buffer1>
 1ae:	856e                	mv	a0,s11
 1b0:	0dc7a783          	lw	a5,220(a5)
 1b4:	9782                	jalr	a5
 1b6:	00cd2683          	lw	a3,12(s10)
 1ba:	8eaa                	mv	t4,a0
 1bc:	0086d713          	srl	a4,a3,0x8
 1c0:	0106d793          	srl	a5,a3,0x10
 1c4:	0186d813          	srl	a6,a3,0x18
 1c8:	10091863          	bnez	s2,2d8 <.L343>
 1cc:	00ff05b7          	lui	a1,0xff0
 1d0:	01071613          	sll	a2,a4,0x10
 1d4:	8e6d                	and	a2,a2,a1
 1d6:	01869593          	sll	a1,a3,0x18
 1da:	0105e5b3          	or	a1,a1,a6
 1de:	6541                	lui	a0,0x10
 1e0:	8dd1                	or	a1,a1,a2
 1e2:	157d                	add	a0,a0,-1 # ffff <.L192+0xf82f>
 1e4:	00879613          	sll	a2,a5,0x8
 1e8:	8e69                	and	a2,a2,a0
 1ea:	8e4d                	or	a2,a2,a1
 1ec:	45e2                	lw	a1,24(sp)
 1ee:	8e0d                	sub	a2,a2,a1
 1f0:	00163613          	seqz	a2,a2
 1f4:	4585                	li	a1,1
 1f6:	9a32                	add	s4,s4,a2
 1f8:	02bb0563          	beq	s6,a1,222 <.L345>
 1fc:	4609                	li	a2,2
 1fe:	02cb1363          	bne	s6,a2,224 <.L346>
 202:	008d2583          	lw	a1,8(s10)
 206:	0105d613          	srl	a2,a1,0x10
 20a:	81e1                	srl	a1,a1,0x18
 20c:	05c2                	sll	a1,a1,0x10
 20e:	0662                	sll	a2,a2,0x18
 210:	8e4d                	or	a2,a2,a1
 212:	00869593          	sll	a1,a3,0x8
 216:	8d6d                	and	a0,a0,a1
 218:	45e2                	lw	a1,24(sp)
 21a:	8e49                	or	a2,a2,a0
 21c:	8e0d                	sub	a2,a2,a1
 21e:	00163613          	seqz	a2,a2

00000222 <.L345>:
 222:	ca5d                	beqz	a2,2d8 <.L343>

00000224 <.L346>:
 224:	008d2603          	lw	a2,8(s10)
 228:	00000537          	lui	a0,0x0
 22c:	0ff7f793          	zext.b	a5,a5
 230:	01065593          	srl	a1,a2,0x10
 234:	0ff77713          	zext.b	a4,a4
 238:	0ff6f693          	zext.b	a3,a3
 23c:	8261                	srl	a2,a2,0x18
 23e:	0ff5f593          	zext.b	a1,a1
 242:	00050513          	mv	a0,a0
 246:	d676                	sw	t4,44(sp)
 248:	014d2903          	lw	s2,20(s10)
 24c:	00000097          	auipc	ra,0x0
 250:	000080e7          	jalr	ra # 24c <.L346+0x28>
 254:	004d2583          	lw	a1,4(s10)
 258:	008d2783          	lw	a5,8(s10)
 25c:	00000537          	lui	a0,0x0
 260:	0105d693          	srl	a3,a1,0x10
 264:	0087d813          	srl	a6,a5,0x8
 268:	0085d613          	srl	a2,a1,0x8
 26c:	0ff7f793          	zext.b	a5,a5
 270:	0185d713          	srl	a4,a1,0x18
 274:	0ff87813          	zext.b	a6,a6
 278:	0ff6f693          	zext.b	a3,a3
 27c:	0ff67613          	zext.b	a2,a2
 280:	0ff5f593          	zext.b	a1,a1
 284:	00050513          	mv	a0,a0
 288:	00000097          	auipc	ra,0x0
 28c:	000080e7          	jalr	ra # 288 <.L346+0x64>
 290:	030ca583          	lw	a1,48(s9)
 294:	00000537          	lui	a0,0x0
 298:	00050513          	mv	a0,a0
 29c:	0085d693          	srl	a3,a1,0x8
 2a0:	0105d613          	srl	a2,a1,0x10
 2a4:	0ff5f713          	zext.b	a4,a1
 2a8:	0ff6f693          	zext.b	a3,a3
 2ac:	0ff67613          	zext.b	a2,a2
 2b0:	81e1                	srl	a1,a1,0x18
 2b2:	00000097          	auipc	ra,0x0
 2b6:	000080e7          	jalr	ra # 2b2 <.L346+0x8e>
 2ba:	5eb2                	lw	t4,44(sp)
 2bc:	5592                	lw	a1,36(sp)
 2be:	00000537          	lui	a0,0x0
 2c2:	01495793          	srl	a5,s2,0x14
 2c6:	8776                	mv	a4,t4
 2c8:	86a2                	mv	a3,s0
 2ca:	866e                	mv	a2,s11
 2cc:	00050513          	mv	a0,a0
 2d0:	00000097          	auipc	ra,0x0
 2d4:	000080e7          	jalr	ra # 2d0 <.L346+0xac>

000002d8 <.L343>:
 2d8:	000c1863          	bnez	s8,2e8 <.L347>
 2dc:	00000097          	auipc	ra,0x0
 2e0:	000080e7          	jalr	ra # 2dc <.L343+0x4>
 2e4:	d8051be3          	bnez	a0,7a <.L348>

000002e8 <.L347>:
 2e8:	00000537          	lui	a0,0x0
 2ec:	85ce                	mv	a1,s3
 2ee:	00050513          	mv	a0,a0
 2f2:	00000097          	auipc	ra,0x0
 2f6:	000080e7          	jalr	ra # 2f2 <.L347+0xa>
 2fa:	4772                	lw	a4,28(sp)
 2fc:	600337b7          	lui	a5,0x60033
 300:	50b6                	lw	ra,108(sp)
 302:	08e7a223          	sw	a4,132(a5) # 60033084 <.L192+0x600328b4>
 306:	5702                	lw	a4,32(sp)
 308:	5426                	lw	s0,104(sp)
 30a:	5496                	lw	s1,100(sp)
 30c:	08e7a023          	sw	a4,128(a5)
 310:	5906                	lw	s2,96(sp)
 312:	49f6                	lw	s3,92(sp)
 314:	4a66                	lw	s4,88(sp)
 316:	4ad6                	lw	s5,84(sp)
 318:	4b46                	lw	s6,80(sp)
 31a:	4bb6                	lw	s7,76(sp)
 31c:	4c26                	lw	s8,72(sp)
 31e:	4c96                	lw	s9,68(sp)
 320:	4d06                	lw	s10,64(sp)
 322:	5df2                	lw	s11,60(sp)
 324:	6165                	add	sp,sp,112
 326:	8082                	ret

00000328 <.L337>:
 328:	00000097          	auipc	ra,0x0
 32c:	000080e7          	jalr	ra # 328 <.L337>
 330:	cd2d                	beqz	a0,3aa <.L349>
 332:	0844a783          	lw	a5,132(s1)
 336:	00179713          	sll	a4,a5,0x1
 33a:	dc074ee3          	bltz	a4,116 <.L331>
 33e:	600357b7          	lui	a5,0x60035
 342:	4742                	lw	a4,16(sp)
 344:	439c                	lw	a5,0(a5)
 346:	8f99                	sub	a5,a5,a4
 348:	5722                	lw	a4,40(sp)
 34a:	dcf776e3          	bgeu	a4,a5,116 <.L331>
 34e:	000007b7          	lui	a5,0x0
 352:	00078513          	mv	a0,a5
 356:	85ce                	mv	a1,s3
 358:	00000097          	auipc	ra,0x0
 35c:	000080e7          	jalr	ra # 358 <.L337+0x30>
 360:	47a9                	li	a5,10
 362:	0357e963          	bltu	a5,s5,394 <.L350>
 366:	020a8963          	beqz	s5,398 <.L335>

0000036a <.L334>:
 36a:	020a1763          	bnez	s4,398 <.L335>
 36e:	4752                	lw	a4,20(sp)
 370:	4785                	li	a5,1
 372:	02f71363          	bne	a4,a5,398 <.L335>
 376:	00040513          	mv	a0,s0
 37a:	00000097          	auipc	ra,0x0
 37e:	000080e7          	jalr	ra # 37a <.L334+0x10>
 382:	0b85                	add	s7,s7,1
 384:	4b01                	li	s6,0

00000386 <.L336>:
 386:	600357b7          	lui	a5,0x60035
 38a:	439c                	lw	a5,0(a5)
 38c:	0a85                	add	s5,s5,1
 38e:	4a01                	li	s4,0
 390:	c83e                	sw	a5,16(sp)
 392:	b351                	j	116 <.L331>

00000394 <.L350>:
 394:	4b52                	lw	s6,20(sp)
 396:	bfd1                	j	36a <.L334>

00000398 <.L335>:
 398:	000007b7          	lui	a5,0x0
 39c:	00078513          	mv	a0,a5
 3a0:	00000097          	auipc	ra,0x0
 3a4:	000080e7          	jalr	ra # 3a0 <.L335+0x8>
 3a8:	bff9                	j	386 <.L336>

000003aa <.L349>:
 3aa:	4c05                	li	s8,1
 3ac:	bba5                	j	124 <.L332>

000003ae <.L339>:
 3ae:	00845893          	srl	a7,s0,0x8
 3b2:	01f8fd93          	and	s11,a7,31
 3b6:	bbf9                	j	194 <.L340>

000003b8 <.L341>:
 3b8:	0412                	sll	s0,s0,0x4
 3ba:	8051                	srl	s0,s0,0x14
 3bc:	b3ed                	j	1a6 <.L342>

Disassembly of section .text.test_noise_floor:

00000000 <test_noise_floor>:
   0:	1141                	add	sp,sp,-16
   2:	0562                	sll	a0,a0,0x18
   4:	c04a                	sw	s2,0(sp)
   6:	8561                	sra	a0,a0,0x18
   8:	892e                	mv	s2,a1
   a:	4581                	li	a1,0
   c:	c226                	sw	s1,4(sp)
   e:	c606                	sw	ra,12(sp)
  10:	c422                	sw	s0,8(sp)
  12:	000004b7          	lui	s1,0x0
  16:	00000097          	auipc	ra,0x0
  1a:	000080e7          	jalr	ra # 16 <test_noise_floor+0x16>

0000001e <.L363>:
  1e:	4401                	li	s0,0

00000020 <.L361>:
  20:	03241863          	bne	s0,s2,50 <.L362>
  24:	00000097          	auipc	ra,0x0
  28:	000080e7          	jalr	ra # 24 <.L361+0x4>
  2c:	85aa                	mv	a1,a0
  2e:	00048513          	mv	a0,s1
  32:	00000097          	auipc	ra,0x0
  36:	000080e7          	jalr	ra # 32 <.L361+0x12>
  3a:	00000097          	auipc	ra,0x0
  3e:	000080e7          	jalr	ra # 3a <.L361+0x1a>
  42:	fd71                	bnez	a0,1e <.L363>
  44:	40b2                	lw	ra,12(sp)
  46:	4422                	lw	s0,8(sp)
  48:	4492                	lw	s1,4(sp)
  4a:	4902                	lw	s2,0(sp)
  4c:	0141                	add	sp,sp,16
  4e:	8082                	ret

00000050 <.L362>:
  50:	3e800513          	li	a0,1000
  54:	00000097          	auipc	ra,0x0
  58:	000080e7          	jalr	ra # 54 <.L362+0x4>
  5c:	0405                	add	s0,s0,1 # 1 <test_noise_floor+0x1>
  5e:	b7c9                	j	20 <.L361>

Disassembly of section .text.ack_rate_tab:

00000000 <ack_rate_tab>:
   0:	47bd                	li	a5,15
   2:	00a7f563          	bgeu	a5,a0,c <.L367>
   6:	893d                	and	a0,a0,15
   8:	04050513          	add	a0,a0,64 # 40 <.L289+0x4>

0000000c <.L367>:
   c:	01851793          	sll	a5,a0,0x18
  10:	01051713          	sll	a4,a0,0x10
  14:	8fd9                	or	a5,a5,a4
  16:	8fc9                	or	a5,a5,a0
  18:	0522                	sll	a0,a0,0x8
  1a:	8d5d                	or	a0,a0,a5
  1c:	600337b7          	lui	a5,0x60033
  20:	40a7a223          	sw	a0,1028(a5) # 60033404 <.L192+0x60032c34>
  24:	40a7a423          	sw	a0,1032(a5)
  28:	40a7a623          	sw	a0,1036(a5)
  2c:	8082                	ret

Disassembly of section .text.auto_ack_test:

00000000 <auto_ack_test>:
   0:	715d                	add	sp,sp,-80
   2:	c4a2                	sw	s0,72(sp)
   4:	842a                	mv	s0,a0
   6:	00000537          	lui	a0,0x0
   a:	00050513          	mv	a0,a0
   e:	c686                	sw	ra,76(sp)
  10:	c2a6                	sw	s1,68(sp)
  12:	c0ca                	sw	s2,64(sp)
  14:	de4e                	sw	s3,60(sp)
  16:	dc52                	sw	s4,56(sp)
  18:	da56                	sw	s5,52(sp)
  1a:	d85a                	sw	s6,48(sp)
  1c:	8ab2                	mv	s5,a2
  1e:	d65e                	sw	s7,44(sp)
  20:	d462                	sw	s8,40(sp)
  22:	d06a                	sw	s10,32(sp)
  24:	d266                	sw	s9,36(sp)
  26:	ce6e                	sw	s11,28(sp)
  28:	00000097          	auipc	ra,0x0
  2c:	000080e7          	jalr	ra # 28 <auto_ack_test+0x28>
  30:	8522                	mv	a0,s0
  32:	00000097          	auipc	ra,0x0
  36:	000080e7          	jalr	ra # 32 <auto_ack_test+0x32>
  3a:	4505                	li	a0,1
  3c:	00000097          	auipc	ra,0x0
  40:	000080e7          	jalr	ra # 3c <auto_ack_test+0x3c>
  44:	01350737          	lui	a4,0x1350
  48:	600337b7          	lui	a5,0x60033
  4c:	e1870713          	add	a4,a4,-488 # 134fe18 <.L192+0x134f648>
  50:	c3b8                	sw	a4,64(a5)
  52:	05040737          	lui	a4,0x5040
  56:	30270713          	add	a4,a4,770 # 5040302 <.L192+0x503fb32>
  5a:	c3f8                	sw	a4,68(a5)
  5c:	600346b7          	lui	a3,0x60034
  60:	c786a703          	lw	a4,-904(a3) # 60033c78 <.L192+0x600334a8>
  64:	69c1                	lui	s3,0x10
  66:	340104b7          	lui	s1,0x34010
  6a:	00176713          	or	a4,a4,1
  6e:	c6e6ac23          	sw	a4,-904(a3)
  72:	0847a703          	lw	a4,132(a5) # 60033084 <.L192+0x600328b4>
  76:	200006b7          	lui	a3,0x20000
  7a:	16fd                	add	a3,a3,-1 # 1fffffff <.L192+0x1ffff82f>
  7c:	8f75                	and	a4,a4,a3
  7e:	08e7a223          	sw	a4,132(a5)
  82:	0807a703          	lw	a4,128(a5)
  86:	f00006b7          	lui	a3,0xf0000
  8a:	16fd                	add	a3,a3,-1 # efffffff <.L192+0xeffff82f>
  8c:	8f75                	and	a4,a4,a3
  8e:	6a05                	lui	s4,0x1
  90:	08e7a023          	sw	a4,128(a5)
  94:	4901                	li	s2,0
  96:	60033d37          	lui	s10,0x60033
  9a:	19fd                	add	s3,s3,-1 # ffff <.L192+0xf82f>
  9c:	20348493          	add	s1,s1,515 # 34010203 <.L192+0x3400fa33>
  a0:	1a7d                	add	s4,s4,-1 # fff <.L192+0x82f>
  a2:	00000b37          	lui	s6,0x0
  a6:	00000bb7          	lui	s7,0x0
  aa:	00000c37          	lui	s8,0x0

000000ae <.L377>:
  ae:	084d2783          	lw	a5,132(s10) # 60033084 <.L192+0x600328b4>
  b2:	40000737          	lui	a4,0x40000
  b6:	8fd9                	or	a5,a5,a4
  b8:	08fd2223          	sw	a5,132(s10)

000000bc <.L369>:
  bc:	084d2783          	lw	a5,132(s10)
  c0:	00179713          	sll	a4,a5,0x1
  c4:	14074663          	bltz	a4,210 <.L371>
  c8:	4881                	li	a7,0

000000ca <.L370>:
  ca:	094d2783          	lw	a5,148(s10)
  ce:	00ff0637          	lui	a2,0xff0
  d2:	43dc                	lw	a5,4(a5)
  d4:	080d2503          	lw	a0,128(s10)
  d8:	0ff57513          	zext.b	a0,a0
  dc:	953e                	add	a0,a0,a5
  de:	03050d93          	add	s11,a0,48 # 30 <auto_ack_test+0x30>
  e2:	00cda683          	lw	a3,12(s11)
  e6:	0086d713          	srl	a4,a3,0x8
  ea:	01071c93          	sll	s9,a4,0x10
  ee:	00ccfcb3          	and	s9,s9,a2
  f2:	0186d813          	srl	a6,a3,0x18
  f6:	01869613          	sll	a2,a3,0x18
  fa:	01066633          	or	a2,a2,a6
  fe:	0106d793          	srl	a5,a3,0x10
 102:	00ccecb3          	or	s9,s9,a2
 106:	00879613          	sll	a2,a5,0x8
 10a:	01367633          	and	a2,a2,s3
 10e:	00ccecb3          	or	s9,s9,a2
 112:	009c9363          	bne	s9,s1,118 <.L372>
 116:	0905                	add	s2,s2,1 # 1 <auto_ack_test+0x1>

00000118 <.L372>:
 118:	410c                	lw	a1,0(a0)
 11a:	6631                	lui	a2,0xc
 11c:	8e6d                	and	a2,a2,a1
 11e:	10060163          	beqz	a2,220 <.L373>
 122:	4140                	lw	s0,4(a0)
 124:	00a5d613          	srl	a2,a1,0xa
 128:	03067613          	and	a2,a2,48
 12c:	07f47593          	and	a1,s0,127
 130:	962e                	add	a2,a2,a1
 132:	8021                	srl	s0,s0,0x8
 134:	01861313          	sll	t1,a2,0x18
 138:	0442                	sll	s0,s0,0x10
 13a:	41835313          	sra	t1,t1,0x18
 13e:	8041                	srl	s0,s0,0x10

00000140 <.L374>:
 140:	080a8463          	beqz	s5,1c8 <.L375>
 144:	008da603          	lw	a2,8(s11)
 148:	00050e03          	lb	t3,0(a0)
 14c:	0ff7f793          	zext.b	a5,a5
 150:	01065593          	srl	a1,a2,0x10
 154:	0ff77713          	zext.b	a4,a4
 158:	0ff6f693          	zext.b	a3,a3
 15c:	8261                	srl	a2,a2,0x18
 15e:	0ff5f593          	zext.b	a1,a1
 162:	000b0513          	mv	a0,s6
 166:	c446                	sw	a7,8(sp)
 168:	c61a                	sw	t1,12(sp)
 16a:	c272                	sw	t3,4(sp)
 16c:	00000097          	auipc	ra,0x0
 170:	000080e7          	jalr	ra # 16c <.L374+0x2c>
 174:	004da583          	lw	a1,4(s11)
 178:	008da783          	lw	a5,8(s11)
 17c:	000b8513          	mv	a0,s7
 180:	0105d693          	srl	a3,a1,0x10
 184:	0087d813          	srl	a6,a5,0x8
 188:	0085d613          	srl	a2,a1,0x8
 18c:	0185d713          	srl	a4,a1,0x18
 190:	0ff87813          	zext.b	a6,a6
 194:	0ff7f793          	zext.b	a5,a5
 198:	0ff6f693          	zext.b	a3,a3
 19c:	0ff67613          	zext.b	a2,a2
 1a0:	0ff5f593          	zext.b	a1,a1
 1a4:	00000097          	auipc	ra,0x0
 1a8:	000080e7          	jalr	ra # 1a4 <.L374+0x64>
 1ac:	4332                	lw	t1,12(sp)
 1ae:	4e12                	lw	t3,4(sp)
 1b0:	87e6                	mv	a5,s9
 1b2:	8726                	mv	a4,s1
 1b4:	86a2                	mv	a3,s0
 1b6:	861a                	mv	a2,t1
 1b8:	85f2                	mv	a1,t3
 1ba:	000c0513          	mv	a0,s8
 1be:	00000097          	auipc	ra,0x0
 1c2:	000080e7          	jalr	ra # 1be <.L374+0x7e>
 1c6:	48a2                	lw	a7,8(sp)

000001c8 <.L375>:
 1c8:	020da403          	lw	s0,32(s11)
 1cc:	00089863          	bnez	a7,1dc <.L376>
 1d0:	00000097          	auipc	ra,0x0
 1d4:	000080e7          	jalr	ra # 1d0 <.L375+0x8>
 1d8:	ec051be3          	bnez	a0,ae <.L377>

000001dc <.L376>:
 1dc:	01045613          	srl	a2,s0,0x10
 1e0:	4426                	lw	s0,72(sp)
 1e2:	40b6                	lw	ra,76(sp)
 1e4:	4496                	lw	s1,68(sp)
 1e6:	59f2                	lw	s3,60(sp)
 1e8:	5a62                	lw	s4,56(sp)
 1ea:	5ad2                	lw	s5,52(sp)
 1ec:	5b42                	lw	s6,48(sp)
 1ee:	5bb2                	lw	s7,44(sp)
 1f0:	5c22                	lw	s8,40(sp)
 1f2:	5c92                	lw	s9,36(sp)
 1f4:	5d02                	lw	s10,32(sp)
 1f6:	4df2                	lw	s11,28(sp)
 1f8:	fff90593          	add	a1,s2,-1
 1fc:	4906                	lw	s2,64(sp)
 1fe:	00000537          	lui	a0,0x0
 202:	00050513          	mv	a0,a0
 206:	6161                	add	sp,sp,80
 208:	00000317          	auipc	t1,0x0
 20c:	00030067          	jr	t1 # 208 <.L376+0x2c>

00000210 <.L371>:
 210:	00000097          	auipc	ra,0x0
 214:	000080e7          	jalr	ra # 210 <.L371>
 218:	ea0512e3          	bnez	a0,bc <.L369>
 21c:	4885                	li	a7,1
 21e:	b575                	j	ca <.L370>

00000220 <.L373>:
 220:	0085d613          	srl	a2,a1,0x8
 224:	81c1                	srl	a1,a1,0x10
 226:	01f67313          	and	t1,a2,31
 22a:	0145f433          	and	s0,a1,s4
 22e:	bf09                	j	140 <.L374>

Disassembly of section .text.esp_txrx_test:

00000000 <esp_txrx_test>:
   0:	7179                	add	sp,sp,-48
   2:	d04a                	sw	s2,32(sp)
   4:	892a                	mv	s2,a0
   6:	8536                	mv	a0,a3
   8:	d422                	sw	s0,40(sp)
   a:	d226                	sw	s1,36(sp)
   c:	d606                	sw	ra,44(sp)
   e:	84b2                	mv	s1,a2
  10:	842e                	mv	s0,a1
  12:	ce3a                	sw	a4,28(sp)
  14:	cc3e                	sw	a5,24(sp)
  16:	ca42                	sw	a6,20(sp)
  18:	c846                	sw	a7,16(sp)
  1a:	00000097          	auipc	ra,0x0
  1e:	000080e7          	jalr	ra # 1a <esp_txrx_test+0x1a>
  22:	4642                	lw	a2,16(sp)
  24:	02090d63          	beqz	s2,5e <.L385>
  28:	4852                	lw	a6,20(sp)
  2a:	47e2                	lw	a5,24(sp)
  2c:	4772                	lw	a4,28(sp)
  2e:	4685                	li	a3,1
  30:	01350537          	lui	a0,0x1350
  34:	c236                	sw	a3,4(sp)
  36:	c042                	sw	a6,0(sp)
  38:	88be                	mv	a7,a5
  3a:	86a6                	mv	a3,s1
  3c:	8622                	mv	a2,s0
  3e:	4805                	li	a6,1
  40:	478d                	li	a5,3
  42:	30200593          	li	a1,770
  46:	e1850513          	add	a0,a0,-488 # 134fe18 <.L192+0x134f648>
  4a:	00000097          	auipc	ra,0x0
  4e:	000080e7          	jalr	ra # 4a <esp_txrx_test+0x4a>
  52:	50b2                	lw	ra,44(sp)
  54:	5422                	lw	s0,40(sp)
  56:	5492                	lw	s1,36(sp)
  58:	5902                	lw	s2,32(sp)
  5a:	6145                	add	sp,sp,48
  5c:	8082                	ret

0000005e <.L385>:
  5e:	8522                	mv	a0,s0
  60:	5422                	lw	s0,40(sp)
  62:	50b2                	lw	ra,44(sp)
  64:	5902                	lw	s2,32(sp)
  66:	0ff4f593          	zext.b	a1,s1
  6a:	5492                	lw	s1,36(sp)
  6c:	6145                	add	sp,sp,48
  6e:	00000317          	auipc	t1,0x0
  72:	00030067          	jr	t1 # 6e <.L385+0x10>

crypto_common.o:     file format elf32-littleriscv


Disassembly of section .text.crypto_disable:

00000000 <crypto_disable>:
   0:	600347b7          	lui	a5,0x60034
   4:	8007a023          	sw	zero,-2048(a5) # 60033800 <crypto_disable+0x60033800>
   8:	8007aa23          	sw	zero,-2028(a5)
   c:	8082                	ret

mac_common.o:     file format elf32-littleriscv


Disassembly of section .text.mac_write:

00000000 <mac_write>:
   0:	c10c                	sw	a1,0(a0)
   2:	8082                	ret

Disassembly of section .text.mac_read:

00000000 <mac_read>:
   0:	4108                	lw	a0,0(a0)
   2:	8082                	ret

Disassembly of section .text.mac_buffer_get:

00000000 <mac_buffer_get>:
   0:	000007b7          	lui	a5,0x0
   4:	00078793          	mv	a5,a5
   8:	00000737          	lui	a4,0x0
   c:	40078693          	add	a3,a5,1024 # 400 <.L52+0x80>
  10:	00f72023          	sw	a5,0(a4) # 0 <mac_buffer_get>
  14:	00000737          	lui	a4,0x0
  18:	00d72023          	sw	a3,0(a4) # 0 <mac_buffer_get>
  1c:	6705                	lui	a4,0x1
  1e:	c0070693          	add	a3,a4,-1024 # c00 <.L52+0x880>
  22:	96be                	add	a3,a3,a5
  24:	00000637          	lui	a2,0x0
  28:	00d62023          	sw	a3,0(a2) # 0 <mac_buffer_get>
  2c:	20070693          	add	a3,a4,512
  30:	30070713          	add	a4,a4,768
  34:	96be                	add	a3,a3,a5
  36:	97ba                	add	a5,a5,a4
  38:	00000737          	lui	a4,0x0
  3c:	00f72023          	sw	a5,0(a4) # 0 <mac_buffer_get>
  40:	000007b7          	lui	a5,0x0
  44:	00000737          	lui	a4,0x0
  48:	00078793          	mv	a5,a5
  4c:	00f72023          	sw	a5,0(a4) # 0 <mac_buffer_get>
  50:	000007b7          	lui	a5,0x0
  54:	00000737          	lui	a4,0x0
  58:	00078793          	mv	a5,a5
  5c:	00f72023          	sw	a5,0(a4) # 0 <mac_buffer_get>
  60:	000007b7          	lui	a5,0x0
  64:	00000737          	lui	a4,0x0
  68:	00078793          	mv	a5,a5
  6c:	00f72023          	sw	a5,0(a4) # 0 <mac_buffer_get>
  70:	000007b7          	lui	a5,0x0
  74:	00000737          	lui	a4,0x0
  78:	00078793          	mv	a5,a5
  7c:	00f72023          	sw	a5,0(a4) # 0 <mac_buffer_get>
  80:	000007b7          	lui	a5,0x0
  84:	00000737          	lui	a4,0x0
  88:	00078793          	mv	a5,a5
  8c:	00f72023          	sw	a5,0(a4) # 0 <mac_buffer_get>
  90:	000007b7          	lui	a5,0x0
  94:	00000637          	lui	a2,0x0
  98:	00000737          	lui	a4,0x0
  9c:	00078793          	mv	a5,a5
  a0:	00d62023          	sw	a3,0(a2) # 0 <mac_buffer_get>
  a4:	00f72023          	sw	a5,0(a4) # 0 <mac_buffer_get>
  a8:	8082                	ret

Disassembly of section .text.DurAddrGet:

00000000 <DurAddrGet>:
   0:	1555                	add	a0,a0,-11
   2:	4799                	li	a5,6
   4:	00a7eb63          	bltu	a5,a0,1a <.L6>
   8:	00251793          	sll	a5,a0,0x2
   c:	00000537          	lui	a0,0x0
  10:	00050513          	mv	a0,a0
  14:	953e                	add	a0,a0,a5
  16:	4108                	lw	a0,0(a0)
  18:	8082                	ret

0000001a <.L6>:
  1a:	60034537          	lui	a0,0x60034
  1e:	31850513          	add	a0,a0,792 # 60034318 <.L52+0x60033f98>
  22:	8082                	ret

Disassembly of section .text.RealQGet:

00000000 <RealQGet>:
   0:	157d                	add	a0,a0,-1
   2:	47e9                	li	a5,26
   4:	00a7ea63          	bltu	a5,a0,18 <.L9>
   8:	000007b7          	lui	a5,0x0
   c:	00078793          	mv	a5,a5
  10:	97aa                	add	a5,a5,a0
  12:	0007c503          	lbu	a0,0(a5) # 0 <RealQGet>
  16:	8082                	ret

00000018 <.L9>:
  18:	4501                	li	a0,0
  1a:	8082                	ret

Disassembly of section .text.Plcp0AddrGet:

00000000 <Plcp0AddrGet>:
   0:	157d                	add	a0,a0,-1
   2:	47e9                	li	a5,26
   4:	00a7eb63          	bltu	a5,a0,1a <.L12>
   8:	00251793          	sll	a5,a0,0x2
   c:	00000537          	lui	a0,0x0
  10:	00050513          	mv	a0,a0
  14:	953e                	add	a0,a0,a5
  16:	4108                	lw	a0,0(a0)
  18:	8082                	ret

0000001a <.L12>:
  1a:	60034537          	lui	a0,0x60034
  1e:	d0850513          	add	a0,a0,-760 # 60033d08 <.L52+0x60033988>
  22:	8082                	ret

Disassembly of section .text.Plcp1AddrGet:

00000000 <Plcp1AddrGet>:
   0:	157d                	add	a0,a0,-1
   2:	47e9                	li	a5,26
   4:	00a7eb63          	bltu	a5,a0,1a <.L15>
   8:	00251793          	sll	a5,a0,0x2
   c:	00000537          	lui	a0,0x0
  10:	00050513          	mv	a0,a0
  14:	953e                	add	a0,a0,a5
  16:	4108                	lw	a0,0(a0)
  18:	8082                	ret

0000001a <.L15>:
  1a:	60034537          	lui	a0,0x60034
  1e:	2f850513          	add	a0,a0,760 # 600342f8 <.L52+0x60033f78>
  22:	8082                	ret

Disassembly of section .text.HT40LenAddrGet:

00000000 <HT40LenAddrGet>:
   0:	1555                	add	a0,a0,-11
   2:	4799                	li	a5,6
   4:	00a7eb63          	bltu	a5,a0,1a <.L18>
   8:	00251793          	sll	a5,a0,0x2
   c:	00000537          	lui	a0,0x0
  10:	00050513          	mv	a0,a0
  14:	953e                	add	a0,a0,a5
  16:	4108                	lw	a0,0(a0)
  18:	8082                	ret

0000001a <.L18>:
  1a:	60034537          	lui	a0,0x60034
  1e:	31050513          	add	a0,a0,784 # 60034310 <.L52+0x60033f90>
  22:	8082                	ret

Disassembly of section .text.HTsigAddrGet:

00000000 <HTsigAddrGet>:
   0:	157d                	add	a0,a0,-1
   2:	47e9                	li	a5,26
   4:	00a7eb63          	bltu	a5,a0,1a <.L21>
   8:	00251793          	sll	a5,a0,0x2
   c:	00000537          	lui	a0,0x0
  10:	00050513          	mv	a0,a0
  14:	953e                	add	a0,a0,a5
  16:	4108                	lw	a0,0(a0)
  18:	8082                	ret

0000001a <.L21>:
  1a:	60034537          	lui	a0,0x60034
  1e:	30050513          	add	a0,a0,768 # 60034300 <.L52+0x60033f80>
  22:	8082                	ret

Disassembly of section .text.ConfAddrGet:

00000000 <ConfAddrGet>:
   0:	1555                	add	a0,a0,-11
   2:	4799                	li	a5,6
   4:	00a7eb63          	bltu	a5,a0,1a <.L24>
   8:	00251793          	sll	a5,a0,0x2
   c:	00000537          	lui	a0,0x0
  10:	00050513          	mv	a0,a0
  14:	953e                	add	a0,a0,a5
  16:	4108                	lw	a0,0(a0)
  18:	8082                	ret

0000001a <.L24>:
  1a:	60034537          	lui	a0,0x60034
  1e:	d0450513          	add	a0,a0,-764 # 60033d04 <.L52+0x60033984>
  22:	8082                	ret

Disassembly of section .text.BackOffCountGet:

00000000 <BackOffCountGet>:
   0:	1559                	add	a0,a0,-10
   2:	47c5                	li	a5,17
   4:	06a7e563          	bltu	a5,a0,6e <.L26>
   8:	000007b7          	lui	a5,0x0
   c:	00078793          	mv	a5,a5
  10:	050a                	sll	a0,a0,0x2
  12:	953e                	add	a0,a0,a5
  14:	411c                	lw	a5,0(a0)
  16:	6505                	lui	a0,0x1
  18:	157d                	add	a0,a0,-1 # fff <.L52+0xc7f>
  1a:	8782                	jr	a5

0000001c <.L43>:
  1c:	600347b7          	lui	a5,0x60034
  20:	d047a783          	lw	a5,-764(a5) # 60033d04 <.L52+0x60033984>

00000024 <.L45>:
  24:	8d7d                	and	a0,a0,a5
  26:	8082                	ret

00000028 <.L42>:
  28:	600347b7          	lui	a5,0x60034
  2c:	cfc7a783          	lw	a5,-772(a5) # 60033cfc <.L52+0x6003397c>
  30:	bfd5                	j	24 <.L45>

00000032 <.L41>:
  32:	600347b7          	lui	a5,0x60034
  36:	cf47a783          	lw	a5,-780(a5) # 60033cf4 <.L52+0x60033974>
  3a:	b7ed                	j	24 <.L45>

0000003c <.L40>:
  3c:	600347b7          	lui	a5,0x60034
  40:	cec7a783          	lw	a5,-788(a5) # 60033cec <.L52+0x6003396c>
  44:	b7c5                	j	24 <.L45>

00000046 <.L39>:
  46:	600347b7          	lui	a5,0x60034
  4a:	ce47a783          	lw	a5,-796(a5) # 60033ce4 <.L52+0x60033964>
  4e:	bfd9                	j	24 <.L45>

00000050 <.L38>:
  50:	600347b7          	lui	a5,0x60034
  54:	cdc7a783          	lw	a5,-804(a5) # 60033cdc <.L52+0x6003395c>
  58:	b7f1                	j	24 <.L45>

0000005a <.L37>:
  5a:	600347b7          	lui	a5,0x60034
  5e:	cd47a783          	lw	a5,-812(a5) # 60033cd4 <.L52+0x60033954>
  62:	b7c9                	j	24 <.L45>

00000064 <.L36>:
  64:	600347b7          	lui	a5,0x60034
  68:	ccc7a783          	lw	a5,-820(a5) # 60033ccc <.L52+0x6003394c>
  6c:	bf65                	j	24 <.L45>

0000006e <.L26>:
  6e:	600347b7          	lui	a5,0x60034
  72:	d047a503          	lw	a0,-764(a5) # 60033d04 <.L52+0x60033984>
  76:	6785                	lui	a5,0x1
  78:	17fd                	add	a5,a5,-1 # fff <.L52+0xc7f>
  7a:	b76d                	j	24 <.L45>

Disassembly of section .text.fill_tx_frame:

00000000 <fill_tx_frame>:
   0:	7111                	add	sp,sp,-256
   2:	c646                	sw	a7,12(sp)
   4:	df86                	sw	ra,252(sp)
   6:	dda2                	sw	s0,248(sp)
   8:	dba6                	sw	s1,244(sp)
   a:	10812403          	lw	s0,264(sp)
   e:	d9ca                	sw	s2,240(sp)
  10:	d7ce                	sw	s3,236(sp)
  12:	0ff57913          	zext.b	s2,a0
  16:	89b2                	mv	s3,a2
  18:	d5d2                	sw	s4,232(sp)
  1a:	d3d6                	sw	s5,228(sp)
  1c:	8a36                	mv	s4,a3
  1e:	8aba                	mv	s5,a4
  20:	d1da                	sw	s6,224(sp)
  22:	cfde                	sw	s7,220(sp)
  24:	8b3e                	mv	s6,a5
  26:	8bc2                	mv	s7,a6
  28:	cde2                	sw	s8,216(sp)
  2a:	cbe6                	sw	s9,212(sp)
  2c:	c9ea                	sw	s10,208(sp)
  2e:	8cae                	mv	s9,a1
  30:	c7ee                	sw	s11,204(sp)
  32:	8d2a                	mv	s10,a0
  34:	00000097          	auipc	ra,0x0
  38:	000080e7          	jalr	ra # 34 <fill_tx_frame+0x34>
  3c:	854a                	mv	a0,s2
  3e:	00000097          	auipc	ra,0x0
  42:	000080e7          	jalr	ra # 3e <fill_tx_frame+0x3e>
  46:	84aa                	mv	s1,a0
  48:	854a                	mv	a0,s2
  4a:	00000097          	auipc	ra,0x0
  4e:	000080e7          	jalr	ra # 4a <fill_tx_frame+0x4a>
  52:	8daa                	mv	s11,a0
  54:	854a                	mv	a0,s2
  56:	00000097          	auipc	ra,0x0
  5a:	000080e7          	jalr	ra # 56 <fill_tx_frame+0x56>
  5e:	8c2a                	mv	s8,a0
  60:	854a                	mv	a0,s2
  62:	00000097          	auipc	ra,0x0
  66:	000080e7          	jalr	ra # 62 <fill_tx_frame+0x62>
  6a:	10012683          	lw	a3,256(sp)
  6e:	48b2                	lw	a7,12(sp)
  70:	6785                	lui	a5,0x1
  72:	17fd                	add	a5,a5,-1 # fff <.L52+0xc7f>
  74:	01c41313          	sll	t1,s0,0x1c
  78:	400005b7          	lui	a1,0x40000
  7c:	00052023          	sw	zero,0(a0)
  80:	463d                	li	a2,15
  82:	00f9f7b3          	and	a5,s3,a5
  86:	06de                	sll	a3,a3,0x17
  88:	08c6                	sll	a7,a7,0x11
  8a:	00899713          	sll	a4,s3,0x8
  8e:	01f41e13          	sll	t3,s0,0x1f
  92:	00b37333          	and	t1,t1,a1
  96:	05966e63          	bltu	a2,s9,f2 <.L47>
  9a:	98b6                	add	a7,a7,a3
  9c:	00cc9693          	sll	a3,s9,0xc
  a0:	98b6                	add	a7,a7,a3
  a2:	9366                	add	t1,t1,s9
  a4:	98be                	add	a7,a7,a5
  a6:	9372                	add	t1,t1,t3
  a8:	011da023          	sw	a7,0(s11)
  ac:	933a                	add	t1,t1,a4
  ae:	006c2023          	sw	t1,0(s8)

000000b2 <.L48>:
  b2:	017b67b3          	or	a5,s6,s7
  b6:	0157e7b3          	or	a5,a5,s5
  ba:	0147e7b3          	or	a5,a5,s4
  be:	2c078163          	beqz	a5,380 <.L52>
  c2:	000005b7          	lui	a1,0x0
  c6:	0005a783          	lw	a5,0(a1) # 0 <fill_tx_frame>
  ca:	00100737          	lui	a4,0x100
  ce:	177d                	add	a4,a4,-1 # fffff <.L52+0xffc7f>
  d0:	8ff9                	and	a5,a5,a4
  d2:	c09c                	sw	a5,0(s1)
  d4:	00058593          	mv	a1,a1
  d8:	4190                	lw	a2,0(a1)
  da:	4791                	li	a5,4
  dc:	0a0b9263          	bnez	s7,180 <.L74>
  e0:	080b1f63          	bnez	s6,17e <.L67>
  e4:	4789                	li	a5,2
  e6:	080a9d63          	bnez	s5,180 <.L74>
  ea:	4785                	li	a5,1
  ec:	c00006b7          	lui	a3,0xc0000
  f0:	a851                	j	184 <.L54>

000000f2 <.L47>:
  f2:	00f8e8b3          	or	a7,a7,a5
  f6:	00d8e8b3          	or	a7,a7,a3
  fa:	0200b7b7          	lui	a5,0x200b
  fe:	00f8e8b3          	or	a7,a7,a5
 102:	011da023          	sw	a7,0(s11)
 106:	47cd                	li	a5,19
 108:	00fcfc93          	and	s9,s9,15
 10c:	0527f263          	bgeu	a5,s2,150 <.L49>
 110:	0f0007b7          	lui	a5,0xf000

00000114 <.L73>:
 114:	9e3e                	add	t3,t3,a5
 116:	9372                	add	t1,t1,t3
 118:	9366                	add	t1,t1,s9
 11a:	933a                	add	t1,t1,a4
 11c:	006c2023          	sw	t1,0(s8)
 120:	60034737          	lui	a4,0x60034
 124:	c6c72783          	lw	a5,-916(a4) # 60033c6c <.L52+0x600338ec>
 128:	9bbd                	and	a5,a5,-17
 12a:	c6f72623          	sw	a5,-916(a4)

0000012e <.L50>:
 12e:	854a                	mv	a0,s2
 130:	00000097          	auipc	ra,0x0
 134:	000080e7          	jalr	ra # 130 <.L50+0x2>
 138:	411c                	lw	a5,0(a0)
 13a:	fff80737          	lui	a4,0xfff80
 13e:	8ff9                	and	a5,a5,a4
 140:	00080737          	lui	a4,0x80
 144:	177d                	add	a4,a4,-1 # 7ffff <.L52+0x7fc7f>
 146:	00e9f733          	and	a4,s3,a4
 14a:	8fd9                	or	a5,a5,a4
 14c:	c11c                	sw	a5,0(a0)
 14e:	b795                	j	b2 <.L48>

00000150 <.L49>:
 150:	008d5d13          	srl	s10,s10,0x8
 154:	0ffd7d13          	zext.b	s10,s10
 158:	000d1563          	bnez	s10,162 <.L51>
 15c:	070007b7          	lui	a5,0x7000
 160:	bf55                	j	114 <.L73>

00000162 <.L51>:
 162:	0f0007b7          	lui	a5,0xf000
 166:	9e3e                	add	t3,t3,a5
 168:	9372                	add	t1,t1,t3
 16a:	9366                	add	t1,t1,s9
 16c:	933a                	add	t1,t1,a4
 16e:	006c2023          	sw	t1,0(s8)
 172:	600347b7          	lui	a5,0x60034
 176:	4741                	li	a4,16
 178:	c6e7a623          	sw	a4,-916(a5) # 60033c6c <.L52+0x600338ec>
 17c:	bf4d                	j	12e <.L50>

0000017e <.L67>:
 17e:	478d                	li	a5,3

00000180 <.L74>:
 180:	800006b7          	lui	a3,0x80000

00000184 <.L54>:
 184:	00ca1713          	sll	a4,s4,0xc
 188:	9752                	add	a4,a4,s4
 18a:	9736                	add	a4,a4,a3
 18c:	c218                	sw	a4,0(a2)
 18e:	00000537          	lui	a0,0x0
 192:	00052683          	lw	a3,0(a0) # 0 <fill_tx_frame>
 196:	4198                	lw	a4,0(a1)
 198:	00050513          	mv	a0,a0
 19c:	c354                	sw	a3,4(a4)
 19e:	4198                	lw	a4,0(a1)
 1a0:	01070693          	add	a3,a4,16
 1a4:	c714                	sw	a3,8(a4)
 1a6:	4709                	li	a4,2
 1a8:	4190                	lw	a2,0(a1)
 1aa:	c00006b7          	lui	a3,0xc0000
 1ae:	00e78463          	beq	a5,a4,1b6 <.L55>
 1b2:	800006b7          	lui	a3,0x80000

000001b6 <.L55>:
 1b6:	00ca9713          	sll	a4,s5,0xc
 1ba:	9756                	add	a4,a4,s5
 1bc:	9736                	add	a4,a4,a3
 1be:	ca18                	sw	a4,16(a2)
 1c0:	00000737          	lui	a4,0x0
 1c4:	00072603          	lw	a2,0(a4) # 0 <fill_tx_frame>
 1c8:	4194                	lw	a3,0(a1)
 1ca:	488d                	li	a7,3
 1cc:	cad0                	sw	a2,20(a3)
 1ce:	4194                	lw	a3,0(a1)
 1d0:	02068613          	add	a2,a3,32 # 80000020 <.L52+0x7ffffca0>
 1d4:	ce90                	sw	a2,24(a3)
 1d6:	0005a803          	lw	a6,0(a1)
 1da:	00070613          	mv	a2,a4
 1de:	c00006b7          	lui	a3,0xc0000
 1e2:	01178463          	beq	a5,a7,1ea <.L56>
 1e6:	800006b7          	lui	a3,0x80000

000001ea <.L56>:
 1ea:	00cb1713          	sll	a4,s6,0xc
 1ee:	975a                	add	a4,a4,s6
 1f0:	9736                	add	a4,a4,a3
 1f2:	02e82023          	sw	a4,32(a6)
 1f6:	00000737          	lui	a4,0x0
 1fa:	00072803          	lw	a6,0(a4) # 0 <fill_tx_frame>
 1fe:	4194                	lw	a3,0(a1)
 200:	0306a223          	sw	a6,36(a3) # 80000024 <.L52+0x7ffffca4>
 204:	4194                	lw	a3,0(a1)
 206:	03068813          	add	a6,a3,48
 20a:	0306a423          	sw	a6,40(a3)
 20e:	4811                	li	a6,4
 210:	00070693          	mv	a3,a4
 214:	0005a883          	lw	a7,0(a1)
 218:	c0000737          	lui	a4,0xc0000
 21c:	01078463          	beq	a5,a6,224 <.L57>
 220:	80000737          	lui	a4,0x80000

00000224 <.L57>:
 224:	00cb9813          	sll	a6,s7,0xc
 228:	985e                	add	a6,a6,s7
 22a:	983a                	add	a6,a6,a4
 22c:	000007b7          	lui	a5,0x0
 230:	0308a823          	sw	a6,48(a7)
 234:	00078793          	mv	a5,a5
 238:	0007a803          	lw	a6,0(a5) # 0 <fill_tx_frame>
 23c:	4198                	lw	a4,0(a1)
 23e:	ce02                	sw	zero,28(sp)
 240:	9ad2                	add	s5,s5,s4
 242:	03072a23          	sw	a6,52(a4) # 80000034 <.L52+0x7ffffcb4>
 246:	4198                	lw	a4,0(a1)
 248:	4585                	li	a1,1
 24a:	ca2e                	sw	a1,20(sp)
 24c:	02072c23          	sw	zero,56(a4)
 250:	4118                	lw	a4,0(a0)
 252:	4388                	lw	a0,0(a5)
 254:	000007b7          	lui	a5,0x0
 258:	0007c783          	lbu	a5,0(a5) # 0 <fill_tx_frame>
 25c:	4210                	lw	a2,0(a2)
 25e:	4294                	lw	a3,0(a3)
 260:	c83e                	sw	a5,16(sp)
 262:	02c00793          	li	a5,44
 266:	cc3e                	sw	a5,24(sp)
 268:	12012783          	lw	a5,288(sp)
 26c:	9b56                	add	s6,s6,s5
 26e:	d03e                	sw	a5,32(sp)
 270:	11c12783          	lw	a5,284(sp)
 274:	d23e                	sw	a5,36(sp)
 276:	11812783          	lw	a5,280(sp)
 27a:	d43e                	sw	a5,40(sp)
 27c:	11412783          	lw	a5,276(sp)
 280:	d63e                	sw	a5,44(sp)
 282:	11012783          	lw	a5,272(sp)
 286:	d83e                	sw	a5,48(sp)
 288:	10c12783          	lw	a5,268(sp)
 28c:	da3e                	sw	a5,52(sp)
 28e:	000007b7          	lui	a5,0x0
 292:	00078793          	mv	a5,a5
 296:	0007c803          	lbu	a6,0(a5) # 0 <fill_tx_frame>
 29a:	dc42                	sw	a6,56(sp)
 29c:	0017c803          	lbu	a6,1(a5)
 2a0:	de42                	sw	a6,60(sp)
 2a2:	0027c803          	lbu	a6,2(a5)
 2a6:	c0c2                	sw	a6,64(sp)
 2a8:	0037c803          	lbu	a6,3(a5)
 2ac:	cf2e                	sw	a1,156(sp)
 2ae:	d882                	sw	zero,112(sp)
 2b0:	c2c2                	sw	a6,68(sp)
 2b2:	0047c803          	lbu	a6,4(a5)
 2b6:	0057c783          	lbu	a5,5(a5)
 2ba:	da82                	sw	zero,116(sp)
 2bc:	c4c2                	sw	a6,72(sp)
 2be:	c6be                	sw	a5,76(sp)
 2c0:	0ff00793          	li	a5,255
 2c4:	c8be                	sw	a5,80(sp)
 2c6:	cabe                	sw	a5,84(sp)
 2c8:	ccbe                	sw	a5,88(sp)
 2ca:	cebe                	sw	a5,92(sp)
 2cc:	d0be                	sw	a5,96(sp)
 2ce:	d2be                	sw	a5,100(sp)
 2d0:	06000793          	li	a5,96
 2d4:	d4be                	sw	a5,104(sp)
 2d6:	04700793          	li	a5,71
 2da:	d6be                	sw	a5,108(sp)
 2dc:	0aa00793          	li	a5,170
 2e0:	dcbe                	sw	a5,120(sp)
 2e2:	debe                	sw	a5,124(sp)
 2e4:	478d                	li	a5,3
 2e6:	c13e                	sw	a5,128(sp)
 2e8:	47a1                	li	a5,8
 2ea:	c93e                	sw	a5,144(sp)
 2ec:	d13e                	sw	a5,160(sp)
 2ee:	4789                	li	a5,2
 2f0:	4819                	li	a6,6
 2f2:	d33e                	sw	a5,164(sp)
 2f4:	4791                	li	a5,4
 2f6:	cb42                	sw	a6,148(sp)
 2f8:	d53e                	sw	a5,168(sp)
 2fa:	06b00813          	li	a6,107
 2fe:	47ad                	li	a5,11
 300:	cd42                	sw	a6,152(sp)
 302:	c302                	sw	zero,132(sp)
 304:	c502                	sw	zero,136(sp)
 306:	c702                	sw	zero,140(sp)
 308:	d73e                	sw	a5,172(sp)
 30a:	d902                	sw	zero,176(sp)
 30c:	db02                	sw	zero,180(sp)
 30e:	dd02                	sw	zero,184(sp)
 310:	4581                	li	a1,0
 312:	df02                	sw	zero,188(sp)
 314:	02700813          	li	a6,39

00000318 <.L58>:
 318:	03359163          	bne	a1,s3,33a <.L65>

0000031c <.L46>:
 31c:	50fe                	lw	ra,252(sp)
 31e:	546e                	lw	s0,248(sp)
 320:	54de                	lw	s1,244(sp)
 322:	594e                	lw	s2,240(sp)
 324:	59be                	lw	s3,236(sp)
 326:	5a2e                	lw	s4,232(sp)
 328:	5a9e                	lw	s5,228(sp)
 32a:	5b0e                	lw	s6,224(sp)
 32c:	4bfe                	lw	s7,220(sp)
 32e:	4c6e                	lw	s8,216(sp)
 330:	4cde                	lw	s9,212(sp)
 332:	4d4e                	lw	s10,208(sp)
 334:	4dbe                	lw	s11,204(sp)
 336:	6111                	add	sp,sp,256
 338:	8082                	ret

0000033a <.L65>:
 33a:	0345f163          	bgeu	a1,s4,35c <.L59>
 33e:	00b86c63          	bltu	a6,a1,356 <.L60>
 342:	00259793          	sll	a5,a1,0x2
 346:	0800                	add	s0,sp,16
 348:	97a2                	add	a5,a5,s0
 34a:	439c                	lw	a5,0(a5)
 34c:	00f70023          	sb	a5,0(a4)

00000350 <.L61>:
 350:	0705                	add	a4,a4,1

00000352 <.L62>:
 352:	0585                	add	a1,a1,1
 354:	b7d1                	j	318 <.L58>

00000356 <.L60>:
 356:	00b70023          	sb	a1,0(a4)
 35a:	bfdd                	j	350 <.L61>

0000035c <.L59>:
 35c:	0ff5f793          	zext.b	a5,a1
 360:	0155f663          	bgeu	a1,s5,36c <.L63>
 364:	00f60023          	sb	a5,0(a2)
 368:	0605                	add	a2,a2,1
 36a:	b7e5                	j	352 <.L62>

0000036c <.L63>:
 36c:	0165f663          	bgeu	a1,s6,378 <.L64>
 370:	00f68023          	sb	a5,0(a3)
 374:	0685                	add	a3,a3,1
 376:	bff1                	j	352 <.L62>

00000378 <.L64>:
 378:	00f50023          	sb	a5,0(a0)
 37c:	0505                	add	a0,a0,1
 37e:	bfd1                	j	352 <.L62>

00000380 <.L52>:
 380:	10412783          	lw	a5,260(sp)
 384:	00100737          	lui	a4,0x100
 388:	177d                	add	a4,a4,-1 # fffff <.L52+0xffc7f>
 38a:	8ff9                	and	a5,a5,a4
 38c:	c09c                	sw	a5,0(s1)
 38e:	b779                	j	31c <.L46>

Disassembly of section .text.rx_buffer_init:

00000000 <rx_buffer_init>:
   0:	1ff00793          	li	a5,511
   4:	4885                	li	a7,1
   6:	00b7f463          	bgeu	a5,a1,e <.L76>
   a:	0085d893          	srl	a7,a1,0x8

0000000e <.L76>:
   e:	800005b7          	lui	a1,0x80000
  12:	4781                	li	a5,0
  14:	4601                	li	a2,0
  16:	00000337          	lui	t1,0x0
  1a:	4e31                	li	t3,12
  1c:	10058593          	add	a1,a1,256 # 80000100 <.L52+0x7ffffd80>

00000020 <.L77>:
  20:	00030693          	mv	a3,t1
  24:	4298                	lw	a4,0(a3)
  26:	00c89d63          	bne	a7,a2,40 <.L78>
  2a:	c798                	sw	a4,8(a5)
  2c:	4298                	lw	a4,0(a3)
  2e:	600337b7          	lui	a5,0x60033
  32:	08e7a423          	sw	a4,136(a5) # 60033088 <.L52+0x60032d08>
  36:	80000737          	lui	a4,0x80000
  3a:	08e7a223          	sw	a4,132(a5)
  3e:	8082                	ret

00000040 <.L78>:
  40:	03c607b3          	mul	a5,a2,t3
  44:	00861813          	sll	a6,a2,0x8
  48:	982a                	add	a6,a6,a0
  4a:	0605                	add	a2,a2,1
  4c:	973e                	add	a4,a4,a5
  4e:	c30c                	sw	a1,0(a4)
  50:	4298                	lw	a4,0(a3)
  52:	0711                	add	a4,a4,4 # 80000004 <.L52+0x7ffffc84>
  54:	973e                	add	a4,a4,a5
  56:	01072023          	sw	a6,0(a4)
  5a:	4298                	lw	a4,0(a3)
  5c:	00c78813          	add	a6,a5,12
  60:	983a                	add	a6,a6,a4
  62:	0721                	add	a4,a4,8
  64:	973e                	add	a4,a4,a5
  66:	01072023          	sw	a6,0(a4)
  6a:	4298                	lw	a4,0(a3)
  6c:	97ba                	add	a5,a5,a4
  6e:	bf4d                	j	20 <.L77>

Disassembly of section .text.rx_link_des:

00000000 <rx_link_des>:
   0:	600337b7          	lui	a5,0x60033
   4:	0847a703          	lw	a4,132(a5) # 60033084 <.L52+0x60032d04>
   8:	800006b7          	lui	a3,0x80000
   c:	fff6c693          	not	a3,a3
  10:	8f75                	and	a4,a4,a3
  12:	08e7a223          	sw	a4,132(a5)
  16:	0807a223          	sw	zero,132(a5)
  1a:	8082                	ret

Disassembly of section .text.rx_buffer_ena:

00000000 <rx_buffer_ena>:
   0:	60033737          	lui	a4,0x60033
   4:	08472783          	lw	a5,132(a4) # 60033084 <.L52+0x60032d04>
   8:	800006b7          	lui	a3,0x80000
   c:	8fd5                	or	a5,a5,a3
   e:	08f72223          	sw	a5,132(a4)
  12:	8082                	ret

Disassembly of section .text.rx_ampdu_buffer_fresh:

00000000 <rx_ampdu_buffer_fresh>:
   0:	1ff00793          	li	a5,511
   4:	4885                	li	a7,1
   6:	00b7f463          	bgeu	a5,a1,e <.L83>
   a:	0085d893          	srl	a7,a1,0x8

0000000e <.L83>:
   e:	801005b7          	lui	a1,0x80100
  12:	4781                	li	a5,0
  14:	4681                	li	a3,0
  16:	00000337          	lui	t1,0x0
  1a:	4e31                	li	t3,12
  1c:	10058593          	add	a1,a1,256 # 80100100 <.L52+0x800ffd80>

00000020 <.L84>:
  20:	00030613          	mv	a2,t1
  24:	4218                	lw	a4,0(a2)
  26:	00d89463          	bne	a7,a3,2e <.L85>
  2a:	c798                	sw	a4,8(a5)
  2c:	8082                	ret

0000002e <.L85>:
  2e:	03c687b3          	mul	a5,a3,t3
  32:	00869813          	sll	a6,a3,0x8
  36:	982a                	add	a6,a6,a0
  38:	0685                	add	a3,a3,1 # 80000001 <.L52+0x7ffffc81>
  3a:	973e                	add	a4,a4,a5
  3c:	c30c                	sw	a1,0(a4)
  3e:	4218                	lw	a4,0(a2)
  40:	0711                	add	a4,a4,4
  42:	973e                	add	a4,a4,a5
  44:	01072023          	sw	a6,0(a4)
  48:	4218                	lw	a4,0(a2)
  4a:	00c78813          	add	a6,a5,12
  4e:	983a                	add	a6,a6,a4
  50:	0721                	add	a4,a4,8
  52:	973e                	add	a4,a4,a5
  54:	01072023          	sw	a6,0(a4)
  58:	4218                	lw	a4,0(a2)
  5a:	97ba                	add	a5,a5,a4
  5c:	b7d1                	j	20 <.L84>

Disassembly of section .text.rx_ampdu_buffer_init:

00000000 <rx_ampdu_buffer_init>:
   0:	1141                	add	sp,sp,-16
   2:	c606                	sw	ra,12(sp)
   4:	00000097          	auipc	ra,0x0
   8:	000080e7          	jalr	ra # 4 <rx_ampdu_buffer_init+0x4>
   c:	000007b7          	lui	a5,0x0
  10:	0007a703          	lw	a4,0(a5) # 0 <rx_ampdu_buffer_init>
  14:	40b2                	lw	ra,12(sp)
  16:	600337b7          	lui	a5,0x60033
  1a:	08e7a423          	sw	a4,136(a5) # 60033088 <.L52+0x60032d08>
  1e:	0141                	add	sp,sp,16
  20:	8082                	ret

Disassembly of section .text.rx_ampdu_entry_fresh:

00000000 <rx_ampdu_entry_fresh>:
   0:	47bd                	li	a5,15
   2:	4885                	li	a7,1
   4:	00b7f463          	bgeu	a5,a1,c <.L90>
   8:	0035d893          	srl	a7,a1,0x3

0000000c <.L90>:
   c:	800085b7          	lui	a1,0x80008
  10:	4781                	li	a5,0
  12:	4681                	li	a3,0
  14:	00000337          	lui	t1,0x0
  18:	4e31                	li	t3,12
  1a:	05a1                	add	a1,a1,8 # 80008008 <.L52+0x80007c88>

0000001c <.L91>:
  1c:	00030613          	mv	a2,t1
  20:	4218                	lw	a4,0(a2)
  22:	00d89463          	bne	a7,a3,2a <.L92>
  26:	c798                	sw	a4,8(a5)
  28:	8082                	ret

0000002a <.L92>:
  2a:	03c687b3          	mul	a5,a3,t3
  2e:	00369813          	sll	a6,a3,0x3
  32:	982a                	add	a6,a6,a0
  34:	0685                	add	a3,a3,1
  36:	973e                	add	a4,a4,a5
  38:	c30c                	sw	a1,0(a4)
  3a:	4218                	lw	a4,0(a2)
  3c:	0711                	add	a4,a4,4
  3e:	973e                	add	a4,a4,a5
  40:	01072023          	sw	a6,0(a4)
  44:	4218                	lw	a4,0(a2)
  46:	00c78813          	add	a6,a5,12
  4a:	983a                	add	a6,a6,a4
  4c:	0721                	add	a4,a4,8
  4e:	973e                	add	a4,a4,a5
  50:	01072023          	sw	a6,0(a4)
  54:	4218                	lw	a4,0(a2)
  56:	97ba                	add	a5,a5,a4
  58:	b7d1                	j	1c <.L91>

Disassembly of section .text.rx_ampdu_entry_init:

00000000 <rx_ampdu_entry_init>:
   0:	00000317          	auipc	t1,0x0
   4:	00030067          	jr	t1 # 0 <rx_ampdu_entry_init>

Disassembly of section .text.rx_ampdu_entrysd_fresh:

00000000 <rx_ampdu_entrysd_fresh>:
   0:	47bd                	li	a5,15
   2:	4885                	li	a7,1
   4:	00b7f463          	bgeu	a5,a1,c <.L96>
   8:	0035d893          	srl	a7,a1,0x3

0000000c <.L96>:
   c:	800085b7          	lui	a1,0x80008
  10:	4781                	li	a5,0
  12:	4681                	li	a3,0
  14:	00000337          	lui	t1,0x0
  18:	4e31                	li	t3,12
  1a:	05a1                	add	a1,a1,8 # 80008008 <.L52+0x80007c88>

0000001c <.L97>:
  1c:	00030613          	mv	a2,t1
  20:	4218                	lw	a4,0(a2)
  22:	00d89463          	bne	a7,a3,2a <.L98>
  26:	c798                	sw	a4,8(a5)
  28:	8082                	ret

0000002a <.L98>:
  2a:	03c687b3          	mul	a5,a3,t3
  2e:	00369813          	sll	a6,a3,0x3
  32:	982a                	add	a6,a6,a0
  34:	0685                	add	a3,a3,1
  36:	973e                	add	a4,a4,a5
  38:	c30c                	sw	a1,0(a4)
  3a:	4218                	lw	a4,0(a2)
  3c:	0711                	add	a4,a4,4
  3e:	973e                	add	a4,a4,a5
  40:	01072023          	sw	a6,0(a4)
  44:	4218                	lw	a4,0(a2)
  46:	00c78813          	add	a6,a5,12
  4a:	983a                	add	a6,a6,a4
  4c:	0721                	add	a4,a4,8
  4e:	973e                	add	a4,a4,a5
  50:	01072023          	sw	a6,0(a4)
  54:	4218                	lw	a4,0(a2)
  56:	97ba                	add	a5,a5,a4
  58:	b7d1                	j	1c <.L97>

Disassembly of section .text.rx_ampdu_entrysd_init:

00000000 <rx_ampdu_entrysd_init>:
   0:	00000317          	auipc	t1,0x0
   4:	00030067          	jr	t1 # 0 <rx_ampdu_entrysd_init>

Disassembly of section .text.mac_init:

00000000 <mac_init>:
   0:	1141                	add	sp,sp,-16
   2:	c606                	sw	ra,12(sp)
   4:	c422                	sw	s0,8(sp)
   6:	c226                	sw	s1,4(sp)
   8:	c04a                	sw	s2,0(sp)
   a:	00000097          	auipc	ra,0x0
   e:	000080e7          	jalr	ra # a <mac_init+0xa>
  12:	60034737          	lui	a4,0x60034
  16:	d1472783          	lw	a5,-748(a4) # 60033d14 <.L52+0x60033994>
  1a:	0027e793          	or	a5,a5,2
  1e:	d0f72a23          	sw	a5,-748(a4)
  22:	600347b7          	lui	a5,0x60034

00000026 <.L102>:
  26:	d147a703          	lw	a4,-748(a5) # 60033d14 <.L52+0x60033994>
  2a:	8b05                	and	a4,a4,1
  2c:	df6d                	beqz	a4,26 <.L102>
  2e:	60033437          	lui	s0,0x60033
  32:	0d842703          	lw	a4,216(s0) # 600330d8 <.L52+0x60032d58>
  36:	800006b7          	lui	a3,0x80000
  3a:	fff6c693          	not	a3,a3
  3e:	9b61                	and	a4,a4,-8
  40:	0ce42c23          	sw	a4,216(s0)
  44:	0dc42703          	lw	a4,220(s0)
  48:	10000937          	lui	s2,0x10000
  4c:	f00004b7          	lui	s1,0xf0000
  50:	9b61                	and	a4,a4,-8
  52:	0ce42e23          	sw	a4,220(s0)
  56:	0e042703          	lw	a4,224(s0)
  5a:	14fd                	add	s1,s1,-1 # efffffff <.L52+0xeffffc7f>
  5c:	6585                	lui	a1,0x1
  5e:	9b61                	and	a4,a4,-8
  60:	0ee42023          	sw	a4,224(s0)
  64:	0e442703          	lw	a4,228(s0)
  68:	9b61                	and	a4,a4,-8
  6a:	0ee42223          	sw	a4,228(s0)
  6e:	c6c7a703          	lw	a4,-916(a5)
  72:	9b75                	and	a4,a4,-3
  74:	c6e7a623          	sw	a4,-916(a5)
  78:	c6c7a703          	lw	a4,-916(a5)
  7c:	9b3d                	and	a4,a4,-17
  7e:	c6e7a623          	sw	a4,-916(a5)
  82:	c6c7a703          	lw	a4,-916(a5)
  86:	8f75                	and	a4,a4,a3
  88:	c6e7a623          	sw	a4,-916(a5)
  8c:	08042703          	lw	a4,128(s0)
  90:	01276733          	or	a4,a4,s2
  94:	08e42023          	sw	a4,128(s0)
  98:	08042703          	lw	a4,128(s0)
  9c:	f0077713          	and	a4,a4,-256
  a0:	00c76713          	or	a4,a4,12
  a4:	08e42023          	sw	a4,128(s0)
  a8:	477d                	li	a4,31
  aa:	c2e7aa23          	sw	a4,-972(a5)
  ae:	07060737          	lui	a4,0x7060
  b2:	50470713          	add	a4,a4,1284 # 7060504 <.L52+0x7060184>
  b6:	c038                	sw	a4,64(s0)
  b8:	6705                	lui	a4,0x1
  ba:	90870713          	add	a4,a4,-1784 # 908 <.L52+0x588>
  be:	c078                	sw	a4,68(s0)
  c0:	00080737          	lui	a4,0x80
  c4:	c6e7a023          	sw	a4,-928(a5)
  c8:	04013737          	lui	a4,0x4013
  cc:	d0e7a223          	sw	a4,-764(a5)
  d0:	000c2737          	lui	a4,0xc2
  d4:	04070713          	add	a4,a4,64 # c2040 <.L52+0xc1cc0>
  d8:	d8e7a823          	sw	a4,-624(a5)
  dc:	c187a703          	lw	a4,-1000(a5)
  e0:	8ef9                	and	a3,a3,a4
  e2:	c0d7ac23          	sw	a3,-1000(a5)
  e6:	c6c7a703          	lw	a4,-916(a5)
  ea:	008006b7          	lui	a3,0x800
  ee:	8f55                	or	a4,a4,a3
  f0:	c6e7a623          	sw	a4,-916(a5)
  f4:	0d842703          	lw	a4,216(s0)
  f8:	000007b7          	lui	a5,0x0
  fc:	02076713          	or	a4,a4,32
 100:	0ce42c23          	sw	a4,216(s0)
 104:	08042703          	lw	a4,128(s0)
 108:	8f65                	and	a4,a4,s1
 10a:	08e42023          	sw	a4,128(s0)
 10e:	0007a503          	lw	a0,0(a5) # 0 <mac_init>
 112:	00000097          	auipc	ra,0x0
 116:	000080e7          	jalr	ra # 112 <.L102+0xec>
 11a:	08042783          	lw	a5,128(s0)
 11e:	12c00593          	li	a1,300
 122:	0127e7b3          	or	a5,a5,s2
 126:	08f42023          	sw	a5,128(s0)
 12a:	000007b7          	lui	a5,0x0
 12e:	0007a503          	lw	a0,0(a5) # 0 <mac_init>
 132:	00000097          	auipc	ra,0x0
 136:	000080e7          	jalr	ra # 132 <.L102+0x10c>
 13a:	000007b7          	lui	a5,0x0
 13e:	0007a503          	lw	a0,0(a5) # 0 <mac_init>
 142:	06400593          	li	a1,100
 146:	00000097          	auipc	ra,0x0
 14a:	000080e7          	jalr	ra # 146 <.L102+0x120>
 14e:	00000097          	auipc	ra,0x0
 152:	000080e7          	jalr	ra # 14e <.L102+0x128>
 156:	08042783          	lw	a5,128(s0)
 15a:	40b2                	lw	ra,12(sp)
 15c:	4902                	lw	s2,0(sp)
 15e:	8cfd                	and	s1,s1,a5
 160:	08942023          	sw	s1,128(s0)
 164:	4422                	lw	s0,8(sp)
 166:	4492                	lw	s1,4(sp)
 168:	0141                	add	sp,sp,16
 16a:	8082                	ret

Disassembly of section .text.adctrig:

00000000 <adctrig>:
   0:	7159                	add	sp,sp,-112
   2:	c4e2                	sw	s8,72(sp)
   4:	8c36                	mv	s8,a3
   6:	600346b7          	lui	a3,0x60034
   a:	d4a2                	sw	s0,104(sp)
   c:	843e                	mv	s0,a5
   e:	d5c6a783          	lw	a5,-676(a3) # 60033d5c <.L52+0x600339dc>
  12:	c2e6                	sw	s9,68(sp)
  14:	8cba                	mv	s9,a4
  16:	80000737          	lui	a4,0x80000
  1a:	fff74713          	not	a4,a4
  1e:	d2a6                	sw	s1,100(sp)
  20:	d0ca                	sw	s2,96(sp)
  22:	cece                	sw	s3,92(sp)
  24:	ccd2                	sw	s4,88(sp)
  26:	c6de                	sw	s7,76(sp)
  28:	c0ea                	sw	s10,64(sp)
  2a:	de6e                	sw	s11,60(sp)
  2c:	d686                	sw	ra,108(sp)
  2e:	cad6                	sw	s5,84(sp)
  30:	c8da                	sw	s6,80(sp)
  32:	8ff9                	and	a5,a5,a4
  34:	5a46                	lw	s4,112(sp)
  36:	00020737          	lui	a4,0x20
  3a:	d4f6ae23          	sw	a5,-676(a3)
  3e:	011c9793          	sll	a5,s9,0x11
  42:	8ff9                	and	a5,a5,a4
  44:	01c59713          	sll	a4,a1,0x1c
  48:	97ba                	add	a5,a5,a4
  4a:	001c7713          	and	a4,s8,1
  4e:	00173713          	seqz	a4,a4
  52:	0742                	sll	a4,a4,0x10
  54:	97ba                	add	a5,a5,a4
  56:	01461713          	sll	a4,a2,0x14
  5a:	97ba                	add	a5,a5,a4
  5c:	97aa                	add	a5,a5,a0
  5e:	0785                	add	a5,a5,1
  60:	d4f6ae23          	sw	a5,-676(a3)
  64:	600c1737          	lui	a4,0x600c1
  68:	531c                	lw	a5,32(a4)
  6a:	892a                	mv	s2,a0
  6c:	84ae                	mv	s1,a1
  6e:	9be1                	and	a5,a5,-8
  70:	0027e793          	or	a5,a5,2
  74:	d31c                	sw	a5,32(a4)
  76:	531c                	lw	a5,32(a4)
  78:	8bb2                	mv	s7,a2
  7a:	8d42                	mv	s10,a6
  7c:	0087e793          	or	a5,a5,8
  80:	d31c                	sw	a5,32(a4)
  82:	4791                	li	a5,4
  84:	89c6                	mv	s3,a7
  86:	01889d93          	sll	s11,a7,0x18
  8a:	10f41e63          	bne	s0,a5,1a6 <.L108>
  8e:	6001c737          	lui	a4,0x6001c
  92:	575c                	lw	a5,44(a4)
  94:	010006b7          	lui	a3,0x1000
  98:	16fd                	add	a3,a3,-1 # ffffff <.L52+0xfffc7f>
  9a:	8ff5                	and	a5,a5,a3
  9c:	01b7e7b3          	or	a5,a5,s11
  a0:	d75c                	sw	a5,44(a4)
  a2:	575c                	lw	a5,44(a4)
  a4:	008006b7          	lui	a3,0x800
  a8:	8fd5                	or	a5,a5,a3
  aa:	d75c                	sw	a5,44(a4)

000000ac <.L132>:
  ac:	4505                	li	a0,1
  ae:	00000097          	auipc	ra,0x0
  b2:	000080e7          	jalr	ra # ae <.L132+0x2>

000000b6 <.L109>:
  b6:	60034737          	lui	a4,0x60034
  ba:	d5c72783          	lw	a5,-676(a4) # 60033d5c <.L52+0x600339dc>
  be:	800006b7          	lui	a3,0x80000
  c2:	8fd5                	or	a5,a5,a3
  c4:	d4f72e23          	sw	a5,-676(a4)
  c8:	018d1793          	sll	a5,s10,0x18
  cc:	d03e                	sw	a5,32(sp)
  ce:	4785                	li	a5,1
  d0:	0ef41b63          	bne	s0,a5,1c6 <.L110>
  d4:	6001c737          	lui	a4,0x6001c
  d8:	575c                	lw	a5,44(a4)
  da:	010006b7          	lui	a3,0x1000
  de:	16fd                	add	a3,a3,-1 # ffffff <.L52+0xfffc7f>
  e0:	8ff5                	and	a5,a5,a3
  e2:	018d1693          	sll	a3,s10,0x18
  e6:	8fd5                	or	a5,a5,a3
  e8:	d75c                	sw	a5,44(a4)
  ea:	575c                	lw	a5,44(a4)
  ec:	008006b7          	lui	a3,0x800
  f0:	8fd5                	or	a5,a5,a3
  f2:	d75c                	sw	a5,44(a4)
  f4:	10048363          	beqz	s1,1fa <.L116>

000000f8 <.L112>:
  f8:	010d1793          	sll	a5,s10,0x10
  fc:	83c1                	srl	a5,a5,0x10
  fe:	d23e                	sw	a5,36(sp)
 100:	01099793          	sll	a5,s3,0x10
 104:	010a1b13          	sll	s6,s4,0x10
 108:	83c1                	srl	a5,a5,0x10
 10a:	00000ab7          	lui	s5,0x0
 10e:	010b5b13          	srl	s6,s6,0x10
 112:	d43e                	sw	a5,40(sp)

00000114 <.L120>:
 114:	010007b7          	lui	a5,0x1000
 118:	17fd                	add	a5,a5,-1 # ffffff <.L52+0xfffc7f>
 11a:	ce3e                	sw	a5,28(sp)
 11c:	ffb48793          	add	a5,s1,-5
 120:	d63e                	sw	a5,44(sp)

00000122 <.L123>:
 122:	600347b7          	lui	a5,0x60034
 126:	d5c7a783          	lw	a5,-676(a5) # 60033d5c <.L52+0x600339dc>
 12a:	00d79713          	sll	a4,a5,0xd
 12e:	12075d63          	bgez	a4,268 <.L124>
 132:	600c1737          	lui	a4,0x600c1
 136:	531c                	lw	a5,32(a4)
 138:	3e800513          	li	a0,1000
 13c:	9be1                	and	a5,a5,-8
 13e:	d31c                	sw	a5,32(a4)
 140:	00000097          	auipc	ra,0x0
 144:	000080e7          	jalr	ra # 140 <.L123+0x1e>
 148:	600347b7          	lui	a5,0x60034
 14c:	d607a603          	lw	a2,-672(a5) # 60033d60 <.L52+0x600339e0>
 150:	d607a683          	lw	a3,-672(a5)
 154:	6591                	lui	a1,0x4
 156:	8239                	srl	a2,a2,0xe
 158:	8a05                	and	a2,a2,1
 15a:	15fd                	add	a1,a1,-1 # 3fff <.L52+0x3c7f>
 15c:	00e61793          	sll	a5,a2,0xe
 160:	8eed                	and	a3,a3,a1
 162:	00190713          	add	a4,s2,1 # 10000001 <.L52+0xffffc81>
 166:	8fd5                	or	a5,a5,a3
 168:	18f70e63          	beq	a4,a5,304 <.L125>
 16c:	180c9c63          	bnez	s9,304 <.L125>
 170:	5426                	lw	s0,104(sp)
 172:	50b6                	lw	ra,108(sp)
 174:	49f6                	lw	s3,92(sp)
 176:	4a66                	lw	s4,88(sp)
 178:	4ad6                	lw	s5,84(sp)
 17a:	4b46                	lw	s6,80(sp)
 17c:	4c96                	lw	s9,68(sp)
 17e:	4d06                	lw	s10,64(sp)
 180:	5df2                	lw	s11,60(sp)
 182:	8762                	mv	a4,s8
 184:	86de                	mv	a3,s7
 186:	4c26                	lw	s8,72(sp)
 188:	4bb6                	lw	s7,76(sp)
 18a:	8626                	mv	a2,s1
 18c:	85ca                	mv	a1,s2
 18e:	5496                	lw	s1,100(sp)
 190:	5906                	lw	s2,96(sp)
 192:	00000537          	lui	a0,0x0
 196:	4781                	li	a5,0
 198:	00050513          	mv	a0,a0
 19c:	6165                	add	sp,sp,112
 19e:	00000317          	auipc	t1,0x0
 1a2:	00030067          	jr	t1 # 19e <.L123+0x7c>

000001a6 <.L108>:
 1a6:	4795                	li	a5,5
 1a8:	f0f417e3          	bne	s0,a5,b6 <.L109>
 1ac:	000007b7          	lui	a5,0x0
 1b0:	0007a783          	lw	a5,0(a5) # 0 <adctrig>
 1b4:	01089613          	sll	a2,a7,0x10
 1b8:	8241                	srl	a2,a2,0x10
 1ba:	1cc7a783          	lw	a5,460(a5)
 1be:	4585                	li	a1,1
 1c0:	4501                	li	a0,0
 1c2:	9782                	jalr	a5
 1c4:	b5e5                	j	ac <.L132>

000001c6 <.L110>:
 1c6:	478d                	li	a5,3
 1c8:	08f41063          	bne	s0,a5,248 <.L114>
 1cc:	6001c737          	lui	a4,0x6001c
 1d0:	575c                	lw	a5,44(a4)
 1d2:	010006b7          	lui	a3,0x1000
 1d6:	16fd                	add	a3,a3,-1 # ffffff <.L52+0xfffc7f>
 1d8:	8ff5                	and	a5,a5,a3
 1da:	01b7e7b3          	or	a5,a5,s11
 1de:	d75c                	sw	a5,44(a4)
 1e0:	575c                	lw	a5,44(a4)
 1e2:	008006b7          	lui	a3,0x800
 1e6:	010a1513          	sll	a0,s4,0x10
 1ea:	8fd5                	or	a5,a5,a3
 1ec:	d75c                	sw	a5,44(a4)
 1ee:	8141                	srl	a0,a0,0x10
 1f0:	00000097          	auipc	ra,0x0
 1f4:	000080e7          	jalr	ra # 1f0 <.L110+0x2a>
 1f8:	e49d                	bnez	s1,226 <.L115>

000001fa <.L116>:
 1fa:	600347b7          	lui	a5,0x60034
 1fe:	d5c7a703          	lw	a4,-676(a5) # 60033d5c <.L52+0x600339dc>
 202:	000806b7          	lui	a3,0x80
 206:	8f55                	or	a4,a4,a3
 208:	d4e7ae23          	sw	a4,-676(a5)
 20c:	d5c7a703          	lw	a4,-676(a5)
 210:	fff806b7          	lui	a3,0xfff80
 214:	16fd                	add	a3,a3,-1 # fff7ffff <.L52+0xfff7fc7f>
 216:	8f75                	and	a4,a4,a3
 218:	d4e7ae23          	sw	a4,-676(a5)

0000021c <.L118>:
 21c:	ffe40793          	add	a5,s0,-2
 220:	4705                	li	a4,1
 222:	ecf76be3          	bltu	a4,a5,f8 <.L112>

00000226 <.L115>:
 226:	6001c737          	lui	a4,0x6001c
 22a:	575c                	lw	a5,44(a4)
 22c:	010006b7          	lui	a3,0x1000
 230:	16fd                	add	a3,a3,-1 # ffffff <.L52+0xfffc7f>
 232:	8ff5                	and	a5,a5,a3
 234:	018d1693          	sll	a3,s10,0x18
 238:	8fd5                	or	a5,a5,a3
 23a:	d75c                	sw	a5,44(a4)
 23c:	575c                	lw	a5,44(a4)
 23e:	008006b7          	lui	a3,0x800
 242:	8fd5                	or	a5,a5,a3
 244:	d75c                	sw	a5,44(a4)
 246:	bd4d                	j	f8 <.L112>

00000248 <.L114>:
 248:	f8f1                	bnez	s1,21c <.L118>
 24a:	47a9                	li	a5,10
 24c:	faf417e3          	bne	s0,a5,1fa <.L116>
 250:	00000097          	auipc	ra,0x0
 254:	000080e7          	jalr	ra # 250 <.L114+0x8>
 258:	010a1513          	sll	a0,s4,0x10
 25c:	8141                	srl	a0,a0,0x10
 25e:	00000097          	auipc	ra,0x0
 262:	000080e7          	jalr	ra # 25e <.L114+0x16>
 266:	bf51                	j	1fa <.L116>

00000268 <.L124>:
 268:	4791                	li	a5,4
 26a:	06f41463          	bne	s0,a5,2d2 <.L121>
 26e:	6001c737          	lui	a4,0x6001c
 272:	575c                	lw	a5,44(a4)
 274:	46f2                	lw	a3,28(sp)
 276:	855a                	mv	a0,s6
 278:	8ff5                	and	a5,a5,a3
 27a:	5682                	lw	a3,32(sp)
 27c:	8fd5                	or	a5,a5,a3
 27e:	d75c                	sw	a5,44(a4)
 280:	00000097          	auipc	ra,0x0
 284:	000080e7          	jalr	ra # 280 <.L124+0x18>
 288:	6001c737          	lui	a4,0x6001c
 28c:	575c                	lw	a5,44(a4)
 28e:	46f2                	lw	a3,28(sp)
 290:	8ff5                	and	a5,a5,a3
 292:	01b7e7b3          	or	a5,a5,s11
 296:	d75c                	sw	a5,44(a4)

00000298 <.L133>:
 298:	855a                	mv	a0,s6
 29a:	00000097          	auipc	ra,0x0
 29e:	000080e7          	jalr	ra # 29a <.L133+0x2>

000002a2 <.L122>:
 2a2:	5732                	lw	a4,44(sp)
 2a4:	4785                	li	a5,1
 2a6:	e6e7eee3          	bltu	a5,a4,122 <.L123>
 2aa:	000aa783          	lw	a5,0(s5) # 0 <adctrig>
 2ae:	4b9c                	lw	a5,16(a5)
 2b0:	9782                	jalr	a5
 2b2:	3e800513          	li	a0,1000
 2b6:	00000097          	auipc	ra,0x0
 2ba:	000080e7          	jalr	ra # 2b6 <.L122+0x14>
 2be:	4529                	li	a0,10
 2c0:	00000097          	auipc	ra,0x0
 2c4:	000080e7          	jalr	ra # 2c0 <.L122+0x1e>
 2c8:	000aa783          	lw	a5,0(s5)
 2cc:	4bdc                	lw	a5,20(a5)
 2ce:	9782                	jalr	a5
 2d0:	b591                	j	114 <.L120>

000002d2 <.L121>:
 2d2:	4795                	li	a5,5
 2d4:	fcf417e3          	bne	s0,a5,2a2 <.L122>
 2d8:	000aa783          	lw	a5,0(s5)
 2dc:	5612                	lw	a2,36(sp)
 2de:	4585                	li	a1,1
 2e0:	1cc7a783          	lw	a5,460(a5)
 2e4:	4501                	li	a0,0
 2e6:	9782                	jalr	a5
 2e8:	855a                	mv	a0,s6
 2ea:	00000097          	auipc	ra,0x0
 2ee:	000080e7          	jalr	ra # 2ea <.L121+0x18>
 2f2:	000aa783          	lw	a5,0(s5)
 2f6:	5622                	lw	a2,40(sp)
 2f8:	4585                	li	a1,1
 2fa:	1cc7a783          	lw	a5,460(a5)
 2fe:	4501                	li	a0,0
 300:	9782                	jalr	a5
 302:	bf59                	j	298 <.L133>

00000304 <.L125>:
 304:	600347b7          	lui	a5,0x60034
 308:	d607a583          	lw	a1,-672(a5) # 60033d60 <.L52+0x600339e0>
 30c:	d5c7a703          	lw	a4,-676(a5)
 310:	800006b7          	lui	a3,0x80000
 314:	fff6c693          	not	a3,a3
 318:	8f75                	and	a4,a4,a3
 31a:	d4e7ae23          	sw	a4,-676(a5)
 31e:	6791                	lui	a5,0x4
 320:	17fd                	add	a5,a5,-1 # 3fff <.L52+0x3c7f>
 322:	00000537          	lui	a0,0x0
 326:	8dfd                	and	a1,a1,a5
 328:	6741                	lui	a4,0x10
 32a:	3fcb06b7          	lui	a3,0x3fcb0
 32e:	00050513          	mv	a0,a0
 332:	00000097          	auipc	ra,0x0
 336:	000080e7          	jalr	ra # 332 <.L125+0x2e>
 33a:	00000537          	lui	a0,0x0
 33e:	c252                	sw	s4,4(sp)
 340:	c04e                	sw	s3,0(sp)
 342:	88ea                	mv	a7,s10
 344:	8822                	mv	a6,s0
 346:	87e6                	mv	a5,s9
 348:	8762                	mv	a4,s8
 34a:	86de                	mv	a3,s7
 34c:	8626                	mv	a2,s1
 34e:	85ca                	mv	a1,s2
 350:	00050513          	mv	a0,a0
 354:	00000097          	auipc	ra,0x0
 358:	000080e7          	jalr	ra # 354 <.L125+0x50>
 35c:	50b6                	lw	ra,108(sp)
 35e:	5426                	lw	s0,104(sp)
 360:	5496                	lw	s1,100(sp)
 362:	5906                	lw	s2,96(sp)
 364:	49f6                	lw	s3,92(sp)
 366:	4a66                	lw	s4,88(sp)
 368:	4ad6                	lw	s5,84(sp)
 36a:	4b46                	lw	s6,80(sp)
 36c:	4bb6                	lw	s7,76(sp)
 36e:	4c26                	lw	s8,72(sp)
 370:	4c96                	lw	s9,68(sp)
 372:	4d06                	lw	s10,64(sp)
 374:	5df2                	lw	s11,60(sp)
 376:	6165                	add	sp,sp,112
 378:	8082                	ret

Disassembly of section .text.dactrig:

00000000 <dactrig>:
   0:	1101                	add	sp,sp,-32
   2:	cc22                	sw	s0,24(sp)
   4:	842a                	mv	s0,a0
   6:	60034537          	lui	a0,0x60034
   a:	d6452783          	lw	a5,-668(a0) # 60033d64 <.L52+0x600339e4>
   e:	8736                	mv	a4,a3
  10:	800006b7          	lui	a3,0x80000
  14:	fff6c693          	not	a3,a3
  18:	8ff5                	and	a5,a5,a3
  1a:	ce06                	sw	ra,28(sp)
  1c:	ca26                	sw	s1,20(sp)
  1e:	d6f52223          	sw	a5,-668(a0)
  22:	3fcb08b7          	lui	a7,0x3fcb0
  26:	4781                	li	a5,0
  28:	6541                	lui	a0,0x10

0000002a <.L135>:
  2a:	4037d693          	sra	a3,a5,0x3
  2e:	01178833          	add	a6,a5,a7
  32:	10068693          	add	a3,a3,256 # 80000100 <.L52+0x7ffffd80>
  36:	00d82023          	sw	a3,0(a6)
  3a:	0785                	add	a5,a5,1
  3c:	fea797e3          	bne	a5,a0,2a <.L135>
  40:	600347b7          	lui	a5,0x60034
  44:	d647a503          	lw	a0,-668(a5) # 60033d64 <.L52+0x600339e4>
  48:	6811                	lui	a6,0x4
  4a:	76f1                	lui	a3,0xffffc
  4c:	187d                	add	a6,a6,-1 # 3fff <.L52+0x3c7f>
  4e:	8d75                	and	a0,a0,a3
  50:	01047833          	and	a6,s0,a6
  54:	01056533          	or	a0,a0,a6
  58:	d6a7a223          	sw	a0,-668(a5)
  5c:	4685                	li	a3,1
  5e:	0ad59363          	bne	a1,a3,104 <.L136>
  62:	d647a683          	lw	a3,-668(a5)
  66:	7561                	lui	a0,0xffff8
  68:	157d                	add	a0,a0,-1 # ffff7fff <.L52+0xffff7c7f>
  6a:	8ee9                	and	a3,a3,a0

0000006c <.L145>:
  6c:	d6d7a223          	sw	a3,-668(a5)
  70:	ee59                	bnez	a2,10e <.L138>
  72:	60034537          	lui	a0,0x60034
  76:	d6452783          	lw	a5,-668(a0) # 60033d64 <.L52+0x600339e4>
  7a:	fff806b7          	lui	a3,0xfff80
  7e:	16fd                	add	a3,a3,-1 # fff7ffff <.L52+0xfff7fc7f>
  80:	8ff5                	and	a5,a5,a3
  82:	d6f52223          	sw	a5,-668(a0)

00000086 <.L139>:
  86:	60034537          	lui	a0,0x60034
  8a:	d6452803          	lw	a6,-668(a0) # 60033d64 <.L52+0x600339e4>
  8e:	f01008b7          	lui	a7,0xf0100
  92:	0ff006b7          	lui	a3,0xff00
  96:	01441793          	sll	a5,s0,0x14
  9a:	18fd                	add	a7,a7,-1 # f00fffff <.L52+0xf00ffc7f>
  9c:	8ff5                	and	a5,a5,a3
  9e:	01187833          	and	a6,a6,a7
  a2:	0107e7b3          	or	a5,a5,a6
  a6:	d6f52223          	sw	a5,-668(a0)
  aa:	d6452783          	lw	a5,-668(a0)
  ae:	800006b7          	lui	a3,0x80000
  b2:	600344b7          	lui	s1,0x60034
  b6:	8fd5                	or	a5,a5,a3
  b8:	d6f52223          	sw	a5,-668(a0)

000000bc <.L140>:
  bc:	d644a783          	lw	a5,-668(s1) # 60033d64 <.L52+0x600339e4>
  c0:	00d79693          	sll	a3,a5,0xd
  c4:	fe06dce3          	bgez	a3,bc <.L140>
  c8:	6509                	lui	a0,0x2
  ca:	71050513          	add	a0,a0,1808 # 2710 <.L52+0x2390>
  ce:	c63a                	sw	a4,12(sp)
  d0:	c432                	sw	a2,8(sp)
  d2:	c22e                	sw	a1,4(sp)
  d4:	00000097          	auipc	ra,0x0
  d8:	000080e7          	jalr	ra # d4 <.L140+0x18>
  dc:	4622                	lw	a2,8(sp)
  de:	4592                	lw	a1,4(sp)
  e0:	d404ae23          	sw	zero,-676(s1)
  e4:	86b2                	mv	a3,a2
  e6:	862e                	mv	a2,a1
  e8:	85a2                	mv	a1,s0
  ea:	4462                	lw	s0,24(sp)
  ec:	4732                	lw	a4,12(sp)
  ee:	40f2                	lw	ra,28(sp)
  f0:	44d2                	lw	s1,20(sp)
  f2:	00000537          	lui	a0,0x0
  f6:	00050513          	mv	a0,a0
  fa:	6105                	add	sp,sp,32
  fc:	00000317          	auipc	t1,0x0
 100:	00030067          	jr	t1 # fc <.L140+0x40>

00000104 <.L136>:
 104:	d647a683          	lw	a3,-668(a5)
 108:	6521                	lui	a0,0x8
 10a:	8ec9                	or	a3,a3,a0
 10c:	b785                	j	6c <.L145>

0000010e <.L138>:
 10e:	600346b7          	lui	a3,0x60034
 112:	d646a783          	lw	a5,-668(a3) # 60033d64 <.L52+0x600339e4>
 116:	00080537          	lui	a0,0x80
 11a:	8fc9                	or	a5,a5,a0
 11c:	d6f6a223          	sw	a5,-668(a3)
 120:	b79d                	j	86 <.L139>

rf_test.o:     file format elf32-littleriscv


Disassembly of section .text.esp_en_reboot:

00000000 <esp_en_reboot>:
   0:	600087b7          	lui	a5,0x60008
   4:	0947a703          	lw	a4,148(a5) # 60008094 <.L150+0x60007eb6>
   8:	0807aa23          	sw	zero,148(a5)
   c:	0987a703          	lw	a4,152(a5)
  10:	0807ac23          	sw	zero,152(a5)
  14:	09c7a703          	lw	a4,156(a5)
  18:	0807ae23          	sw	zero,156(a5)
  1c:	0a07a703          	lw	a4,160(a5)
  20:	0a07a023          	sw	zero,160(a5)
  24:	0907a703          	lw	a4,144(a5)
  28:	900006b7          	lui	a3,0x90000
  2c:	16fd                	add	a3,a3,-1 # 8fffffff <.L150+0x8ffffe21>
  2e:	8f75                	and	a4,a4,a3
  30:	400006b7          	lui	a3,0x40000
  34:	8f55                	or	a4,a4,a3
  36:	08e7a823          	sw	a4,144(a5)
  3a:	0907a703          	lw	a4,144(a5)
  3e:	800006b7          	lui	a3,0x80000
  42:	8f55                	or	a4,a4,a3
  44:	08e7a823          	sw	a4,144(a5)
  48:	8082                	ret

Disassembly of section .text.cbw40m_en:

00000000 <cbw40m_en>:
   0:	000007b7          	lui	a5,0x0
   4:	85aa                	mv	a1,a0
   6:	00a78023          	sb	a0,0(a5) # 0 <cbw40m_en>
   a:	00000537          	lui	a0,0x0
   e:	00050513          	mv	a0,a0
  12:	00000317          	auipc	t1,0x0
  16:	00030067          	jr	t1 # 12 <cbw40m_en+0x12>

Disassembly of section .text.cfr_set_reg:

00000000 <cfr_set_reg>:
   0:	60006737          	lui	a4,0x60006
   4:	1d872783          	lw	a5,472(a4) # 600061d8 <.L150+0x60005ffa>
   8:	3ff57693          	and	a3,a0,1023
   c:	052a                	sll	a0,a0,0xa
   e:	c007f793          	and	a5,a5,-1024
  12:	8fd5                	or	a5,a5,a3
  14:	1cf72c23          	sw	a5,472(a4)
  18:	001006b7          	lui	a3,0x100
  1c:	1dc72783          	lw	a5,476(a4)
  20:	c0068693          	add	a3,a3,-1024 # ffc00 <.L150+0xffa22>
  24:	8d75                	and	a0,a0,a3
  26:	fff006b7          	lui	a3,0xfff00
  2a:	3ff68693          	add	a3,a3,1023 # fff003ff <.L150+0xfff00221>
  2e:	8ff5                	and	a5,a5,a3
  30:	8d5d                	or	a0,a0,a5
  32:	1ca72e23          	sw	a0,476(a4)
  36:	8082                	ret

Disassembly of section .text.tx_cont_cfg:

00000000 <tx_cont_cfg>:
   0:	1141                	add	sp,sp,-16
   2:	c422                	sw	s0,8(sp)
   4:	00000437          	lui	s0,0x0
   8:	00042783          	lw	a5,0(s0) # 0 <tx_cont_cfg>
   c:	c226                	sw	s1,4(sp)
   e:	000004b7          	lui	s1,0x0
  12:	c04a                	sw	s2,0(sp)
  14:	c606                	sw	ra,12(sp)
  16:	1b47a703          	lw	a4,436(a5)
  1a:	00048493          	mv	s1,s1
  1e:	4785                	li	a5,1
  20:	1684c683          	lbu	a3,360(s1) # 168 <.L8+0x3c>
  24:	8922                	mv	s2,s0
  26:	08f51b63          	bne	a0,a5,bc <.L5>
  2a:	16a4c783          	lbu	a5,362(s1)
  2e:	06a5                	add	a3,a3,9
  30:	01869413          	sll	s0,a3,0x18
  34:	078d                	add	a5,a5,3
  36:	07e2                	sll	a5,a5,0x18
  38:	87e1                	sra	a5,a5,0x18
  3a:	03f00693          	li	a3,63
  3e:	8461                	sra	s0,s0,0x18
  40:	0ff7f493          	zext.b	s1,a5
  44:	00f6d463          	bge	a3,a5,4c <.L6>
  48:	03f00493          	li	s1,63

0000004c <.L6>:
  4c:	86a6                	mv	a3,s1
  4e:	4639                	li	a2,14
  50:	4585                	li	a1,1
  52:	06700513          	li	a0,103
  56:	9702                	jalr	a4
  58:	00092783          	lw	a5,0(s2)
  5c:	86a6                	mv	a3,s1
  5e:	463d                	li	a2,15
  60:	1b47a783          	lw	a5,436(a5)
  64:	4585                	li	a1,1
  66:	06700513          	li	a0,103
  6a:	9782                	jalr	a5
  6c:	03f00713          	li	a4,63
  70:	87a2                	mv	a5,s0
  72:	00875463          	bge	a4,s0,7a <.L7>
  76:	03f00793          	li	a5,63

0000007a <.L7>:
  7a:	0ff7f413          	zext.b	s0,a5
  7e:	00092783          	lw	a5,0(s2)
  82:	86a2                	mv	a3,s0
  84:	4631                	li	a2,12
  86:	1b47a783          	lw	a5,436(a5)
  8a:	4585                	li	a1,1
  8c:	06700513          	li	a0,103
  90:	9782                	jalr	a5
  92:	00092783          	lw	a5,0(s2)
  96:	86a2                	mv	a3,s0
  98:	4635                	li	a2,13
  9a:	1b47a783          	lw	a5,436(a5)

0000009e <.L11>:
  9e:	06700513          	li	a0,103
  a2:	4585                	li	a1,1
  a4:	9782                	jalr	a5
  a6:	4422                	lw	s0,8(sp)
  a8:	40b2                	lw	ra,12(sp)
  aa:	4492                	lw	s1,4(sp)
  ac:	4902                	lw	s2,0(sp)
  ae:	13c00513          	li	a0,316
  b2:	0141                	add	sp,sp,16
  b4:	00000317          	auipc	t1,0x0
  b8:	00030067          	jr	t1 # b4 <.L11+0x16>

000000bc <.L5>:
  bc:	4789                	li	a5,2
  be:	06f51763          	bne	a0,a5,12c <.L8>
  c2:	16d9                	add	a3,a3,-10
  c4:	01869413          	sll	s0,a3,0x18
  c8:	16a4c683          	lbu	a3,362(s1)
  cc:	4639                	li	a2,14
  ce:	4585                	li	a1,1
  d0:	06700513          	li	a0,103
  d4:	9702                	jalr	a4
  d6:	00092783          	lw	a5,0(s2)
  da:	16a4c683          	lbu	a3,362(s1)
  de:	463d                	li	a2,15
  e0:	1b47a783          	lw	a5,436(a5)
  e4:	4585                	li	a1,1
  e6:	06700513          	li	a0,103
  ea:	8461                	sra	s0,s0,0x18
  ec:	9782                	jalr	a5
  ee:	87a2                	mv	a5,s0
  f0:	00045363          	bgez	s0,f6 <.L9>
  f4:	4781                	li	a5,0

000000f6 <.L9>:
  f6:	0ff7f413          	zext.b	s0,a5
  fa:	00092783          	lw	a5,0(s2)
  fe:	86a2                	mv	a3,s0
 100:	4631                	li	a2,12
 102:	1b47a783          	lw	a5,436(a5)
 106:	4585                	li	a1,1
 108:	06700513          	li	a0,103
 10c:	9782                	jalr	a5
 10e:	00092783          	lw	a5,0(s2)
 112:	86a2                	mv	a3,s0
 114:	4422                	lw	s0,8(sp)
 116:	40b2                	lw	ra,12(sp)
 118:	4492                	lw	s1,4(sp)
 11a:	4902                	lw	s2,0(sp)
 11c:	1b47a303          	lw	t1,436(a5)
 120:	4635                	li	a2,13
 122:	4585                	li	a1,1
 124:	06700513          	li	a0,103
 128:	0141                	add	sp,sp,16
 12a:	8302                	jr	t1

0000012c <.L8>:
 12c:	4631                	li	a2,12
 12e:	4585                	li	a1,1
 130:	06700513          	li	a0,103
 134:	9702                	jalr	a4
 136:	00042783          	lw	a5,0(s0)
 13a:	1684c683          	lbu	a3,360(s1)
 13e:	4635                	li	a2,13
 140:	1b47a783          	lw	a5,436(a5)
 144:	4585                	li	a1,1
 146:	06700513          	li	a0,103
 14a:	9782                	jalr	a5
 14c:	00042783          	lw	a5,0(s0)
 150:	16a4c683          	lbu	a3,362(s1)
 154:	4639                	li	a2,14
 156:	1b47a783          	lw	a5,436(a5)
 15a:	4585                	li	a1,1
 15c:	06700513          	li	a0,103
 160:	9782                	jalr	a5
 162:	00042783          	lw	a5,0(s0)
 166:	16a4c683          	lbu	a3,362(s1)
 16a:	463d                	li	a2,15
 16c:	1b47a783          	lw	a5,436(a5)
 170:	b73d                	j	9e <.L11>

Disassembly of section .text.wifitxout_func:

00000000 <wifitxout_func>:
   0:	7179                	add	sp,sp,-48
   2:	d422                	sw	s0,40(sp)
   4:	d226                	sw	s1,36(sp)
   6:	d04a                	sw	s2,32(sp)
   8:	ca56                	sw	s5,20(sp)
   a:	d606                	sw	ra,44(sp)
   c:	ce4e                	sw	s3,28(sp)
   e:	cc52                	sw	s4,24(sp)
  10:	4789                	li	a5,2
  12:	4401                	li	s0,0
  14:	00052903          	lw	s2,0(a0) # 0 <wifitxout_func>
  18:	4144                	lw	s1,4(a0)
  1a:	4a81                	li	s5,0
  1c:	00b7d463          	bge	a5,a1,24 <.L13>
  20:	00850a83          	lb	s5,8(a0)

00000024 <.L13>:
  24:	000007b7          	lui	a5,0x0
  28:	0007aa03          	lw	s4,0(a5) # 0 <wifitxout_func>
  2c:	00000737          	lui	a4,0x0
  30:	4785                	li	a5,1
  32:	00f70023          	sb	a5,0(a4) # 0 <wifitxout_func>
  36:	00000737          	lui	a4,0x0
  3a:	00f70023          	sb	a5,0(a4) # 0 <wifitxout_func>
  3e:	00000737          	lui	a4,0x0
  42:	00f70023          	sb	a5,0(a4) # 0 <wifitxout_func>
  46:	00000537          	lui	a0,0x0
  4a:	6705                	lui	a4,0x1
  4c:	4781                	li	a5,0
  4e:	177d                	add	a4,a4,-1 # fff <.L150+0xe21>
  50:	86d6                	mv	a3,s5
  52:	8626                	mv	a2,s1
  54:	85ca                	mv	a1,s2
  56:	00050513          	mv	a0,a0
  5a:	00000097          	auipc	ra,0x0
  5e:	000080e7          	jalr	ra # 5a <.L13+0x36>
  62:	000009b7          	lui	s3,0x0
  66:	0009c583          	lbu	a1,0(s3) # 0 <wifitxout_func>
  6a:	0ff97513          	zext.b	a0,s2
  6e:	00b035b3          	snez	a1,a1
  72:	0586                	sll	a1,a1,0x1
  74:	00000097          	auipc	ra,0x0
  78:	000080e7          	jalr	ra # 74 <.L13+0x50>
  7c:	47b9                	li	a5,14
  7e:	10f91063          	bne	s2,a5,17e <.L15>
  82:	4509                	li	a0,2
  84:	00000097          	auipc	ra,0x0
  88:	000080e7          	jalr	ra # 84 <.L13+0x60>
  8c:	6001c737          	lui	a4,0x6001c
  90:	40072403          	lw	s0,1024(a4) # 6001c400 <.L150+0x6001c222>
  94:	40072783          	lw	a5,1024(a4)
  98:	76e9                	lui	a3,0xffffa
  9a:	16fd                	add	a3,a3,-1 # ffff9fff <.L150+0xffff9e21>
  9c:	8ff5                	and	a5,a5,a3
  9e:	6689                	lui	a3,0x2
  a0:	8035                	srl	s0,s0,0xd
  a2:	8fd5                	or	a5,a5,a3
  a4:	880d                	and	s0,s0,3
  a6:	40f72023          	sw	a5,1024(a4)

000000aa <.L16>:
  aa:	4679                	li	a2,30
  ac:	4589                	li	a1,2
  ae:	4505                	li	a0,1
  b0:	00000097          	auipc	ra,0x0
  b4:	000080e7          	jalr	ra # b0 <.L16+0x6>
  b8:	8556                	mv	a0,s5
  ba:	00000097          	auipc	ra,0x0
  be:	000080e7          	jalr	ra # ba <.L16+0x10>
  c2:	4799                	li	a5,6
  c4:	c63e                	sw	a5,12(sp)
  c6:	4795                	li	a5,5
  c8:	c43e                	sw	a5,8(sp)
  ca:	4791                	li	a5,4
  cc:	c23e                	sw	a5,4(sp)
  ce:	6585                	lui	a1,0x1
  d0:	478d                	li	a5,3
  d2:	000a1537          	lui	a0,0xa1
  d6:	c03e                	sw	a5,0(sp)
  d8:	4889                	li	a7,2
  da:	4805                	li	a6,1
  dc:	01ca1793          	sll	a5,s4,0x1c
  e0:	4701                	li	a4,0
  e2:	86a6                	mv	a3,s1
  e4:	4601                	li	a2,0
  e6:	15fd                	add	a1,a1,-1 # fff <.L150+0xe21>
  e8:	157d                	add	a0,a0,-1 # a0fff <.L150+0xa0e21>
  ea:	00000097          	auipc	ra,0x0
  ee:	000080e7          	jalr	ra # ea <.L16+0x40>
  f2:	0009c683          	lbu	a3,0(s3)
  f6:	000a0537          	lui	a0,0xa0
  fa:	4785                	li	a5,1
  fc:	4701                	li	a4,0
  fe:	4601                	li	a2,0
 100:	4581                	li	a1,0
 102:	9526                	add	a0,a0,s1
 104:	00000097          	auipc	ra,0x0
 108:	000080e7          	jalr	ra # 104 <.L16+0x5a>
 10c:	47b9                	li	a5,14
 10e:	00f91d63          	bne	s2,a5,128 <.L18>
 112:	6001c6b7          	lui	a3,0x6001c
 116:	4006a783          	lw	a5,1024(a3) # 6001c400 <.L150+0x6001c222>
 11a:	7769                	lui	a4,0xffffa
 11c:	177d                	add	a4,a4,-1 # ffff9fff <.L150+0xffff9e21>
 11e:	8ff9                	and	a5,a5,a4
 120:	0436                	sll	s0,s0,0xd
 122:	8c5d                	or	s0,s0,a5
 124:	4086a023          	sw	s0,1024(a3)

00000128 <.L18>:
 128:	4601                	li	a2,0
 12a:	4581                	li	a1,0
 12c:	4501                	li	a0,0
 12e:	00000097          	auipc	ra,0x0
 132:	000080e7          	jalr	ra # 12e <.L18+0x6>
 136:	4501                	li	a0,0
 138:	00000097          	auipc	ra,0x0
 13c:	000080e7          	jalr	ra # 138 <.L18+0x10>
 140:	4501                	li	a0,0
 142:	00000097          	auipc	ra,0x0
 146:	000080e7          	jalr	ra # 142 <.L18+0x1a>
 14a:	600347b7          	lui	a5,0x60034
 14e:	c687a583          	lw	a1,-920(a5) # 60033c68 <.L150+0x60033a8a>
 152:	5422                	lw	s0,40(sp)
 154:	50b2                	lw	ra,44(sp)
 156:	5902                	lw	s2,32(sp)
 158:	49f2                	lw	s3,28(sp)
 15a:	4ad2                	lw	s5,20(sp)
 15c:	8752                	mv	a4,s4
 15e:	8626                	mv	a2,s1
 160:	4a62                	lw	s4,24(sp)
 162:	5492                	lw	s1,36(sp)
 164:	6685                	lui	a3,0x1
 166:	00000537          	lui	a0,0x0
 16a:	16fd                	add	a3,a3,-1 # fff <.L150+0xe21>
 16c:	0ff5f593          	zext.b	a1,a1
 170:	00050513          	mv	a0,a0
 174:	6145                	add	sp,sp,48
 176:	00000317          	auipc	t1,0x0
 17a:	00030067          	jr	t1 # 176 <.L18+0x4e>

0000017e <.L15>:
 17e:	000007b7          	lui	a5,0x0
 182:	3227c783          	lbu	a5,802(a5) # 322 <.L150+0x144>
 186:	4505                	li	a0,1
 188:	c391                	beqz	a5,18c <.L23>
 18a:	4501                	li	a0,0

0000018c <.L23>:
 18c:	00000097          	auipc	ra,0x0
 190:	000080e7          	jalr	ra # 18c <.L23>
 194:	bf19                	j	aa <.L16>

Disassembly of section .text.esp_tx_func_org:

00000000 <esp_tx_func_org>:
   0:	715d                	add	sp,sp,-80
   2:	c2a6                	sw	s1,68(sp)
   4:	c0ca                	sw	s2,64(sp)
   6:	dc52                	sw	s4,56(sp)
   8:	da56                	sw	s5,52(sp)
   a:	c686                	sw	ra,76(sp)
   c:	c4a2                	sw	s0,72(sp)
   e:	de4e                	sw	s3,60(sp)
  10:	d85a                	sw	s6,48(sp)
  12:	d65e                	sw	s7,44(sp)
  14:	4789                	li	a5,2
  16:	84aa                	mv	s1,a0
  18:	00052a83          	lw	s5,0(a0) # 0 <esp_tx_func_org>
  1c:	00452903          	lw	s2,4(a0)
  20:	4a01                	li	s4,0
  22:	00b7d463          	bge	a5,a1,2a <.L25>
  26:	00850a03          	lb	s4,8(a0)

0000002a <.L25>:
  2a:	000007b7          	lui	a5,0x0
  2e:	0007ab03          	lw	s6,0(a5) # 0 <esp_tx_func_org>
  32:	4795                	li	a5,5
  34:	4981                	li	s3,0
  36:	00b7d463          	bge	a5,a1,3e <.L26>
  3a:	0144a983          	lw	s3,20(s1)

0000003e <.L26>:
  3e:	854a                	mv	a0,s2
  40:	ce2e                	sw	a1,28(sp)
  42:	00000097          	auipc	ra,0x0
  46:	000080e7          	jalr	ra # 42 <.L26+0x4>
  4a:	4785                	li	a5,1
  4c:	00000737          	lui	a4,0x0
  50:	00f70023          	sb	a5,0(a4) # 0 <esp_tx_func_org>
  54:	00000737          	lui	a4,0x0
  58:	00f70023          	sb	a5,0(a4) # 0 <esp_tx_func_org>
  5c:	470d                	li	a4,3
  5e:	0c800793          	li	a5,200
  62:	45f2                	lw	a1,28(sp)
  64:	01277963          	bgeu	a4,s2,76 <.L27>
  68:	471d                	li	a4,7
  6a:	06400793          	li	a5,100
  6e:	01277463          	bgeu	a4,s2,76 <.L27>
  72:	02800793          	li	a5,40

00000076 <.L27>:
  76:	474d                	li	a4,19
  78:	25800413          	li	s0,600
  7c:	00a77463          	bgeu	a4,a0,84 <.L28>
  80:	0c800413          	li	s0,200

00000084 <.L28>:
  84:	470d                	li	a4,3
  86:	00b75e63          	bge	a4,a1,a2 <.L29>
  8a:	4791                	li	a5,4
  8c:	44c0                	lw	s0,12(s1)
  8e:	00f59f63          	bne	a1,a5,ac <.L30>

00000092 <.L31>:
  92:	47cd                	li	a5,19
  94:	4b000493          	li	s1,1200
  98:	00a7fb63          	bgeu	a5,a0,ae <.L32>
  9c:	19000493          	li	s1,400
  a0:	a039                	j	ae <.L32>

000000a2 <.L29>:
  a2:	8c1d                	sub	s0,s0,a5
  a4:	02a40433          	mul	s0,s0,a0
  a8:	800d                	srl	s0,s0,0x3
  aa:	b7e5                	j	92 <.L31>

000000ac <.L30>:
  ac:	4884                	lw	s1,16(s1)

000000ae <.L32>:
  ae:	00000bb7          	lui	s7,0x0
  b2:	000bc583          	lbu	a1,0(s7) # 0 <esp_tx_func_org>
  b6:	0ffaf513          	zext.b	a0,s5
  ba:	00b035b3          	snez	a1,a1
  be:	0586                	sll	a1,a1,0x1
  c0:	00000097          	auipc	ra,0x0
  c4:	000080e7          	jalr	ra # c0 <.L32+0x12>
  c8:	8552                	mv	a0,s4
  ca:	00000097          	auipc	ra,0x0
  ce:	000080e7          	jalr	ra # ca <.L32+0x1c>
  d2:	00000537          	lui	a0,0x0
  d6:	884e                	mv	a6,s3
  d8:	87a6                	mv	a5,s1
  da:	8722                	mv	a4,s0
  dc:	86d2                	mv	a3,s4
  de:	864a                	mv	a2,s2
  e0:	85d6                	mv	a1,s5
  e2:	00050513          	mv	a0,a0
  e6:	00000097          	auipc	ra,0x0
  ea:	000080e7          	jalr	ra # e6 <.L32+0x38>
  ee:	47e1                	li	a5,24
  f0:	c63e                	sw	a5,12(sp)
  f2:	0fe00793          	li	a5,254
  f6:	c43e                	sw	a5,8(sp)
  f8:	03400793          	li	a5,52
  fc:	000a0a37          	lui	s4,0xa0
 100:	c23e                	sw	a5,4(sp)
 102:	4785                	li	a5,1
 104:	4889                	li	a7,2
 106:	480d                	li	a6,3
 108:	01440533          	add	a0,s0,s4
 10c:	c03e                	sw	a5,0(sp)
 10e:	86ca                	mv	a3,s2
 110:	01cb1793          	sll	a5,s6,0x1c
 114:	85a2                	mv	a1,s0
 116:	4701                	li	a4,0
 118:	4601                	li	a2,0
 11a:	00000097          	auipc	ra,0x0
 11e:	000080e7          	jalr	ra # 11a <.L32+0x6c>
 122:	000bc683          	lbu	a3,0(s7)
 126:	8626                	mv	a2,s1
 128:	85ce                	mv	a1,s3
 12a:	01490533          	add	a0,s2,s4
 12e:	4785                	li	a5,1
 130:	4701                	li	a4,0
 132:	00000097          	auipc	ra,0x0
 136:	000080e7          	jalr	ra # 132 <.L32+0x84>
 13a:	4501                	li	a0,0
 13c:	00000097          	auipc	ra,0x0
 140:	000080e7          	jalr	ra # 13c <.L32+0x8e>
 144:	600347b7          	lui	a5,0x60034
 148:	c687a583          	lw	a1,-920(a5) # 60033c68 <.L150+0x60033a8a>
 14c:	00000537          	lui	a0,0x0
 150:	00050513          	mv	a0,a0
 154:	0ff5f593          	zext.b	a1,a1
 158:	00000097          	auipc	ra,0x0
 15c:	000080e7          	jalr	ra # 158 <.L32+0xaa>
 160:	4426                	lw	s0,72(sp)
 162:	40b6                	lw	ra,76(sp)
 164:	4496                	lw	s1,68(sp)
 166:	4906                	lw	s2,64(sp)
 168:	59f2                	lw	s3,60(sp)
 16a:	5a62                	lw	s4,56(sp)
 16c:	5ad2                	lw	s5,52(sp)
 16e:	5b42                	lw	s6,48(sp)
 170:	5bb2                	lw	s7,44(sp)
 172:	4601                	li	a2,0
 174:	4581                	li	a1,0
 176:	4501                	li	a0,0
 178:	6161                	add	sp,sp,80
 17a:	00000317          	auipc	t1,0x0
 17e:	00030067          	jr	t1 # 17a <.L32+0xcc>

Disassembly of section .text.tx_contin_en:

00000000 <tx_contin_en>:
   0:	000007b7          	lui	a5,0x0
   4:	00a78023          	sb	a0,0(a5) # 0 <tx_contin_en>
   8:	4685                	li	a3,1
   a:	fff887b7          	lui	a5,0xfff88
   e:	fff78713          	add	a4,a5,-1 # fff87fff <.L150+0xfff87e21>
  12:	02d51363          	bne	a0,a3,38 <.L44>
  16:	600316b7          	lui	a3,0x60031
  1a:	0d06a783          	lw	a5,208(a3) # 600310d0 <.L150+0x60030ef2>
  1e:	00000537          	lui	a0,0x0
  22:	00050513          	mv	a0,a0
  26:	8ff9                	and	a5,a5,a4
  28:	6721                	lui	a4,0x8
  2a:	8fd9                	or	a5,a5,a4
  2c:	0cf6a823          	sw	a5,208(a3)

00000030 <.L45>:
  30:	00000317          	auipc	t1,0x0
  34:	00030067          	jr	t1 # 30 <.L45>

00000038 <.L44>:
  38:	600316b7          	lui	a3,0x60031
  3c:	0d06a783          	lw	a5,208(a3) # 600310d0 <.L150+0x60030ef2>
  40:	00000537          	lui	a0,0x0
  44:	00050513          	mv	a0,a0
  48:	8ff9                	and	a5,a5,a4
  4a:	0cf6a823          	sw	a5,208(a3)
  4e:	b7cd                	j	30 <.L45>

Disassembly of section .text.esp_tx_func:

00000000 <esp_tx_func>:
   0:	000007b7          	lui	a5,0x0
   4:	0007c703          	lbu	a4,0(a5) # 0 <esp_tx_func>
   8:	4785                	li	a5,1
   a:	00f71663          	bne	a4,a5,16 <.L47>
   e:	00000317          	auipc	t1,0x0
  12:	00030067          	jr	t1 # e <esp_tx_func+0xe>

00000016 <.L47>:
  16:	00000317          	auipc	t1,0x0
  1a:	00030067          	jr	t1 # 16 <.L47>

Disassembly of section .text.wifitxout:

00000000 <wifitxout>:
   0:	00000317          	auipc	t1,0x0
   4:	00030067          	jr	t1 # 0 <wifitxout>

Disassembly of section .text.bt_tx_tone:

00000000 <bt_tx_tone>:
   0:	1141                	add	sp,sp,-16
   2:	c422                	sw	s0,8(sp)
   4:	05060613          	add	a2,a2,80
   8:	c606                	sw	ra,12(sp)
   a:	0ff67413          	zext.b	s0,a2
   e:	c92d                	beqz	a0,80 <.L50>
  10:	000007b7          	lui	a5,0x0
  14:	0f37c603          	lbu	a2,243(a5) # f3 <.L109+0x1>
  18:	0585                	add	a1,a1,1
  1a:	00159513          	sll	a0,a1,0x1
  1e:	0fe57513          	and	a0,a0,254
  22:	4581                	li	a1,0
  24:	00000097          	auipc	ra,0x0
  28:	000080e7          	jalr	ra # 24 <bt_tx_tone+0x24>
  2c:	60006737          	lui	a4,0x60006
  30:	11072783          	lw	a5,272(a4) # 60006110 <.L150+0x60005f32>
  34:	76fd                	lui	a3,0xfffff
  36:	0ff68693          	add	a3,a3,255 # fffff0ff <.L150+0xffffef21>
  3a:	8ff5                	and	a5,a5,a3
  3c:	6685                	lui	a3,0x1
  3e:	e0068693          	add	a3,a3,-512 # e00 <.L150+0xc22>
  42:	8fd5                	or	a5,a5,a3
  44:	10f72823          	sw	a5,272(a4)
  48:	11072783          	lw	a5,272(a4)
  4c:	000306b7          	lui	a3,0x30
  50:	4505                	li	a0,1
  52:	8fd5                	or	a5,a5,a3
  54:	10f72823          	sw	a5,272(a4)
  58:	4681                	li	a3,0
  5a:	4781                	li	a5,0
  5c:	4701                	li	a4,0
  5e:	8622                	mv	a2,s0
  60:	4581                	li	a1,0
  62:	00000097          	auipc	ra,0x0
  66:	000080e7          	jalr	ra # 62 <bt_tx_tone+0x62>
  6a:	00000537          	lui	a0,0x0
  6e:	00050513          	mv	a0,a0

00000072 <.L52>:
  72:	4422                	lw	s0,8(sp)
  74:	40b2                	lw	ra,12(sp)
  76:	0141                	add	sp,sp,16
  78:	00000317          	auipc	t1,0x0
  7c:	00030067          	jr	t1 # 78 <.L52+0x6>

00000080 <.L50>:
  80:	600067b7          	lui	a5,0x60006
  84:	1107a703          	lw	a4,272(a5) # 60006110 <.L150+0x60005f32>
  88:	76fd                	lui	a3,0xfffff
  8a:	0ff68693          	add	a3,a3,255 # fffff0ff <.L150+0xffffef21>
  8e:	8f75                	and	a4,a4,a3
  90:	10e7a823          	sw	a4,272(a5)
  94:	1107a703          	lw	a4,272(a5)
  98:	fffd06b7          	lui	a3,0xfffd0
  9c:	16fd                	add	a3,a3,-1 # fffcffff <.L150+0xfffcfe21>
  9e:	8f75                	and	a4,a4,a3
  a0:	10e7a823          	sw	a4,272(a5)
  a4:	4681                	li	a3,0
  a6:	4781                	li	a5,0
  a8:	4701                	li	a4,0
  aa:	8622                	mv	a2,s0
  ac:	4581                	li	a1,0
  ae:	00000097          	auipc	ra,0x0
  b2:	000080e7          	jalr	ra # ae <.L50+0x2e>
  b6:	00000537          	lui	a0,0x0
  ba:	00050513          	mv	a0,a0
  be:	bf55                	j	72 <.L52>

Disassembly of section .text.wifiscwout:

00000000 <wifiscwout>:
   0:	4510                	lw	a2,8(a0)
   2:	1141                	add	sp,sp,-16
   4:	c422                	sw	s0,8(sp)
   6:	c606                	sw	ra,12(sp)
   8:	00367693          	and	a3,a2,3
   c:	842a                	mv	s0,a0
   e:	ca89                	beqz	a3,20 <.L54>
  10:	4785                	li	a5,1
  12:	06f68d63          	beq	a3,a5,8c <.L59>
  16:	4789                	li	a5,2
  18:	06f68c63          	beq	a3,a5,90 <.L60>
  1c:	04b00693          	li	a3,75

00000020 <.L54>:
  20:	401c                	lw	a5,0(s0)
  22:	cfbd                	beqz	a5,a0 <.L55>
  24:	000007b7          	lui	a5,0x0
  28:	0007c783          	lbu	a5,0(a5) # 0 <wifiscwout>
  2c:	404c                	lw	a1,4(s0)
  2e:	8609                	sra	a2,a2,0x2
  30:	c3bd                	beqz	a5,96 <.L56>
  32:	00000537          	lui	a0,0x0
  36:	00050513          	mv	a0,a0

0000003a <.L65>:
  3a:	00000097          	auipc	ra,0x0
  3e:	000080e7          	jalr	ra # 3a <.L65>
  42:	00444503          	lbu	a0,4(s0)
  46:	4581                	li	a1,0
  48:	00000097          	auipc	ra,0x0
  4c:	000080e7          	jalr	ra # 48 <.L65+0xe>
  50:	00000097          	auipc	ra,0x0
  54:	000080e7          	jalr	ra # 50 <.L65+0x16>
  58:	600067b7          	lui	a5,0x60006
  5c:	43d8                	lw	a4,4(a5)
  5e:	441c                	lw	a5,8(s0)
  60:	8f99                	sub	a5,a5,a4
  62:	02878793          	add	a5,a5,40 # 60006028 <.L150+0x60005e4a>
  66:	07e2                	sll	a5,a5,0x18
  68:	87e1                	sra	a5,a5,0x18
  6a:	0ff7f613          	zext.b	a2,a5
  6e:	0007d363          	bgez	a5,74 <.L58>
  72:	4601                	li	a2,0

00000074 <.L58>:
  74:	4422                	lw	s0,8(sp)
  76:	40b2                	lw	ra,12(sp)
  78:	4781                	li	a5,0
  7a:	4701                	li	a4,0
  7c:	4681                	li	a3,0
  7e:	4581                	li	a1,0
  80:	4505                	li	a0,1
  82:	0141                	add	sp,sp,16
  84:	00000317          	auipc	t1,0x0
  88:	00030067          	jr	t1 # 84 <.L58+0x10>

0000008c <.L59>:
  8c:	46e5                	li	a3,25
  8e:	bf49                	j	20 <.L54>

00000090 <.L60>:
  90:	03200693          	li	a3,50
  94:	b771                	j	20 <.L54>

00000096 <.L56>:
  96:	00000537          	lui	a0,0x0
  9a:	00050513          	mv	a0,a0
  9e:	bf71                	j	3a <.L65>

000000a0 <.L55>:
  a0:	00000537          	lui	a0,0x0
  a4:	00050513          	mv	a0,a0
  a8:	00000097          	auipc	ra,0x0
  ac:	000080e7          	jalr	ra # a8 <.L55+0x8>
  b0:	4781                	li	a5,0
  b2:	4701                	li	a4,0
  b4:	4681                	li	a3,0
  b6:	4601                	li	a2,0
  b8:	4581                	li	a1,0
  ba:	4501                	li	a0,0
  bc:	00000097          	auipc	ra,0x0
  c0:	000080e7          	jalr	ra # bc <.L55+0x1c>
  c4:	4422                	lw	s0,8(sp)
  c6:	40b2                	lw	ra,12(sp)
  c8:	0141                	add	sp,sp,16
  ca:	00000317          	auipc	t1,0x0
  ce:	00030067          	jr	t1 # ca <.L55+0x2a>

Disassembly of section .text.esp_rx_func:

00000000 <esp_rx_func>:
   0:	1141                	add	sp,sp,-16
   2:	000007b7          	lui	a5,0x0
   6:	c422                	sw	s0,8(sp)
   8:	842a                	mv	s0,a0
   a:	0007c503          	lbu	a0,0(a5) # 0 <esp_rx_func>
   e:	c606                	sw	ra,12(sp)
  10:	00000097          	auipc	ra,0x0
  14:	000080e7          	jalr	ra # 10 <esp_rx_func+0x10>
  18:	050405b7          	lui	a1,0x5040
  1c:	01350537          	lui	a0,0x1350
  20:	30258593          	add	a1,a1,770 # 5040302 <.L150+0x5040124>
  24:	e1850513          	add	a0,a0,-488 # 134fe18 <.L150+0x134fc3a>
  28:	00000097          	auipc	ra,0x0
  2c:	000080e7          	jalr	ra # 28 <esp_rx_func+0x28>
  30:	000007b7          	lui	a5,0x0
  34:	0007c583          	lbu	a1,0(a5) # 0 <esp_rx_func>
  38:	00044503          	lbu	a0,0(s0)
  3c:	00b035b3          	snez	a1,a1
  40:	0586                	sll	a1,a1,0x1
  42:	00000097          	auipc	ra,0x0
  46:	000080e7          	jalr	ra # 42 <esp_rx_func+0x42>
  4a:	4050                	lw	a2,4(s0)
  4c:	400c                	lw	a1,0(s0)
  4e:	00000537          	lui	a0,0x0
  52:	00050513          	mv	a0,a0
  56:	00000097          	auipc	ra,0x0
  5a:	000080e7          	jalr	ra # 56 <esp_rx_func+0x56>
  5e:	4048                	lw	a0,4(s0)
  60:	4422                	lw	s0,8(sp)
  62:	40b2                	lw	ra,12(sp)
  64:	0141                	add	sp,sp,16
  66:	00000317          	auipc	t1,0x0
  6a:	00030067          	jr	t1 # 66 <esp_rx_func+0x66>

Disassembly of section .text.esp_crc8:

00000000 <esp_crc8>:
   0:	95aa                	add	a1,a1,a0
   2:	4781                	li	a5,0

00000004 <.L71>:
   4:	00b51463          	bne	a0,a1,c <.L74>
   8:	853e                	mv	a0,a5
   a:	8082                	ret

0000000c <.L74>:
   c:	0505                	add	a0,a0,1 # 1 <esp_crc8+0x1>
   e:	fff54703          	lbu	a4,-1(a0)
  12:	8fb9                	xor	a5,a5,a4
  14:	4721                	li	a4,8

00000016 <.L73>:
  16:	0017f693          	and	a3,a5,1
  1a:	8385                	srl	a5,a5,0x1
  1c:	c689                	beqz	a3,26 <.L72>
  1e:	f8c7c793          	xor	a5,a5,-116
  22:	0ff7f793          	zext.b	a5,a5

00000026 <.L72>:
  26:	177d                	add	a4,a4,-1
  28:	0ff77713          	zext.b	a4,a4
  2c:	f76d                	bnez	a4,16 <.L73>
  2e:	bfd9                	j	4 <.L71>

Disassembly of section .text.RF_init_sel:

00000000 <RF_init_sel>:
   0:	7115                	add	sp,sp,-224
   2:	c9ca                	sw	s2,208(sp)
   4:	c7ce                	sw	s3,204(sp)
   6:	892a                	mv	s2,a0
   8:	89ae                	mv	s3,a1
   a:	08000613          	li	a2,128
   e:	4581                	li	a1,0
  10:	0088                	add	a0,sp,64
  12:	cda2                	sw	s0,216(sp)
  14:	cba6                	sw	s1,212(sp)
  16:	cf86                	sw	ra,220(sp)
  18:	c5d2                	sw	s4,200(sp)
  1a:	00000097          	auipc	ra,0x0
  1e:	000080e7          	jalr	ra # 1a <RF_init_sel+0x1a>
  22:	4789                	li	a5,2
  24:	04f10023          	sb	a5,64(sp)
  28:	6795                	lui	a5,0x5
  2a:	25278793          	add	a5,a5,594 # 5252 <.L150+0x5074>
  2e:	04f11123          	sh	a5,66(sp)
  32:	484c57b7          	lui	a5,0x484c5
  36:	c5078793          	add	a5,a5,-944 # 484c4c50 <.L150+0x484c4a72>
  3a:	c2be                	sw	a5,68(sp)
  3c:	464857b7          	lui	a5,0x46485
  40:	84c78793          	add	a5,a5,-1972 # 4648484c <.L150+0x4648466e>
  44:	c4be                	sw	a5,72(sp)
  46:	444647b7          	lui	a5,0x44464
  4a:	64a78793          	add	a5,a5,1610 # 4446464a <.L150+0x4446446c>
  4e:	000004b7          	lui	s1,0x0
  52:	c6be                	sw	a5,76(sp)
  54:	00048413          	mv	s0,s1
  58:	10090763          	beqz	s2,166 <.L86>
  5c:	00048593          	mv	a1,s1
  60:	00898513          	add	a0,s3,8
  64:	00000097          	auipc	ra,0x0
  68:	000080e7          	jalr	ra # 64 <RF_init_sel+0x64>
  6c:	07f00593          	li	a1,127
  70:	00048513          	mv	a0,s1
  74:	00000097          	auipc	ra,0x0
  78:	000080e7          	jalr	ra # 74 <RF_init_sel+0x74>
  7c:	07f44583          	lbu	a1,127(s0)
  80:	01851613          	sll	a2,a0,0x18
  84:	8a2a                	mv	s4,a0
  86:	00000537          	lui	a0,0x0
  8a:	8661                	sra	a2,a2,0x18
  8c:	00050513          	mv	a0,a0
  90:	00000097          	auipc	ra,0x0
  94:	000080e7          	jalr	ra # 90 <RF_init_sel+0x90>
  98:	07f44783          	lbu	a5,127(s0)
  9c:	0b479563          	bne	a5,s4,146 <.L81>
  a0:	00000537          	lui	a0,0x0
  a4:	864e                	mv	a2,s3
  a6:	85ca                	mv	a1,s2
  a8:	00050513          	mv	a0,a0
  ac:	00000097          	auipc	ra,0x0
  b0:	000080e7          	jalr	ra # ac <RF_init_sel+0xac>

000000b4 <.L82>:
  b4:	00000097          	auipc	ra,0x0
  b8:	000080e7          	jalr	ra # b4 <.L82>
  bc:	07f44783          	lbu	a5,127(s0)
  c0:	00644883          	lbu	a7,6(s0)
  c4:	00544803          	lbu	a6,5(s0)
  c8:	d83e                	sw	a5,48(sp)
  ca:	04c44783          	lbu	a5,76(s0)
  ce:	00344703          	lbu	a4,3(s0)
  d2:	00244683          	lbu	a3,2(s0)
  d6:	d63e                	sw	a5,44(sp)
  d8:	04b44783          	lbu	a5,75(s0)
  dc:	00144603          	lbu	a2,1(s0)
  e0:	00000537          	lui	a0,0x0
  e4:	d43e                	sw	a5,40(sp)
  e6:	01044783          	lbu	a5,16(s0)
  ea:	00050513          	mv	a0,a0
  ee:	d23e                	sw	a5,36(sp)
  f0:	00f44783          	lbu	a5,15(s0)
  f4:	d03e                	sw	a5,32(sp)
  f6:	00e44783          	lbu	a5,14(s0)
  fa:	ce3e                	sw	a5,28(sp)
  fc:	00d44783          	lbu	a5,13(s0)
 100:	cc3e                	sw	a5,24(sp)
 102:	00c44783          	lbu	a5,12(s0)
 106:	ca3e                	sw	a5,20(sp)
 108:	00b44783          	lbu	a5,11(s0)
 10c:	c83e                	sw	a5,16(sp)
 10e:	00a44783          	lbu	a5,10(s0)
 112:	c63e                	sw	a5,12(sp)
 114:	00944783          	lbu	a5,9(s0)
 118:	c43e                	sw	a5,8(sp)
 11a:	00844783          	lbu	a5,8(s0)
 11e:	c23e                	sw	a5,4(sp)
 120:	00744783          	lbu	a5,7(s0)
 124:	c03e                	sw	a5,0(sp)
 126:	00444783          	lbu	a5,4(s0)
 12a:	0004c583          	lbu	a1,0(s1) # 0 <RF_init_sel>
 12e:	00000097          	auipc	ra,0x0
 132:	000080e7          	jalr	ra # 12e <.L82+0x7a>
 136:	40fe                	lw	ra,220(sp)
 138:	446e                	lw	s0,216(sp)
 13a:	44de                	lw	s1,212(sp)
 13c:	494e                	lw	s2,208(sp)
 13e:	49be                	lw	s3,204(sp)
 140:	4a2e                	lw	s4,200(sp)
 142:	612d                	add	sp,sp,224
 144:	8082                	ret

00000146 <.L81>:
 146:	446e                	lw	s0,216(sp)
 148:	40fe                	lw	ra,220(sp)
 14a:	44de                	lw	s1,212(sp)
 14c:	494e                	lw	s2,208(sp)
 14e:	49be                	lw	s3,204(sp)
 150:	4a2e                	lw	s4,200(sp)
 152:	00000537          	lui	a0,0x0
 156:	4585                	li	a1,1
 158:	00050513          	mv	a0,a0
 15c:	612d                	add	sp,sp,224
 15e:	00000317          	auipc	t1,0x0
 162:	00030067          	jr	t1 # 15e <.L81+0x18>

00000166 <.L86>:
 166:	4781                	li	a5,0
 168:	08000713          	li	a4,128

0000016c <.L80>:
 16c:	0090                	add	a2,sp,64
 16e:	963e                	add	a2,a2,a5
 170:	00064603          	lbu	a2,0(a2)
 174:	00f406b3          	add	a3,s0,a5
 178:	0785                	add	a5,a5,1
 17a:	00c68023          	sb	a2,0(a3)
 17e:	fee797e3          	bne	a5,a4,16c <.L80>
 182:	00000537          	lui	a0,0x0
 186:	4581                	li	a1,0
 188:	00050513          	mv	a0,a0
 18c:	00000097          	auipc	ra,0x0
 190:	000080e7          	jalr	ra # 18c <.L80+0x20>
 194:	b705                	j	b4 <.L82>

Disassembly of section .text.read_ram_init_para:

00000000 <read_ram_init_para>:
   0:	00850713          	add	a4,a0,8 # 8 <read_ram_init_para+0x8>
   4:	08850513          	add	a0,a0,136
   8:	87ae                	mv	a5,a1
   a:	02100693          	li	a3,33
   e:	00e57363          	bgeu	a0,a4,14 <.L90>
  12:	4685                	li	a3,1

00000014 <.L90>:
  14:	068a                	sll	a3,a3,0x2
  16:	95b6                	add	a1,a1,a3

00000018 <.L91>:
  18:	0791                	add	a5,a5,4
  1a:	00b79363          	bne	a5,a1,20 <.L92>
  1e:	8082                	ret

00000020 <.L92>:
  20:	4314                	lw	a3,0(a4)
  22:	0711                	add	a4,a4,4
  24:	fed78e23          	sb	a3,-4(a5)
  28:	ffc72683          	lw	a3,-4(a4)
  2c:	82a1                	srl	a3,a3,0x8
  2e:	fed78ea3          	sb	a3,-3(a5)
  32:	ffc72683          	lw	a3,-4(a4)
  36:	82c1                	srl	a3,a3,0x10
  38:	fed78f23          	sb	a3,-2(a5)
  3c:	ffc72683          	lw	a3,-4(a4)
  40:	82e1                	srl	a3,a3,0x18
  42:	fed78fa3          	sb	a3,-1(a5)
  46:	bfc9                	j	18 <.L91>

Disassembly of section .text.RF_init_ram_sel:

00000000 <RF_init_ram_sel>:
   0:	7115                	add	sp,sp,-224
   2:	c9ca                	sw	s2,208(sp)
   4:	c7ce                	sw	s3,204(sp)
   6:	892a                	mv	s2,a0
   8:	89ae                	mv	s3,a1
   a:	08000613          	li	a2,128
   e:	4581                	li	a1,0
  10:	0088                	add	a0,sp,64
  12:	cda2                	sw	s0,216(sp)
  14:	cba6                	sw	s1,212(sp)
  16:	cf86                	sw	ra,220(sp)
  18:	c5d2                	sw	s4,200(sp)
  1a:	00000097          	auipc	ra,0x0
  1e:	000080e7          	jalr	ra # 1a <RF_init_ram_sel+0x1a>
  22:	4789                	li	a5,2
  24:	04f10023          	sb	a5,64(sp)
  28:	6795                	lui	a5,0x5
  2a:	25278793          	add	a5,a5,594 # 5252 <.L150+0x5074>
  2e:	04f11123          	sh	a5,66(sp)
  32:	484c57b7          	lui	a5,0x484c5
  36:	c5078793          	add	a5,a5,-944 # 484c4c50 <.L150+0x484c4a72>
  3a:	c2be                	sw	a5,68(sp)
  3c:	464857b7          	lui	a5,0x46485
  40:	84c78793          	add	a5,a5,-1972 # 4648484c <.L150+0x4648466e>
  44:	c4be                	sw	a5,72(sp)
  46:	444647b7          	lui	a5,0x44464
  4a:	64a78793          	add	a5,a5,1610 # 4446464a <.L150+0x4446446c>
  4e:	000004b7          	lui	s1,0x0
  52:	c6be                	sw	a5,76(sp)
  54:	00048413          	mv	s0,s1
  58:	10090c63          	beqz	s2,170 <.L100>
  5c:	00048593          	mv	a1,s1
  60:	854e                	mv	a0,s3
  62:	00000097          	auipc	ra,0x0
  66:	000080e7          	jalr	ra # 62 <RF_init_ram_sel+0x62>
  6a:	07f00593          	li	a1,127
  6e:	00048513          	mv	a0,s1
  72:	00000097          	auipc	ra,0x0
  76:	000080e7          	jalr	ra # 72 <RF_init_ram_sel+0x72>
  7a:	07f44583          	lbu	a1,127(s0)
  7e:	01851613          	sll	a2,a0,0x18
  82:	8a2a                	mv	s4,a0
  84:	00000537          	lui	a0,0x0
  88:	8661                	sra	a2,a2,0x18
  8a:	00050513          	mv	a0,a0
  8e:	00000097          	auipc	ra,0x0
  92:	000080e7          	jalr	ra # 8e <RF_init_ram_sel+0x8e>
  96:	07f44783          	lbu	a5,127(s0)
  9a:	0b479b63          	bne	a5,s4,150 <.L95>
  9e:	00000537          	lui	a0,0x0
  a2:	864e                	mv	a2,s3
  a4:	85ca                	mv	a1,s2
  a6:	00050513          	mv	a0,a0
  aa:	00000097          	auipc	ra,0x0
  ae:	000080e7          	jalr	ra # aa <RF_init_ram_sel+0xaa>

000000b2 <.L96>:
  b2:	00048513          	mv	a0,s1
  b6:	00000097          	auipc	ra,0x0
  ba:	000080e7          	jalr	ra # b6 <.L96+0x4>
  be:	00000097          	auipc	ra,0x0
  c2:	000080e7          	jalr	ra # be <.L96+0xc>
  c6:	07f44783          	lbu	a5,127(s0)
  ca:	00644883          	lbu	a7,6(s0)
  ce:	00544803          	lbu	a6,5(s0)
  d2:	d83e                	sw	a5,48(sp)
  d4:	04c44783          	lbu	a5,76(s0)
  d8:	00344703          	lbu	a4,3(s0)
  dc:	00244683          	lbu	a3,2(s0)
  e0:	d63e                	sw	a5,44(sp)
  e2:	04b44783          	lbu	a5,75(s0)
  e6:	00144603          	lbu	a2,1(s0)
  ea:	00000537          	lui	a0,0x0
  ee:	d43e                	sw	a5,40(sp)
  f0:	01044783          	lbu	a5,16(s0)
  f4:	00050513          	mv	a0,a0
  f8:	d23e                	sw	a5,36(sp)
  fa:	00f44783          	lbu	a5,15(s0)
  fe:	d03e                	sw	a5,32(sp)
 100:	00e44783          	lbu	a5,14(s0)
 104:	ce3e                	sw	a5,28(sp)
 106:	00d44783          	lbu	a5,13(s0)
 10a:	cc3e                	sw	a5,24(sp)
 10c:	00c44783          	lbu	a5,12(s0)
 110:	ca3e                	sw	a5,20(sp)
 112:	00b44783          	lbu	a5,11(s0)
 116:	c83e                	sw	a5,16(sp)
 118:	00a44783          	lbu	a5,10(s0)
 11c:	c63e                	sw	a5,12(sp)
 11e:	00944783          	lbu	a5,9(s0)
 122:	c43e                	sw	a5,8(sp)
 124:	00844783          	lbu	a5,8(s0)
 128:	c23e                	sw	a5,4(sp)
 12a:	00744783          	lbu	a5,7(s0)
 12e:	c03e                	sw	a5,0(sp)
 130:	00444783          	lbu	a5,4(s0)
 134:	0004c583          	lbu	a1,0(s1) # 0 <RF_init_ram_sel>
 138:	00000097          	auipc	ra,0x0
 13c:	000080e7          	jalr	ra # 138 <.L96+0x86>
 140:	40fe                	lw	ra,220(sp)
 142:	446e                	lw	s0,216(sp)
 144:	44de                	lw	s1,212(sp)
 146:	494e                	lw	s2,208(sp)
 148:	49be                	lw	s3,204(sp)
 14a:	4a2e                	lw	s4,200(sp)
 14c:	612d                	add	sp,sp,224
 14e:	8082                	ret

00000150 <.L95>:
 150:	446e                	lw	s0,216(sp)
 152:	40fe                	lw	ra,220(sp)
 154:	44de                	lw	s1,212(sp)
 156:	494e                	lw	s2,208(sp)
 158:	49be                	lw	s3,204(sp)
 15a:	4a2e                	lw	s4,200(sp)
 15c:	00000537          	lui	a0,0x0
 160:	4585                	li	a1,1
 162:	00050513          	mv	a0,a0
 166:	612d                	add	sp,sp,224
 168:	00000317          	auipc	t1,0x0
 16c:	00030067          	jr	t1 # 168 <.L95+0x18>

00000170 <.L100>:
 170:	4781                	li	a5,0
 172:	08000713          	li	a4,128

00000176 <.L94>:
 176:	0090                	add	a2,sp,64
 178:	963e                	add	a2,a2,a5
 17a:	00064603          	lbu	a2,0(a2)
 17e:	00f406b3          	add	a3,s0,a5
 182:	0785                	add	a5,a5,1
 184:	00c68023          	sb	a2,0(a3)
 188:	fee797e3          	bne	a5,a4,176 <.L94>
 18c:	00000537          	lui	a0,0x0
 190:	4581                	li	a1,0
 192:	00050513          	mv	a0,a0
 196:	00000097          	auipc	ra,0x0
 19a:	000080e7          	jalr	ra # 196 <.L94+0x20>
 19e:	bf11                	j	b2 <.L96>

Disassembly of section .text.esp_chg_freqoff:

00000000 <esp_chg_freqoff>:
   0:	7129                	add	sp,sp,-320
   2:	12912a23          	sw	s1,308(sp)
   6:	84ae                	mv	s1,a1
   8:	13212823          	sw	s2,304(sp)
   c:	090c                	add	a1,sp,144
   e:	892a                	mv	s2,a0
  10:	8526                	mv	a0,s1
  12:	12812c23          	sw	s0,312(sp)
  16:	13312623          	sw	s3,300(sp)
  1a:	13412423          	sw	s4,296(sp)
  1e:	12112e23          	sw	ra,316(sp)
  22:	00000097          	auipc	ra,0x0
  26:	000080e7          	jalr	ra # 22 <esp_chg_freqoff+0x22>
  2a:	00000537          	lui	a0,0x0
  2e:	09010a13          	add	s4,sp,144
  32:	8752                	mv	a4,s4
  34:	4781                	li	a5,0
  36:	00050413          	mv	s0,a0
  3a:	08000693          	li	a3,128
  3e:	89aa                	mv	s3,a0

00000040 <.L103>:
  40:	00874583          	lbu	a1,8(a4)
  44:	00878633          	add	a2,a5,s0
  48:	0785                	add	a5,a5,1
  4a:	00b60023          	sb	a1,0(a2)
  4e:	0705                	add	a4,a4,1
  50:	fed798e3          	bne	a5,a3,40 <.L103>
  54:	07f00593          	li	a1,127
  58:	00050513          	mv	a0,a0
  5c:	00000097          	auipc	ra,0x0
  60:	000080e7          	jalr	ra # 5c <.L103+0x1c>
  64:	07f44783          	lbu	a5,127(s0)
  68:	0ea79d63          	bne	a5,a0,162 <.L104>
  6c:	77fd                	lui	a5,0xfffff
  6e:	64c78793          	add	a5,a5,1612 # fffff64c <.L150+0xfffff46e>
  72:	02f907b3          	mul	a5,s2,a5
  76:	3e800713          	li	a4,1000
  7a:	02e7c7b3          	div	a5,a5,a4
  7e:	0791                	add	a5,a5,4
  80:	878d                	sra	a5,a5,0x3
  82:	0ff7f793          	zext.b	a5,a5
  86:	04f40623          	sb	a5,76(s0)
  8a:	efcd                	bnez	a5,144 <.L105>
  8c:	040405a3          	sb	zero,75(s0)

00000090 <.L106>:
  90:	07f00593          	li	a1,127
  94:	00098513          	mv	a0,s3
  98:	00000097          	auipc	ra,0x0
  9c:	000080e7          	jalr	ra # 98 <.L106+0x8>
  a0:	06a40fa3          	sb	a0,127(s0)
  a4:	00098513          	mv	a0,s3
  a8:	00000097          	auipc	ra,0x0
  ac:	000080e7          	jalr	ra # a8 <.L106+0x18>
  b0:	4501                	li	a0,0
  b2:	00000097          	auipc	ra,0x0
  b6:	000080e7          	jalr	ra # b2 <.L106+0x22>
  ba:	4781                	li	a5,0
  bc:	08000713          	li	a4,128

000000c0 <.L107>:
  c0:	00f406b3          	add	a3,s0,a5
  c4:	0006c683          	lbu	a3,0(a3)
  c8:	0785                	add	a5,a5,1
  ca:	0a05                	add	s4,s4,1 # a0001 <.L150+0x9fe23>
  cc:	00da03a3          	sb	a3,7(s4)
  d0:	fee798e3          	bne	a5,a4,c0 <.L107>
  d4:	090c                	add	a1,sp,144
  d6:	8526                	mv	a0,s1
  d8:	00000097          	auipc	ra,0x0
  dc:	000080e7          	jalr	ra # d8 <.L107+0x18>
  e0:	858a                	mv	a1,sp
  e2:	8526                	mv	a0,s1
  e4:	00000097          	auipc	ra,0x0
  e8:	000080e7          	jalr	ra # e4 <.L107+0x24>
  ec:	4781                	li	a5,0
  ee:	09000693          	li	a3,144

000000f2 <.L109>:
  f2:	0918                	add	a4,sp,144
  f4:	973e                	add	a4,a4,a5
  f6:	00074603          	lbu	a2,0(a4)
  fa:	00f10733          	add	a4,sp,a5
  fe:	00074703          	lbu	a4,0(a4)
 102:	04e61563          	bne	a2,a4,14c <.L108>
 106:	0785                	add	a5,a5,1
 108:	fed795e3          	bne	a5,a3,f2 <.L109>
 10c:	04c44683          	lbu	a3,76(s0)
 110:	04b44603          	lbu	a2,75(s0)
 114:	00000537          	lui	a0,0x0
 118:	8726                	mv	a4,s1
 11a:	85ca                	mv	a1,s2
 11c:	00050513          	mv	a0,a0
 120:	00000097          	auipc	ra,0x0
 124:	000080e7          	jalr	ra # 120 <.L109+0x2e>

00000128 <.L102>:
 128:	13c12083          	lw	ra,316(sp)
 12c:	13812403          	lw	s0,312(sp)
 130:	13412483          	lw	s1,308(sp)
 134:	13012903          	lw	s2,304(sp)
 138:	12c12983          	lw	s3,300(sp)
 13c:	12812a03          	lw	s4,296(sp)
 140:	6131                	add	sp,sp,320
 142:	8082                	ret

00000144 <.L105>:
 144:	4785                	li	a5,1
 146:	04f405a3          	sb	a5,75(s0)
 14a:	b799                	j	90 <.L106>

0000014c <.L108>:
 14c:	00000537          	lui	a0,0x0
 150:	8626                	mv	a2,s1
 152:	85ca                	mv	a1,s2
 154:	00050513          	mv	a0,a0
 158:	00000097          	auipc	ra,0x0
 15c:	000080e7          	jalr	ra # 158 <.L108+0xc>
 160:	b7e1                	j	128 <.L102>

00000162 <.L104>:
 162:	00000537          	lui	a0,0x0
 166:	00050513          	mv	a0,a0
 16a:	00000097          	auipc	ra,0x0
 16e:	000080e7          	jalr	ra # 16a <.L104+0x8>
 172:	bf5d                	j	128 <.L102>

Disassembly of section .text.get_module_test_chan:

00000000 <get_module_test_chan>:
   0:	00000737          	lui	a4,0x0
   4:	00070713          	mv	a4,a4
   8:	00075783          	lhu	a5,0(a4) # 0 <get_module_test_chan>
   c:	7179                	add	sp,sp,-48
   e:	d606                	sw	ra,44(sp)
  10:	17fd                	add	a5,a5,-1
  12:	07c2                	sll	a5,a5,0x10
  14:	d422                	sw	s0,40(sp)
  16:	d226                	sw	s1,36(sp)
  18:	d04a                	sw	s2,32(sp)
  1a:	ce4e                	sw	s3,28(sp)
  1c:	cc52                	sw	s4,24(sp)
  1e:	ca56                	sw	s5,20(sp)
  20:	c85a                	sw	s6,16(sp)
  22:	c65e                	sw	s7,12(sp)
  24:	83c1                	srl	a5,a5,0x10
  26:	469d                	li	a3,7
  28:	00f6f563          	bgeu	a3,a5,32 <.L116>
  2c:	47a1                	li	a5,8
  2e:	00f71023          	sh	a5,0(a4)

00000032 <.L116>:
  32:	00000937          	lui	s2,0x0
  36:	00095783          	lhu	a5,0(s2) # 0 <get_module_test_chan>
  3a:	777d                	lui	a4,0xfffff
  3c:	6b470713          	add	a4,a4,1716 # fffff6b4 <.L150+0xfffff4d6>
  40:	97ba                	add	a5,a5,a4
  42:	07c2                	sll	a5,a5,0x10
  44:	83c1                	srl	a5,a5,0x10
  46:	08c00713          	li	a4,140
  4a:	00090913          	mv	s2,s2
  4e:	00f77763          	bgeu	a4,a5,5c <.L117>
  52:	6785                	lui	a5,0x1
  54:	94c78793          	add	a5,a5,-1716 # 94c <.L150+0x76e>
  58:	00f91023          	sh	a5,0(s2)

0000005c <.L117>:
  5c:	6485                	lui	s1,0x1
  5e:	96c48493          	add	s1,s1,-1684 # 96c <.L150+0x78e>
  62:	06400a13          	li	s4,100
  66:	4985                	li	s3,1
  68:	4405                	li	s0,1
  6a:	00000b37          	lui	s6,0x0
  6e:	4b85                	li	s7,1
  70:	4ab9                	li	s5,14

00000072 <.L119>:
  72:	000b2783          	lw	a5,0(s6) # 0 <get_module_test_chan>
  76:	00091503          	lh	a0,0(s2)
  7a:	1007a783          	lw	a5,256(a5)
  7e:	40a48533          	sub	a0,s1,a0
  82:	9782                	jalr	a5
  84:	0542                	sll	a0,a0,0x10
  86:	8541                	sra	a0,a0,0x10
  88:	03740c63          	beq	s0,s7,c0 <.L120>
  8c:	01455463          	bge	a0,s4,94 <.L118>
  90:	8a2a                	mv	s4,a0
  92:	89a2                	mv	s3,s0

00000094 <.L118>:
  94:	0405                	add	s0,s0,1
  96:	01041793          	sll	a5,s0,0x10
  9a:	83c1                	srl	a5,a5,0x10
  9c:	01079413          	sll	s0,a5,0x10
  a0:	0495                	add	s1,s1,5
  a2:	8441                	sra	s0,s0,0x10
  a4:	fd5797e3          	bne	a5,s5,72 <.L119>
  a8:	50b2                	lw	ra,44(sp)
  aa:	5422                	lw	s0,40(sp)
  ac:	854e                	mv	a0,s3
  ae:	5492                	lw	s1,36(sp)
  b0:	5902                	lw	s2,32(sp)
  b2:	49f2                	lw	s3,28(sp)
  b4:	4a62                	lw	s4,24(sp)
  b6:	4ad2                	lw	s5,20(sp)
  b8:	4b42                	lw	s6,16(sp)
  ba:	4bb2                	lw	s7,12(sp)
  bc:	6145                	add	sp,sp,48
  be:	8082                	ret

000000c0 <.L120>:
  c0:	8a2a                	mv	s4,a0
  c2:	4985                	li	s3,1
  c4:	bfc1                	j	94 <.L118>

Disassembly of section .text.module_test_func_local:

00000000 <module_test_func_local>:
   0:	00000537          	lui	a0,0x0
   4:	1141                	add	sp,sp,-16
   6:	00050513          	mv	a0,a0
   a:	c606                	sw	ra,12(sp)
   c:	00000097          	auipc	ra,0x0
  10:	000080e7          	jalr	ra # c <module_test_func_local+0xc>
  14:	00000097          	auipc	ra,0x0
  18:	000080e7          	jalr	ra # 14 <module_test_func_local+0x14>
  1c:	4505                	li	a0,1
  1e:	00000097          	auipc	ra,0x0
  22:	000080e7          	jalr	ra # 1e <module_test_func_local+0x1e>
  26:	00000537          	lui	a0,0x0
  2a:	00050513          	mv	a0,a0
  2e:	00000097          	auipc	ra,0x0
  32:	000080e7          	jalr	ra # 2e <module_test_func_local+0x2e>
  36:	00000097          	auipc	ra,0x0
  3a:	000080e7          	jalr	ra # 36 <module_test_func_local+0x36>
  3e:	000007b7          	lui	a5,0x0
  42:	0007d603          	lhu	a2,0(a5) # 0 <module_test_func_local>
  46:	0ff57593          	zext.b	a1,a0
  4a:	4705                	li	a4,1
  4c:	4501                	li	a0,0
  4e:	4681                	li	a3,0
  50:	00000097          	auipc	ra,0x0
  54:	000080e7          	jalr	ra # 50 <module_test_func_local+0x50>
  58:	40b2                	lw	ra,12(sp)
  5a:	00000537          	lui	a0,0x0
  5e:	00050513          	mv	a0,a0
  62:	0141                	add	sp,sp,16
  64:	00000317          	auipc	t1,0x0
  68:	00030067          	jr	t1 # 64 <module_test_func_local+0x64>

Disassembly of section .text.esp_en_retest:

00000000 <esp_en_retest>:
   0:	1141                	add	sp,sp,-16
   2:	c606                	sw	ra,12(sp)
   4:	00000097          	auipc	ra,0x0
   8:	000080e7          	jalr	ra # 4 <esp_en_retest+0x4>
   c:	40b2                	lw	ra,12(sp)
   e:	0141                	add	sp,sp,16
  10:	00000317          	auipc	t1,0x0
  14:	00030067          	jr	t1 # 10 <esp_en_retest+0x10>

Disassembly of section .text.esp_origin_mac:

00000000 <esp_origin_mac>:
   0:	600097b7          	lui	a5,0x60009
   4:	8447a683          	lw	a3,-1980(a5) # 60008844 <.L150+0x60008666>
   8:	8487a603          	lw	a2,-1976(a5)
   c:	00000537          	lui	a0,0x0
  10:	0086d793          	srl	a5,a3,0x8
  14:	0106d713          	srl	a4,a3,0x10
  18:	00865593          	srl	a1,a2,0x8
  1c:	0ff6f813          	zext.b	a6,a3
  20:	0ff7f793          	zext.b	a5,a5
  24:	0ff77713          	zext.b	a4,a4
  28:	82e1                	srl	a3,a3,0x18
  2a:	0ff67613          	zext.b	a2,a2
  2e:	0ff5f593          	zext.b	a1,a1
  32:	00050513          	mv	a0,a0
  36:	00000317          	auipc	t1,0x0
  3a:	00030067          	jr	t1 # 36 <esp_origin_mac+0x36>

Disassembly of section .text.remove_head_newline:

00000000 <remove_head_newline>:
   0:	47a9                	li	a5,10

00000002 <.L129>:
   2:	00054703          	lbu	a4,0(a0) # 0 <remove_head_newline>
   6:	00f70563          	beq	a4,a5,10 <.L130>
   a:	c188                	sw	a0,0(a1)
   c:	4501                	li	a0,0
   e:	8082                	ret

00000010 <.L130>:
  10:	0505                	add	a0,a0,1
  12:	bfc5                	j	2 <.L129>

Disassembly of section .text.gen_ate_data:

00000000 <gen_ate_data>:
   0:	8082                	ret

Disassembly of section .text.module_test_cal_print:

00000000 <module_test_cal_print>:
   0:	1141                	add	sp,sp,-16
   2:	c606                	sw	ra,12(sp)
   4:	00000097          	auipc	ra,0x0
   8:	000080e7          	jalr	ra # 4 <module_test_cal_print+0x4>
   c:	40b2                	lw	ra,12(sp)
   e:	0141                	add	sp,sp,16
  10:	00000317          	auipc	t1,0x0
  14:	00030067          	jr	t1 # 10 <module_test_cal_print+0x10>

Disassembly of section .text.flash_test_init:

00000000 <flash_test_init>:
   0:	8732                	mv	a4,a2
   2:	87b6                	mv	a5,a3
   4:	4605                	li	a2,1
   6:	000006b7          	lui	a3,0x0
   a:	00c68023          	sb	a2,0(a3) # 0 <flash_test_init>
   e:	000006b7          	lui	a3,0x0
  12:	00f6a023          	sw	a5,0(a3) # 0 <flash_test_init>
  16:	000006b7          	lui	a3,0x0
  1a:	00a6a023          	sw	a0,0(a3) # 0 <flash_test_init>
  1e:	000006b7          	lui	a3,0x0
  22:	00b6a023          	sw	a1,0(a3) # 0 <flash_test_init>
  26:	862a                	mv	a2,a0
  28:	000006b7          	lui	a3,0x0
  2c:	00000537          	lui	a0,0x0
  30:	00e6a023          	sw	a4,0(a3) # 0 <flash_test_init>
  34:	00050513          	mv	a0,a0
  38:	86ae                	mv	a3,a1
  3a:	4585                	li	a1,1
  3c:	00000317          	auipc	t1,0x0
  40:	00030067          	jr	t1 # 3c <flash_test_init+0x3c>

Disassembly of section .text.flash_test_run:

00000000 <flash_test_run>:
   0:	000007b7          	lui	a5,0x0
   4:	0007c783          	lbu	a5,0(a5) # 0 <flash_test_run>
   8:	cbbd                	beqz	a5,7e <.L135>
   a:	000007b7          	lui	a5,0x0
   e:	0007a703          	lw	a4,0(a5) # 0 <flash_test_run>
  12:	4785                	li	a5,1
  14:	06f71563          	bne	a4,a5,7e <.L135>
  18:	1101                	add	sp,sp,-32
  1a:	ca26                	sw	s1,20(sp)
  1c:	c84a                	sw	s2,16(sp)
  1e:	c64e                	sw	s3,12(sp)
  20:	00000937          	lui	s2,0x0
  24:	000009b7          	lui	s3,0x0
  28:	000004b7          	lui	s1,0x0
  2c:	00098993          	mv	s3,s3
  30:	00090913          	mv	s2,s2
  34:	00048493          	mv	s1,s1
  38:	0009a783          	lw	a5,0(s3) # 0 <flash_test_run>
  3c:	00092703          	lw	a4,0(s2) # 0 <flash_test_run>
  40:	4094                	lw	a3,0(s1)
  42:	cc22                	sw	s0,24(sp)
  44:	862a                	mv	a2,a0
  46:	842a                	mv	s0,a0
  48:	001305b7          	lui	a1,0x130
  4c:	4501                	li	a0,0
  4e:	ce06                	sw	ra,28(sp)
  50:	00000097          	auipc	ra,0x0
  54:	000080e7          	jalr	ra # 50 <flash_test_run+0x50>
  58:	8622                	mv	a2,s0
  5a:	4462                	lw	s0,24(sp)
  5c:	0009a783          	lw	a5,0(s3)
  60:	00092703          	lw	a4,0(s2)
  64:	4094                	lw	a3,0(s1)
  66:	40f2                	lw	ra,28(sp)
  68:	44d2                	lw	s1,20(sp)
  6a:	4942                	lw	s2,16(sp)
  6c:	49b2                	lw	s3,12(sp)
  6e:	001305b7          	lui	a1,0x130
  72:	4505                	li	a0,1
  74:	6105                	add	sp,sp,32
  76:	00000317          	auipc	t1,0x0
  7a:	00030067          	jr	t1 # 76 <flash_test_run+0x76>

0000007e <.L135>:
  7e:	8082                	ret

Disassembly of section .text.rfpll_cal_time:

00000000 <rfpll_cal_time>:
   0:	7171                	add	sp,sp,-176
   2:	d706                	sw	ra,172(sp)
   4:	d522                	sw	s0,168(sp)
   6:	d326                	sw	s1,164(sp)
   8:	d14a                	sw	s2,160(sp)
   a:	cf4e                	sw	s3,156(sp)
   c:	cd52                	sw	s4,152(sp)
   e:	cb56                	sw	s5,148(sp)
  10:	c95a                	sw	s6,144(sp)
  12:	c75e                	sw	s7,140(sp)
  14:	c562                	sw	s8,136(sp)
  16:	c366                	sw	s9,132(sp)
  18:	c16a                	sw	s10,128(sp)
  1a:	deee                	sw	s11,124(sp)
  1c:	10058b63          	beqz	a1,132 <.L144>
  20:	6000e7b7          	lui	a5,0x6000e
  24:	0c47a683          	lw	a3,196(a5) # 6000e0c4 <.L150+0x6000dee6>
  28:	00151713          	sll	a4,a0,0x1
  2c:	0ff77713          	zext.b	a4,a4
  30:	f006f693          	and	a3,a3,-256
  34:	8f55                	or	a4,a4,a3
  36:	0ce7a223          	sw	a4,196(a5)
  3a:	0c47a703          	lw	a4,196(a5)
  3e:	e80006b7          	lui	a3,0xe8000
  42:	16fd                	add	a3,a3,-1 # e7ffffff <.L150+0xe7fffe21>
  44:	8f75                	and	a4,a4,a3
  46:	100006b7          	lui	a3,0x10000
  4a:	8f55                	or	a4,a4,a3
  4c:	0ce7a223          	sw	a4,196(a5)
  50:	0c47a703          	lw	a4,196(a5)
  54:	84aa                	mv	s1,a0
  56:	4509                	li	a0,2
  58:	10076713          	or	a4,a4,256
  5c:	0ce7a223          	sw	a4,196(a5)
  60:	00000097          	auipc	ra,0x0
  64:	000080e7          	jalr	ra # 60 <rfpll_cal_time+0x60>
  68:	6000e737          	lui	a4,0x6000e

0000006c <.L146>:
  6c:	0c472783          	lw	a5,196(a4) # 6000e0c4 <.L150+0x6000dee6>
  70:	0007c763          	bltz	a5,7e <.L145>
  74:	0c472783          	lw	a5,196(a4)
  78:	1007f793          	and	a5,a5,256
  7c:	fbe5                	bnez	a5,6c <.L146>

0000007e <.L145>:
  7e:	6000e737          	lui	a4,0x6000e
  82:	0c472783          	lw	a5,196(a4) # 6000e0c4 <.L150+0x6000dee6>
  86:	4401                	li	s0,0
  88:	00000a37          	lui	s4,0x0
  8c:	eff7f793          	and	a5,a5,-257
  90:	0cf72223          	sw	a5,196(a4)
  94:	600357b7          	lui	a5,0x60035
  98:	0007a903          	lw	s2,0(a5) # 60035000 <.L150+0x60034e22>
  9c:	03200993          	li	s3,50

000000a0 <.L147>:
  a0:	000a2783          	lw	a5,0(s4) # 0 <rfpll_cal_time>
  a4:	4701                	li	a4,0
  a6:	469d                	li	a3,7
  a8:	1b87a783          	lw	a5,440(a5)
  ac:	4615                	li	a2,5
  ae:	4585                	li	a1,1
  b0:	06200513          	li	a0,98
  b4:	9782                	jalr	a5
  b6:	007c                	add	a5,sp,12
  b8:	97a2                	add	a5,a5,s0
  ba:	00a78023          	sb	a0,0(a5)
  be:	0405                	add	s0,s0,1
  c0:	ff3410e3          	bne	s0,s3,a0 <.L147>
  c4:	00000537          	lui	a0,0x0
  c8:	600357b7          	lui	a5,0x60035
  cc:	85a6                	mv	a1,s1
  ce:	00050513          	mv	a0,a0
  d2:	0007a983          	lw	s3,0(a5) # 60035000 <.L150+0x60034e22>
  d6:	4401                	li	s0,0
  d8:	00000097          	auipc	ra,0x0
  dc:	000080e7          	jalr	ra # d8 <.L147+0x38>
  e0:	00000a37          	lui	s4,0x0
  e4:	03200493          	li	s1,50

000000e8 <.L148>:
  e8:	007c                	add	a5,sp,12
  ea:	97a2                	add	a5,a5,s0
  ec:	0007c583          	lbu	a1,0(a5)
  f0:	000a0513          	mv	a0,s4
  f4:	0405                	add	s0,s0,1
  f6:	00000097          	auipc	ra,0x0
  fa:	000080e7          	jalr	ra # f6 <.L148+0xe>
  fe:	fe9415e3          	bne	s0,s1,e8 <.L148>
 102:	542a                	lw	s0,168(sp)
 104:	412985b3          	sub	a1,s3,s2
 108:	50ba                	lw	ra,172(sp)
 10a:	549a                	lw	s1,164(sp)
 10c:	590a                	lw	s2,160(sp)
 10e:	49fa                	lw	s3,156(sp)
 110:	4a6a                	lw	s4,152(sp)
 112:	4ada                	lw	s5,148(sp)
 114:	4b4a                	lw	s6,144(sp)
 116:	4bba                	lw	s7,140(sp)
 118:	4c2a                	lw	s8,136(sp)
 11a:	4c9a                	lw	s9,132(sp)
 11c:	4d0a                	lw	s10,128(sp)
 11e:	5df6                	lw	s11,124(sp)
 120:	00000537          	lui	a0,0x0
 124:	00050513          	mv	a0,a0
 128:	614d                	add	sp,sp,176
 12a:	00000317          	auipc	t1,0x0
 12e:	00030067          	jr	t1 # 12a <.L148+0x42>

00000132 <.L144>:
 132:	000004b7          	lui	s1,0x0
 136:	0004a783          	lw	a5,0(s1) # 0 <rfpll_cal_time>
 13a:	4701                	li	a4,0
 13c:	469d                	li	a3,7
 13e:	1b87a783          	lw	a5,440(a5)
 142:	4605                	li	a2,1
 144:	4585                	li	a1,1
 146:	06200513          	li	a0,98
 14a:	9782                	jalr	a5
 14c:	ffb50413          	add	s0,a0,-5 # fffffffb <.L150+0xfffffe1d>
 150:	00550b13          	add	s6,a0,5
 154:	8aaa                	mv	s5,a0
 156:	0ff47413          	zext.b	s0,s0
 15a:	0ffb7b13          	zext.b	s6,s6
 15e:	600359b7          	lui	s3,0x60035
 162:	03200a13          	li	s4,50
 166:	00000c37          	lui	s8,0x0
 16a:	00000cb7          	lui	s9,0x0
 16e:	00000bb7          	lui	s7,0x0

00000172 <.L151>:
 172:	0004a783          	lw	a5,0(s1)
 176:	4701                	li	a4,0
 178:	469d                	li	a3,7
 17a:	1bc7a803          	lw	a6,444(a5)
 17e:	4605                	li	a2,1
 180:	87a2                	mv	a5,s0
 182:	4585                	li	a1,1
 184:	06200513          	li	a0,98
 188:	9802                	jalr	a6
 18a:	0009ad03          	lw	s10,0(s3) # 60035000 <.L150+0x60034e22>
 18e:	4901                	li	s2,0

00000190 <.L149>:
 190:	0004a783          	lw	a5,0(s1)
 194:	4701                	li	a4,0
 196:	469d                	li	a3,7
 198:	1b87a783          	lw	a5,440(a5)
 19c:	4615                	li	a2,5
 19e:	4585                	li	a1,1
 1a0:	06200513          	li	a0,98
 1a4:	9782                	jalr	a5
 1a6:	007c                	add	a5,sp,12
 1a8:	97ca                	add	a5,a5,s2
 1aa:	00a78023          	sb	a0,0(a5)
 1ae:	0905                	add	s2,s2,1
 1b0:	ff4910e3          	bne	s2,s4,190 <.L149>
 1b4:	0004a783          	lw	a5,0(s1)
 1b8:	4701                	li	a4,0
 1ba:	469d                	li	a3,7
 1bc:	1b87a783          	lw	a5,440(a5)
 1c0:	4605                	li	a2,1
 1c2:	4585                	li	a1,1
 1c4:	06200513          	li	a0,98
 1c8:	0009ad83          	lw	s11,0(s3)
 1cc:	9782                	jalr	a5
 1ce:	85aa                	mv	a1,a0
 1d0:	000c0513          	mv	a0,s8
 1d4:	00000097          	auipc	ra,0x0
 1d8:	000080e7          	jalr	ra # 1d4 <.L149+0x44>
 1dc:	4901                	li	s2,0

000001de <.L150>:
 1de:	007c                	add	a5,sp,12
 1e0:	97ca                	add	a5,a5,s2
 1e2:	0007c583          	lbu	a1,0(a5)
 1e6:	000c8513          	mv	a0,s9
 1ea:	0905                	add	s2,s2,1
 1ec:	00000097          	auipc	ra,0x0
 1f0:	000080e7          	jalr	ra # 1ec <.L150+0xe>
 1f4:	ff4915e3          	bne	s2,s4,1de <.L150>
 1f8:	0405                	add	s0,s0,1
 1fa:	41ad85b3          	sub	a1,s11,s10
 1fe:	000b8513          	mv	a0,s7
 202:	0ff47413          	zext.b	s0,s0
 206:	00000097          	auipc	ra,0x0
 20a:	000080e7          	jalr	ra # 206 <.L150+0x28>
 20e:	f76412e3          	bne	s0,s6,172 <.L151>
 212:	0004a783          	lw	a5,0(s1)
 216:	542a                	lw	s0,168(sp)
 218:	50ba                	lw	ra,172(sp)
 21a:	1bc7a303          	lw	t1,444(a5)
 21e:	549a                	lw	s1,164(sp)
 220:	590a                	lw	s2,160(sp)
 222:	49fa                	lw	s3,156(sp)
 224:	4a6a                	lw	s4,152(sp)
 226:	4b4a                	lw	s6,144(sp)
 228:	4bba                	lw	s7,140(sp)
 22a:	4c2a                	lw	s8,136(sp)
 22c:	4c9a                	lw	s9,132(sp)
 22e:	4d0a                	lw	s10,128(sp)
 230:	5df6                	lw	s11,124(sp)
 232:	87d6                	mv	a5,s5
 234:	4ada                	lw	s5,148(sp)
 236:	4701                	li	a4,0
 238:	469d                	li	a3,7
 23a:	4605                	li	a2,1
 23c:	4585                	li	a1,1
 23e:	06200513          	li	a0,98
 242:	614d                	add	sp,sp,176
 244:	8302                	jr	t1

Disassembly of section .text.ESP_TEST_GPIO:

00000000 <ESP_TEST_GPIO>:
   0:	715d                	add	sp,sp,-80
   2:	c2a6                	sw	s1,68(sp)
   4:	84aa                	mv	s1,a0
   6:	00000537          	lui	a0,0x0
   a:	00050513          	mv	a0,a0
   e:	c686                	sw	ra,76(sp)
  10:	dc52                	sw	s4,56(sp)
  12:	c4a2                	sw	s0,72(sp)
  14:	8a2e                	mv	s4,a1
  16:	c0ca                	sw	s2,64(sp)
  18:	de4e                	sw	s3,60(sp)
  1a:	da56                	sw	s5,52(sp)
  1c:	d85a                	sw	s6,48(sp)
  1e:	d65e                	sw	s7,44(sp)
  20:	d462                	sw	s8,40(sp)
  22:	d266                	sw	s9,36(sp)
  24:	d06a                	sw	s10,32(sp)
  26:	ce6e                	sw	s11,28(sp)
  28:	c202                	sw	zero,4(sp)
  2a:	c402                	sw	zero,8(sp)
  2c:	c602                	sw	zero,12(sp)
  2e:	00000097          	auipc	ra,0x0
  32:	000080e7          	jalr	ra # 2e <ESP_TEST_GPIO+0x2e>
  36:	6509                	lui	a0,0x2
  38:	71050513          	add	a0,a0,1808 # 2710 <.L150+0x2532>
  3c:	00000097          	auipc	ra,0x0
  40:	000080e7          	jalr	ra # 3c <ESP_TEST_GPIO+0x3c>
  44:	600096b7          	lui	a3,0x60009
  48:	00000637          	lui	a2,0x0
  4c:	4781                	li	a5,0
  4e:	454d                	li	a0,19
  50:	0691                	add	a3,a3,4 # 60009004 <.L150+0x60008e26>
  52:	00060613          	mv	a2,a2
  56:	45d9                	li	a1,22

00000058 <.L161>:
  58:	00f56b63          	bltu	a0,a5,6e <.L160>
  5c:	00279713          	sll	a4,a5,0x2
  60:	00d70833          	add	a6,a4,a3
  64:	00082803          	lw	a6,0(a6)
  68:	9732                	add	a4,a4,a2
  6a:	01072023          	sw	a6,0(a4)

0000006e <.L160>:
  6e:	0785                	add	a5,a5,1
  70:	feb794e3          	bne	a5,a1,58 <.L161>
  74:	89a6                	mv	s3,s1
  76:	4901                	li	s2,0
  78:	4a85                	li	s5,1
  7a:	4c89                	li	s9,2
  7c:	4d0d                	li	s10,3
  7e:	00000db7          	lui	s11,0x0

00000082 <.L168>:
  82:	0ff97c13          	zext.b	s8,s2
  86:	4401                	li	s0,0
  88:	4bcd                	li	s7,19
  8a:	4b41                	li	s6,16

0000008c <.L167>:
  8c:	008c0533          	add	a0,s8,s0
  90:	0ff57513          	zext.b	a0,a0
  94:	02abe363          	bltu	s7,a0,ba <.L163>
  98:	0009a703          	lw	a4,0(s3)
  9c:	00141793          	sll	a5,s0,0x1
  a0:	40f757b3          	sra	a5,a4,a5
  a4:	8b8d                	and	a5,a5,3
  a6:	01578a63          	beq	a5,s5,ba <.L163>
  aa:	0b979663          	bne	a5,s9,156 <.L164>
  ae:	4609                	li	a2,2
  b0:	4581                	li	a1,0

000000b2 <.L181>:
  b2:	00000097          	auipc	ra,0x0
  b6:	000080e7          	jalr	ra # b2 <.L181>

000000ba <.L163>:
  ba:	0405                	add	s0,s0,1
  bc:	fd6418e3          	bne	s0,s6,8c <.L167>
  c0:	0941                	add	s2,s2,16
  c2:	02000793          	li	a5,32
  c6:	0991                	add	s3,s3,4
  c8:	faf91de3          	bne	s2,a5,82 <.L168>
  cc:	00410a93          	add	s5,sp,4
  d0:	4981                	li	s3,0
  d2:	4b55                	li	s6,21
  d4:	4c85                	li	s9,1
  d6:	02000b93          	li	s7,32
  da:	4c21                	li	s8,8

000000dc <.L169>:
  dc:	00299413          	sll	s0,s3,0x2
  e0:	0ff47413          	zext.b	s0,s0
  e4:	4901                	li	s2,0

000000e6 <.L172>:
  e6:	028b6963          	bltu	s6,s0,118 <.L170>
  ea:	409c                	lw	a5,0(s1)
  ec:	4127d7b3          	sra	a5,a5,s2
  f0:	8b8d                	and	a5,a5,3
  f2:	09979b63          	bne	a5,s9,188 <.L174>
  f6:	8522                	mv	a0,s0
  f8:	00000097          	auipc	ra,0x0
  fc:	000080e7          	jalr	ra # f8 <.L172+0x12>
 100:	0ff57513          	zext.b	a0,a0
 104:	4785                	li	a5,1

00000106 <.L171>:
 106:	0786                	sll	a5,a5,0x1
 108:	8fc9                	or	a5,a5,a0
 10a:	000aa503          	lw	a0,0(s5)
 10e:	012797b3          	sll	a5,a5,s2
 112:	8fc9                	or	a5,a5,a0
 114:	00faa023          	sw	a5,0(s5)

00000118 <.L170>:
 118:	0405                	add	s0,s0,1
 11a:	0909                	add	s2,s2,2
 11c:	0ff47413          	zext.b	s0,s0
 120:	fd7913e3          	bne	s2,s7,e6 <.L172>
 124:	000aa703          	lw	a4,0(s5)
 128:	013a07b3          	add	a5,s4,s3
 12c:	0991                	add	s3,s3,4
 12e:	c398                	sw	a4,0(a5)
 130:	0a91                	add	s5,s5,4
 132:	0491                	add	s1,s1,4
 134:	fb8994e3          	bne	s3,s8,dc <.L169>
 138:	40b6                	lw	ra,76(sp)
 13a:	4426                	lw	s0,72(sp)
 13c:	4496                	lw	s1,68(sp)
 13e:	4906                	lw	s2,64(sp)
 140:	59f2                	lw	s3,60(sp)
 142:	5a62                	lw	s4,56(sp)
 144:	5ad2                	lw	s5,52(sp)
 146:	5b42                	lw	s6,48(sp)
 148:	5bb2                	lw	s7,44(sp)
 14a:	5c22                	lw	s8,40(sp)
 14c:	5c92                	lw	s9,36(sp)
 14e:	5d02                	lw	s10,32(sp)
 150:	4df2                	lw	s11,28(sp)
 152:	6161                	add	sp,sp,80
 154:	8082                	ret

00000156 <.L164>:
 156:	01a79563          	bne	a5,s10,160 <.L165>
 15a:	460d                	li	a2,3
 15c:	4585                	li	a1,1
 15e:	bf91                	j	b2 <.L181>

00000160 <.L165>:
 160:	ef89                	bnez	a5,17a <.L166>
 162:	008906b3          	add	a3,s2,s0
 166:	00da96b3          	sll	a3,s5,a3
 16a:	4601                	li	a2,0
 16c:	4581                	li	a1,0
 16e:	4501                	li	a0,0
 170:	00000097          	auipc	ra,0x0
 174:	000080e7          	jalr	ra # 170 <.L165+0x10>
 178:	b789                	j	ba <.L163>

0000017a <.L166>:
 17a:	000d8513          	mv	a0,s11
 17e:	00000097          	auipc	ra,0x0
 182:	000080e7          	jalr	ra # 17e <.L166+0x4>
 186:	bf15                	j	ba <.L163>

00000188 <.L174>:
 188:	4781                	li	a5,0
 18a:	4501                	li	a0,0
 18c:	bfad                	j	106 <.L171>

Disassembly of section .text.CMDSTOP_GPIO:

00000000 <CMDSTOP_GPIO>:
   0:	600096b7          	lui	a3,0x60009
   4:	00000637          	lui	a2,0x0
   8:	4781                	li	a5,0
   a:	454d                	li	a0,19
   c:	0691                	add	a3,a3,4 # 60009004 <.L150+0x60008e26>
   e:	00060613          	mv	a2,a2
  12:	45d9                	li	a1,22

00000014 <.L184>:
  14:	00f56a63          	bltu	a0,a5,28 <.L183>
  18:	00279713          	sll	a4,a5,0x2
  1c:	00d70833          	add	a6,a4,a3
  20:	9732                	add	a4,a4,a2
  22:	4318                	lw	a4,0(a4)
  24:	00e82023          	sw	a4,0(a6)

00000028 <.L183>:
  28:	0785                	add	a5,a5,1
  2a:	feb795e3          	bne	a5,a1,14 <.L184>
  2e:	8082                	ret

wifi.o:     file format elf32-littleriscv


Disassembly of section .text.txon_set.part.6:

00000000 <txon_set.part.6>:
   0:	600067b7          	lui	a5,0x60006
   4:	1107a703          	lw	a4,272(a5) # 60006110 <.L836+0x6000342a>
   8:	668d                	lui	a3,0x3
   a:	8f55                	or	a4,a4,a3
   c:	10e7a823          	sw	a4,272(a5)
  10:	1107a703          	lw	a4,272(a5)
  14:	6685                	lui	a3,0x1
  16:	c0068693          	add	a3,a3,-1024 # c00 <.LC254+0x4>
  1a:	cff77713          	and	a4,a4,-769
  1e:	20076713          	or	a4,a4,512
  22:	10e7a823          	sw	a4,272(a5)
  26:	1107a703          	lw	a4,272(a5)
  2a:	8f55                	or	a4,a4,a3
  2c:	10e7a823          	sw	a4,272(a5)
  30:	8082                	ret

Disassembly of section .text.spi_flash_op:

00000000 <spi_flash_op>:
   0:	8082                	ret

Disassembly of section .text.spi_flash_attach:

00000000 <spi_flash_attach>:
   0:	8082                	ret

Disassembly of section .text.set_spur_reg:

00000000 <set_spur_reg>:
   0:	1141                	add	sp,sp,-16
   2:	c606                	sw	ra,12(sp)
   4:	c422                	sw	s0,8(sp)
   6:	c226                	sw	s1,4(sp)
   8:	47b9                	li	a5,14
   a:	04f50e63          	beq	a0,a5,66 <.L6>
   e:	4415                	li	s0,5
  10:	02850533          	mul	a0,a0,s0
  14:	6405                	lui	s0,0x1
  16:	96740413          	add	s0,s0,-1689 # 967 <.L684+0xf>
  1a:	942a                	add	s0,s0,a0

0000001c <.L5>:
  1c:	000004b7          	lui	s1,0x0
  20:	0004a783          	lw	a5,0(s1) # 0 <set_spur_reg>
  24:	01041513          	sll	a0,s0,0x10
  28:	4685                	li	a3,1
  2a:	4ffc                	lw	a5,92(a5)
  2c:	02800613          	li	a2,40
  30:	45a9                	li	a1,10
  32:	8141                	srl	a0,a0,0x10
  34:	9782                	jalr	a5
  36:	00a51593          	sll	a1,a0,0xa
  3a:	06400713          	li	a4,100
  3e:	02e5c5b3          	div	a1,a1,a4
  42:	0004a783          	lw	a5,0(s1)
  46:	4501                	li	a0,0
  48:	4fbc                	lw	a5,88(a5)
  4a:	9782                	jalr	a5
  4c:	85a2                	mv	a1,s0
  4e:	4422                	lw	s0,8(sp)
  50:	40b2                	lw	ra,12(sp)
  52:	4492                	lw	s1,4(sp)
  54:	00000537          	lui	a0,0x0
  58:	00050513          	mv	a0,a0
  5c:	0141                	add	sp,sp,16
  5e:	00000317          	auipc	t1,0x0
  62:	00030067          	jr	t1 # 5e <.L5+0x42>

00000066 <.L6>:
  66:	6405                	lui	s0,0x1
  68:	9b440413          	add	s0,s0,-1612 # 9b4 <.L685+0x1a>
  6c:	bf45                	j	1c <.L5>

Disassembly of section .text.Mem_WrByteEn_Test:

00000000 <Mem_WrByteEn_Test>:
   0:	7179                	add	sp,sp,-48
   2:	d04a                	sw	s2,32(sp)
   4:	00000937          	lui	s2,0x0
   8:	d422                	sw	s0,40(sp)
   a:	d226                	sw	s1,36(sp)
   c:	ce4e                	sw	s3,28(sp)
   e:	d606                	sw	ra,44(sp)
  10:	4401                	li	s0,0
  12:	49b1                	li	s3,12
  14:	84ca                	mv	s1,s2

00000016 <.L9>:
  16:	005c                	add	a5,sp,4
  18:	97a2                	add	a5,a5,s0
  1a:	00878023          	sb	s0,0(a5)
  1e:	8622                	mv	a2,s0
  20:	85a2                	mv	a1,s0
  22:	00090513          	mv	a0,s2
  26:	0405                	add	s0,s0,1
  28:	00000097          	auipc	ra,0x0
  2c:	000080e7          	jalr	ra # 28 <.L9+0x12>
  30:	ff3413e3          	bne	s0,s3,16 <.L9>
  34:	00514703          	lbu	a4,5(sp)
  38:	47a9                	li	a5,10
  3a:	4401                	li	s0,0
  3c:	02f70733          	mul	a4,a4,a5
  40:	4931                	li	s2,12
  42:	00e102a3          	sb	a4,5(sp)
  46:	00814703          	lbu	a4,8(sp)
  4a:	02f70733          	mul	a4,a4,a5
  4e:	00e10423          	sb	a4,8(sp)
  52:	00b14703          	lbu	a4,11(sp)
  56:	02f70733          	mul	a4,a4,a5
  5a:	00e105a3          	sb	a4,11(sp)
  5e:	00e14703          	lbu	a4,14(sp)
  62:	02f707b3          	mul	a5,a4,a5
  66:	00f10723          	sb	a5,14(sp)

0000006a <.L10>:
  6a:	005c                	add	a5,sp,4
  6c:	97a2                	add	a5,a5,s0
  6e:	0007c603          	lbu	a2,0(a5)
  72:	85a2                	mv	a1,s0
  74:	00048513          	mv	a0,s1
  78:	0405                	add	s0,s0,1
  7a:	00000097          	auipc	ra,0x0
  7e:	000080e7          	jalr	ra # 7a <.L10+0x10>
  82:	ff2414e3          	bne	s0,s2,6a <.L10>
  86:	50b2                	lw	ra,44(sp)
  88:	5422                	lw	s0,40(sp)
  8a:	5492                	lw	s1,36(sp)
  8c:	5902                	lw	s2,32(sp)
  8e:	49f2                	lw	s3,28(sp)
  90:	6145                	add	sp,sp,48
  92:	8082                	ret

Disassembly of section .text.FillTxPacket:

00000000 <FillTxPacket>:
   0:	6341                	lui	t1,0x10
   2:	8eae                	mv	t4,a1
   4:	137d                	add	t1,t1,-1 # ffff <.L836+0xd319>
   6:	00679f13          	sll	t5,a5,0x6
   a:	7139                	add	sp,sp,-64
   c:	0ff7f293          	zext.b	t0,a5
  10:	83f1                	srl	a5,a5,0x1c
  12:	85b6                	mv	a1,a3
  14:	0017fe13          	and	t3,a5,1
  18:	006ef6b3          	and	a3,t4,t1
  1c:	010ed793          	srl	a5,t4,0x10
  20:	de06                	sw	ra,60(sp)
  22:	00ceeeb3          	or	t4,t4,a2
  26:	83c2                	mv	t2,a6
  28:	00657fb3          	and	t6,a0,t1
  2c:	00ef5f13          	srl	t5,t5,0xe
  30:	00667333          	and	t1,a2,t1
  34:	4801                	li	a6,0
  36:	000e8763          	beqz	t4,44 <.L15>
  3a:	00f68eb3          	add	t4,a3,a5
  3e:	9e9a                	add	t4,t4,t1
  40:	41df8833          	sub	a6,t6,t4

00000044 <.L15>:
  44:	4636                	lw	a2,76(sp)
  46:	c846                	sw	a7,16(sp)
  48:	c61e                	sw	t2,12(sp)
  4a:	d032                	sw	a2,32(sp)
  4c:	4626                	lw	a2,72(sp)
  4e:	c472                	sw	t3,8(sp)
  50:	c27a                	sw	t5,4(sp)
  52:	ce32                	sw	a2,28(sp)
  54:	4616                	lw	a2,68(sp)
  56:	c016                	sw	t0,0(sp)
  58:	88ba                	mv	a7,a4
  5a:	cc32                	sw	a2,24(sp)
  5c:	4606                	lw	a2,64(sp)
  5e:	871a                	mv	a4,t1
  60:	8141                	srl	a0,a0,0x10
  62:	ca32                	sw	a2,20(sp)
  64:	867e                	mv	a2,t6
  66:	00000097          	auipc	ra,0x0
  6a:	000080e7          	jalr	ra # 66 <.L15+0x22>
  6e:	50f2                	lw	ra,60(sp)
  70:	6121                	add	sp,sp,64
  72:	8082                	ret

Disassembly of section .text.pa_reg_opt:

00000000 <pa_reg_opt>:
   0:	00000317          	auipc	t1,0x0
   4:	00030067          	jr	t1 # 0 <pa_reg_opt>

Disassembly of section .text.WifiRxStart:

00000000 <WifiRxStart>:
   0:	1141                	add	sp,sp,-16
   2:	c422                	sw	s0,8(sp)
   4:	4585                	li	a1,1
   6:	842a                	mv	s0,a0
   8:	4505                	li	a0,1
   a:	c606                	sw	ra,12(sp)
   c:	00000097          	auipc	ra,0x0
  10:	000080e7          	jalr	ra # c <WifiRxStart+0xc>
  14:	000007b7          	lui	a5,0x0
  18:	0007a783          	lw	a5,0(a5) # 0 <WifiRxStart>
  1c:	4505                	li	a0,1
  1e:	0947a783          	lw	a5,148(a5)
  22:	9782                	jalr	a5
  24:	8522                	mv	a0,s0
  26:	00000097          	auipc	ra,0x0
  2a:	000080e7          	jalr	ra # 26 <WifiRxStart+0x26>
  2e:	4422                	lw	s0,8(sp)
  30:	40b2                	lw	ra,12(sp)
  32:	4585                	li	a1,1
  34:	4505                	li	a0,1
  36:	0141                	add	sp,sp,16
  38:	00000317          	auipc	t1,0x0
  3c:	00030067          	jr	t1 # 38 <WifiRxStart+0x38>

Disassembly of section .text.esp_phy_getstopcmd:

00000000 <esp_phy_getstopcmd>:
   0:	7135                	add	sp,sp,-160
   2:	cb26                	sw	s1,148(sp)
   4:	08e4                	add	s1,sp,92
   6:	8526                	mv	a0,s1
   8:	cf06                	sw	ra,156(sp)
   a:	cd22                	sw	s0,152(sp)
   c:	00000097          	auipc	ra,0x0
  10:	000080e7          	jalr	ra # c <esp_phy_getstopcmd+0xc>
  14:	e159                	bnez	a0,9a <.L27>
  16:	080c                	add	a1,sp,16
  18:	842a                	mv	s0,a0
  1a:	8526                	mv	a0,s1
  1c:	c826                	sw	s1,16(sp)
  1e:	00000097          	auipc	ra,0x0
  22:	000080e7          	jalr	ra # 1e <esp_phy_getstopcmd+0x1e>
  26:	4542                	lw	a0,16(sp)
  28:	1854                	add	a3,sp,52
  2a:	0070                	add	a2,sp,12
  2c:	084c                	add	a1,sp,20
  2e:	00000097          	auipc	ra,0x0
  32:	000080e7          	jalr	ra # 2e <esp_phy_getstopcmd+0x2e>
  36:	e931                	bnez	a0,8a <.L25>
  38:	000005b7          	lui	a1,0x0
  3c:	00058593          	mv	a1,a1
  40:	0848                	add	a0,sp,20
  42:	00000097          	auipc	ra,0x0
  46:	000080e7          	jalr	ra # 42 <esp_phy_getstopcmd+0x42>
  4a:	c929                	beqz	a0,9c <.L23>
  4c:	000005b7          	lui	a1,0x0
  50:	00058593          	mv	a1,a1
  54:	0848                	add	a0,sp,20
  56:	00000097          	auipc	ra,0x0
  5a:	000080e7          	jalr	ra # 56 <esp_phy_getstopcmd+0x56>
  5e:	cd1d                	beqz	a0,9c <.L23>
  60:	000005b7          	lui	a1,0x0
  64:	00058593          	mv	a1,a1
  68:	0848                	add	a0,sp,20
  6a:	00000097          	auipc	ra,0x0
  6e:	000080e7          	jalr	ra # 6a <esp_phy_getstopcmd+0x6a>
  72:	440d                	li	s0,3
  74:	c505                	beqz	a0,9c <.L23>
  76:	000005b7          	lui	a1,0x0
  7a:	00058593          	mv	a1,a1
  7e:	0848                	add	a0,sp,20
  80:	00000097          	auipc	ra,0x0
  84:	000080e7          	jalr	ra # 80 <esp_phy_getstopcmd+0x80>
  88:	c911                	beqz	a0,9c <.L23>

0000008a <.L25>:
  8a:	00000537          	lui	a0,0x0
  8e:	00050513          	mv	a0,a0
  92:	00000097          	auipc	ra,0x0
  96:	000080e7          	jalr	ra # 92 <.L25+0x8>

0000009a <.L27>:
  9a:	4405                	li	s0,1

0000009c <.L23>:
  9c:	8522                	mv	a0,s0
  9e:	40fa                	lw	ra,156(sp)
  a0:	446a                	lw	s0,152(sp)
  a2:	44da                	lw	s1,148(sp)
  a4:	610d                	add	sp,sp,160
  a6:	8082                	ret

Disassembly of section .text.GetStopCmd:

00000000 <GetStopCmd>:
   0:	00000317          	auipc	t1,0x0
   4:	00030067          	jr	t1 # 0 <GetStopCmd>

Disassembly of section .text.WifiTxStart:

00000000 <WifiTxStart>:
   0:	7179                	add	sp,sp,-48
   2:	d422                	sw	s0,40(sp)
   4:	00000437          	lui	s0,0x0
   8:	ce4e                	sw	s3,28(sp)
   a:	89be                	mv	s3,a5
   c:	00042783          	lw	a5,0(s0) # 0 <WifiTxStart>
  10:	d226                	sw	s1,36(sp)
  12:	d04a                	sw	s2,32(sp)
  14:	1bc7a803          	lw	a6,444(a5)
  18:	000007b7          	lui	a5,0x0
  1c:	0007c783          	lbu	a5,0(a5) # 0 <WifiTxStart>
  20:	cc52                	sw	s4,24(sp)
  22:	ca56                	sw	s5,20(sp)
  24:	c85a                	sw	s6,16(sp)
  26:	c65e                	sw	s7,12(sp)
  28:	01051913          	sll	s2,a0,0x10
  2c:	d606                	sw	ra,44(sp)
  2e:	8bae                	mv	s7,a1
  30:	8a32                	mv	s4,a2
  32:	8ab6                	mv	s5,a3
  34:	8b3a                	mv	s6,a4
  36:	01055493          	srl	s1,a0,0x10
  3a:	4701                	li	a4,0
  3c:	4691                	li	a3,4
  3e:	4619                	li	a2,6
  40:	4581                	li	a1,0
  42:	06d00513          	li	a0,109
  46:	9802                	jalr	a6
  48:	000007b7          	lui	a5,0x0
  4c:	0007c783          	lbu	a5,0(a5) # 0 <WifiTxStart>
  50:	01095913          	srl	s2,s2,0x10
  54:	c799                	beqz	a5,62 <.L40>
  56:	0ff97513          	zext.b	a0,s2
  5a:	00000097          	auipc	ra,0x0
  5e:	000080e7          	jalr	ra # 5a <WifiTxStart+0x5a>

00000062 <.L40>:
  62:	000007b7          	lui	a5,0x0
  66:	0007a023          	sw	zero,0(a5) # 0 <WifiTxStart>
  6a:	000007b7          	lui	a5,0x0
  6e:	00078023          	sb	zero,0(a5) # 0 <WifiTxStart>
  72:	6001c7b7          	lui	a5,0x6001c
  76:	4587a703          	lw	a4,1112(a5) # 6001c458 <.L836+0x60019772>
  7a:	fff006b7          	lui	a3,0xfff00
  7e:	16fd                	add	a3,a3,-1 # ffefffff <.L836+0xffefd319>
  80:	8f75                	and	a4,a4,a3
  82:	44e7ac23          	sw	a4,1112(a5)
  86:	4007a703          	lw	a4,1024(a5)
  8a:	ffe006b7          	lui	a3,0xffe00
  8e:	16fd                	add	a3,a3,-1 # ffdfffff <.L836+0xffdfd319>
  90:	8f75                	and	a4,a4,a3
  92:	40e7a023          	sw	a4,1024(a5)
  96:	00098b63          	beqz	s3,ac <.L41>
  9a:	000007b7          	lui	a5,0x0
  9e:	0007c783          	lbu	a5,0(a5) # 0 <WifiTxStart>
  a2:	e789                	bnez	a5,ac <.L41>
  a4:	00042783          	lw	a5,0(s0)
  a8:	4b9c                	lw	a5,16(a5)
  aa:	9782                	jalr	a5

000000ac <.L41>:
  ac:	600347b7          	lui	a5,0x60034
  b0:	ca07a423          	sw	zero,-856(a5) # 60033ca8 <.L836+0x60030fc2>
  b4:	0a0b8263          	beqz	s7,158 <.L42>
  b8:	87da                	mv	a5,s6
  ba:	8756                	mv	a4,s5
  bc:	86d2                	mv	a3,s4
  be:	865e                	mv	a2,s7
  c0:	85ca                	mv	a1,s2
  c2:	8526                	mv	a0,s1
  c4:	00000097          	auipc	ra,0x0
  c8:	000080e7          	jalr	ra # c4 <.L41+0x18>

000000cc <.L43>:
  cc:	000004b7          	lui	s1,0x0
  d0:	00048493          	mv	s1,s1
  d4:	0004c783          	lbu	a5,0(s1) # 0 <WifiTxStart>
  d8:	c385                	beqz	a5,f8 <.L44>
  da:	00042783          	lw	a5,0(s0)
  de:	1d87a783          	lw	a5,472(a5)
  e2:	9782                	jalr	a5
  e4:	000007b7          	lui	a5,0x0
  e8:	00078023          	sb	zero,0(a5) # 0 <WifiTxStart>
  ec:	000007b7          	lui	a5,0x0
  f0:	00078023          	sb	zero,0(a5) # 0 <WifiTxStart>
  f4:	00048023          	sb	zero,0(s1)

000000f8 <.L44>:
  f8:	00098b63          	beqz	s3,10e <.L45>
  fc:	000007b7          	lui	a5,0x0
 100:	0007c783          	lbu	a5,0(a5) # 0 <WifiTxStart>
 104:	e789                	bnez	a5,10e <.L45>
 106:	00042783          	lw	a5,0(s0)
 10a:	4bdc                	lw	a5,20(a5)
 10c:	9782                	jalr	a5

0000010e <.L45>:
 10e:	00042783          	lw	a5,0(s0)
 112:	4701                	li	a4,0
 114:	468d                	li	a3,3
 116:	1bc7a803          	lw	a6,444(a5)
 11a:	4601                	li	a2,0
 11c:	47b1                	li	a5,12
 11e:	4581                	li	a1,0
 120:	06a00513          	li	a0,106
 124:	9802                	jalr	a6
 126:	00042783          	lw	a5,0(s0)
 12a:	5422                	lw	s0,40(sp)
 12c:	50b2                	lw	ra,44(sp)
 12e:	1bc7a303          	lw	t1,444(a5)
 132:	000007b7          	lui	a5,0x0
 136:	5492                	lw	s1,36(sp)
 138:	5902                	lw	s2,32(sp)
 13a:	49f2                	lw	s3,28(sp)
 13c:	4a62                	lw	s4,24(sp)
 13e:	4ad2                	lw	s5,20(sp)
 140:	4b42                	lw	s6,16(sp)
 142:	4bb2                	lw	s7,12(sp)
 144:	0007c783          	lbu	a5,0(a5) # 0 <WifiTxStart>
 148:	4701                	li	a4,0
 14a:	4691                	li	a3,4
 14c:	4619                	li	a2,6
 14e:	4581                	li	a1,0
 150:	06d00513          	li	a0,109
 154:	6145                	add	sp,sp,48
 156:	8302                	jr	t1

00000158 <.L42>:
 158:	87da                	mv	a5,s6
 15a:	8756                	mv	a4,s5
 15c:	86d2                	mv	a3,s4
 15e:	4605                	li	a2,1
 160:	85ca                	mv	a1,s2
 162:	8526                	mv	a0,s1
 164:	00000097          	auipc	ra,0x0
 168:	000080e7          	jalr	ra # 164 <.L42+0xc>
 16c:	00000097          	auipc	ra,0x0
 170:	000080e7          	jalr	ra # 16c <.L42+0x14>
 174:	f175                	bnez	a0,158 <.L42>
 176:	bf99                	j	cc <.L43>

Disassembly of section .text.sampledeal:

00000000 <sampledeal>:
   0:	87aa                	mv	a5,a0
   2:	2007f793          	and	a5,a5,512
   6:	3ff57513          	and	a0,a0,1023
   a:	c399                	beqz	a5,10 <.L63>
   c:	c0050513          	add	a0,a0,-1024 # fffffc00 <.L836+0xffffcf1a>

00000010 <.L63>:
  10:	8082                	ret

Disassembly of section .text.accumiq:

00000000 <accumiq>:
   0:	7179                	add	sp,sp,-48
   2:	d226                	sw	s1,36(sp)
   4:	ce4e                	sw	s3,28(sp)
   6:	cc52                	sw	s4,24(sp)
   8:	ca56                	sw	s5,20(sp)
   a:	d606                	sw	ra,44(sp)
   c:	d422                	sw	s0,40(sp)
   e:	d04a                	sw	s2,32(sp)
  10:	8aaa                	mv	s5,a0
  12:	0025da13          	srl	s4,a1,0x2
  16:	4681                	li	a3,0
  18:	4601                	li	a2,0
  1a:	4981                	li	s3,0
  1c:	4481                	li	s1,0

0000001e <.L69>:
  1e:	029a1363          	bne	s4,s1,44 <.L70>
  22:	5422                	lw	s0,40(sp)
  24:	50b2                	lw	ra,44(sp)
  26:	5492                	lw	s1,36(sp)
  28:	5902                	lw	s2,32(sp)
  2a:	4a62                	lw	s4,24(sp)
  2c:	4ad2                	lw	s5,20(sp)
  2e:	85ce                	mv	a1,s3
  30:	49f2                	lw	s3,28(sp)
  32:	00000537          	lui	a0,0x0
  36:	00050513          	mv	a0,a0
  3a:	6145                	add	sp,sp,48
  3c:	00000317          	auipc	t1,0x0
  40:	00030067          	jr	t1 # 3c <.L69+0x1e>

00000044 <.L70>:
  44:	00249793          	sll	a5,s1,0x2
  48:	97d6                	add	a5,a5,s5
  4a:	0007a903          	lw	s2,0(a5)
  4e:	c636                	sw	a3,12(sp)
  50:	c432                	sw	a2,8(sp)
  52:	3ff97513          	and	a0,s2,1023
  56:	00000097          	auipc	ra,0x0
  5a:	000080e7          	jalr	ra # 56 <.L70+0x12>
  5e:	842a                	mv	s0,a0
  60:	00a95513          	srl	a0,s2,0xa
  64:	3ff57513          	and	a0,a0,1023
  68:	00000097          	auipc	ra,0x0
  6c:	000080e7          	jalr	ra # 68 <.L70+0x24>
  70:	4622                	lw	a2,8(sp)
  72:	99aa                	add	s3,s3,a0
  74:	02a50533          	mul	a0,a0,a0
  78:	9622                	add	a2,a2,s0
  7a:	46b2                	lw	a3,12(sp)
  7c:	0485                	add	s1,s1,1
  7e:	02840433          	mul	s0,s0,s0
  82:	9522                	add	a0,a0,s0
  84:	96aa                	add	a3,a3,a0
  86:	bf61                	j	1e <.L69>

Disassembly of section .text.ram_get_corr_power:

00000000 <ram_get_corr_power>:
   0:	600066b7          	lui	a3,0x60006
   4:	1486a783          	lw	a5,328(a3) # 60006148 <.L836+0x60003462>
   8:	1546a703          	lw	a4,340(a3)
   c:	1101                	add	sp,sp,-32
   e:	87a5                	sra	a5,a5,0x9
  10:	8725                	sra	a4,a4,0x9
  12:	97ba                	add	a5,a5,a4
  14:	14c6a703          	lw	a4,332(a3)
  18:	1506a603          	lw	a2,336(a3)
  1c:	cc22                	sw	s0,24(sp)
  1e:	ca26                	sw	s1,20(sp)
  20:	15c6a403          	lw	s0,348(a3)
  24:	1606a483          	lw	s1,352(a3)
  28:	1646a683          	lw	a3,356(a3)
  2c:	8625                	sra	a2,a2,0x9
  2e:	8725                	sra	a4,a4,0x9
  30:	8f11                	sub	a4,a4,a2
  32:	ffd58613          	add	a2,a1,-3 # fffffffd <.L836+0xffffd317>
  36:	ce06                	sw	ra,28(sp)
  38:	c84a                	sw	s2,16(sp)
  3a:	c64e                	sw	s3,12(sp)
  3c:	40c6d6b3          	sra	a3,a3,a2
  40:	15f9                	add	a1,a1,-2
  42:	89aa                	mv	s3,a0
  44:	00159913          	sll	s2,a1,0x1
  48:	c114                	sw	a3,0(a0)
  4a:	02f785b3          	mul	a1,a5,a5
  4e:	864a                	mv	a2,s2
  50:	8421                	sra	s0,s0,0x8
  52:	84a1                	sra	s1,s1,0x8
  54:	02e70533          	mul	a0,a4,a4
  58:	02f797b3          	mulh	a5,a5,a5
  5c:	952e                	add	a0,a0,a1
  5e:	00b535b3          	sltu	a1,a0,a1
  62:	02e71733          	mulh	a4,a4,a4
  66:	97ba                	add	a5,a5,a4
  68:	95be                	add	a1,a1,a5
  6a:	00000097          	auipc	ra,0x0
  6e:	000080e7          	jalr	ra # 6a <ram_get_corr_power+0x6a>
  72:	00a9a223          	sw	a0,4(s3)
  76:	028405b3          	mul	a1,s0,s0
  7a:	864a                	mv	a2,s2
  7c:	02948533          	mul	a0,s1,s1
  80:	02841433          	mulh	s0,s0,s0
  84:	952e                	add	a0,a0,a1
  86:	00b535b3          	sltu	a1,a0,a1
  8a:	029494b3          	mulh	s1,s1,s1
  8e:	9426                	add	s0,s0,s1
  90:	95a2                	add	a1,a1,s0
  92:	00000097          	auipc	ra,0x0
  96:	000080e7          	jalr	ra # 92 <ram_get_corr_power+0x92>
  9a:	40f2                	lw	ra,28(sp)
  9c:	4462                	lw	s0,24(sp)
  9e:	00a9a423          	sw	a0,8(s3)
  a2:	44d2                	lw	s1,20(sp)
  a4:	4942                	lw	s2,16(sp)
  a6:	49b2                	lw	s3,12(sp)
  a8:	6105                	add	sp,sp,32
  aa:	8082                	ret

Disassembly of section .text.get_rx_tone_pwr:

00000000 <get_rx_tone_pwr>:
   0:	7179                	add	sp,sp,-48
   2:	d606                	sw	ra,44(sp)
   4:	d422                	sw	s0,40(sp)
   6:	d226                	sw	s1,36(sp)
   8:	00000097          	auipc	ra,0x0
   c:	000080e7          	jalr	ra # 8 <get_rx_tone_pwr+0x8>
  10:	4701                	li	a4,0
  12:	4681                	li	a3,0
  14:	4601                	li	a2,0
  16:	85aa                	mv	a1,a0
  18:	4781                	li	a5,0
  1a:	4505                	li	a0,1
  1c:	00000097          	auipc	ra,0x0
  20:	000080e7          	jalr	ra # 1c <get_rx_tone_pwr+0x1c>
  24:	4515                	li	a0,5
  26:	00000097          	auipc	ra,0x0
  2a:	000080e7          	jalr	ra # 26 <get_rx_tone_pwr+0x26>
  2e:	00000437          	lui	s0,0x0
  32:	00042783          	lw	a5,0(s0) # 0 <get_rx_tone_pwr>
  36:	20000593          	li	a1,512
  3a:	4505                	li	a0,1
  3c:	1047a783          	lw	a5,260(a5)
  40:	9782                	jalr	a5
  42:	0848                	add	a0,sp,20
  44:	45a5                	li	a1,9
  46:	00000097          	auipc	ra,0x0
  4a:	000080e7          	jalr	ra # 46 <get_rx_tone_pwr+0x46>
  4e:	00042783          	lw	a5,0(s0)
  52:	4552                	lw	a0,20(sp)
  54:	4581                	li	a1,0
  56:	1187a783          	lw	a5,280(a5)
  5a:	9782                	jalr	a5
  5c:	00042783          	lw	a5,0(s0)
  60:	84aa                	mv	s1,a0
  62:	4562                	lw	a0,24(sp)
  64:	1187a783          	lw	a5,280(a5)
  68:	4581                	li	a1,0
  6a:	9782                	jalr	a5
  6c:	00042783          	lw	a5,0(s0)
  70:	c62a                	sw	a0,12(sp)
  72:	1087a783          	lw	a5,264(a5)
  76:	9782                	jalr	a5
  78:	4505                	li	a0,1
  7a:	00000097          	auipc	ra,0x0
  7e:	000080e7          	jalr	ra # 7a <get_rx_tone_pwr+0x7a>
  82:	4632                	lw	a2,12(sp)
  84:	00000537          	lui	a0,0x0
  88:	85a6                	mv	a1,s1
  8a:	00050513          	mv	a0,a0
  8e:	00000097          	auipc	ra,0x0
  92:	000080e7          	jalr	ra # 8e <get_rx_tone_pwr+0x8e>
  96:	50b2                	lw	ra,44(sp)
  98:	5422                	lw	s0,40(sp)
  9a:	5492                	lw	s1,36(sp)
  9c:	6145                	add	sp,sp,48
  9e:	8082                	ret

Disassembly of section .text.phy_enter_critical:

00000000 <phy_enter_critical>:
   0:	4501                	li	a0,0
   2:	8082                	ret

Disassembly of section .text.phy_exit_critical:

00000000 <phy_exit_critical>:
   0:	8082                	ret

Disassembly of section .text.noise_init_check:

00000000 <noise_init_check>:
   0:	7179                	add	sp,sp,-48
   2:	d422                	sw	s0,40(sp)
   4:	d226                	sw	s1,36(sp)
   6:	d04a                	sw	s2,32(sp)
   8:	ce4e                	sw	s3,28(sp)
   a:	d606                	sw	ra,44(sp)
   c:	89aa                	mv	s3,a0
   e:	4405                	li	s0,1
  10:	00000937          	lui	s2,0x0
  14:	44c1                	li	s1,16

00000016 <.L80>:
  16:	00098a63          	beqz	s3,2a <.L79>
  1a:	01841513          	sll	a0,s0,0x18
  1e:	4581                	li	a1,0
  20:	8561                	sra	a0,a0,0x18
  22:	00000097          	auipc	ra,0x0
  26:	000080e7          	jalr	ra # 22 <.L80+0xc>

0000002a <.L79>:
  2a:	00000097          	auipc	ra,0x0
  2e:	000080e7          	jalr	ra # 2a <.L79>
  32:	c62a                	sw	a0,12(sp)
  34:	00000097          	auipc	ra,0x0
  38:	000080e7          	jalr	ra # 34 <.L79+0xa>
  3c:	c42a                	sw	a0,8(sp)
  3e:	00000097          	auipc	ra,0x0
  42:	000080e7          	jalr	ra # 3e <.L79+0x14>
  46:	4622                	lw	a2,8(sp)
  48:	45b2                	lw	a1,12(sp)
  4a:	0415                	add	s0,s0,5
  4c:	86aa                	mv	a3,a0
  4e:	0ff47413          	zext.b	s0,s0
  52:	00090513          	mv	a0,s2
  56:	00000097          	auipc	ra,0x0
  5a:	000080e7          	jalr	ra # 56 <.L79+0x2c>
  5e:	fa941ce3          	bne	s0,s1,16 <.L80>
  62:	5422                	lw	s0,40(sp)
  64:	50b2                	lw	ra,44(sp)
  66:	5492                	lw	s1,36(sp)
  68:	5902                	lw	s2,32(sp)
  6a:	49f2                	lw	s3,28(sp)
  6c:	00000537          	lui	a0,0x0
  70:	00050513          	mv	a0,a0
  74:	6145                	add	sp,sp,48
  76:	00000317          	auipc	t1,0x0
  7a:	00030067          	jr	t1 # 76 <.L79+0x4c>

Disassembly of section .text.rf_cal_data_clear:

00000000 <rf_cal_data_clear>:
   0:	000007b7          	lui	a5,0x0
   4:	00078793          	mv	a5,a5
   8:	34078713          	add	a4,a5,832 # 340 <.L652+0x20>

0000000c <.L87>:
   c:	0007a023          	sw	zero,0(a5)
  10:	0791                	add	a5,a5,4
  12:	fee79de3          	bne	a5,a4,c <.L87>
  16:	600087b7          	lui	a5,0x60008
  1a:	5bd8                	lw	a4,52(a5)
  1c:	080006b7          	lui	a3,0x8000
  20:	16fd                	add	a3,a3,-1 # 7ffffff <.L836+0x7ffd319>
  22:	8f75                	and	a4,a4,a3
  24:	dbd8                	sw	a4,52(a5)
  26:	4398                	lw	a4,0(a5)
  28:	f7f77713          	and	a4,a4,-129
  2c:	c398                	sw	a4,0(a5)
  2e:	600267b7          	lui	a5,0x60026
  32:	02a00713          	li	a4,42
  36:	08e7ae23          	sw	a4,156(a5) # 6002609c <.L836+0x600233b6>
  3a:	0807ae23          	sw	zero,156(a5)
  3e:	8082                	ret

Disassembly of section .text.rf_cal_flash:

00000000 <rf_cal_flash>:
   0:	ce15                	beqz	a2,3c <.L89>
   2:	e909                	bnez	a0,14 <.L91>
   4:	76600613          	li	a2,1894
   8:	000fc537          	lui	a0,0xfc
   c:	00000317          	auipc	t1,0x0
  10:	00030067          	jr	t1 # c <rf_cal_flash+0xc>

00000014 <.L91>:
  14:	1101                	add	sp,sp,-32
  16:	0fc00513          	li	a0,252
  1a:	ce06                	sw	ra,28(sp)
  1c:	c62e                	sw	a1,12(sp)
  1e:	00000097          	auipc	ra,0x0
  22:	000080e7          	jalr	ra # 1e <.L91+0xa>
  26:	45b2                	lw	a1,12(sp)
  28:	40f2                	lw	ra,28(sp)
  2a:	76600613          	li	a2,1894
  2e:	000fc537          	lui	a0,0xfc
  32:	6105                	add	sp,sp,32
  34:	00000317          	auipc	t1,0x0
  38:	00030067          	jr	t1 # 34 <.L91+0x20>

0000003c <.L89>:
  3c:	8082                	ret

Disassembly of section .text.test_rf_cal_level:

00000000 <test_rf_cal_level>:
   0:	7179                	add	sp,sp,-48
   2:	d606                	sw	ra,44(sp)
   4:	d422                	sw	s0,40(sp)
   6:	d226                	sw	s1,36(sp)
   8:	d04a                	sw	s2,32(sp)
   a:	ce4e                	sw	s3,28(sp)
   c:	cc52                	sw	s4,24(sp)
   e:	ca56                	sw	s5,20(sp)
  10:	892a                	mv	s2,a0
  12:	81010113          	add	sp,sp,-2032
  16:	84ae                	mv	s1,a1
  18:	4501                	li	a0,0
  1a:	4581                	li	a1,0
  1c:	00000097          	auipc	ra,0x0
  20:	000080e7          	jalr	ra # 1c <test_rf_cal_level+0x1c>
  24:	6985                	lui	s3,0x1
  26:	80098613          	add	a2,s3,-2048 # 800 <.LC207+0x24>
  2a:	858a                	mv	a1,sp
  2c:	8526                	mv	a0,s1
  2e:	00000097          	auipc	ra,0x0
  32:	000080e7          	jalr	ra # 2e <test_rf_cal_level+0x2e>
  36:	00000537          	lui	a0,0x0
  3a:	000007b7          	lui	a5,0x0
  3e:	60035a37          	lui	s4,0x60035
  42:	864a                	mv	a2,s2
  44:	858a                	mv	a1,sp
  46:	00050513          	mv	a0,a0
  4a:	000a2a83          	lw	s5,0(s4) # 60035000 <.L836+0x6003231a>
  4e:	0e0782a3          	sb	zero,229(a5) # e5 <.L589+0x1>
  52:	00000097          	auipc	ra,0x0
  56:	000080e7          	jalr	ra # 52 <test_rf_cal_level+0x52>
  5a:	000a2583          	lw	a1,0(s4)
  5e:	0ff57693          	zext.b	a3,a0
  62:	842a                	mv	s0,a0
  64:	00000537          	lui	a0,0x0
  68:	864a                	mv	a2,s2
  6a:	415585b3          	sub	a1,a1,s5
  6e:	00050513          	mv	a0,a0
  72:	00000097          	auipc	ra,0x0
  76:	000080e7          	jalr	ra # 72 <test_rf_cal_level+0x72>
  7a:	4785                	li	a5,1
  7c:	02f90363          	beq	s2,a5,a2 <.L94>
  80:	0ff47413          	zext.b	s0,s0
  84:	cc19                	beqz	s0,a2 <.L94>
  86:	00c4d513          	srl	a0,s1,0xc
  8a:	00000097          	auipc	ra,0x0
  8e:	000080e7          	jalr	ra # 8a <test_rf_cal_level+0x8a>
  92:	80098613          	add	a2,s3,-2048
  96:	858a                	mv	a1,sp
  98:	8526                	mv	a0,s1
  9a:	00000097          	auipc	ra,0x0
  9e:	000080e7          	jalr	ra # 9a <test_rf_cal_level+0x9a>

000000a2 <.L94>:
  a2:	7f010113          	add	sp,sp,2032
  a6:	50b2                	lw	ra,44(sp)
  a8:	5422                	lw	s0,40(sp)
  aa:	5492                	lw	s1,36(sp)
  ac:	5902                	lw	s2,32(sp)
  ae:	49f2                	lw	s3,28(sp)
  b0:	4a62                	lw	s4,24(sp)
  b2:	4ad2                	lw	s5,20(sp)
  b4:	6145                	add	sp,sp,48
  b6:	8082                	ret

Disassembly of section .text.esp_wr_cal_data:

00000000 <esp_wr_cal_data>:
   0:	7179                	add	sp,sp,-48
   2:	6785                	lui	a5,0x1
   4:	d422                	sw	s0,40(sp)
   6:	d226                	sw	s1,36(sp)
   8:	d04a                	sw	s2,32(sp)
   a:	d606                	sw	ra,44(sp)
   c:	747d                	lui	s0,0xfffff
   e:	81010113          	add	sp,sp,-2032
  12:	81078793          	add	a5,a5,-2032 # 810 <.L676+0x4>
  16:	978a                	add	a5,a5,sp
  18:	7f840413          	add	s0,s0,2040 # fffff7f8 <.L836+0xffffcb12>
  1c:	943e                	add	s0,s0,a5
  1e:	892a                	mv	s2,a0
  20:	8522                	mv	a0,s0
  22:	00000097          	auipc	ra,0x0
  26:	000080e7          	jalr	ra # 22 <esp_wr_cal_data+0x22>
  2a:	0818                	add	a4,sp,16
  2c:	4781                	li	a5,0
  2e:	84ba                	mv	s1,a4
  30:	4699                	li	a3,6

00000032 <.L101>:
  32:	00f40633          	add	a2,s0,a5
  36:	00064603          	lbu	a2,0(a2)
  3a:	0785                	add	a5,a5,1
  3c:	0705                	add	a4,a4,1
  3e:	00c701a3          	sb	a2,3(a4)
  42:	fed798e3          	bne	a5,a3,32 <.L101>
  46:	8526                	mv	a0,s1
  48:	00000097          	auipc	ra,0x0
  4c:	000080e7          	jalr	ra # 48 <.L101+0x16>
  50:	00000097          	auipc	ra,0x0
  54:	000080e7          	jalr	ra # 50 <.L101+0x1e>
  58:	00000637          	lui	a2,0x0
  5c:	86aa                	mv	a3,a0
  5e:	85a6                	mv	a1,s1
  60:	00060613          	mv	a2,a2
  64:	4501                	li	a0,0
  66:	00000097          	auipc	ra,0x0
  6a:	000080e7          	jalr	ra # 66 <.L101+0x34>
  6e:	00c95513          	srl	a0,s2,0xc
  72:	00000097          	auipc	ra,0x0
  76:	000080e7          	jalr	ra # 72 <.L101+0x40>
  7a:	6605                	lui	a2,0x1
  7c:	85a6                	mv	a1,s1
  7e:	854a                	mv	a0,s2
  80:	80060613          	add	a2,a2,-2048 # 800 <.LC207+0x24>
  84:	00000097          	auipc	ra,0x0
  88:	000080e7          	jalr	ra # 84 <.L101+0x52>
  8c:	00000537          	lui	a0,0x0
  90:	00050513          	mv	a0,a0
  94:	00000097          	auipc	ra,0x0
  98:	000080e7          	jalr	ra # 94 <.L101+0x62>
  9c:	7f010113          	add	sp,sp,2032
  a0:	50b2                	lw	ra,44(sp)
  a2:	5422                	lw	s0,40(sp)
  a4:	5492                	lw	s1,36(sp)
  a6:	5902                	lw	s2,32(sp)
  a8:	6145                	add	sp,sp,48
  aa:	8082                	ret

Disassembly of section .text.esp_set_bt_correct:

00000000 <esp_set_bt_correct>:
   0:	7179                	add	sp,sp,-48
   2:	d422                	sw	s0,40(sp)
   4:	00000437          	lui	s0,0x0
   8:	d226                	sw	s1,36(sp)
   a:	00040713          	mv	a4,s0
   e:	d606                	sw	ra,44(sp)
  10:	84aa                	mv	s1,a0
  12:	00b10e23          	sb	a1,28(sp)
  16:	00b10ea3          	sb	a1,29(sp)
  1a:	00b10f23          	sb	a1,30(sp)
  1e:	4781                	li	a5,0
  20:	00040413          	mv	s0,s0
  24:	460d                	li	a2,3

00000026 <.L105>:
  26:	17970683          	lb	a3,377(a4)
  2a:	0828                	add	a0,sp,24
  2c:	953e                	add	a0,a0,a5
  2e:	00d50023          	sb	a3,0(a0) # 0 <esp_set_bt_correct>
  32:	0868                	add	a0,sp,28
  34:	953e                	add	a0,a0,a5
  36:	00054503          	lbu	a0,0(a0)
  3a:	0785                	add	a5,a5,1
  3c:	0705                	add	a4,a4,1
  3e:	96aa                	add	a3,a3,a0
  40:	16d70c23          	sb	a3,376(a4)
  44:	fec791e3          	bne	a5,a2,26 <.L105>
  48:	4501                	li	a0,0
  4a:	c62e                	sw	a1,12(sp)
  4c:	00000097          	auipc	ra,0x0
  50:	000080e7          	jalr	ra # 4c <.L105+0x26>
  54:	00000537          	lui	a0,0x0
  58:	17950513          	add	a0,a0,377 # 179 <.L428+0x1>
  5c:	00000097          	auipc	ra,0x0
  60:	000080e7          	jalr	ra # 5c <.L105+0x36>
  64:	94a2                	add	s1,s1,s0
  66:	17c40683          	lb	a3,380(s0) # 17c <.LC106>
  6a:	17948603          	lb	a2,377(s1)
  6e:	45b2                	lw	a1,12(sp)
  70:	00000537          	lui	a0,0x0
  74:	00050513          	mv	a0,a0
  78:	00000097          	auipc	ra,0x0
  7c:	000080e7          	jalr	ra # 78 <.L105+0x52>
  80:	01814783          	lbu	a5,24(sp)
  84:	50b2                	lw	ra,44(sp)
  86:	5492                	lw	s1,36(sp)
  88:	16f40ca3          	sb	a5,377(s0)
  8c:	01914783          	lbu	a5,25(sp)
  90:	16f40d23          	sb	a5,378(s0)
  94:	01a14783          	lbu	a5,26(sp)
  98:	16f40da3          	sb	a5,379(s0)
  9c:	5422                	lw	s0,40(sp)
  9e:	6145                	add	sp,sp,48
  a0:	8082                	ret

Disassembly of section .text.esp_set_wifi_index:

00000000 <esp_set_wifi_index>:
   0:	1101                	add	sp,sp,-32
   2:	cc22                	sw	s0,24(sp)
   4:	00000437          	lui	s0,0x0
   8:	00040793          	mv	a5,s0
   c:	ce06                	sw	ra,28(sp)
   e:	872a                	mv	a4,a0
  10:	00e78693          	add	a3,a5,14
  14:	00040413          	mv	s0,s0

00000018 <.L109>:
  18:	0ee78a23          	sb	a4,244(a5)
  1c:	0785                	add	a5,a5,1
  1e:	fef69de3          	bne	a3,a5,18 <.L109>
  22:	03000793          	li	a5,48
  26:	16f40aa3          	sb	a5,373(s0) # 175 <.L298+0x1>
  2a:	1f244503          	lbu	a0,498(s0)
  2e:	47a1                	li	a5,8
  30:	16f407a3          	sb	a5,367(s0)
  34:	6785                	lui	a5,0x1
  36:	80878793          	add	a5,a5,-2040 # 808 <.LC208>
  3a:	4581                	li	a1,0
  3c:	c63a                	sw	a4,12(sp)
  3e:	16f41823          	sh	a5,368(s0)
  42:	00000097          	auipc	ra,0x0
  46:	000080e7          	jalr	ra # 42 <.L109+0x2a>
  4a:	1ba40683          	lb	a3,442(s0)
  4e:	1c845603          	lhu	a2,456(s0)
  52:	1e444583          	lbu	a1,484(s0)
  56:	4462                	lw	s0,24(sp)
  58:	4732                	lw	a4,12(sp)
  5a:	40f2                	lw	ra,28(sp)
  5c:	00000537          	lui	a0,0x0
  60:	00050513          	mv	a0,a0
  64:	6105                	add	sp,sp,32
  66:	00000317          	auipc	t1,0x0
  6a:	00030067          	jr	t1 # 66 <.L109+0x4e>

Disassembly of section .text.esp_set_wifi_cali_data:

00000000 <esp_set_wifi_cali_data>:
   0:	000007b7          	lui	a5,0x0
   4:	1141                	add	sp,sp,-16
   6:	c422                	sw	s0,8(sp)
   8:	c226                	sw	s1,4(sp)
   a:	00078693          	mv	a3,a5
   e:	c606                	sw	ra,12(sp)
  10:	4110                	lw	a2,0(a0)
  12:	2046c703          	lbu	a4,516(a3)
  16:	00078493          	mv	s1,a5
  1a:	8a3d                	and	a2,a2,15
  1c:	9b41                	and	a4,a4,-16
  1e:	8f51                	or	a4,a4,a2
  20:	20e68223          	sb	a4,516(a3)
  24:	4150                	lw	a2,4(a0)
  26:	00078413          	mv	s0,a5
  2a:	20c682a3          	sb	a2,517(a3)
  2e:	00850693          	add	a3,a0,8 # 8 <esp_set_wifi_cali_data+0x8>
  32:	00078613          	mv	a2,a5
  36:	02050513          	add	a0,a0,32

0000003a <.L113>:
  3a:	429c                	lw	a5,0(a3)
  3c:	0691                	add	a3,a3,4
  3e:	0605                	add	a2,a2,1
  40:	20f602a3          	sb	a5,517(a2)
  44:	fea69be3          	bne	a3,a0,3a <.L113>
  48:	8b3d                	and	a4,a4,15
  4a:	4785                	li	a5,1
  4c:	00f71a63          	bne	a4,a5,60 <.L114>
  50:	00000097          	auipc	ra,0x0
  54:	000080e7          	jalr	ra # 50 <.L113+0x16>
  58:	09245783          	lhu	a5,146(s0)
  5c:	20f41623          	sh	a5,524(s0)

00000060 <.L114>:
  60:	20544783          	lbu	a5,517(s0)
  64:	4735                	li	a4,13
  66:	00f7f693          	and	a3,a5,15
  6a:	00d76663          	bltu	a4,a3,76 <.L115>
  6e:	8391                	srl	a5,a5,0x4
  70:	4501                	li	a0,0
  72:	00f77c63          	bgeu	a4,a5,8a <.L116>

00000076 <.L115>:
  76:	00000537          	lui	a0,0x0
  7a:	4585                	li	a1,1
  7c:	00050513          	mv	a0,a0
  80:	00000097          	auipc	ra,0x0
  84:	000080e7          	jalr	ra # 80 <.L115+0xa>
  88:	4505                	li	a0,1

0000008a <.L116>:
  8a:	00648713          	add	a4,s1,6
  8e:	0c800693          	li	a3,200

00000092 <.L119>:
  92:	2064c783          	lbu	a5,518(s1)
  96:	06478793          	add	a5,a5,100 # 64 <.L114+0x4>
  9a:	0ff7f793          	zext.b	a5,a5
  9e:	02f6f163          	bgeu	a3,a5,c0 <.L117>
  a2:	00000537          	lui	a0,0x0
  a6:	4589                	li	a1,2
  a8:	00050513          	mv	a0,a0
  ac:	00000097          	auipc	ra,0x0
  b0:	000080e7          	jalr	ra # ac <.L119+0x1a>
  b4:	4509                	li	a0,2

000000b6 <.L118>:
  b6:	40b2                	lw	ra,12(sp)
  b8:	4422                	lw	s0,8(sp)
  ba:	4492                	lw	s1,4(sp)
  bc:	0141                	add	sp,sp,16
  be:	8082                	ret

000000c0 <.L117>:
  c0:	0485                	add	s1,s1,1
  c2:	fc9718e3          	bne	a4,s1,92 <.L119>
  c6:	bfc5                	j	b6 <.L118>

Disassembly of section .text.esp_set_bt_cali_data:

00000000 <esp_set_bt_cali_data>:
   0:	1141                	add	sp,sp,-16
   2:	c422                	sw	s0,8(sp)
   4:	00000437          	lui	s0,0x0
   8:	00040713          	mv	a4,s0
   c:	c606                	sw	ra,12(sp)
   e:	4114                	lw	a3,0(a0)
  10:	20474783          	lbu	a5,516(a4)
  14:	00040413          	mv	s0,s0
  18:	0692                	sll	a3,a3,0x4
  1a:	8bbd                	and	a5,a5,15
  1c:	8fd5                	or	a5,a5,a3
  1e:	0ff7f793          	zext.b	a5,a5
  22:	20f70223          	sb	a5,516(a4)
  26:	4154                	lw	a3,4(a0)
  28:	0f07f793          	and	a5,a5,240
  2c:	16d70e23          	sb	a3,380(a4)
  30:	4514                	lw	a3,8(a0)
  32:	16d70ca3          	sb	a3,377(a4)
  36:	4554                	lw	a3,12(a0)
  38:	16d70d23          	sb	a3,378(a4)
  3c:	4914                	lw	a3,16(a0)
  3e:	16d70da3          	sb	a3,379(a4)
  42:	4741                	li	a4,16
  44:	00e79a63          	bne	a5,a4,58 <.L125>
  48:	00000097          	auipc	ra,0x0
  4c:	000080e7          	jalr	ra # 48 <esp_set_bt_cali_data+0x48>
  50:	09245783          	lhu	a5,146(s0) # 92 <.L119>
  54:	20f41723          	sh	a5,526(s0)

00000058 <.L125>:
  58:	17944703          	lbu	a4,377(s0)
  5c:	02800793          	li	a5,40
  60:	00e7eb63          	bltu	a5,a4,76 <.L126>
  64:	17a44703          	lbu	a4,378(s0)
  68:	00e7e763          	bltu	a5,a4,76 <.L126>
  6c:	17b44703          	lbu	a4,379(s0)
  70:	4501                	li	a0,0
  72:	00e7fc63          	bgeu	a5,a4,8a <.L127>

00000076 <.L126>:
  76:	00000537          	lui	a0,0x0
  7a:	4585                	li	a1,1
  7c:	00050513          	mv	a0,a0
  80:	00000097          	auipc	ra,0x0
  84:	000080e7          	jalr	ra # 80 <.L126+0xa>
  88:	4505                	li	a0,1

0000008a <.L127>:
  8a:	40b2                	lw	ra,12(sp)
  8c:	4422                	lw	s0,8(sp)
  8e:	0141                	add	sp,sp,16
  90:	8082                	ret

Disassembly of section .text.esp_wr_efuse_data:

00000000 <esp_wr_efuse_data>:
   0:	711d                	add	sp,sp,-96
   2:	caa6                	sw	s1,84(sp)
   4:	02000613          	li	a2,32
   8:	4581                	li	a1,0
   a:	84aa                	mv	s1,a0
   c:	850a                	mv	a0,sp
   e:	ce86                	sw	ra,92(sp)
  10:	cca2                	sw	s0,88(sp)
  12:	c8ca                	sw	s2,80(sp)
  14:	c6ce                	sw	s3,76(sp)
  16:	00000097          	auipc	ra,0x0
  1a:	000080e7          	jalr	ra # 16 <esp_wr_efuse_data+0x16>
  1e:	02000613          	li	a2,32
  22:	4581                	li	a1,0
  24:	1008                	add	a0,sp,32
  26:	00000097          	auipc	ra,0x0
  2a:	000080e7          	jalr	ra # 26 <esp_wr_efuse_data+0x26>
  2e:	000007b7          	lui	a5,0x0
  32:	00078713          	mv	a4,a5
  36:	20474683          	lbu	a3,516(a4)
  3a:	4605                	li	a2,1
  3c:	00d10023          	sb	a3,0(sp)
  40:	00f6f593          	and	a1,a3,15
  44:	04c59463          	bne	a1,a2,8c <.L131>
  48:	20574603          	lbu	a2,517(a4)
  4c:	858a                	mv	a1,sp
  4e:	00670813          	add	a6,a4,6
  52:	00c100a3          	sb	a2,1(sp)
  56:	850a                	mv	a0,sp
  58:	00078613          	mv	a2,a5
  5c:	00078793          	mv	a5,a5

00000060 <.L132>:
  60:	2067c883          	lbu	a7,518(a5) # 206 <.L515+0x2>
  64:	0785                	add	a5,a5,1
  66:	0505                	add	a0,a0,1 # 1 <esp_wr_efuse_data+0x1>
  68:	011500a3          	sb	a7,1(a0)
  6c:	fef81ae3          	bne	a6,a5,60 <.L132>
  70:	20c75783          	lhu	a5,524(a4)
  74:	00f11623          	sh	a5,12(sp)
  78:	00970793          	add	a5,a4,9

0000007c <.L133>:
  7c:	15864503          	lbu	a0,344(a2)
  80:	0605                	add	a2,a2,1
  82:	0585                	add	a1,a1,1
  84:	00a587a3          	sb	a0,15(a1)
  88:	fec79ae3          	bne	a5,a2,7c <.L133>

0000008c <.L131>:
  8c:	0f06f693          	and	a3,a3,240
  90:	47c1                	li	a5,16
  92:	02f69263          	bne	a3,a5,b6 <.L134>
  96:	17c74783          	lbu	a5,380(a4)
  9a:	00f10423          	sb	a5,8(sp)
  9e:	17974783          	lbu	a5,377(a4)
  a2:	00f104a3          	sb	a5,9(sp)
  a6:	17a75783          	lhu	a5,378(a4)
  aa:	00f11523          	sh	a5,10(sp)
  ae:	20e75783          	lhu	a5,526(a4)
  b2:	00f11723          	sh	a5,14(sp)

000000b6 <.L134>:
  b6:	60009737          	lui	a4,0x60009
  ba:	60009437          	lui	s0,0x60009
  be:	868a                	mv	a3,sp
  c0:	80070713          	add	a4,a4,-2048 # 60008800 <.L836+0x60005b1a>
  c4:	82040593          	add	a1,s0,-2016 # 60008820 <.L836+0x60005b3a>

000000c8 <.L135>:
  c8:	0036c783          	lbu	a5,3(a3)
  cc:	0026c603          	lbu	a2,2(a3)
  d0:	0711                	add	a4,a4,4
  d2:	07e2                	sll	a5,a5,0x18
  d4:	0642                	sll	a2,a2,0x10
  d6:	8fd1                	or	a5,a5,a2
  d8:	0006c603          	lbu	a2,0(a3)
  dc:	0691                	add	a3,a3,4
  de:	8fd1                	or	a5,a5,a2
  e0:	ffd6c603          	lbu	a2,-3(a3)
  e4:	0622                	sll	a2,a2,0x8
  e6:	8fd1                	or	a5,a5,a2
  e8:	fef72e23          	sw	a5,-4(a4)
  ec:	fcb71ee3          	bne	a4,a1,c8 <.L135>
  f0:	00000097          	auipc	ra,0x0
  f4:	000080e7          	jalr	ra # f0 <.L135+0x28>
  f8:	600096b7          	lui	a3,0x60009
  fc:	1018                	add	a4,sp,32
  fe:	95c40793          	add	a5,s0,-1700
 102:	97c68693          	add	a3,a3,-1668 # 6000897c <.L836+0x60005c96>

00000106 <.L136>:
 106:	4390                	lw	a2,0(a5)
 108:	0791                	add	a5,a5,4
 10a:	0711                	add	a4,a4,4
 10c:	fec70e23          	sb	a2,-4(a4)
 110:	ffc7a603          	lw	a2,-4(a5)
 114:	8221                	srl	a2,a2,0x8
 116:	fec70ea3          	sb	a2,-3(a4)
 11a:	ffc7a603          	lw	a2,-4(a5)
 11e:	8241                	srl	a2,a2,0x10
 120:	fec70f23          	sb	a2,-2(a4)
 124:	ffc7a603          	lw	a2,-4(a5)
 128:	8261                	srl	a2,a2,0x18
 12a:	fec70fa3          	sb	a2,-1(a4)
 12e:	fcd79ce3          	bne	a5,a3,106 <.L136>
 132:	4781                	li	a5,0
 134:	4901                	li	s2,0
 136:	02000693          	li	a3,32

0000013a <.L137>:
 13a:	1010                	add	a2,sp,32
 13c:	00f10733          	add	a4,sp,a5
 140:	963e                	add	a2,a2,a5
 142:	00074703          	lbu	a4,0(a4)
 146:	00064603          	lbu	a2,0(a2)
 14a:	0785                	add	a5,a5,1
 14c:	8f11                	sub	a4,a4,a2
 14e:	00e03733          	snez	a4,a4
 152:	00e96933          	or	s2,s2,a4
 156:	fed792e3          	bne	a5,a3,13a <.L137>
 15a:	4785                	li	a5,1
 15c:	02f49a63          	bne	s1,a5,190 <.L138>
 160:	4401                	li	s0,0
 162:	000009b7          	lui	s3,0x0
 166:	02000493          	li	s1,32

0000016a <.L139>:
 16a:	101c                	add	a5,sp,32
 16c:	00878733          	add	a4,a5,s0
 170:	008107b3          	add	a5,sp,s0
 174:	00074683          	lbu	a3,0(a4)
 178:	0007c603          	lbu	a2,0(a5)
 17c:	85a2                	mv	a1,s0
 17e:	00098513          	mv	a0,s3
 182:	0405                	add	s0,s0,1
 184:	00000097          	auipc	ra,0x0
 188:	000080e7          	jalr	ra # 184 <.L139+0x1a>
 18c:	fc941fe3          	bne	s0,s1,16a <.L139>

00000190 <.L138>:
 190:	02091163          	bnez	s2,1b2 <.L140>
 194:	00000537          	lui	a0,0x0
 198:	4581                	li	a1,0
 19a:	00050513          	mv	a0,a0

0000019e <.L148>:
 19e:	4466                	lw	s0,88(sp)
 1a0:	40f6                	lw	ra,92(sp)
 1a2:	44d6                	lw	s1,84(sp)
 1a4:	4946                	lw	s2,80(sp)
 1a6:	49b6                	lw	s3,76(sp)
 1a8:	6125                	add	sp,sp,96
 1aa:	00000317          	auipc	t1,0x0
 1ae:	00030067          	jr	t1 # 1aa <.L148+0xc>

000001b2 <.L140>:
 1b2:	00000537          	lui	a0,0x0
 1b6:	4585                	li	a1,1
 1b8:	00050513          	mv	a0,a0
 1bc:	b7cd                	j	19e <.L148>

Disassembly of section .text.timers_wdt_init:

00000000 <timers_wdt_init>:
   0:	7179                	add	sp,sp,-48
   2:	01c15783          	lhu	a5,28(sp)
   6:	d606                	sw	ra,44(sp)
   8:	d422                	sw	s0,40(sp)
   a:	0c07f793          	and	a5,a5,192
   e:	73f7e793          	or	a5,a5,1855
  12:	d226                	sw	s1,36(sp)
  14:	00f11e23          	sh	a5,28(sp)
  18:	84ae                	mv	s1,a1
  1a:	842a                	mv	s0,a0
  1c:	c632                	sw	a2,12(sp)
  1e:	00000097          	auipc	ra,0x0
  22:	000080e7          	jalr	ra # 1e <timers_wdt_init+0x1e>
  26:	4632                	lw	a2,12(sp)
  28:	0ff47413          	zext.b	s0,s0
  2c:	8522                	mv	a0,s0
  2e:	85b2                	mv	a1,a2
  30:	00000097          	auipc	ra,0x0
  34:	000080e7          	jalr	ra # 30 <timers_wdt_init+0x30>
  38:	8522                	mv	a0,s0
  3a:	0ff4f593          	zext.b	a1,s1
  3e:	00000097          	auipc	ra,0x0
  42:	000080e7          	jalr	ra # 3e <timers_wdt_init+0x3e>
  46:	5422                	lw	s0,40(sp)
  48:	4572                	lw	a0,28(sp)
  4a:	50b2                	lw	ra,44(sp)
  4c:	5492                	lw	s1,36(sp)
  4e:	6145                	add	sp,sp,48
  50:	00000317          	auipc	t1,0x0
  54:	00030067          	jr	t1 # 50 <timers_wdt_init+0x50>

Disassembly of section .text.burnin_rtc_init:

00000000 <burnin_rtc_init>:
   0:	600087b7          	lui	a5,0x60008
   4:	5f98                	lw	a4,56(a5)
   6:	4f94                	lw	a3,24(a5)
   8:	e0000637          	lui	a2,0xe0000
   c:	1141                	add	sp,sp,-16
   e:	167d                	add	a2,a2,-1 # dfffffff <.L836+0xdfffd319>
  10:	8ef1                	and	a3,a3,a2
  12:	c606                	sw	ra,12(sp)
  14:	03f77713          	and	a4,a4,63
  18:	cf94                	sw	a3,24(a5)
  1a:	1765                	add	a4,a4,-7
  1c:	4689                	li	a3,2
  1e:	00e6e563          	bltu	a3,a4,28 <.L152>
  22:	4bb8                	lw	a4,80(a5)
  24:	0705                	add	a4,a4,1
  26:	cbb8                	sw	a4,80(a5)

00000028 <.L152>:
  28:	00040637          	lui	a2,0x40
  2c:	458d                	li	a1,3
  2e:	4501                	li	a0,0
  30:	00000097          	auipc	ra,0x0
  34:	000080e7          	jalr	ra # 30 <.L152+0x8>
  38:	40b2                	lw	ra,12(sp)
  3a:	600347b7          	lui	a5,0x60034
  3e:	d007a223          	sw	zero,-764(a5) # 60033d04 <.L836+0x6003101e>
  42:	0141                	add	sp,sp,16
  44:	8082                	ret

Disassembly of section .text.init_param_read:

00000000 <init_param_read>:
   0:	7175                	add	sp,sp,-144
   2:	4581                	li	a1,0
   4:	4501                	li	a0,0
   6:	c706                	sw	ra,140(sp)
   8:	c522                	sw	s0,136(sp)
   a:	00000097          	auipc	ra,0x0
   e:	000080e7          	jalr	ra # a <init_param_read+0xa>
  12:	08000613          	li	a2,128
  16:	858a                	mv	a1,sp
  18:	00060537          	lui	a0,0x60
  1c:	00000097          	auipc	ra,0x0
  20:	000080e7          	jalr	ra # 1c <init_param_read+0x1c>
  24:	4701                	li	a4,0
  26:	4781                	li	a5,0
  28:	05a00613          	li	a2,90
  2c:	46c1                	li	a3,16

0000002e <.L156>:
  2e:	00e105b3          	add	a1,sp,a4
  32:	0005c583          	lbu	a1,0(a1)
  36:	00c59563          	bne	a1,a2,40 <.L155>
  3a:	0785                	add	a5,a5,1
  3c:	0ff7f793          	zext.b	a5,a5

00000040 <.L155>:
  40:	0705                	add	a4,a4,1
  42:	fed716e3          	bne	a4,a3,2e <.L156>
  46:	ff078413          	add	s0,a5,-16
  4a:	00143413          	seqz	s0,s0
  4e:	04e79a63          	bne	a5,a4,a2 <.L157>
  52:	00000537          	lui	a0,0x0
  56:	00050513          	mv	a0,a0
  5a:	00000097          	auipc	ra,0x0
  5e:	000080e7          	jalr	ra # 5a <.L155+0x1a>
  62:	46c2                	lw	a3,16(sp)
  64:	00000737          	lui	a4,0x0
  68:	00070793          	mv	a5,a4
  6c:	d7d4                	sw	a3,44(a5)
  6e:	01415683          	lhu	a3,20(sp)
  72:	0850                	add	a2,sp,20
  74:	02d79823          	sh	a3,48(a5)
  78:	00070693          	mv	a3,a4
  7c:	878a                	mv	a5,sp
  7e:	00070713          	mv	a4,a4

00000082 <.L158>:
  82:	0167c583          	lbu	a1,22(a5)
  86:	0785                	add	a5,a5,1
  88:	0685                	add	a3,a3,1
  8a:	02b68e23          	sb	a1,60(a3)
  8e:	fec79ae3          	bne	a5,a2,82 <.L158>
  92:	02a14783          	lbu	a5,42(sp)
  96:	06f704a3          	sb	a5,105(a4) # 69 <.L155+0x29>
  9a:	02b14783          	lbu	a5,43(sp)
  9e:	06f70523          	sb	a5,106(a4)

000000a2 <.L157>:
  a2:	8522                	mv	a0,s0
  a4:	40ba                	lw	ra,140(sp)
  a6:	442a                	lw	s0,136(sp)
  a8:	6149                	add	sp,sp,144
  aa:	8082                	ret

Disassembly of section .text.flash_init_param_print:

00000000 <flash_init_param_print>:
   0:	cd69                	beqz	a0,da <.L180>
   2:	1101                	add	sp,sp,-32
   4:	cc22                	sw	s0,24(sp)
   6:	00000437          	lui	s0,0x0
   a:	ca26                	sw	s1,20(sp)
   c:	c84a                	sw	s2,16(sp)
   e:	c64e                	sw	s3,12(sp)
  10:	c452                	sw	s4,8(sp)
  12:	c256                	sw	s5,4(sp)
  14:	00040993          	mv	s3,s0
  18:	00040913          	mv	s2,s0
  1c:	ce06                	sw	ra,28(sp)
  1e:	4481                	li	s1,0
  20:	00040413          	mv	s0,s0
  24:	00000ab7          	lui	s5,0x0
  28:	4a39                	li	s4,14

0000002a <.L165>:
  2a:	0f490603          	lb	a2,244(s2) # f4 <.L275>
  2e:	85a6                	mv	a1,s1
  30:	000a8513          	mv	a0,s5
  34:	0485                	add	s1,s1,1
  36:	00000097          	auipc	ra,0x0
  3a:	000080e7          	jalr	ra # 36 <.L165+0xc>
  3e:	0905                	add	s2,s2,1
  40:	ff4495e3          	bne	s1,s4,2a <.L165>
  44:	10444783          	lbu	a5,260(s0) # 104 <.LC94+0x4>
  48:	cbb9                	beqz	a5,9e <.L166>
  4a:	00000937          	lui	s2,0x0
  4e:	4481                	li	s1,0
  50:	00090913          	mv	s2,s2
  54:	00000ab7          	lui	s5,0x0
  58:	02a00a13          	li	s4,42

0000005c <.L167>:
  5c:	012487b3          	add	a5,s1,s2
  60:	0007c603          	lbu	a2,0(a5)
  64:	85a6                	mv	a1,s1
  66:	000a8513          	mv	a0,s5
  6a:	8209                	srl	a2,a2,0x2
  6c:	0485                	add	s1,s1,1
  6e:	00000097          	auipc	ra,0x0
  72:	000080e7          	jalr	ra # 6e <.L167+0x12>
  76:	ff4493e3          	bne	s1,s4,5c <.L167>
  7a:	4481                	li	s1,0
  7c:	00000a37          	lui	s4,0x0
  80:	4925                	li	s2,9

00000082 <.L168>:
  82:	1059c603          	lbu	a2,261(s3) # 105 <.LC94+0x5>
  86:	85a6                	mv	a1,s1
  88:	000a0513          	mv	a0,s4
  8c:	8209                	srl	a2,a2,0x2
  8e:	0485                	add	s1,s1,1
  90:	00000097          	auipc	ra,0x0
  94:	000080e7          	jalr	ra # 90 <.L168+0xe>
  98:	0985                	add	s3,s3,1
  9a:	ff2494e3          	bne	s1,s2,82 <.L168>

0000009e <.L166>:
  9e:	11e44783          	lbu	a5,286(s0)
  a2:	c39d                	beqz	a5,c8 <.L162>
  a4:	11f40583          	lb	a1,287(s0)
  a8:	4462                	lw	s0,24(sp)
  aa:	40f2                	lw	ra,28(sp)
  ac:	44d2                	lw	s1,20(sp)
  ae:	4942                	lw	s2,16(sp)
  b0:	49b2                	lw	s3,12(sp)
  b2:	4a22                	lw	s4,8(sp)
  b4:	4a92                	lw	s5,4(sp)
  b6:	00000537          	lui	a0,0x0
  ba:	00050513          	mv	a0,a0
  be:	6105                	add	sp,sp,32
  c0:	00000317          	auipc	t1,0x0
  c4:	00030067          	jr	t1 # c0 <.L166+0x22>

000000c8 <.L162>:
  c8:	40f2                	lw	ra,28(sp)
  ca:	4462                	lw	s0,24(sp)
  cc:	44d2                	lw	s1,20(sp)
  ce:	4942                	lw	s2,16(sp)
  d0:	49b2                	lw	s3,12(sp)
  d2:	4a22                	lw	s4,8(sp)
  d4:	4a92                	lw	s5,4(sp)
  d6:	6105                	add	sp,sp,32
  d8:	8082                	ret

000000da <.L180>:
  da:	8082                	ret

Disassembly of section .text.init_param_chg:

00000000 <init_param_chg>:
   0:	8082                	ret

Disassembly of section .text.phy_init:

00000000 <phy_init>:
   0:	88010113          	add	sp,sp,-1920
   4:	000007b7          	lui	a5,0x0
   8:	76812c23          	sw	s0,1912(sp)
   c:	00078793          	mv	a5,a5
  10:	76112e23          	sw	ra,1916(sp)
  14:	1207a023          	sw	zero,288(a5) # 120 <.L421>
  18:	0e0782a3          	sb	zero,229(a5)
  1c:	600047b7          	lui	a5,0x60004
  20:	5f98                	lw	a4,56(a5)
  22:	47b1                	li	a5,12
  24:	4401                	li	s0,0
  26:	00f71763          	bne	a4,a5,34 <.L185>
  2a:	00000097          	auipc	ra,0x0
  2e:	000080e7          	jalr	ra # 2a <phy_init+0x2a>
  32:	842a                	mv	s0,a0

00000034 <.L185>:
  34:	00000537          	lui	a0,0x0
  38:	002c                	add	a1,sp,8
  3a:	4609                	li	a2,2
  3c:	00050513          	mv	a0,a0
  40:	00000097          	auipc	ra,0x0
  44:	000080e7          	jalr	ra # 40 <.L185+0xc>
  48:	8522                	mv	a0,s0
  4a:	00000097          	auipc	ra,0x0
  4e:	000080e7          	jalr	ra # 4a <.L185+0x16>
  52:	77c12083          	lw	ra,1916(sp)
  56:	77812403          	lw	s0,1912(sp)
  5a:	78010113          	add	sp,sp,1920
  5e:	8082                	ret

Disassembly of section .text.burnin_test_func:

00000000 <burnin_test_func>:
   0:	711d                	add	sp,sp,-96
   2:	4529                	li	a0,10
   4:	ce86                	sw	ra,92(sp)
   6:	cca2                	sw	s0,88(sp)
   8:	caa6                	sw	s1,84(sp)
   a:	c8ca                	sw	s2,80(sp)
   c:	c6ce                	sw	s3,76(sp)
   e:	c4d2                	sw	s4,72(sp)
  10:	c2d6                	sw	s5,68(sp)
  12:	c0da                	sw	s6,64(sp)
  14:	de5e                	sw	s7,60(sp)
  16:	dc62                	sw	s8,56(sp)
  18:	00010ea3          	sb	zero,29(sp)
  1c:	00000097          	auipc	ra,0x0
  20:	000080e7          	jalr	ra # 1c <burnin_test_func+0x1c>
  24:	892a                	mv	s2,a0
  26:	4529                	li	a0,10
  28:	00000097          	auipc	ra,0x0
  2c:	000080e7          	jalr	ra # 28 <burnin_test_func+0x28>
  30:	60035437          	lui	s0,0x60035
  34:	8aaa                	mv	s5,a0
  36:	d002                	sw	zero,32(sp)
  38:	d202                	sw	zero,36(sp)
  3a:	d402                	sw	zero,40(sp)
  3c:	02011623          	sh	zero,44(sp)
  40:	00000097          	auipc	ra,0x0
  44:	000080e7          	jalr	ra # 40 <burnin_test_func+0x40>
  48:	4004                	lw	s1,0(s0)
  4a:	00000097          	auipc	ra,0x0
  4e:	000080e7          	jalr	ra # 4a <burnin_test_func+0x4a>
  52:	4581                	li	a1,0
  54:	4539                	li	a0,14
  56:	00000097          	auipc	ra,0x0
  5a:	000080e7          	jalr	ra # 56 <burnin_test_func+0x56>
  5e:	400c                	lw	a1,0(s0)
  60:	00000537          	lui	a0,0x0
  64:	00050513          	mv	a0,a0
  68:	8d85                	sub	a1,a1,s1
  6a:	00000097          	auipc	ra,0x0
  6e:	000080e7          	jalr	ra # 6a <burnin_test_func+0x6a>
  72:	4521                	li	a0,8
  74:	00000097          	auipc	ra,0x0
  78:	000080e7          	jalr	ra # 74 <burnin_test_func+0x74>
  7c:	4799                	li	a5,6
  7e:	00042a03          	lw	s4,0(s0) # 60035000 <.L836+0x6003231a>
  82:	c63e                	sw	a5,12(sp)
  84:	4795                	li	a5,5
  86:	c43e                	sw	a5,8(sp)
  88:	4791                	li	a5,4
  8a:	000a04b7          	lui	s1,0xa0
  8e:	c23e                	sw	a5,4(sp)
  90:	478d                	li	a5,3
  92:	4889                	li	a7,2
  94:	4805                	li	a6,1
  96:	3e848513          	add	a0,s1,1000 # a03e8 <.L836+0x9d702>
  9a:	c03e                	sw	a5,0(sp)
  9c:	4701                	li	a4,0
  9e:	4781                	li	a5,0
  a0:	46c9                	li	a3,18
  a2:	4601                	li	a2,0
  a4:	3e800593          	li	a1,1000
  a8:	00000097          	auipc	ra,0x0
  ac:	000080e7          	jalr	ra # a8 <burnin_test_func+0xa8>
  b0:	6985                	lui	s3,0x1
  b2:	4785                	li	a5,1
  b4:	bb898613          	add	a2,s3,-1096 # bb8 <.LC249+0x4>
  b8:	4701                	li	a4,0
  ba:	4681                	li	a3,0
  bc:	01248513          	add	a0,s1,18
  c0:	03c00593          	li	a1,60
  c4:	00000097          	auipc	ra,0x0
  c8:	000080e7          	jalr	ra # c4 <burnin_test_func+0xc4>
  cc:	400c                	lw	a1,0(s0)
  ce:	00000537          	lui	a0,0x0
  d2:	00050513          	mv	a0,a0
  d6:	414585b3          	sub	a1,a1,s4
  da:	00000097          	auipc	ra,0x0
  de:	000080e7          	jalr	ra # da <burnin_test_func+0xda>
  e2:	000006b7          	lui	a3,0x0
  e6:	1018                	add	a4,sp,32
  e8:	12068693          	add	a3,a3,288 # 120 <burnin_test_func+0x120>
  ec:	01f10613          	add	a2,sp,31
  f0:	01d10593          	add	a1,sp,29
  f4:	01e10513          	add	a0,sp,30
  f8:	00010fa3          	sb	zero,31(sp)
  fc:	00000097          	auipc	ra,0x0
 100:	000080e7          	jalr	ra # fc <burnin_test_func+0xfc>
 104:	4581                	li	a1,0
 106:	4505                	li	a0,1
 108:	4004                	lw	s1,0(s0)
 10a:	00000097          	auipc	ra,0x0
 10e:	000080e7          	jalr	ra # 10a <burnin_test_func+0x10a>
 112:	600347b7          	lui	a5,0x60034
 116:	ca07a423          	sw	zero,-856(a5) # 60033ca8 <.L836+0x60030fc2>
 11a:	00092783          	lw	a5,0(s2) # 0 <burnin_test_func>
 11e:	7705                	lui	a4,0xfffe1
 120:	177d                	add	a4,a4,-1 # fffe0fff <.L836+0xfffde319>
 122:	8ff9                	and	a5,a5,a4
 124:	0137e7b3          	or	a5,a5,s3
 128:	00f92023          	sw	a5,0(s2)
 12c:	00092783          	lw	a5,0(s2)
 130:	fa000737          	lui	a4,0xfa000
 134:	177d                	add	a4,a4,-1 # f9ffffff <.L836+0xf9ffd319>
 136:	8ff9                	and	a5,a5,a4
 138:	60034437          	lui	s0,0x60034
 13c:	400009b7          	lui	s3,0x40000
 140:	00062a37          	lui	s4,0x62
 144:	00f92023          	sw	a5,0(s2)
 148:	c0440b93          	add	s7,s0,-1020 # 60033c04 <.L836+0x60030f1e>
 14c:	4901                	li	s2,0
 14e:	0989                	add	s3,s3,2 # 40000002 <.L836+0x3fffd31c>
 150:	60035b37          	lui	s6,0x60035
 154:	a7fa0a13          	add	s4,s4,-1409 # 61a7f <.L836+0x5ed99>
 158:	00000c37          	lui	s8,0x0

0000015c <.L196>:
 15c:	013ba023          	sw	s3,0(s7)
 160:	c3442783          	lw	a5,-972(s0)
 164:	c0000737          	lui	a4,0xc0000
 168:	0847e793          	or	a5,a5,132
 16c:	c2f42a23          	sw	a5,-972(s0)
 170:	c4042783          	lw	a5,-960(s0)
 174:	0817e793          	or	a5,a5,129
 178:	c4f42023          	sw	a5,-960(s0)
 17c:	000aa783          	lw	a5,0(s5) # 0 <burnin_test_func>
 180:	8fd9                	or	a5,a5,a4
 182:	00faa023          	sw	a5,0(s5)

00000186 <.L190>:
 186:	c3c42783          	lw	a5,-964(s0)
 18a:	0807f793          	and	a5,a5,128
 18e:	ef81                	bnez	a5,1a6 <.L191>
 190:	000b2783          	lw	a5,0(s6) # 60035000 <.L836+0x6003231a>
 194:	8f85                	sub	a5,a5,s1
 196:	fefa78e3          	bgeu	s4,a5,186 <.L190>
 19a:	01d14783          	lbu	a5,29(sp)
 19e:	4905                	li	s2,1
 1a0:	0785                	add	a5,a5,1
 1a2:	00f10ea3          	sb	a5,29(sp)

000001a6 <.L191>:
 1a6:	c6842783          	lw	a5,-920(s0)
 1aa:	83f1                	srl	a5,a5,0x1c
 1ac:	cb89                	beqz	a5,1be <.L193>
 1ae:	c6842583          	lw	a1,-920(s0)
 1b2:	000c0513          	mv	a0,s8
 1b6:	00000097          	auipc	ra,0x0
 1ba:	000080e7          	jalr	ra # 1b6 <.L191+0x10>

000001be <.L193>:
 1be:	6505                	lui	a0,0x1
 1c0:	38850513          	add	a0,a0,904 # 1388 <.L724+0x14>
 1c4:	00000097          	auipc	ra,0x0
 1c8:	000080e7          	jalr	ra # 1c4 <.L193+0x6>
 1cc:	000b2703          	lw	a4,0(s6)
 1d0:	000317b7          	lui	a5,0x31
 1d4:	d3f78793          	add	a5,a5,-705 # 30d3f <.L836+0x2e059>
 1d8:	8f05                	sub	a4,a4,s1
 1da:	00e7f463          	bgeu	a5,a4,1e2 <.L194>
 1de:	00091663          	bnez	s2,1ea <.L195>

000001e2 <.L194>:
 1e2:	0905                	add	s2,s2,1
 1e4:	4791                	li	a5,4
 1e6:	f6f91be3          	bne	s2,a5,15c <.L196>

000001ea <.L195>:
 1ea:	600357b7          	lui	a5,0x60035
 1ee:	4398                	lw	a4,0(a5)
 1f0:	000317b7          	lui	a5,0x31
 1f4:	d3f78693          	add	a3,a5,-705 # 30d3f <.L836+0x2e059>
 1f8:	40970633          	sub	a2,a4,s1
 1fc:	02c6f863          	bgeu	a3,a2,22c <.L197>

00000200 <.L202>:
 200:	600357b7          	lui	a5,0x60035
 204:	438c                	lw	a1,0(a5)
 206:	00000537          	lui	a0,0x0
 20a:	00050513          	mv	a0,a0
 20e:	8d85                	sub	a1,a1,s1
 210:	00000097          	auipc	ra,0x0
 214:	000080e7          	jalr	ra # 210 <.L202+0x10>
 218:	600087b7          	lui	a5,0x60008
 21c:	4bac                	lw	a1,80(a5)
 21e:	0fa00793          	li	a5,250
 222:	02b7e863          	bltu	a5,a1,252 <.L198>
 226:	00b10f23          	sb	a1,30(sp)
 22a:	a03d                	j	258 <.L203>

0000022c <.L197>:
 22c:	d4078413          	add	s0,a5,-704 # 60007d40 <.L836+0x6000505a>
 230:	9426                	add	s0,s0,s1
 232:	8c19                	sub	s0,s0,a4
 234:	3e800793          	li	a5,1000
 238:	02f45433          	divu	s0,s0,a5
 23c:	4901                	li	s2,0

0000023e <.L200>:
 23e:	fd2401e3          	beq	s0,s2,200 <.L202>
 242:	3e800513          	li	a0,1000
 246:	00000097          	auipc	ra,0x0
 24a:	000080e7          	jalr	ra # 246 <.L200+0x8>
 24e:	0905                	add	s2,s2,1
 250:	b7fd                	j	23e <.L200>

00000252 <.L198>:
 252:	57e9                	li	a5,-6
 254:	00f10f23          	sb	a5,30(sp)

00000258 <.L203>:
 258:	01d14703          	lbu	a4,29(sp)
 25c:	0fa00793          	li	a5,250
 260:	00e7f563          	bgeu	a5,a4,26a <.L204>
 264:	57e9                	li	a5,-6
 266:	00f10ea3          	sb	a5,29(sp)

0000026a <.L204>:
 26a:	00000537          	lui	a0,0x0
 26e:	00050513          	mv	a0,a0
 272:	00000097          	auipc	ra,0x0
 276:	000080e7          	jalr	ra # 272 <.L204+0x8>
 27a:	01d14583          	lbu	a1,29(sp)
 27e:	00000537          	lui	a0,0x0
 282:	00050513          	mv	a0,a0
 286:	00000097          	auipc	ra,0x0
 28a:	000080e7          	jalr	ra # 286 <.L204+0x1c>
 28e:	01f14683          	lbu	a3,31(sp)
 292:	01d14603          	lbu	a2,29(sp)
 296:	01e14583          	lbu	a1,30(sp)
 29a:	00000537          	lui	a0,0x0
 29e:	00050513          	mv	a0,a0
 2a2:	00000097          	auipc	ra,0x0
 2a6:	000080e7          	jalr	ra # 2a2 <.L204+0x38>
 2aa:	40f6                	lw	ra,92(sp)
 2ac:	4466                	lw	s0,88(sp)
 2ae:	44d6                	lw	s1,84(sp)
 2b0:	4946                	lw	s2,80(sp)
 2b2:	49b6                	lw	s3,76(sp)
 2b4:	4a26                	lw	s4,72(sp)
 2b6:	4a96                	lw	s5,68(sp)
 2b8:	4b06                	lw	s6,64(sp)
 2ba:	5bf2                	lw	s7,60(sp)
 2bc:	5c62                	lw	s8,56(sp)
 2be:	6125                	add	sp,sp,96
 2c0:	8082                	ret

Disassembly of section .text.burn_in_test:

00000000 <burn_in_test>:
   0:	1141                	add	sp,sp,-16
   2:	c422                	sw	s0,8(sp)
   4:	c606                	sw	ra,12(sp)
   6:	00000437          	lui	s0,0x0
   a:	00000097          	auipc	ra,0x0
   e:	000080e7          	jalr	ra # a <burn_in_test+0xa>

00000012 <.L213>:
  12:	00040513          	mv	a0,s0
  16:	00000097          	auipc	ra,0x0
  1a:	000080e7          	jalr	ra # 16 <.L213+0x4>
  1e:	00000097          	auipc	ra,0x0
  22:	000080e7          	jalr	ra # 1e <.L213+0xc>
  26:	00000097          	auipc	ra,0x0
  2a:	000080e7          	jalr	ra # 26 <.L213+0x14>
  2e:	f175                	bnez	a0,12 <.L213>
  30:	40b2                	lw	ra,12(sp)
  32:	4422                	lw	s0,8(sp)
  34:	0141                	add	sp,sp,16
  36:	8082                	ret

Disassembly of section .text.crystal_test:

00000000 <crystal_test>:
   0:	7135                	add	sp,sp,-160
   2:	cf06                	sw	ra,156(sp)
   4:	cd22                	sw	s0,152(sp)
   6:	cb26                	sw	s1,148(sp)
   8:	c94a                	sw	s2,144(sp)
   a:	c74e                	sw	s3,140(sp)
   c:	c356                	sw	s5,132(sp)
   e:	c15a                	sw	s6,128(sp)
  10:	6485                	lui	s1,0x1
  12:	c552                	sw	s4,136(sp)
  14:	dede                	sw	s7,124(sp)
  16:	dce2                	sw	s8,120(sp)
  18:	dae6                	sw	s9,116(sp)
  1a:	d8ea                	sw	s10,112(sp)
  1c:	d6ee                	sw	s11,108(sp)
  1e:	81010113          	add	sp,sp,-2032
  22:	1014                	add	a3,sp,32
  24:	83048713          	add	a4,s1,-2000 # 830 <.LC210>
  28:	9736                	add	a4,a4,a3
  2a:	77fd                	lui	a5,0xfffff
  2c:	97ba                	add	a5,a5,a4
  2e:	8b2a                	mv	s6,a0
  30:	4529                	li	a0,10
  32:	cc3e                	sw	a5,24(sp)
  34:	7e0786a3          	sb	zero,2029(a5) # fffff7ed <.L836+0xffffcb07>
  38:	ce2e                	sw	a1,28(sp)
  3a:	d032                	sw	a2,32(sp)
  3c:	00000097          	auipc	ra,0x0
  40:	000080e7          	jalr	ra # 3c <crystal_test+0x3c>
  44:	892a                	mv	s2,a0
  46:	4529                	li	a0,10
  48:	00000097          	auipc	ra,0x0
  4c:	000080e7          	jalr	ra # 48 <crystal_test+0x48>
  50:	47e2                	lw	a5,24(sp)
  52:	747d                	lui	s0,0xfffff
  54:	1014                	add	a3,sp,32
  56:	7e07a823          	sw	zero,2032(a5)
  5a:	7e07aa23          	sw	zero,2036(a5)
  5e:	7e07ac23          	sw	zero,2040(a5)
  62:	7e079e23          	sh	zero,2044(a5)
  66:	008b0793          	add	a5,s6,8
  6a:	07e2                	sll	a5,a5,0x18
  6c:	87e1                	sra	a5,a5,0x18
  6e:	83048713          	add	a4,s1,-2000
  72:	9736                	add	a4,a4,a3
  74:	cc3e                	sw	a5,24(sp)
  76:	7f040793          	add	a5,s0,2032 # fffff7f0 <.L836+0xffffcb0a>
  7a:	97ba                	add	a5,a5,a4
  7c:	83048713          	add	a4,s1,-2000
  80:	9736                	add	a4,a4,a3
  82:	d23e                	sw	a5,36(sp)
  84:	7ef40793          	add	a5,s0,2031
  88:	97ba                	add	a5,a5,a4
  8a:	83048713          	add	a4,s1,-2000
  8e:	d43e                	sw	a5,40(sp)
  90:	9736                	add	a4,a4,a3
  92:	7ed40793          	add	a5,s0,2029
  96:	97ba                	add	a5,a5,a4
  98:	000629b7          	lui	s3,0x62
  9c:	8aaa                	mv	s5,a0
  9e:	d63e                	sw	a5,44(sp)
  a0:	a7f98993          	add	s3,s3,-1409 # 61a7f <.L836+0x5ed99>

000000a4 <.L232>:
  a4:	00000537          	lui	a0,0x0
  a8:	00050513          	mv	a0,a0
  ac:	00000097          	auipc	ra,0x0
  b0:	000080e7          	jalr	ra # ac <.L232+0x8>
  b4:	00000097          	auipc	ra,0x0
  b8:	000080e7          	jalr	ra # b4 <.L232+0x10>
  bc:	00000537          	lui	a0,0x0
  c0:	600354b7          	lui	s1,0x60035
  c4:	4609                	li	a2,2
  c6:	088c                	add	a1,sp,80
  c8:	00050513          	mv	a0,a0
  cc:	0004aa03          	lw	s4,0(s1) # 60035000 <.L836+0x6003231a>
  d0:	00000097          	auipc	ra,0x0
  d4:	000080e7          	jalr	ra # d0 <.L232+0x2c>
  d8:	4581                	li	a1,0
  da:	4539                	li	a0,14
  dc:	00000097          	auipc	ra,0x0
  e0:	000080e7          	jalr	ra # dc <.L232+0x38>
  e4:	408c                	lw	a1,0(s1)
  e6:	00000537          	lui	a0,0x0
  ea:	00050513          	mv	a0,a0
  ee:	414585b3          	sub	a1,a1,s4
  f2:	00000097          	auipc	ra,0x0
  f6:	000080e7          	jalr	ra # f2 <.L232+0x4e>
  fa:	855a                	mv	a0,s6
  fc:	00000097          	auipc	ra,0x0
 100:	000080e7          	jalr	ra # fc <.L232+0x58>
 104:	4799                	li	a5,6
 106:	0004ab83          	lw	s7,0(s1)
 10a:	4572                	lw	a0,28(sp)
 10c:	c63e                	sw	a5,12(sp)
 10e:	4795                	li	a5,5
 110:	c43e                	sw	a5,8(sp)
 112:	4791                	li	a5,4
 114:	000a0a37          	lui	s4,0xa0
 118:	c23e                	sw	a5,4(sp)
 11a:	478d                	li	a5,3
 11c:	4889                	li	a7,2
 11e:	4805                	li	a6,1
 120:	9552                	add	a0,a0,s4
 122:	c03e                	sw	a5,0(sp)
 124:	4701                	li	a4,0
 126:	4781                	li	a5,0
 128:	46c9                	li	a3,18
 12a:	4601                	li	a2,0
 12c:	3e800593          	li	a1,1000
 130:	00000097          	auipc	ra,0x0
 134:	000080e7          	jalr	ra # 130 <.L232+0x8c>
 138:	5602                	lw	a2,32(sp)
 13a:	4785                	li	a5,1
 13c:	4701                	li	a4,0
 13e:	4681                	li	a3,0
 140:	012a0513          	add	a0,s4,18 # a0012 <.L836+0x9d32c>
 144:	0c800593          	li	a1,200
 148:	00000097          	auipc	ra,0x0
 14c:	000080e7          	jalr	ra # 148 <.L232+0xa4>
 150:	408c                	lw	a1,0(s1)
 152:	00000537          	lui	a0,0x0
 156:	00050513          	mv	a0,a0
 15a:	417585b3          	sub	a1,a1,s7
 15e:	00000097          	auipc	ra,0x0
 162:	000080e7          	jalr	ra # 15e <.L232+0xba>
 166:	4562                	lw	a0,24(sp)
 168:	02010fa3          	sb	zero,63(sp)
 16c:	60034cb7          	lui	s9,0x60034
 170:	00000097          	auipc	ra,0x0
 174:	000080e7          	jalr	ra # 170 <.L232+0xcc>
 178:	6785                	lui	a5,0x1
 17a:	5712                	lw	a4,36(sp)
 17c:	02010813          	add	a6,sp,32
 180:	5622                	lw	a2,40(sp)
 182:	55b2                	lw	a1,44(sp)
 184:	83078793          	add	a5,a5,-2000 # 830 <.LC210>
 188:	97c2                	add	a5,a5,a6
 18a:	7ee40513          	add	a0,s0,2030
 18e:	000006b7          	lui	a3,0x0
 192:	953e                	add	a0,a0,a5
 194:	12068693          	add	a3,a3,288 # 120 <.L232+0x7c>
 198:	00000097          	auipc	ra,0x0
 19c:	000080e7          	jalr	ra # 198 <.L232+0xf4>
 1a0:	4581                	li	a1,0
 1a2:	4505                	li	a0,1
 1a4:	4084                	lw	s1,0(s1)
 1a6:	00000097          	auipc	ra,0x0
 1aa:	000080e7          	jalr	ra # 1a6 <.L232+0x102>
 1ae:	600347b7          	lui	a5,0x60034
 1b2:	ca07a423          	sw	zero,-856(a5) # 60033ca8 <.L836+0x60030fc2>
 1b6:	00092783          	lw	a5,0(s2)
 1ba:	7705                	lui	a4,0xfffe1
 1bc:	177d                	add	a4,a4,-1 # fffe0fff <.L836+0xfffde319>
 1be:	8ff9                	and	a5,a5,a4
 1c0:	6705                	lui	a4,0x1
 1c2:	8fd9                	or	a5,a5,a4
 1c4:	00f92023          	sw	a5,0(s2)
 1c8:	00092783          	lw	a5,0(s2)
 1cc:	fa000737          	lui	a4,0xfa000
 1d0:	177d                	add	a4,a4,-1 # f9ffffff <.L836+0xf9ffd319>
 1d2:	8ff9                	and	a5,a5,a4
 1d4:	40000a37          	lui	s4,0x40000
 1d8:	00f92023          	sw	a5,0(s2)
 1dc:	4c01                	li	s8,0
 1de:	c04c8d13          	add	s10,s9,-1020 # 60033c04 <.L836+0x60030f1e>
 1e2:	0a09                	add	s4,s4,2 # 40000002 <.L836+0x3fffd31c>
 1e4:	60035bb7          	lui	s7,0x60035
 1e8:	00000db7          	lui	s11,0x0

000001ec <.L223>:
 1ec:	014d2023          	sw	s4,0(s10)
 1f0:	c34ca683          	lw	a3,-972(s9)
 1f4:	c0000637          	lui	a2,0xc0000
 1f8:	0846e693          	or	a3,a3,132
 1fc:	c2dcaa23          	sw	a3,-972(s9)
 200:	c40ca683          	lw	a3,-960(s9)
 204:	0816e693          	or	a3,a3,129
 208:	c4dca023          	sw	a3,-960(s9)
 20c:	000aa683          	lw	a3,0(s5)
 210:	8ed1                	or	a3,a3,a2
 212:	00daa023          	sw	a3,0(s5)

00000216 <.L217>:
 216:	c3cca683          	lw	a3,-964(s9)
 21a:	0806f693          	and	a3,a3,128
 21e:	ee81                	bnez	a3,236 <.L218>
 220:	000ba683          	lw	a3,0(s7) # 60035000 <.L836+0x6003231a>
 224:	8e85                	sub	a3,a3,s1
 226:	fed9f8e3          	bgeu	s3,a3,216 <.L217>
 22a:	03d14703          	lbu	a4,61(sp)
 22e:	4c05                	li	s8,1
 230:	0705                	add	a4,a4,1
 232:	02e10ea3          	sb	a4,61(sp)

00000236 <.L218>:
 236:	c68ca683          	lw	a3,-920(s9)
 23a:	82f1                	srl	a3,a3,0x1c
 23c:	ca89                	beqz	a3,24e <.L220>
 23e:	c68ca583          	lw	a1,-920(s9)
 242:	000d8513          	mv	a0,s11
 246:	00000097          	auipc	ra,0x0
 24a:	000080e7          	jalr	ra # 246 <.L218+0x10>

0000024e <.L220>:
 24e:	6505                	lui	a0,0x1
 250:	38850513          	add	a0,a0,904 # 1388 <.L724+0x14>
 254:	00000097          	auipc	ra,0x0
 258:	000080e7          	jalr	ra # 254 <.L220+0x6>
 25c:	000ba603          	lw	a2,0(s7)
 260:	000316b7          	lui	a3,0x31
 264:	d3f68693          	add	a3,a3,-705 # 30d3f <.L836+0x2e059>
 268:	8e05                	sub	a2,a2,s1
 26a:	00c6f463          	bgeu	a3,a2,272 <.L221>
 26e:	000c1663          	bnez	s8,27a <.L222>

00000272 <.L221>:
 272:	0c05                	add	s8,s8,1 # 1 <crystal_test+0x1>
 274:	468d                	li	a3,3
 276:	f6dc1be3          	bne	s8,a3,1ec <.L223>

0000027a <.L222>:
 27a:	600357b7          	lui	a5,0x60035
 27e:	4398                	lw	a4,0(a5)
 280:	000317b7          	lui	a5,0x31
 284:	d3f78693          	add	a3,a5,-705 # 30d3f <.L836+0x2e059>
 288:	40970633          	sub	a2,a4,s1
 28c:	02c6f863          	bgeu	a3,a2,2bc <.L224>

00000290 <.L229>:
 290:	600357b7          	lui	a5,0x60035
 294:	438c                	lw	a1,0(a5)
 296:	00000537          	lui	a0,0x0
 29a:	00050513          	mv	a0,a0
 29e:	8d85                	sub	a1,a1,s1
 2a0:	00000097          	auipc	ra,0x0
 2a4:	000080e7          	jalr	ra # 2a0 <.L229+0x10>
 2a8:	600087b7          	lui	a5,0x60008
 2ac:	4bac                	lw	a1,80(a5)
 2ae:	0fa00793          	li	a5,250
 2b2:	02b7e963          	bltu	a5,a1,2e4 <.L225>
 2b6:	02b10f23          	sb	a1,62(sp)
 2ba:	a805                	j	2ea <.L230>

000002bc <.L224>:
 2bc:	d4078a13          	add	s4,a5,-704 # 60007d40 <.L836+0x6000505a>
 2c0:	9a26                	add	s4,s4,s1
 2c2:	40ea0a33          	sub	s4,s4,a4
 2c6:	3e800793          	li	a5,1000
 2ca:	02fa5a33          	divu	s4,s4,a5
 2ce:	4b81                	li	s7,0

000002d0 <.L227>:
 2d0:	fd7a00e3          	beq	s4,s7,290 <.L229>
 2d4:	3e800513          	li	a0,1000
 2d8:	00000097          	auipc	ra,0x0
 2dc:	000080e7          	jalr	ra # 2d8 <.L227+0x8>
 2e0:	0b85                	add	s7,s7,1
 2e2:	b7fd                	j	2d0 <.L227>

000002e4 <.L225>:
 2e4:	57e9                	li	a5,-6
 2e6:	02f10f23          	sb	a5,62(sp)

000002ea <.L230>:
 2ea:	03d14703          	lbu	a4,61(sp)
 2ee:	0fa00793          	li	a5,250
 2f2:	00e7f563          	bgeu	a5,a4,2fc <.L231>
 2f6:	57e9                	li	a5,-6
 2f8:	02f10ea3          	sb	a5,61(sp)

000002fc <.L231>:
 2fc:	00000537          	lui	a0,0x0
 300:	00050513          	mv	a0,a0
 304:	00000097          	auipc	ra,0x0
 308:	000080e7          	jalr	ra # 304 <.L231+0x8>
 30c:	03d14583          	lbu	a1,61(sp)
 310:	00000537          	lui	a0,0x0
 314:	00050513          	mv	a0,a0
 318:	00000097          	auipc	ra,0x0
 31c:	000080e7          	jalr	ra # 318 <.L231+0x1c>
 320:	03f14683          	lbu	a3,63(sp)
 324:	03d14603          	lbu	a2,61(sp)
 328:	03e14583          	lbu	a1,62(sp)
 32c:	00000537          	lui	a0,0x0
 330:	00050513          	mv	a0,a0
 334:	00000097          	auipc	ra,0x0
 338:	000080e7          	jalr	ra # 334 <.L231+0x38>
 33c:	00000097          	auipc	ra,0x0
 340:	000080e7          	jalr	ra # 33c <.L231+0x40>
 344:	d60510e3          	bnez	a0,a4 <.L232>
 348:	7f010113          	add	sp,sp,2032
 34c:	40fa                	lw	ra,156(sp)
 34e:	446a                	lw	s0,152(sp)
 350:	44da                	lw	s1,148(sp)
 352:	494a                	lw	s2,144(sp)
 354:	49ba                	lw	s3,140(sp)
 356:	4a2a                	lw	s4,136(sp)
 358:	4a9a                	lw	s5,132(sp)
 35a:	4b0a                	lw	s6,128(sp)
 35c:	5bf6                	lw	s7,124(sp)
 35e:	5c66                	lw	s8,120(sp)
 360:	5cd6                	lw	s9,116(sp)
 362:	5d46                	lw	s10,112(sp)
 364:	5db6                	lw	s11,108(sp)
 366:	610d                	add	sp,sp,160
 368:	8082                	ret

Disassembly of section .text.rx_per_init:

00000000 <rx_per_init>:
   0:	03040537          	lui	a0,0x3040
   4:	1141                	add	sp,sp,-16
   6:	10200593          	li	a1,258
   a:	50650513          	add	a0,a0,1286 # 3040506 <.L836+0x303d820>
   e:	c606                	sw	ra,12(sp)
  10:	00000097          	auipc	ra,0x0
  14:	000080e7          	jalr	ra # 10 <rx_per_init+0x10>
  18:	600337b7          	lui	a5,0x60033
  1c:	0d87a703          	lw	a4,216(a5) # 600330d8 <.L836+0x600303f2>
  20:	40b2                	lw	ra,12(sp)
  22:	e0077713          	and	a4,a4,-512
  26:	00d76713          	or	a4,a4,13
  2a:	0ce7ac23          	sw	a4,216(a5)
  2e:	0dc7a703          	lw	a4,220(a5)
  32:	e0077713          	and	a4,a4,-512
  36:	00f76713          	or	a4,a4,15
  3a:	0ce7ae23          	sw	a4,220(a5)
  3e:	0e07a703          	lw	a4,224(a5)
  42:	e0077713          	and	a4,a4,-512
  46:	00f76713          	or	a4,a4,15
  4a:	0ee7a023          	sw	a4,224(a5)
  4e:	0e47a703          	lw	a4,228(a5)
  52:	e0077713          	and	a4,a4,-512
  56:	00f76713          	or	a4,a4,15
  5a:	0ee7a223          	sw	a4,228(a5)
  5e:	0141                	add	sp,sp,16
  60:	8082                	ret

Disassembly of section .text.clk_pull_out:

00000000 <clk_pull_out>:
   0:	1141                	add	sp,sp,-16
   2:	c226                	sw	s1,4(sp)
   4:	6485                	lui	s1,0x1
   6:	c422                	sw	s0,8(sp)
   8:	842a                	mv	s0,a0
   a:	38848513          	add	a0,s1,904 # 1388 <.L724+0x14>
   e:	c606                	sw	ra,12(sp)
  10:	00000097          	auipc	ra,0x0
  14:	000080e7          	jalr	ra # 10 <clk_pull_out+0x10>
  18:	600097b7          	lui	a5,0x60009
  1c:	4388                	lw	a0,0(a5)
  1e:	883d                	and	s0,s0,15
  20:	9941                	and	a0,a0,-16
  22:	8d41                	or	a0,a0,s0
  24:	c388                	sw	a0,0(a5)
  26:	438c                	lw	a1,0(a5)
  28:	00000537          	lui	a0,0x0
  2c:	00050513          	mv	a0,a0
  30:	00000097          	auipc	ra,0x0
  34:	000080e7          	jalr	ra # 30 <clk_pull_out+0x30>
  38:	4422                	lw	s0,8(sp)
  3a:	40b2                	lw	ra,12(sp)
  3c:	38848513          	add	a0,s1,904
  40:	4492                	lw	s1,4(sp)
  42:	0141                	add	sp,sp,16
  44:	00000317          	auipc	t1,0x0
  48:	00030067          	jr	t1 # 44 <clk_pull_out+0x44>

Disassembly of section .text.print_efuse_mac:

00000000 <print_efuse_mac>:
   0:	600097b7          	lui	a5,0x60009
   4:	8447a583          	lw	a1,-1980(a5) # 60008844 <.L836+0x60005b5e>
   8:	8487a603          	lw	a2,-1976(a5)
   c:	00000537          	lui	a0,0x0
  10:	00050513          	mv	a0,a0
  14:	00000317          	auipc	t1,0x0
  18:	00030067          	jr	t1 # 14 <print_efuse_mac+0x14>

Disassembly of section .text.pad_gpio_set:

00000000 <pad_gpio_set>:
   0:	411c                	lw	a5,0(a0)
   2:	c595                	beqz	a1,2e <.L247>
   4:	7779                	lui	a4,0xffffe
   6:	177d                	add	a4,a4,-1 # ffffdfff <.L836+0xffffb319>
   8:	8ff9                	and	a5,a5,a4
   a:	c11c                	sw	a5,0(a0)
   c:	411c                	lw	a5,0(a0)
   e:	00080737          	lui	a4,0x80
  12:	8fd9                	or	a5,a5,a4
  14:	c11c                	sw	a5,0(a0)
  16:	411c                	lw	a5,0(a0)
  18:	08000737          	lui	a4,0x8000
  1c:	8fd9                	or	a5,a5,a4
  1e:	c11c                	sw	a5,0(a0)
  20:	411c                	lw	a5,0(a0)
  22:	f0000737          	lui	a4,0xf0000
  26:	177d                	add	a4,a4,-1 # efffffff <.L836+0xefffd319>
  28:	8ff9                	and	a5,a5,a4

0000002a <.L249>:
  2a:	c11c                	sw	a5,0(a0)
  2c:	8082                	ret

0000002e <.L247>:
  2e:	f8000737          	lui	a4,0xf8000
  32:	177d                	add	a4,a4,-1 # f7ffffff <.L836+0xf7ffd319>
  34:	8ff9                	and	a5,a5,a4
  36:	c11c                	sw	a5,0(a0)
  38:	411c                	lw	a5,0(a0)
  3a:	10000737          	lui	a4,0x10000
  3e:	8fd9                	or	a5,a5,a4
  40:	b7ed                	j	2a <.L249>

Disassembly of section .text.wifi_init:

00000000 <wifi_init>:
   0:	1141                	add	sp,sp,-16
   2:	c606                	sw	ra,12(sp)
   4:	00000097          	auipc	ra,0x0
   8:	000080e7          	jalr	ra # 4 <wifi_init+0x4>
   c:	00000097          	auipc	ra,0x0
  10:	000080e7          	jalr	ra # c <wifi_init+0xc>
  14:	00000097          	auipc	ra,0x0
  18:	000080e7          	jalr	ra # 14 <wifi_init+0x14>
  1c:	40b2                	lw	ra,12(sp)
  1e:	00000537          	lui	a0,0x0
  22:	00050513          	mv	a0,a0
  26:	0141                	add	sp,sp,16
  28:	00000317          	auipc	t1,0x0
  2c:	00030067          	jr	t1 # 28 <wifi_init+0x28>

Disassembly of section .text.change_data_rate:

00000000 <change_data_rate>:
   0:	47dd                	li	a5,23
   2:	0ca7eb63          	bltu	a5,a0,d8 <.L253>
   6:	000007b7          	lui	a5,0x0
   a:	00078793          	mv	a5,a5
   e:	050a                	sll	a0,a0,0x2
  10:	953e                	add	a0,a0,a5
  12:	411c                	lw	a5,0(a0)
  14:	8782                	jr	a5

00000016 <.L273>:
  16:	4509                	li	a0,2
  18:	8082                	ret

0000001a <.L272>:
  1a:	4515                	li	a0,5
  1c:	8082                	ret

0000001e <.L271>:
  1e:	452d                	li	a0,11
  20:	8082                	ret

00000022 <.L263>:
  22:	4525                	li	a0,9
  24:	8082                	ret

00000026 <.L268>:
  26:	4531                	li	a0,12
  28:	8082                	ret

0000002a <.L264>:
  2a:	4549                	li	a0,18
  2c:	8082                	ret

0000002e <.L269>:
  2e:	4561                	li	a0,24
  30:	8082                	ret

00000032 <.L265>:
  32:	02400513          	li	a0,36
  36:	8082                	ret

00000038 <.L270>:
  38:	03000513          	li	a0,48
  3c:	8082                	ret

0000003e <.L266>:
  3e:	03600513          	li	a0,54
  42:	8082                	ret

00000044 <.L262>:
  44:	000007b7          	lui	a5,0x0
  48:	0007c783          	lbu	a5,0(a5) # 0 <change_data_rate>
  4c:	4535                	li	a0,13
  4e:	e7cd                	bnez	a5,f8 <.L286>

00000050 <.L288>:
  50:	4519                	li	a0,6
  52:	8082                	ret

00000054 <.L261>:
  54:	000007b7          	lui	a5,0x0
  58:	0007c783          	lbu	a5,0(a5) # 0 <change_data_rate>
  5c:	4535                	li	a0,13
  5e:	cfc9                	beqz	a5,f8 <.L286>
  60:	456d                	li	a0,27
  62:	8082                	ret

00000064 <.L260>:
  64:	000007b7          	lui	a5,0x0
  68:	0007c783          	lbu	a5,0(a5) # 0 <change_data_rate>
  6c:	02800513          	li	a0,40
  70:	e7c1                	bnez	a5,f8 <.L286>
  72:	454d                	li	a0,19
  74:	8082                	ret

00000076 <.L259>:
  76:	000007b7          	lui	a5,0x0
  7a:	0007c783          	lbu	a5,0(a5) # 0 <change_data_rate>
  7e:	03600513          	li	a0,54
  82:	ebbd                	bnez	a5,f8 <.L286>
  84:	4569                	li	a0,26
  86:	8082                	ret

00000088 <.L258>:
  88:	000007b7          	lui	a5,0x0
  8c:	0007c783          	lbu	a5,0(a5) # 0 <change_data_rate>
  90:	05100513          	li	a0,81
  94:	e3b5                	bnez	a5,f8 <.L286>
  96:	02700513          	li	a0,39
  9a:	8082                	ret

0000009c <.L257>:
  9c:	000007b7          	lui	a5,0x0
  a0:	0007c783          	lbu	a5,0(a5) # 0 <change_data_rate>
  a4:	06c00513          	li	a0,108
  a8:	eba1                	bnez	a5,f8 <.L286>
  aa:	03400513          	li	a0,52
  ae:	8082                	ret

000000b0 <.L256>:
  b0:	000007b7          	lui	a5,0x0
  b4:	0007c783          	lbu	a5,0(a5) # 0 <change_data_rate>
  b8:	07900513          	li	a0,121
  bc:	ef95                	bnez	a5,f8 <.L286>
  be:	03a00513          	li	a0,58
  c2:	8082                	ret

000000c4 <.L254>:
  c4:	000007b7          	lui	a5,0x0
  c8:	0007c783          	lbu	a5,0(a5) # 0 <change_data_rate>
  cc:	08700513          	li	a0,135
  d0:	e785                	bnez	a5,f8 <.L286>
  d2:	04100513          	li	a0,65
  d6:	8082                	ret

000000d8 <.L253>:
  d8:	00000537          	lui	a0,0x0
  dc:	1141                	add	sp,sp,-16
  de:	00050513          	mv	a0,a0
  e2:	c606                	sw	ra,12(sp)
  e4:	00000097          	auipc	ra,0x0
  e8:	000080e7          	jalr	ra # e4 <.L253+0xc>
  ec:	40b2                	lw	ra,12(sp)
  ee:	4505                	li	a0,1
  f0:	0141                	add	sp,sp,16
  f2:	8082                	ret

000000f4 <.L275>:
  f4:	4505                	li	a0,1
  f6:	8082                	ret

000000f8 <.L286>:
  f8:	8082                	ret

Disassembly of section .text.get_length_delay:

00000000 <get_length_delay>:
   0:	011807b7          	lui	a5,0x1180
   4:	1101                	add	sp,sp,-32
   6:	12c78793          	add	a5,a5,300 # 118012c <.L836+0x117d446>
   a:	c23e                	sw	a5,4(sp)
   c:	00f007b7          	lui	a5,0xf00
  10:	10478793          	add	a5,a5,260 # f00104 <.L836+0xefd41e>
  14:	c43e                	sw	a5,8(sp)
  16:	00c807b7          	lui	a5,0xc80
  1a:	0dc78793          	add	a5,a5,220 # c800dc <.L836+0xc7d3f6>
  1e:	c63e                	sw	a5,12(sp)
  20:	000007b7          	lui	a5,0x0
  24:	0007a783          	lw	a5,0(a5) # 0 <get_length_delay>
  28:	ce06                	sw	ra,28(sp)
  2a:	cc22                	sw	s0,24(sp)
  2c:	1207a783          	lw	a5,288(a5)
  30:	ca26                	sw	s1,20(sp)
  32:	c84a                	sw	s2,16(sp)
  34:	892a                	mv	s2,a0
  36:	852e                	mv	a0,a1
  38:	84ae                	mv	s1,a1
  3a:	9782                	jalr	a5
  3c:	842a                	mv	s0,a0
  3e:	8526                	mv	a0,s1
  40:	00000097          	auipc	ra,0x0
  44:	000080e7          	jalr	ra # 40 <get_length_delay+0x40>
  48:	478d                	li	a5,3
  4a:	0097fc63          	bgeu	a5,s1,62 <.L291>
  4e:	479d                	li	a5,7
  50:	06400713          	li	a4,100
  54:	0097f963          	bgeu	a5,s1,66 <.L294>
  58:	02800713          	li	a4,40
  5c:	0a600693          	li	a3,166
  60:	a029                	j	6a <.L290>

00000062 <.L291>:
  62:	0c800713          	li	a4,200

00000066 <.L294>:
  66:	25800693          	li	a3,600

0000006a <.L290>:
  6a:	081c                	add	a5,sp,16
  6c:	0406                	sll	s0,s0,0x1
  6e:	943e                	add	s0,s0,a5
  70:	ff445783          	lhu	a5,-12(s0)
  74:	3e800613          	li	a2,1000
  78:	45d1                	li	a1,20
  7a:	fb078793          	add	a5,a5,-80
  7e:	02c787b3          	mul	a5,a5,a2
  82:	0ff57513          	zext.b	a0,a0
  86:	40e68733          	sub	a4,a3,a4
  8a:	40f2                	lw	ra,28(sp)
  8c:	4462                	lw	s0,24(sp)
  8e:	44d2                	lw	s1,20(sp)
  90:	02b7c7b3          	div	a5,a5,a1
  94:	c1878793          	add	a5,a5,-1000
  98:	02a70733          	mul	a4,a4,a0
  9c:	4521                	li	a0,8
  9e:	02d787b3          	mul	a5,a5,a3
  a2:	02a74733          	div	a4,a4,a0
  a6:	02c7d7b3          	divu	a5,a5,a2
  aa:	00e92023          	sw	a4,0(s2)
  ae:	00f92223          	sw	a5,4(s2)
  b2:	4942                	lw	s2,16(sp)
  b4:	6105                	add	sp,sp,32
  b6:	8082                	ret

Disassembly of section .text.remove_11b_4p8G_spur:

00000000 <remove_11b_4p8G_spur>:
   0:	6001c7b7          	lui	a5,0x6001c
   4:	68a1                	lui	a7,0x8
   6:	4587a703          	lw	a4,1112(a5) # 6001c458 <.L836+0x60019772>
   a:	0622                	sll	a2,a2,0x8
   c:	f0088893          	add	a7,a7,-256 # 7f00 <.L836+0x521a>
  10:	011678b3          	and	a7,a2,a7
  14:	7661                	lui	a2,0xffff8
  16:	0ff60313          	add	t1,a2,255 # ffff80ff <.L836+0xffff5419>
  1a:	00677733          	and	a4,a4,t1
  1e:	01176733          	or	a4,a4,a7
  22:	44e7ac23          	sw	a4,1112(a5)
  26:	4587a703          	lw	a4,1112(a5)
  2a:	05be                	sll	a1,a1,0xf
  2c:	000786b7          	lui	a3,0x78
  30:	8eed                	and	a3,a3,a1
  32:	fff885b7          	lui	a1,0xfff88
  36:	fff58813          	add	a6,a1,-1 # fff87fff <.L836+0xfff85319>
  3a:	01077733          	and	a4,a4,a6
  3e:	8f55                	or	a4,a4,a3
  40:	44e7ac23          	sw	a4,1112(a5)
  44:	4587a603          	lw	a2,1112(a5)
  48:	00080e37          	lui	t3,0x80
  4c:	8905                	and	a0,a0,1
  4e:	01c66633          	or	a2,a2,t3
  52:	44c7ac23          	sw	a2,1112(a5)
  56:	4547a603          	lw	a2,1108(a5)
  5a:	00667633          	and	a2,a2,t1
  5e:	01166633          	or	a2,a2,a7
  62:	44c7aa23          	sw	a2,1108(a5)
  66:	4547a583          	lw	a1,1108(a5)
  6a:	0105f5b3          	and	a1,a1,a6
  6e:	8dd5                	or	a1,a1,a3
  70:	44b7aa23          	sw	a1,1108(a5)
  74:	4547a703          	lw	a4,1108(a5)
  78:	01c76733          	or	a4,a4,t3
  7c:	44e7aa23          	sw	a4,1108(a5)
  80:	4547a703          	lw	a4,1108(a5)
  84:	9b79                	and	a4,a4,-2
  86:	8f49                	or	a4,a4,a0
  88:	44e7aa23          	sw	a4,1108(a5)
  8c:	8082                	ret

Disassembly of section .text.set_pbus_mem_debug:

00000000 <set_pbus_mem_debug>:
   0:	00040e37          	lui	t3,0x40
   4:	1ffe0e13          	add	t3,t3,511 # 401ff <.L836+0x3d519>
   8:	00971293          	sll	t0,a4,0x9
   c:	7111                	add	sp,sp,-256
   e:	01c2e2b3          	or	t0,t0,t3
  12:	00140337          	lui	t1,0x140
  16:	1ff30313          	add	t1,t1,511 # 1401ff <.L836+0x13d519>
  1a:	c116                	sw	t0,128(sp)
  1c:	00979293          	sll	t0,a5,0x9
  20:	0062e2b3          	or	t0,t0,t1
  24:	c316                	sw	t0,132(sp)
  26:	00f002b7          	lui	t0,0xf00
  2a:	c516                	sw	t0,136(sp)
  2c:	00f102b7          	lui	t0,0xf10
  30:	c716                	sw	t0,140(sp)
  32:	00f202b7          	lui	t0,0xf20
  36:	c916                	sw	t0,144(sp)
  38:	00959e93          	sll	t4,a1,0x9
  3c:	00f402b7          	lui	t0,0xf40
  40:	006eeeb3          	or	t4,t4,t1
  44:	d9ca                	sw	s2,240(sp)
  46:	cb16                	sw	t0,148(sp)
  48:	10015903          	lhu	s2,256(sp)
  4c:	00981293          	sll	t0,a6,0x9
  50:	00951f93          	sll	t6,a0,0x9
  54:	00961f13          	sll	t5,a2,0x9
  58:	01cf6f33          	or	t5,t5,t3
  5c:	01cfefb3          	or	t6,t6,t3
  60:	d2f6                	sw	t4,100(sp)
  62:	01c2ee33          	or	t3,t0,t3
  66:	00969e93          	sll	t4,a3,0x9
  6a:	00989293          	sll	t0,a7,0x9
  6e:	006eeeb3          	or	t4,t4,t1
  72:	0062e333          	or	t1,t0,t1
  76:	004402b7          	lui	t0,0x440
  7a:	df86                	sw	ra,252(sp)
  7c:	dda2                	sw	s0,248(sp)
  7e:	d7ce                	sw	s3,236(sp)
  80:	00f50437          	lui	s0,0xf50
  84:	10415983          	lhu	s3,260(sp)
  88:	00f600b7          	lui	ra,0xf60
  8c:	1ff28293          	add	t0,t0,511 # 4401ff <.L836+0x43d519>
  90:	00991393          	sll	t2,s2,0x9
  94:	0053e3b3          	or	t2,t2,t0
  98:	d67a                	sw	t5,44(sp)
  9a:	d876                	sw	t4,48(sp)
  9c:	dba6                	sw	s1,244(sp)
  9e:	d5d2                	sw	s4,232(sp)
  a0:	d3d6                	sw	s5,228(sp)
  a2:	d1da                	sw	s6,224(sp)
  a4:	cfde                	sw	s7,220(sp)
  a6:	cde2                	sw	s8,216(sp)
  a8:	cbe6                	sw	s9,212(sp)
  aa:	c9ea                	sw	s10,208(sp)
  ac:	c7ee                	sw	s11,204(sp)
  ae:	d0fe                	sw	t6,96(sp)
  b0:	d4a2                	sw	s0,104(sp)
  b2:	d686                	sw	ra,108(sp)
  b4:	cd02                	sw	zero,152(sp)
  b6:	cf02                	sw	zero,156(sp)
  b8:	da72                	sw	t3,52(sp)
  ba:	dc1a                	sw	t1,56(sp)
  bc:	ce82                	sw	zero,92(sp)
  be:	ca9e                	sw	t2,84(sp)
  c0:	00f303b7          	lui	t2,0xf30
  c4:	cc9e                	sw	t2,88(sp)
  c6:	00999393          	sll	t2,s3,0x9
  ca:	0053e2b3          	or	t0,t2,t0
  ce:	de16                	sw	t0,60(sp)
  d0:	005402b7          	lui	t0,0x540
  d4:	1ff28293          	add	t0,t0,511 # 5401ff <.L836+0x53d519>
  d8:	c2fa                	sw	t5,68(sp)
  da:	c4f6                	sw	t4,72(sp)
  dc:	c096                	sw	t0,64(sp)
  de:	d8fe                	sw	t6,112(sp)
  e0:	dca2                	sw	s0,120(sp)
  e2:	de86                	sw	ra,124(sp)
  e4:	4e81                	li	t4,0
  e6:	02000f13          	li	t5,32

000000ea <.L297>:
  ea:	1100                	add	s0,sp,160
  ec:	01d40fb3          	add	t6,s0,t4
  f0:	0100                	add	s0,sp,128
  f2:	01d402b3          	add	t0,s0,t4
  f6:	0002a283          	lw	t0,0(t0)
  fa:	0e91                	add	t4,t4,4
  fc:	005fa023          	sw	t0,0(t6)
 100:	ffee95e3          	bne	t4,t5,ea <.L297>
 104:	fffc0fb7          	lui	t6,0xfffc0
 108:	0fff8493          	add	s1,t6,255 # fffc00ff <.L836+0xfffbd419>
 10c:	c89a                	sw	t1,80(sp)
 10e:	00040fb7          	lui	t6,0x40
 112:	00171337          	lui	t1,0x171
 116:	7ff30313          	add	t1,t1,2047 # 1717ff <.L836+0x16eb19>
 11a:	ca26                	sw	s1,20(sp)
 11c:	f00f8493          	add	s1,t6,-256 # 3ff00 <.L836+0x3d21a>
 120:	fffd0fb7          	lui	t6,0xfffd0
 124:	c6f2                	sw	t3,76(sp)
 126:	da9a                	sw	t1,116(sp)
 128:	60006e37          	lui	t3,0x60006
 12c:	00150337          	lui	t1,0x150
 130:	cc26                	sw	s1,24(sp)
 132:	ffff8493          	add	s1,t6,-1 # fffcffff <.L836+0xfffcd319>
 136:	600062b7          	lui	t0,0x60006
 13a:	dff30313          	add	t1,t1,-513 # 14fdff <.L836+0x14d119>
 13e:	0e0e0e13          	add	t3,t3,224 # 600060e0 <.L836+0x600033fa>
 142:	6441                	lui	s0,0x10
 144:	ce26                	sw	s1,28(sp)
 146:	000004b7          	lui	s1,0x0
 14a:	d31a                	sw	t1,164(sp)
 14c:	4081                	li	ra,0
 14e:	4381                	li	t2,0
 150:	06010f13          	add	t5,sp,96
 154:	4e91                	li	t4,4
 156:	4301                	li	t1,0
 158:	147d                	add	s0,s0,-1 # ffff <.L836+0xd319>
 15a:	0f428a93          	add	s5,t0,244 # 600060f4 <.L836+0x6000340e>
 15e:	00048493          	mv	s1,s1
 162:	0e428b13          	add	s6,t0,228
 166:	0f028b93          	add	s7,t0,240
 16a:	0ec28c13          	add	s8,t0,236
 16e:	0e828c93          	add	s9,t0,232
 172:	8d72                	mv	s10,t3

00000174 <.L298>:
 174:	01d38a33          	add	s4,t2,t4
 178:	fffa0f93          	add	t6,s4,-1
 17c:	0fa2                	sll	t6,t6,0x8
 17e:	007fefb3          	or	t6,t6,t2
 182:	000e2d83          	lw	s11,0(t3)
 186:	008fffb3          	and	t6,t6,s0
 18a:	006f9fb3          	sll	t6,t6,t1
 18e:	00641333          	sll	t1,s0,t1
 192:	fff34313          	not	t1,t1
 196:	01b37333          	and	t1,t1,s11
 19a:	006fe333          	or	t1,t6,t1
 19e:	20038393          	add	t2,t2,512 # f30200 <.L836+0xf2d51a>
 1a2:	006e2023          	sw	t1,0(t3)
 1a6:	03a2                	sll	t2,t2,0x8
 1a8:	4e01                	li	t3,0

000001aa <.L311>:
 1aa:	002e1313          	sll	t1,t3,0x2
 1ae:	937a                	add	t1,t1,t5
 1b0:	00032303          	lw	t1,0(t1)
 1b4:	4fd2                	lw	t6,20(sp)
 1b6:	0e05                	add	t3,t3,1
 1b8:	0c62a623          	sw	t1,204(t0)
 1bc:	0c82a303          	lw	t1,200(t0)
 1c0:	01f37333          	and	t1,t1,t6
 1c4:	4fe2                	lw	t6,24(sp)
 1c6:	01f3ffb3          	and	t6,t2,t6
 1ca:	01f36333          	or	t1,t1,t6
 1ce:	0c62a423          	sw	t1,200(t0)
 1d2:	0c82a303          	lw	t1,200(t0)
 1d6:	4ff2                	lw	t6,28(sp)
 1d8:	10038393          	add	t2,t2,256
 1dc:	01f37333          	and	t1,t1,t6
 1e0:	0c62a423          	sw	t1,200(t0)
 1e4:	fdce93e3          	bne	t4,t3,1aa <.L311>
 1e8:	0085                	add	ra,ra,1 # f60001 <.L836+0xf5d31b>
 1ea:	4331                	li	t1,12
 1ec:	04609363          	bne	ra,t1,232 <.L312>
 1f0:	c046                	sw	a7,0(sp)
 1f2:	88c2                	mv	a7,a6
 1f4:	883e                	mv	a6,a5
 1f6:	87ba                	mv	a5,a4
 1f8:	8736                	mv	a4,a3
 1fa:	86b2                	mv	a3,a2
 1fc:	862e                	mv	a2,a1
 1fe:	85aa                	mv	a1,a0
 200:	00000537          	lui	a0,0x0
 204:	c44e                	sw	s3,8(sp)
 206:	c24a                	sw	s2,4(sp)
 208:	00050513          	mv	a0,a0
 20c:	00000097          	auipc	ra,0x0
 210:	000080e7          	jalr	ra # 20c <.L311+0x62>
 214:	50fe                	lw	ra,252(sp)
 216:	546e                	lw	s0,248(sp)
 218:	54de                	lw	s1,244(sp)
 21a:	594e                	lw	s2,240(sp)
 21c:	59be                	lw	s3,236(sp)
 21e:	5a2e                	lw	s4,232(sp)
 220:	5a9e                	lw	s5,228(sp)
 222:	5b0e                	lw	s6,224(sp)
 224:	4bfe                	lw	s7,220(sp)
 226:	4c6e                	lw	s8,216(sp)
 228:	4cde                	lw	s9,212(sp)
 22a:	4d4e                	lw	s10,208(sp)
 22c:	4dbe                	lw	s11,204(sp)
 22e:	6111                	add	sp,sp,256
 230:	8082                	ret

00000232 <.L312>:
 232:	fff08313          	add	t1,ra,-1
 236:	4e25                	li	t3,9
 238:	066e6b63          	bltu	t3,t1,2ae <.L299>
 23c:	030a                	sll	t1,t1,0x2
 23e:	9326                	add	t1,t1,s1
 240:	00032303          	lw	t1,0(t1)
 244:	8302                	jr	t1

00000246 <.L310>:
 246:	02c10f13          	add	t5,sp,44
 24a:	4e89                	li	t4,2
 24c:	4341                	li	t1,16
 24e:	8e6a                	mv	t3,s10

00000250 <.L309>:
 250:	83d2                	mv	t2,s4
 252:	b70d                	j	174 <.L298>

00000254 <.L308>:
 254:	03410f13          	add	t5,sp,52
 258:	4e89                	li	t4,2
 25a:	4341                	li	t1,16

0000025c <.L318>:
 25c:	8e5a                	mv	t3,s6
 25e:	bfcd                	j	250 <.L309>

00000260 <.L307>:
 260:	05410f13          	add	t5,sp,84
 264:	4e8d                	li	t4,3
 266:	4301                	li	t1,0

00000268 <.L320>:
 268:	8e66                	mv	t3,s9
 26a:	b7dd                	j	250 <.L309>

0000026c <.L306>:
 26c:	03c10f13          	add	t5,sp,60
 270:	4e89                	li	t4,2
 272:	4341                	li	t1,16
 274:	bfd5                	j	268 <.L320>

00000276 <.L305>:
 276:	07010f13          	add	t5,sp,112
 27a:	4e91                	li	t4,4
 27c:	4301                	li	t1,0

0000027e <.L321>:
 27e:	8e62                	mv	t3,s8
 280:	bfc1                	j	250 <.L309>

00000282 <.L304>:
 282:	04410f13          	add	t5,sp,68
 286:	4e89                	li	t4,2
 288:	4341                	li	t1,16
 28a:	bfd5                	j	27e <.L321>

0000028c <.L303>:
 28c:	0a010f13          	add	t5,sp,160
 290:	4ea1                	li	t4,8
 292:	4301                	li	t1,0

00000294 <.L319>:
 294:	8e5e                	mv	t3,s7
 296:	bf6d                	j	250 <.L309>

00000298 <.L302>:
 298:	04c10f13          	add	t5,sp,76
 29c:	4e89                	li	t4,2
 29e:	4341                	li	t1,16
 2a0:	bfd5                	j	294 <.L319>

000002a2 <.L300>:
 2a2:	05410f13          	add	t5,sp,84
 2a6:	4e8d                	li	t4,3
 2a8:	4301                	li	t1,0

000002aa <.L317>:
 2aa:	8e56                	mv	t3,s5
 2ac:	b755                	j	250 <.L309>

000002ae <.L299>:
 2ae:	03c10f13          	add	t5,sp,60
 2b2:	4e89                	li	t4,2
 2b4:	4341                	li	t1,16
 2b6:	bfd5                	j	2aa <.L317>

000002b8 <.L313>:
 2b8:	08010f13          	add	t5,sp,128
 2bc:	4ea1                	li	t4,8
 2be:	4301                	li	t1,0
 2c0:	bf71                	j	25c <.L318>

Disassembly of section .text.rx_pbus_set:

00000000 <rx_pbus_set>:
   0:	001407b7          	lui	a5,0x140
   4:	1ff78793          	add	a5,a5,511 # 1401ff <.L836+0x13d519>
   8:	05a6                	sll	a1,a1,0x9
   a:	bf010113          	add	sp,sp,-1040
   e:	8ddd                	or	a1,a1,a5
  10:	00040737          	lui	a4,0x40
  14:	c22e                	sw	a1,4(sp)
  16:	1ff70713          	add	a4,a4,511 # 401ff <.L836+0x3d519>
  1a:	00f505b7          	lui	a1,0xf50
  1e:	0526                	sll	a0,a0,0x9
  20:	c42e                	sw	a1,8(sp)
  22:	8d59                	or	a0,a0,a4
  24:	00f605b7          	lui	a1,0xf60
  28:	c62e                	sw	a1,12(sp)
  2a:	c02a                	sw	a0,0(sp)
  2c:	600065b7          	lui	a1,0x60006
  30:	06a6                	sll	a3,a3,0x9
  32:	8edd                	or	a3,a3,a5
  34:	0e05a783          	lw	a5,224(a1) # 600060e0 <.L836+0x600033fa>
  38:	0626                	sll	a2,a2,0x9
  3a:	8e59                	or	a2,a2,a4
  3c:	0ff7f793          	zext.b	a5,a5
  40:	00378713          	add	a4,a5,3
  44:	6841                	lui	a6,0x10
  46:	0e05a503          	lw	a0,224(a1)
  4a:	187d                	add	a6,a6,-1 # ffff <.L836+0xd319>
  4c:	0722                	sll	a4,a4,0x8
  4e:	01077733          	and	a4,a4,a6
  52:	7841                	lui	a6,0xffff0
  54:	0ff80813          	add	a6,a6,255 # ffff00ff <.L836+0xfffed419>
  58:	01057533          	and	a0,a0,a6
  5c:	8f49                	or	a4,a4,a0
  5e:	0ee5a023          	sw	a4,224(a1)
  62:	00279893          	sll	a7,a5,0x2
  66:	4701                	li	a4,0
  68:	4541                	li	a0,16

0000006a <.L323>:
  6a:	011705b3          	add	a1,a4,a7
  6e:	01010813          	add	a6,sp,16
  72:	95c2                	add	a1,a1,a6
  74:	00e10833          	add	a6,sp,a4
  78:	00082803          	lw	a6,0(a6)
  7c:	0711                	add	a4,a4,4
  7e:	0105a023          	sw	a6,0(a1)
  82:	fea714e3          	bne	a4,a0,6a <.L323>
  86:	55ed                	li	a1,-5
  88:	fff78513          	add	a0,a5,-1
  8c:	4715                	li	a4,5
  8e:	00f5f363          	bgeu	a1,a5,94 <.L325>
  92:	4705                	li	a4,1

00000094 <.L325>:
  94:	fffc0837          	lui	a6,0xfffc0
  98:	fffd08b7          	lui	a7,0xfffd0
  9c:	953a                	add	a0,a0,a4
  9e:	00020e37          	lui	t3,0x20
  a2:	60006737          	lui	a4,0x60006
  a6:	0ff80813          	add	a6,a6,255 # fffc00ff <.L836+0xfffbd419>
  aa:	18fd                	add	a7,a7,-1 # fffcffff <.L836+0xfffcd319>

000000ac <.L326>:
  ac:	08a79b63          	bne	a5,a0,142 <.L327>
  b0:	60006537          	lui	a0,0x60006
  b4:	0e052783          	lw	a5,224(a0) # 600060e0 <.L836+0x600033fa>
  b8:	0e052583          	lw	a1,224(a0)
  bc:	01000837          	lui	a6,0x1000
  c0:	83c1                	srl	a5,a5,0x10
  c2:	0ff7f793          	zext.b	a5,a5
  c6:	00178713          	add	a4,a5,1
  ca:	187d                	add	a6,a6,-1 # ffffff <.L836+0xffd319>
  cc:	0105f5b3          	and	a1,a1,a6
  d0:	01871813          	sll	a6,a4,0x18
  d4:	0105e5b3          	or	a1,a1,a6
  d8:	0eb52023          	sw	a1,224(a0)
  dc:	41010513          	add	a0,sp,1040
  e0:	00279593          	sll	a1,a5,0x2
  e4:	95aa                	add	a1,a1,a0
  e6:	070a                	sll	a4,a4,0x2
  e8:	972a                	add	a4,a4,a0
  ea:	c0c5a023          	sw	a2,-1024(a1)
  ee:	fffc0537          	lui	a0,0xfffc0
  f2:	fffd0637          	lui	a2,0xfffd0
  f6:	c0d72023          	sw	a3,-1024(a4) # 60005c00 <.L836+0x60002f1a>
  fa:	00278813          	add	a6,a5,2
  fe:	60006737          	lui	a4,0x60006
 102:	000208b7          	lui	a7,0x20
 106:	0ff50513          	add	a0,a0,255 # fffc00ff <.L836+0xfffbd419>
 10a:	167d                	add	a2,a2,-1 # fffcffff <.L836+0xfffcd319>

0000010c <.L328>:
 10c:	00279693          	sll	a3,a5,0x2
 110:	080c                	add	a1,sp,16
 112:	96ae                	add	a3,a3,a1
 114:	4294                	lw	a3,0(a3)
 116:	0cd72623          	sw	a3,204(a4) # 600060cc <.L836+0x600033e6>
 11a:	0c872583          	lw	a1,200(a4)
 11e:	00879693          	sll	a3,a5,0x8
 122:	96c6                	add	a3,a3,a7
 124:	8de9                	and	a1,a1,a0
 126:	8ecd                	or	a3,a3,a1
 128:	0cd72423          	sw	a3,200(a4)
 12c:	0c872683          	lw	a3,200(a4)
 130:	0785                	add	a5,a5,1
 132:	8ef1                	and	a3,a3,a2
 134:	0cd72423          	sw	a3,200(a4)
 138:	fcf81ae3          	bne	a6,a5,10c <.L328>
 13c:	41010113          	add	sp,sp,1040
 140:	8082                	ret

00000142 <.L327>:
 142:	00279593          	sll	a1,a5,0x2
 146:	01010313          	add	t1,sp,16
 14a:	959a                	add	a1,a1,t1
 14c:	418c                	lw	a1,0(a1)
 14e:	0cb72623          	sw	a1,204(a4)
 152:	0c872303          	lw	t1,200(a4)
 156:	00879593          	sll	a1,a5,0x8
 15a:	95f2                	add	a1,a1,t3
 15c:	01037333          	and	t1,t1,a6
 160:	0065e5b3          	or	a1,a1,t1
 164:	0cb72423          	sw	a1,200(a4)
 168:	0c872583          	lw	a1,200(a4)
 16c:	0785                	add	a5,a5,1
 16e:	0115f5b3          	and	a1,a1,a7
 172:	0cb72423          	sw	a1,200(a4)
 176:	bf1d                	j	ac <.L326>

Disassembly of section .text.tx_pbus_set:

00000000 <tx_pbus_set>:
   0:	001407b7          	lui	a5,0x140
   4:	1ff78793          	add	a5,a5,511 # 1401ff <.L836+0x13d519>
   8:	05a6                	sll	a1,a1,0x9
   a:	be010113          	add	sp,sp,-1056
   e:	8ddd                	or	a1,a1,a5
  10:	c22e                	sw	a1,4(sp)
  12:	00040737          	lui	a4,0x40
  16:	00f005b7          	lui	a1,0xf00
  1a:	c42e                	sw	a1,8(sp)
  1c:	1ff70713          	add	a4,a4,511 # 401ff <.L836+0x3d519>
  20:	00f105b7          	lui	a1,0xf10
  24:	0526                	sll	a0,a0,0x9
  26:	c62e                	sw	a1,12(sp)
  28:	8d59                	or	a0,a0,a4
  2a:	00f205b7          	lui	a1,0xf20
  2e:	c82e                	sw	a1,16(sp)
  30:	ca02                	sw	zero,20(sp)
  32:	cc02                	sw	zero,24(sp)
  34:	ce02                	sw	zero,28(sp)
  36:	c02a                	sw	a0,0(sp)
  38:	600065b7          	lui	a1,0x60006
  3c:	06a6                	sll	a3,a3,0x9
  3e:	8edd                	or	a3,a3,a5
  40:	0e45a783          	lw	a5,228(a1) # 600060e4 <.L836+0x600033fe>
  44:	0626                	sll	a2,a2,0x9
  46:	8e59                	or	a2,a2,a4
  48:	0ff7f793          	zext.b	a5,a5
  4c:	00778713          	add	a4,a5,7
  50:	6841                	lui	a6,0x10
  52:	0e45a503          	lw	a0,228(a1)
  56:	187d                	add	a6,a6,-1 # ffff <.L836+0xd319>
  58:	0722                	sll	a4,a4,0x8
  5a:	01077733          	and	a4,a4,a6
  5e:	7841                	lui	a6,0xffff0
  60:	0ff80813          	add	a6,a6,255 # ffff00ff <.L836+0xfffed419>
  64:	01057533          	and	a0,a0,a6
  68:	8f49                	or	a4,a4,a0
  6a:	0ee5a223          	sw	a4,228(a1)
  6e:	00279893          	sll	a7,a5,0x2
  72:	4701                	li	a4,0
  74:	02000513          	li	a0,32

00000078 <.L333>:
  78:	011705b3          	add	a1,a4,a7
  7c:	02010813          	add	a6,sp,32
  80:	95c2                	add	a1,a1,a6
  82:	00e10833          	add	a6,sp,a4
  86:	00082803          	lw	a6,0(a6)
  8a:	0711                	add	a4,a4,4
  8c:	0105a023          	sw	a6,0(a1)
  90:	fea714e3          	bne	a4,a0,78 <.L333>
  94:	55dd                	li	a1,-9
  96:	fff78513          	add	a0,a5,-1
  9a:	4725                	li	a4,9
  9c:	00f5f363          	bgeu	a1,a5,a2 <.L335>
  a0:	4705                	li	a4,1

000000a2 <.L335>:
  a2:	fffc0837          	lui	a6,0xfffc0
  a6:	fffd08b7          	lui	a7,0xfffd0
  aa:	953a                	add	a0,a0,a4
  ac:	00020e37          	lui	t3,0x20
  b0:	60006737          	lui	a4,0x60006
  b4:	0ff80813          	add	a6,a6,255 # fffc00ff <.L836+0xfffbd419>
  b8:	18fd                	add	a7,a7,-1 # fffcffff <.L836+0xfffcd319>

000000ba <.L336>:
  ba:	08a79b63          	bne	a5,a0,150 <.L337>
  be:	60006537          	lui	a0,0x60006
  c2:	0e452783          	lw	a5,228(a0) # 600060e4 <.L836+0x600033fe>
  c6:	0e452583          	lw	a1,228(a0)
  ca:	01000837          	lui	a6,0x1000
  ce:	83c1                	srl	a5,a5,0x10
  d0:	0ff7f793          	zext.b	a5,a5
  d4:	00178713          	add	a4,a5,1
  d8:	187d                	add	a6,a6,-1 # ffffff <.L836+0xffd319>
  da:	0105f5b3          	and	a1,a1,a6
  de:	01871813          	sll	a6,a4,0x18
  e2:	0105e5b3          	or	a1,a1,a6
  e6:	0eb52223          	sw	a1,228(a0)
  ea:	42010513          	add	a0,sp,1056
  ee:	00279593          	sll	a1,a5,0x2
  f2:	95aa                	add	a1,a1,a0
  f4:	070a                	sll	a4,a4,0x2
  f6:	972a                	add	a4,a4,a0
  f8:	c0c5a023          	sw	a2,-1024(a1)
  fc:	fffc0537          	lui	a0,0xfffc0
 100:	fffd0637          	lui	a2,0xfffd0
 104:	c0d72023          	sw	a3,-1024(a4) # 60005c00 <.L836+0x60002f1a>
 108:	00278813          	add	a6,a5,2
 10c:	60006737          	lui	a4,0x60006
 110:	000208b7          	lui	a7,0x20
 114:	0ff50513          	add	a0,a0,255 # fffc00ff <.L836+0xfffbd419>
 118:	167d                	add	a2,a2,-1 # fffcffff <.L836+0xfffcd319>

0000011a <.L338>:
 11a:	00279693          	sll	a3,a5,0x2
 11e:	100c                	add	a1,sp,32
 120:	96ae                	add	a3,a3,a1
 122:	4294                	lw	a3,0(a3)
 124:	0cd72623          	sw	a3,204(a4) # 600060cc <.L836+0x600033e6>
 128:	0c872583          	lw	a1,200(a4)
 12c:	00879693          	sll	a3,a5,0x8
 130:	96c6                	add	a3,a3,a7
 132:	8de9                	and	a1,a1,a0
 134:	8ecd                	or	a3,a3,a1
 136:	0cd72423          	sw	a3,200(a4)
 13a:	0c872683          	lw	a3,200(a4)
 13e:	0785                	add	a5,a5,1
 140:	8ef1                	and	a3,a3,a2
 142:	0cd72423          	sw	a3,200(a4)
 146:	fcf81ae3          	bne	a6,a5,11a <.L338>
 14a:	42010113          	add	sp,sp,1056
 14e:	8082                	ret

00000150 <.L337>:
 150:	00279593          	sll	a1,a5,0x2
 154:	02010313          	add	t1,sp,32
 158:	959a                	add	a1,a1,t1
 15a:	418c                	lw	a1,0(a1)
 15c:	0cb72623          	sw	a1,204(a4)
 160:	0c872303          	lw	t1,200(a4)
 164:	00879593          	sll	a1,a5,0x8
 168:	95f2                	add	a1,a1,t3
 16a:	01037333          	and	t1,t1,a6
 16e:	0065e5b3          	or	a1,a1,t1
 172:	0cb72423          	sw	a1,200(a4)
 176:	0c872583          	lw	a1,200(a4)
 17a:	0785                	add	a5,a5,1
 17c:	0115f5b3          	and	a1,a1,a7
 180:	0cb72423          	sw	a1,200(a4)
 184:	bf1d                	j	ba <.L336>

Disassembly of section .text.pa_pbus_set:

00000000 <pa_pbus_set>:
   0:	60006837          	lui	a6,0x60006
   4:	0e882603          	lw	a2,232(a6) # 600060e8 <.L836+0x60003402>
   8:	6341                	lui	t1,0x10
   a:	0e882883          	lw	a7,232(a6)
   e:	0ff67613          	zext.b	a2,a2
  12:	00260793          	add	a5,a2,2
  16:	00879713          	sll	a4,a5,0x8
  1a:	137d                	add	t1,t1,-1 # ffff <.L836+0xd319>
  1c:	00677733          	and	a4,a4,t1
  20:	7341                	lui	t1,0xffff0
  22:	0ff30313          	add	t1,t1,255 # ffff00ff <.L836+0xfffed419>
  26:	0068f8b3          	and	a7,a7,t1
  2a:	01176733          	or	a4,a4,a7
  2e:	c0010113          	add	sp,sp,-1024
  32:	004406b7          	lui	a3,0x440
  36:	0ee82423          	sw	a4,232(a6)
  3a:	1ff68693          	add	a3,a3,511 # 4401ff <.L836+0x43d519>
  3e:	40010813          	add	a6,sp,1024
  42:	0526                	sll	a0,a0,0x9
  44:	05a6                	sll	a1,a1,0x9
  46:	00261713          	sll	a4,a2,0x2
  4a:	9742                	add	a4,a4,a6
  4c:	8dd5                	or	a1,a1,a3
  4e:	8ec9                	or	a3,a3,a0
  50:	c0d72023          	sw	a3,-1024(a4)
  54:	00160713          	add	a4,a2,1
  58:	070a                	sll	a4,a4,0x2
  5a:	00f306b7          	lui	a3,0xf30
  5e:	9742                	add	a4,a4,a6
  60:	078a                	sll	a5,a5,0x2
  62:	c0d72023          	sw	a3,-1024(a4)
  66:	97c2                	add	a5,a5,a6
  68:	fffc06b7          	lui	a3,0xfffc0
  6c:	fffd0537          	lui	a0,0xfffd0
  70:	c007a023          	sw	zero,-1024(a5)
  74:	00360893          	add	a7,a2,3
  78:	600067b7          	lui	a5,0x60006
  7c:	00020337          	lui	t1,0x20
  80:	0ff68693          	add	a3,a3,255 # fffc00ff <.L836+0xfffbd419>
  84:	157d                	add	a0,a0,-1 # fffcffff <.L836+0xfffcd319>

00000086 <.L345>:
  86:	09161863          	bne	a2,a7,116 <.L346>
  8a:	60006637          	lui	a2,0x60006
  8e:	0e862783          	lw	a5,232(a2) # 600060e8 <.L836+0x60003402>
  92:	0e862683          	lw	a3,232(a2)
  96:	01000537          	lui	a0,0x1000
  9a:	83c1                	srl	a5,a5,0x10
  9c:	0ff7f793          	zext.b	a5,a5
  a0:	00178713          	add	a4,a5,1 # 60006001 <.L836+0x6000331b>
  a4:	157d                	add	a0,a0,-1 # ffffff <.L836+0xffd319>
  a6:	8ee9                	and	a3,a3,a0
  a8:	01871513          	sll	a0,a4,0x18
  ac:	8ec9                	or	a3,a3,a0
  ae:	0ed62423          	sw	a3,232(a2)
  b2:	40010613          	add	a2,sp,1024
  b6:	00279693          	sll	a3,a5,0x2
  ba:	96b2                	add	a3,a3,a2
  bc:	070a                	sll	a4,a4,0x2
  be:	9732                	add	a4,a4,a2
  c0:	c0b6a023          	sw	a1,-1024(a3)
  c4:	fffc0537          	lui	a0,0xfffc0
  c8:	fffd0637          	lui	a2,0xfffd0
  cc:	c0072023          	sw	zero,-1024(a4)
  d0:	00278813          	add	a6,a5,2
  d4:	60006737          	lui	a4,0x60006
  d8:	000208b7          	lui	a7,0x20
  dc:	0ff50513          	add	a0,a0,255 # fffc00ff <.L836+0xfffbd419>
  e0:	167d                	add	a2,a2,-1 # fffcffff <.L836+0xfffcd319>

000000e2 <.L347>:
  e2:	00279693          	sll	a3,a5,0x2
  e6:	968a                	add	a3,a3,sp
  e8:	4294                	lw	a3,0(a3)
  ea:	0cd72623          	sw	a3,204(a4) # 600060cc <.L836+0x600033e6>
  ee:	0c872583          	lw	a1,200(a4)
  f2:	00879693          	sll	a3,a5,0x8
  f6:	96c6                	add	a3,a3,a7
  f8:	8de9                	and	a1,a1,a0
  fa:	8ecd                	or	a3,a3,a1
  fc:	0cd72423          	sw	a3,200(a4)
 100:	0c872683          	lw	a3,200(a4)
 104:	0785                	add	a5,a5,1
 106:	8ef1                	and	a3,a3,a2
 108:	0cd72423          	sw	a3,200(a4)
 10c:	fd079be3          	bne	a5,a6,e2 <.L347>
 110:	40010113          	add	sp,sp,1024
 114:	8082                	ret

00000116 <.L346>:
 116:	00261713          	sll	a4,a2,0x2
 11a:	970a                	add	a4,a4,sp
 11c:	4318                	lw	a4,0(a4)
 11e:	0ce7a623          	sw	a4,204(a5)
 122:	0c87a803          	lw	a6,200(a5)
 126:	00861713          	sll	a4,a2,0x8
 12a:	971a                	add	a4,a4,t1
 12c:	00d87833          	and	a6,a6,a3
 130:	01076733          	or	a4,a4,a6
 134:	0ce7a423          	sw	a4,200(a5)
 138:	0c87a703          	lw	a4,200(a5)
 13c:	0605                	add	a2,a2,1
 13e:	8f69                	and	a4,a4,a0
 140:	0ce7a423          	sw	a4,200(a5)
 144:	b789                	j	86 <.L345>

Disassembly of section .text.read_flash_init_para:

00000000 <read_flash_init_para>:
   0:	1141                	add	sp,sp,-16
   2:	c422                	sw	s0,8(sp)
   4:	c226                	sw	s1,4(sp)
   6:	842a                	mv	s0,a0
   8:	84ae                	mv	s1,a1
   a:	4501                	li	a0,0
   c:	4581                	li	a1,0
   e:	c606                	sw	ra,12(sp)
  10:	00000097          	auipc	ra,0x0
  14:	000080e7          	jalr	ra # 10 <read_flash_init_para+0x10>
  18:	8522                	mv	a0,s0
  1a:	4422                	lw	s0,8(sp)
  1c:	40b2                	lw	ra,12(sp)
  1e:	85a6                	mv	a1,s1
  20:	4492                	lw	s1,4(sp)
  22:	09000613          	li	a2,144
  26:	0141                	add	sp,sp,16
  28:	00000317          	auipc	t1,0x0
  2c:	00030067          	jr	t1 # 28 <read_flash_init_para+0x28>

Disassembly of section .text.write_flash_init_para:

00000000 <write_flash_init_para>:
   0:	1141                	add	sp,sp,-16
   2:	c422                	sw	s0,8(sp)
   4:	c226                	sw	s1,4(sp)
   6:	842a                	mv	s0,a0
   8:	84ae                	mv	s1,a1
   a:	4501                	li	a0,0
   c:	4581                	li	a1,0
   e:	c606                	sw	ra,12(sp)
  10:	00000097          	auipc	ra,0x0
  14:	000080e7          	jalr	ra # 10 <write_flash_init_para+0x10>
  18:	00c45513          	srl	a0,s0,0xc
  1c:	00000097          	auipc	ra,0x0
  20:	000080e7          	jalr	ra # 1c <write_flash_init_para+0x1c>
  24:	8522                	mv	a0,s0
  26:	4422                	lw	s0,8(sp)
  28:	40b2                	lw	ra,12(sp)
  2a:	85a6                	mv	a1,s1
  2c:	4492                	lw	s1,4(sp)
  2e:	09000613          	li	a2,144
  32:	0141                	add	sp,sp,16
  34:	00000317          	auipc	t1,0x0
  38:	00030067          	jr	t1 # 34 <write_flash_init_para+0x34>

Disassembly of section .text.force_txtone:

00000000 <force_txtone>:
   0:	1101                	add	sp,sp,-32
   2:	cc22                	sw	s0,24(sp)
   4:	00000437          	lui	s0,0x0
   8:	00042783          	lw	a5,0(s0) # 0 <force_txtone>
   c:	ce06                	sw	ra,28(sp)
   e:	ca26                	sw	s1,20(sp)
  10:	0c87a783          	lw	a5,200(a5)
  14:	c62a                	sw	a0,12(sp)
  16:	4505                	li	a0,1
  18:	84ae                	mv	s1,a1
  1a:	9782                	jalr	a5
  1c:	450d                	li	a0,3
  1e:	00000097          	auipc	ra,0x0
  22:	000080e7          	jalr	ra # 1e <force_txtone+0x1e>
  26:	4632                	lw	a2,12(sp)
  28:	4781                	li	a5,0
  2a:	4701                	li	a4,0
  2c:	4681                	li	a3,0
  2e:	4581                	li	a1,0
  30:	4505                	li	a0,1
  32:	00000097          	auipc	ra,0x0
  36:	000080e7          	jalr	ra # 32 <force_txtone+0x32>
  3a:	01049513          	sll	a0,s1,0x10
  3e:	8141                	srl	a0,a0,0x10
  40:	00000097          	auipc	ra,0x0
  44:	000080e7          	jalr	ra # 40 <force_txtone+0x40>
  48:	4505                	li	a0,1
  4a:	00000097          	auipc	ra,0x0
  4e:	000080e7          	jalr	ra # 4a <force_txtone+0x4a>
  52:	00042783          	lw	a5,0(s0)
  56:	4462                	lw	s0,24(sp)
  58:	40f2                	lw	ra,28(sp)
  5a:	44d2                	lw	s1,20(sp)
  5c:	0c87a303          	lw	t1,200(a5)
  60:	4501                	li	a0,0
  62:	6105                	add	sp,sp,32
  64:	8302                	jr	t1

Disassembly of section .text.mem_read_func:

00000000 <mem_read_func>:
   0:	600067b7          	lui	a5,0x60006
   4:	1fc7a783          	lw	a5,508(a5) # 600061fc <.L836+0x60003516>
   8:	8082                	ret

Disassembly of section .text.mem_write_func:

00000000 <mem_write_func>:
   0:	600067b7          	lui	a5,0x60006
   4:	1e07ae23          	sw	zero,508(a5) # 600061fc <.L836+0x60003516>
   8:	8082                	ret

Disassembly of section .text.test_mem_time:

00000000 <test_mem_time>:
   0:	600357b7          	lui	a5,0x60035
   4:	4398                	lw	a4,0(a5)
   6:	600066b7          	lui	a3,0x60006
   a:	06400793          	li	a5,100
   e:	c91d                	beqz	a0,44 <.L359>
  10:	c19d                	beqz	a1,36 <.L360>

00000012 <.L361>:
  12:	17fd                	add	a5,a5,-1 # 60034fff <.L836+0x60032319>
  14:	1fc6a603          	lw	a2,508(a3) # 600061fc <.L836+0x60003516>
  18:	0ff7f793          	zext.b	a5,a5
  1c:	fbfd                	bnez	a5,12 <.L361>

0000001e <.L362>:
  1e:	600357b7          	lui	a5,0x60035
  22:	438c                	lw	a1,0(a5)
  24:	00000537          	lui	a0,0x0
  28:	00050513          	mv	a0,a0
  2c:	8d99                	sub	a1,a1,a4
  2e:	00000317          	auipc	t1,0x0
  32:	00030067          	jr	t1 # 2e <.L362+0x10>

00000036 <.L360>:
  36:	17fd                	add	a5,a5,-1 # 60034fff <.L836+0x60032319>
  38:	1fc6a603          	lw	a2,508(a3)
  3c:	0ff7f793          	zext.b	a5,a5
  40:	fbfd                	bnez	a5,36 <.L360>
  42:	bff1                	j	1e <.L362>

00000044 <.L359>:
  44:	c981                	beqz	a1,54 <.L363>

00000046 <.L364>:
  46:	17fd                	add	a5,a5,-1
  48:	1e06ae23          	sw	zero,508(a3)
  4c:	0ff7f793          	zext.b	a5,a5
  50:	fbfd                	bnez	a5,46 <.L364>
  52:	b7f1                	j	1e <.L362>

00000054 <.L363>:
  54:	17fd                	add	a5,a5,-1
  56:	1e06ae23          	sw	zero,508(a3)
  5a:	0ff7f793          	zext.b	a5,a5
  5e:	fbfd                	bnez	a5,54 <.L363>
  60:	bf7d                	j	1e <.L362>

Disassembly of section .text.phy_test_init:

00000000 <phy_test_init>:
   0:	00000537          	lui	a0,0x0
   4:	1141                	add	sp,sp,-16
   6:	00050513          	mv	a0,a0
   a:	c606                	sw	ra,12(sp)
   c:	00000097          	auipc	ra,0x0
  10:	000080e7          	jalr	ra # c <phy_test_init+0xc>
  14:	00000097          	auipc	ra,0x0
  18:	000080e7          	jalr	ra # 14 <phy_test_init+0x14>
  1c:	577d                	li	a4,-1
  1e:	600267b7          	lui	a5,0x60026
  22:	cbd8                	sw	a4,20(a5)
  24:	00000097          	auipc	ra,0x0
  28:	000080e7          	jalr	ra # 24 <phy_test_init+0x24>
  2c:	40b2                	lw	ra,12(sp)
  2e:	00000737          	lui	a4,0x0
  32:	000006b7          	lui	a3,0x0
  36:	00000637          	lui	a2,0x0
  3a:	00000537          	lui	a0,0x0
  3e:	00070713          	mv	a4,a4
  42:	00068693          	mv	a3,a3
  46:	00060613          	mv	a2,a2
  4a:	45b1                	li	a1,12
  4c:	00050513          	mv	a0,a0
  50:	0141                	add	sp,sp,16
  52:	00000317          	auipc	t1,0x0
  56:	00030067          	jr	t1 # 52 <phy_test_init+0x52>

Disassembly of section .text.close_peri:

00000000 <close_peri>:
   0:	610047b7          	lui	a5,0x61004
   4:	600c0737          	lui	a4,0x600c0
   8:	07f5                	add	a5,a5,29 # 6100401d <.L836+0x61001337>
   a:	cb1c                	sw	a5,16(a4)
   c:	00072a23          	sw	zero,20(a4) # 600c0014 <.L836+0x600bd32e>
  10:	8082                	ret

Disassembly of section .text.test_phy_vdd33:

00000000 <test_phy_vdd33>:
   0:	1141                	add	sp,sp,-16
   2:	c422                	sw	s0,8(sp)
   4:	00000437          	lui	s0,0x0
   8:	00042783          	lw	a5,0(s0) # 0 <test_phy_vdd33>
   c:	c606                	sw	ra,12(sp)
   e:	c226                	sw	s1,4(sp)
  10:	0fc7a783          	lw	a5,252(a5)
  14:	84aa                	mv	s1,a0
  16:	9782                	jalr	a5
  18:	00042783          	lw	a5,0(s0)
  1c:	1d47a783          	lw	a5,468(a5)
  20:	9782                	jalr	a5
  22:	00042783          	lw	a5,0(s0)
  26:	4609                	li	a2,2
  28:	4585                	li	a1,1
  2a:	1cc7a783          	lw	a5,460(a5)
  2e:	4511                	li	a0,4
  30:	9782                	jalr	a5
  32:	00042783          	lw	a5,0(s0)
  36:	471d                	li	a4,7
  38:	469d                	li	a3,7
  3a:	1bc7a803          	lw	a6,444(a5)
  3e:	4625                	li	a2,9
  40:	4581                	li	a1,0
  42:	4785                	li	a5,1
  44:	06b00513          	li	a0,107
  48:	9802                	jalr	a6
  4a:	00042783          	lw	a5,0(s0)
  4e:	8526                	mv	a0,s1
  50:	1507a783          	lw	a5,336(a5)
  54:	9782                	jalr	a5
  56:	00042783          	lw	a5,0(s0)
  5a:	84aa                	mv	s1,a0
  5c:	471d                	li	a4,7
  5e:	1bc7a803          	lw	a6,444(a5)
  62:	06b00513          	li	a0,107
  66:	4781                	li	a5,0
  68:	469d                	li	a3,7
  6a:	4625                	li	a2,9
  6c:	4581                	li	a1,0
  6e:	9802                	jalr	a6
  70:	00042783          	lw	a5,0(s0)
  74:	1d87a783          	lw	a5,472(a5)
  78:	9782                	jalr	a5
  7a:	40b2                	lw	ra,12(sp)
  7c:	4422                	lw	s0,8(sp)
  7e:	8526                	mv	a0,s1
  80:	4492                	lw	s1,4(sp)
  82:	0141                	add	sp,sp,16
  84:	8082                	ret

Disassembly of section .text.rtc_sar_read:

00000000 <rtc_sar_read>:
   0:	60009737          	lui	a4,0x60009
   4:	83072783          	lw	a5,-2000(a4) # 60008830 <.L836+0x60005b4a>
   8:	000206b7          	lui	a3,0x20
   c:	8fd5                	or	a5,a5,a3
   e:	82f72823          	sw	a5,-2000(a4)

00000012 <.L377>:
  12:	83072683          	lw	a3,-2000(a4)
  16:	83070793          	add	a5,a4,-2000
  1a:	00f69613          	sll	a2,a3,0xf
  1e:	fe065ae3          	bgez	a2,12 <.L377>
  22:	83072503          	lw	a0,-2000(a4)
  26:	83072703          	lw	a4,-2000(a4)
  2a:	7681                	lui	a3,0xfffe0
  2c:	16fd                	add	a3,a3,-1 # fffdffff <.L836+0xfffdd319>
  2e:	8f75                	and	a4,a4,a3
  30:	0542                	sll	a0,a0,0x10
  32:	c398                	sw	a4,0(a5)
  34:	8141                	srl	a0,a0,0x10
  36:	8082                	ret

Disassembly of section .text.test_rtc_vdd33:

00000000 <test_rtc_vdd33>:
   0:	1141                	add	sp,sp,-16
   2:	c422                	sw	s0,8(sp)
   4:	00000437          	lui	s0,0x0
   8:	00042783          	lw	a5,0(s0) # 0 <test_rtc_vdd33>
   c:	c606                	sw	ra,12(sp)
   e:	c226                	sw	s1,4(sp)
  10:	1d47a783          	lw	a5,468(a5)
  14:	84aa                	mv	s1,a0
  16:	9782                	jalr	a5
  18:	00042783          	lw	a5,0(s0)
  1c:	4609                	li	a2,2
  1e:	4585                	li	a1,1
  20:	1cc7a783          	lw	a5,460(a5)
  24:	4511                	li	a0,4
  26:	9782                	jalr	a5
  28:	00042783          	lw	a5,0(s0)
  2c:	471d                	li	a4,7
  2e:	469d                	li	a3,7
  30:	1bc7a803          	lw	a6,444(a5)
  34:	4625                	li	a2,9
  36:	4785                	li	a5,1
  38:	4581                	li	a1,0
  3a:	06b00513          	li	a0,107
  3e:	9802                	jalr	a6
  40:	8526                	mv	a0,s1
  42:	00000097          	auipc	ra,0x0
  46:	000080e7          	jalr	ra # 42 <test_rtc_vdd33+0x42>
  4a:	00042783          	lw	a5,0(s0)
  4e:	84aa                	mv	s1,a0
  50:	471d                	li	a4,7
  52:	1bc7a803          	lw	a6,444(a5)
  56:	06b00513          	li	a0,107
  5a:	4781                	li	a5,0
  5c:	469d                	li	a3,7
  5e:	4625                	li	a2,9
  60:	4581                	li	a1,0
  62:	9802                	jalr	a6
  64:	00042783          	lw	a5,0(s0)
  68:	1d87a783          	lw	a5,472(a5)
  6c:	9782                	jalr	a5
  6e:	40b2                	lw	ra,12(sp)
  70:	4422                	lw	s0,8(sp)
  72:	8526                	mv	a0,s1
  74:	4492                	lw	s1,4(sp)
  76:	0141                	add	sp,sp,16
  78:	8082                	ret

Disassembly of section .text.clk10m_enable:

00000000 <clk10m_enable>:
   0:	600c0737          	lui	a4,0x600c0
   4:	4f3c                	lw	a5,88(a4)
   6:	76fd                	lui	a3,0xfffff
   8:	3ff68693          	add	a3,a3,1023 # fffff3ff <.L836+0xffffc719>
   c:	c007f793          	and	a5,a5,-1024
  10:	0037e793          	or	a5,a5,3
  14:	cf3c                	sw	a5,88(a4)
  16:	4f3c                	lw	a5,88(a4)
  18:	8ff5                	and	a5,a5,a3
  1a:	cf3c                	sw	a5,88(a4)
  1c:	8082                	ret

Disassembly of section .text.uart1_sel:

00000000 <uart1_sel>:
   0:	8082                	ret

Disassembly of section .text.get_iq_est_pwr:

00000000 <get_iq_est_pwr>:
   0:	1141                	add	sp,sp,-16
   2:	c422                	sw	s0,8(sp)
   4:	00000437          	lui	s0,0x0
   8:	00042783          	lw	a5,0(s0) # 0 <get_iq_est_pwr>
   c:	c606                	sw	ra,12(sp)
   e:	1087a783          	lw	a5,264(a5)
  12:	9782                	jalr	a5
  14:	00042783          	lw	a5,0(s0)
  18:	6589                	lui	a1,0x2
  1a:	4505                	li	a0,1
  1c:	1047a783          	lw	a5,260(a5)
  20:	15fd                	add	a1,a1,-1 # 1fff <.L778+0x1>
  22:	9782                	jalr	a5
  24:	600067b7          	lui	a5,0x60006
  28:	1647a503          	lw	a0,356(a5) # 60006164 <.L836+0x6000347e>
  2c:	40b2                	lw	ra,12(sp)
  2e:	4422                	lw	s0,8(sp)
  30:	8529                	sra	a0,a0,0xa
  32:	0141                	add	sp,sp,16
  34:	8082                	ret

Disassembly of section .text.tx_chan_atten:

00000000 <tx_chan_atten>:
   0:	715d                	add	sp,sp,-80
   2:	03800793          	li	a5,56
   6:	c4a2                	sw	s0,72(sp)
   8:	c2a6                	sw	s1,68(sp)
   a:	c0ca                	sw	s2,64(sp)
   c:	de4e                	sw	s3,60(sp)
   e:	c686                	sw	ra,76(sp)
  10:	00f10fa3          	sb	a5,31(sp)
  14:	1004                	add	s1,sp,32
  16:	00000097          	auipc	ra,0x0
  1a:	000080e7          	jalr	ra # 16 <tx_chan_atten+0x16>
  1e:	03c00813          	li	a6,60
  22:	4401                	li	s0,0
  24:	89a6                	mv	s3,s1
  26:	4939                	li	s2,14

00000028 <.L387>:
  28:	0405                	add	s0,s0,1
  2a:	0ff47413          	zext.b	s0,s0
  2e:	01841513          	sll	a0,s0,0x18
  32:	4581                	li	a1,0
  34:	8561                	sra	a0,a0,0x18
  36:	c642                	sw	a6,12(sp)
  38:	00000097          	auipc	ra,0x0
  3c:	000080e7          	jalr	ra # 38 <.L387+0x10>
  40:	4832                	lw	a6,12(sp)
  42:	8726                	mv	a4,s1
  44:	4881                	li	a7,0
  46:	0f400793          	li	a5,244
  4a:	02800693          	li	a3,40
  4e:	4605                	li	a2,1
  50:	01f10593          	add	a1,sp,31
  54:	08000513          	li	a0,128
  58:	00000097          	auipc	ra,0x0
  5c:	000080e7          	jalr	ra # 58 <.L387+0x30>
  60:	0004c803          	lbu	a6,0(s1) # 0 <tx_chan_atten>
  64:	0485                	add	s1,s1,1
  66:	02880813          	add	a6,a6,40
  6a:	0862                	sll	a6,a6,0x18
  6c:	41885813          	sra	a6,a6,0x18
  70:	fb241ce3          	bne	s0,s2,28 <.L387>
  74:	00000097          	auipc	ra,0x0
  78:	000080e7          	jalr	ra # 74 <.L387+0x4c>
  7c:	4401                	li	s0,0
  7e:	00000937          	lui	s2,0x0
  82:	44b9                	li	s1,14

00000084 <.L388>:
  84:	008987b3          	add	a5,s3,s0
  88:	00078583          	lb	a1,0(a5)
  8c:	00090513          	mv	a0,s2
  90:	0405                	add	s0,s0,1
  92:	00000097          	auipc	ra,0x0
  96:	000080e7          	jalr	ra # 92 <.L388+0xe>
  9a:	fe9415e3          	bne	s0,s1,84 <.L388>
  9e:	40b6                	lw	ra,76(sp)
  a0:	4426                	lw	s0,72(sp)
  a2:	4496                	lw	s1,68(sp)
  a4:	4906                	lw	s2,64(sp)
  a6:	59f2                	lw	s3,60(sp)
  a8:	6161                	add	sp,sp,80
  aa:	8082                	ret

Disassembly of section .text.rx_gain_comp:

00000000 <rx_gain_comp>:
   0:	711d                	add	sp,sp,-96
   2:	010007b7          	lui	a5,0x1000
   6:	10078793          	add	a5,a5,256 # 1000100 <.L836+0xffd41a>
   a:	cca2                	sw	s0,88(sp)
   c:	00000437          	lui	s0,0x0
  10:	c03e                	sw	a5,0(sp)
  12:	c23e                	sw	a5,4(sp)
  14:	00042783          	lw	a5,0(s0) # 0 <rx_gain_comp>
  18:	ce86                	sw	ra,92(sp)
  1a:	caa6                	sw	s1,84(sp)
  1c:	1d47a783          	lw	a5,468(a5)
  20:	c8ca                	sw	s2,80(sp)
  22:	c6ce                	sw	s3,76(sp)
  24:	c4d2                	sw	s4,72(sp)
  26:	c2d6                	sw	s5,68(sp)
  28:	c0da                	sw	s6,64(sp)
  2a:	9782                	jalr	a5
  2c:	00042783          	lw	a5,0(s0)
  30:	4501                	li	a0,0
  32:	00810913          	add	s2,sp,8
  36:	1e47a783          	lw	a5,484(a5)
  3a:	6a05                	lui	s4,0x1
  3c:	89ca                	mv	s3,s2
  3e:	9782                	jalr	a5
  40:	00042783          	lw	a5,0(s0)
  44:	4505                	li	a0,1
  46:	4481                	li	s1,0
  48:	53dc                	lw	a5,36(a5)
  4a:	fa0a0b13          	add	s6,s4,-96 # fa0 <.L709>
  4e:	4ab9                	li	s5,14
  50:	9782                	jalr	a5
  52:	600067b7          	lui	a5,0x60006
  56:	5ff8                	lw	a4,124(a5)
  58:	080006b7          	lui	a3,0x8000
  5c:	8f55                	or	a4,a4,a3
  5e:	dff8                	sw	a4,124(a5)
  60:	5ff8                	lw	a4,124(a5)
  62:	f00006b7          	lui	a3,0xf0000
  66:	16fd                	add	a3,a3,-1 # efffffff <.L836+0xefffd319>
  68:	8f75                	and	a4,a4,a3
  6a:	dff8                	sw	a4,124(a5)
  6c:	5ff8                	lw	a4,124(a5)
  6e:	76fd                	lui	a3,0xfffff
  70:	16fd                	add	a3,a3,-1 # ffffefff <.L836+0xffffc319>
  72:	8f75                	and	a4,a4,a3
  74:	dff8                	sw	a4,124(a5)

00000076 <.L393>:
  76:	0485                	add	s1,s1,1
  78:	0ff4f493          	zext.b	s1,s1
  7c:	01849513          	sll	a0,s1,0x18
  80:	4581                	li	a1,0
  82:	8561                	sra	a0,a0,0x18
  84:	00000097          	auipc	ra,0x0
  88:	000080e7          	jalr	ra # 84 <.L393+0xe>
  8c:	00042783          	lw	a5,0(s0)
  90:	1f100613          	li	a2,497
  94:	4585                	li	a1,1
  96:	1cc7a783          	lw	a5,460(a5) # 600061cc <.L836+0x600034e6>
  9a:	4505                	li	a0,1
  9c:	0991                	add	s3,s3,4
  9e:	9782                	jalr	a5
  a0:	00042783          	lw	a5,0(s0)
  a4:	4601                	li	a2,0
  a6:	1d000593          	li	a1,464
  aa:	4fdc                	lw	a5,28(a5)
  ac:	4501                	li	a0,0
  ae:	9782                	jalr	a5
  b0:	4701                	li	a4,0
  b2:	4681                	li	a3,0
  b4:	4629                	li	a2,10
  b6:	858a                	mv	a1,sp
  b8:	855a                	mv	a0,s6
  ba:	00000097          	auipc	ra,0x0
  be:	000080e7          	jalr	ra # ba <.L393+0x44>
  c2:	4781                	li	a5,0
  c4:	4701                	li	a4,0
  c6:	4681                	li	a3,0
  c8:	05000613          	li	a2,80
  cc:	08000593          	li	a1,128
  d0:	4505                	li	a0,1
  d2:	00000097          	auipc	ra,0x0
  d6:	000080e7          	jalr	ra # d2 <.L393+0x5c>
  da:	4505                	li	a0,1
  dc:	00000097          	auipc	ra,0x0
  e0:	000080e7          	jalr	ra # dc <.L393+0x66>
  e4:	00000097          	auipc	ra,0x0
  e8:	000080e7          	jalr	ra # e4 <.L393+0x6e>
  ec:	fea9ae23          	sw	a0,-4(s3)
  f0:	4501                	li	a0,0
  f2:	00000097          	auipc	ra,0x0
  f6:	000080e7          	jalr	ra # f2 <.L393+0x7c>
  fa:	f7549ee3          	bne	s1,s5,76 <.L393>
  fe:	00042783          	lw	a5,0(s0)
 102:	4501                	li	a0,0
 104:	000004b7          	lui	s1,0x0
 108:	53dc                	lw	a5,36(a5)
 10a:	9782                	jalr	a5
 10c:	600067b7          	lui	a5,0x60006
 110:	5ff8                	lw	a4,124(a5)
 112:	100006b7          	lui	a3,0x10000
 116:	4501                	li	a0,0
 118:	8f55                	or	a4,a4,a3
 11a:	dff8                	sw	a4,124(a5)
 11c:	5ff8                	lw	a4,124(a5)
 11e:	01476733          	or	a4,a4,s4
 122:	dff8                	sw	a4,124(a5)
 124:	00042783          	lw	a5,0(s0)
 128:	1e47a783          	lw	a5,484(a5) # 600061e4 <.L836+0x600034fe>
 12c:	9782                	jalr	a5
 12e:	00042783          	lw	a5,0(s0)
 132:	03890413          	add	s0,s2,56 # 38 <rx_gain_comp+0x38>
 136:	1d87a783          	lw	a5,472(a5)
 13a:	9782                	jalr	a5

0000013c <.L394>:
 13c:	00092583          	lw	a1,0(s2)
 140:	00048513          	mv	a0,s1
 144:	0911                	add	s2,s2,4
 146:	00000097          	auipc	ra,0x0
 14a:	000080e7          	jalr	ra # 146 <.L394+0xa>
 14e:	ff2417e3          	bne	s0,s2,13c <.L394>
 152:	40f6                	lw	ra,92(sp)
 154:	4466                	lw	s0,88(sp)
 156:	44d6                	lw	s1,84(sp)
 158:	4946                	lw	s2,80(sp)
 15a:	49b6                	lw	s3,76(sp)
 15c:	4a26                	lw	s4,72(sp)
 15e:	4a96                	lw	s5,68(sp)
 160:	4b06                	lw	s6,64(sp)
 162:	6125                	add	sp,sp,96
 164:	8082                	ret

Disassembly of section .text.rx_chan_noise_all:

00000000 <rx_chan_noise_all>:
   0:	715d                	add	sp,sp,-80
   2:	c2a6                	sw	s1,68(sp)
   4:	0044                	add	s1,sp,4
   6:	c0ca                	sw	s2,64(sp)
   8:	da56                	sw	s5,52(sp)
   a:	d65e                	sw	s7,44(sp)
   c:	d462                	sw	s8,40(sp)
   e:	c686                	sw	ra,76(sp)
  10:	c4a2                	sw	s0,72(sp)
  12:	de4e                	sw	s3,60(sp)
  14:	dc52                	sw	s4,56(sp)
  16:	d85a                	sw	s6,48(sp)
  18:	8c26                	mv	s8,s1
  1a:	4901                	li	s2,0
  1c:	4a81                	li	s5,0
  1e:	4bb9                	li	s7,14

00000020 <.L404>:
  20:	0905                	add	s2,s2,1
  22:	0ff97913          	zext.b	s2,s2
  26:	01891513          	sll	a0,s2,0x18
  2a:	4581                	li	a1,0
  2c:	8561                	sra	a0,a0,0x18
  2e:	00000097          	auipc	ra,0x0
  32:	000080e7          	jalr	ra # 2e <.L404+0xe>
  36:	4a11                	li	s4,4
  38:	4401                	li	s0,0

0000003a <.L399>:
  3a:	4991                	li	s3,4
  3c:	4b01                	li	s6,0

0000003e <.L401>:
  3e:	00000097          	auipc	ra,0x0
  42:	000080e7          	jalr	ra # 3e <.L401>
  46:	87aa                	mv	a5,a0
  48:	00ab5363          	bge	s6,a0,4e <.L400>
  4c:	87da                	mv	a5,s6

0000004e <.L400>:
  4e:	19fd                	add	s3,s3,-1
  50:	01079b13          	sll	s6,a5,0x10
  54:	0ff9f993          	zext.b	s3,s3
  58:	410b5b13          	sra	s6,s6,0x10
  5c:	fe0991e3          	bnez	s3,3e <.L401>
  60:	945a                	add	s0,s0,s6
  62:	1a7d                	add	s4,s4,-1
  64:	0442                	sll	s0,s0,0x10
  66:	0ffa7a13          	zext.b	s4,s4
  6a:	8441                	sra	s0,s0,0x10
  6c:	fc0a17e3          	bnez	s4,3a <.L399>
  70:	008c1023          	sh	s0,0(s8)
  74:	87a2                	mv	a5,s0
  76:	008ad363          	bge	s5,s0,7c <.L403>
  7a:	87d6                	mv	a5,s5

0000007c <.L403>:
  7c:	01079a93          	sll	s5,a5,0x10
  80:	410ada93          	sra	s5,s5,0x10
  84:	0c09                	add	s8,s8,2
  86:	f9791de3          	bne	s2,s7,20 <.L404>
  8a:	00000437          	lui	s0,0x0
  8e:	85d6                	mv	a1,s5
  90:	00040513          	mv	a0,s0
  94:	00000097          	auipc	ra,0x0
  98:	000080e7          	jalr	ra # 94 <.L403+0x18>
  9c:	01c48913          	add	s2,s1,28 # 1c <rx_chan_noise_all+0x1c>

000000a0 <.L405>:
  a0:	00049583          	lh	a1,0(s1)
  a4:	00040513          	mv	a0,s0
  a8:	0489                	add	s1,s1,2
  aa:	00000097          	auipc	ra,0x0
  ae:	000080e7          	jalr	ra # aa <.L405+0xa>
  b2:	ff2497e3          	bne	s1,s2,a0 <.L405>
  b6:	40b6                	lw	ra,76(sp)
  b8:	4426                	lw	s0,72(sp)
  ba:	4496                	lw	s1,68(sp)
  bc:	4906                	lw	s2,64(sp)
  be:	59f2                	lw	s3,60(sp)
  c0:	5a62                	lw	s4,56(sp)
  c2:	5ad2                	lw	s5,52(sp)
  c4:	5b42                	lw	s6,48(sp)
  c6:	5bb2                	lw	s7,44(sp)
  c8:	5c22                	lw	s8,40(sp)
  ca:	6161                	add	sp,sp,80
  cc:	8082                	ret

Disassembly of section .text.rx_chan_noise:

00000000 <rx_chan_noise>:
   0:	0562                	sll	a0,a0,0x18
   2:	1101                	add	sp,sp,-32
   4:	4581                	li	a1,0
   6:	8561                	sra	a0,a0,0x18
   8:	ca26                	sw	s1,20(sp)
   a:	ce06                	sw	ra,28(sp)
   c:	cc22                	sw	s0,24(sp)
   e:	c84a                	sw	s2,16(sp)
  10:	00000097          	auipc	ra,0x0
  14:	000080e7          	jalr	ra # 10 <rx_chan_noise+0x10>
  18:	44a1                	li	s1,8
  1a:	4581                	li	a1,0

0000001c <.L411>:
  1c:	4421                	li	s0,8
  1e:	4901                	li	s2,0

00000020 <.L413>:
  20:	c62e                	sw	a1,12(sp)
  22:	00000097          	auipc	ra,0x0
  26:	000080e7          	jalr	ra # 22 <.L413+0x2>
  2a:	87aa                	mv	a5,a0
  2c:	45b2                	lw	a1,12(sp)
  2e:	00a95363          	bge	s2,a0,34 <.L412>
  32:	87ca                	mv	a5,s2

00000034 <.L412>:
  34:	147d                	add	s0,s0,-1 # ffffffff <.L836+0xffffd319>
  36:	01079913          	sll	s2,a5,0x10
  3a:	0ff47413          	zext.b	s0,s0
  3e:	41095913          	sra	s2,s2,0x10
  42:	fc79                	bnez	s0,20 <.L413>
  44:	95ca                	add	a1,a1,s2
  46:	14fd                	add	s1,s1,-1
  48:	05c2                	sll	a1,a1,0x10
  4a:	0ff4f493          	zext.b	s1,s1
  4e:	85c1                	sra	a1,a1,0x10
  50:	f4f1                	bnez	s1,1c <.L411>
  52:	4462                	lw	s0,24(sp)
  54:	40f2                	lw	ra,28(sp)
  56:	44d2                	lw	s1,20(sp)
  58:	4942                	lw	s2,16(sp)
  5a:	00000537          	lui	a0,0x0
  5e:	00050513          	mv	a0,a0
  62:	6105                	add	sp,sp,32
  64:	00000317          	auipc	t1,0x0
  68:	00030067          	jr	t1 # 64 <.L412+0x30>

Disassembly of section .text.bt_pbus_rx_dco_cal:

00000000 <bt_pbus_rx_dco_cal>:
   0:	7159                	add	sp,sp,-112
   2:	d4a2                	sw	s0,104(sp)
   4:	00000437          	lui	s0,0x0
   8:	00042783          	lw	a5,0(s0) # 0 <bt_pbus_rx_dco_cal>
   c:	d2a6                	sw	s1,100(sp)
   e:	cece                	sw	s3,92(sp)
  10:	1d07a783          	lw	a5,464(a5)
  14:	c8da                	sw	s6,80(sp)
  16:	c4e2                	sw	s8,72(sp)
  18:	c2e6                	sw	s9,68(sp)
  1a:	c82a                	sw	a0,16(sp)
  1c:	d686                	sw	ra,108(sp)
  1e:	d0ca                	sw	s2,96(sp)
  20:	ccd2                	sw	s4,88(sp)
  22:	cad6                	sw	s5,84(sp)
  24:	c6de                	sw	s7,76(sp)
  26:	c0ea                	sw	s10,64(sp)
  28:	de6e                	sw	s11,60(sp)
  2a:	8b2e                	mv	s6,a1
  2c:	4505                	li	a0,1
  2e:	4589                	li	a1,2
  30:	ca32                	sw	a2,20(sp)
  32:	8cb6                	mv	s9,a3
  34:	8c3a                	mv	s8,a4
  36:	9782                	jalr	a5
  38:	03f57493          	and	s1,a0,63
  3c:	4981                	li	s3,0

0000003e <.L418>:
  3e:	24049063          	bnez	s1,27e <.L419>
  42:	00042783          	lw	a5,0(s0)
  46:	8119                	srl	a0,a0,0x6
  48:	10000613          	li	a2,256
  4c:	1cc7a783          	lw	a5,460(a5)
  50:	4589                	li	a1,2
  52:	0ff57d13          	zext.b	s10,a0
  56:	4509                	li	a0,2
  58:	9782                	jalr	a5
  5a:	00042783          	lw	a5,0(s0)
  5e:	10000613          	li	a2,256
  62:	4589                	li	a1,2
  64:	1cc7a783          	lw	a5,460(a5)
  68:	450d                	li	a0,3
  6a:	4b8d                	li	s7,3
  6c:	9782                	jalr	a5
  6e:	4789                	li	a5,2
  70:	0137f363          	bgeu	a5,s3,76 <.L420>
  74:	4b95                	li	s7,5

00000076 <.L420>:
  76:	00798793          	add	a5,s3,7
  7a:	0ff7f793          	zext.b	a5,a5
  7e:	cc3e                	sw	a5,24(sp)
  80:	000007b7          	lui	a5,0x0
  84:	00078793          	mv	a5,a5
  88:	97ea                	add	a5,a5,s10
  8a:	c23e                	sw	a5,4(sp)
  8c:	000b1a83          	lh	s5,0(s6)
  90:	00898793          	add	a5,s3,8
  94:	002b1a03          	lh	s4,2(s6)
  98:	0ff7f793          	zext.b	a5,a5
  9c:	ce3e                	sw	a5,28(sp)

0000009e <.L437>:
  9e:	00042783          	lw	a5,0(s0)
  a2:	010a9713          	sll	a4,s5,0x10
  a6:	8341                	srl	a4,a4,0x10
  a8:	1cc7a783          	lw	a5,460(a5) # 1cc <.L427+0x1c>
  ac:	863a                	mv	a2,a4
  ae:	4585                	li	a1,1
  b0:	4509                	li	a0,2
  b2:	015b1023          	sh	s5,0(s6)
  b6:	c43a                	sw	a4,8(sp)
  b8:	9782                	jalr	a5
  ba:	00042783          	lw	a5,0(s0)
  be:	010a1713          	sll	a4,s4,0x10
  c2:	8341                	srl	a4,a4,0x10
  c4:	1cc7a783          	lw	a5,460(a5)
  c8:	863a                	mv	a2,a4
  ca:	4585                	li	a1,1
  cc:	450d                	li	a0,3
  ce:	014b1123          	sh	s4,2(s6)
  d2:	c63a                	sw	a4,12(sp)
  d4:	9782                	jalr	a5
  d6:	4552                	lw	a0,20(sp)
  d8:	00000097          	auipc	ra,0x0
  dc:	000080e7          	jalr	ra # d8 <.L437+0x3a>
  e0:	00042783          	lw	a5,0(s0)
  e4:	45c2                	lw	a1,16(sp)
  e6:	1050                	add	a2,sp,36
  e8:	10c7a783          	lw	a5,268(a5)
  ec:	4505                	li	a0,1
  ee:	9782                	jalr	a5
  f0:	020c0863          	beqz	s8,120 <.L421>
  f4:	002b1603          	lh	a2,2(s6)
  f8:	000b1583          	lh	a1,0(s6)
  fc:	000007b7          	lui	a5,0x0
 100:	00078513          	mv	a0,a5
 104:	00000097          	auipc	ra,0x0
 108:	000080e7          	jalr	ra # 104 <.L437+0x66>
 10c:	5622                	lw	a2,40(sp)
 10e:	5592                	lw	a1,36(sp)
 110:	00000537          	lui	a0,0x0
 114:	00050513          	mv	a0,a0
 118:	00000097          	auipc	ra,0x0
 11c:	000080e7          	jalr	ra # 118 <.L437+0x7a>

00000120 <.L421>:
 120:	00042783          	lw	a5,0(s0)
 124:	5512                	lw	a0,36(sp)
 126:	1007a783          	lw	a5,256(a5) # 100 <.L437+0x62>
 12a:	9782                	jalr	a5
 12c:	16abd063          	bge	s7,a0,28c <.L422>

00000130 <.L426>:
 130:	5512                	lw	a0,36(sp)
 132:	e099                	bnez	s1,138 <.L424>
 134:	5da2                	lw	s11,40(sp)
 136:	c02a                	sw	a0,0(sp)

00000138 <.L424>:
 138:	00042783          	lw	a5,0(s0)
 13c:	4962                	lw	s2,24(sp)
 13e:	1007a783          	lw	a5,256(a5)
 142:	9782                	jalr	a5
 144:	06abd663          	bge	s7,a0,1b0 <.L427>
 148:	00042783          	lw	a5,0(s0)
 14c:	4702                	lw	a4,0(sp)
 14e:	5512                	lw	a0,36(sp)
 150:	1007a783          	lw	a5,256(a5)
 154:	8d19                	sub	a0,a0,a4
 156:	9782                	jalr	a5
 158:	8aaa                	mv	s5,a0
 15a:	5512                	lw	a0,36(sp)
 15c:	478d                	li	a5,3
 15e:	00042703          	lw	a4,0(s0)
 162:	02a787b3          	mul	a5,a5,a0
 166:	4509                	li	a0,2
 168:	10072703          	lw	a4,256(a4) # 600c0100 <.L836+0x600bd41a>
 16c:	02a7c533          	div	a0,a5,a0
 170:	9702                	jalr	a4
 172:	01555363          	bge	a0,s5,178 <.L428>
 176:	4972                	lw	s2,28(sp)

00000178 <.L428>:
 178:	4712                	lw	a4,4(sp)
 17a:	5792                	lw	a5,36(sp)
 17c:	00074a83          	lbu	s5,0(a4)
 180:	4719                	li	a4,6
 182:	02fa8ab3          	mul	s5,s5,a5
 186:	02ea8ab3          	mul	s5,s5,a4
 18a:	00290713          	add	a4,s2,2
 18e:	40eadab3          	sra	s5,s5,a4
 192:	0ac2                	sll	s5,s5,0x10
 194:	410ada93          	sra	s5,s5,0x10
 198:	000a9663          	bnez	s5,1a4 <.L429>
 19c:	4a85                	li	s5,1
 19e:	00f04363          	bgtz	a5,1a4 <.L429>
 1a2:	5afd                	li	s5,-1

000001a4 <.L429>:
 1a4:	47a2                	lw	a5,8(sp)
 1a6:	41578ab3          	sub	s5,a5,s5
 1aa:	0ac2                	sll	s5,s5,0x10
 1ac:	410ada93          	sra	s5,s5,0x10

000001b0 <.L427>:
 1b0:	00042783          	lw	a5,0(s0)
 1b4:	5522                	lw	a0,40(sp)
 1b6:	1007a783          	lw	a5,256(a5)
 1ba:	9782                	jalr	a5
 1bc:	06abd763          	bge	s7,a0,22a <.L430>
 1c0:	00042783          	lw	a5,0(s0)
 1c4:	5522                	lw	a0,40(sp)
 1c6:	1007a783          	lw	a5,256(a5)
 1ca:	41b50533          	sub	a0,a0,s11
 1ce:	9782                	jalr	a5
 1d0:	8a2a                	mv	s4,a0
 1d2:	5522                	lw	a0,40(sp)
 1d4:	478d                	li	a5,3
 1d6:	00042703          	lw	a4,0(s0)
 1da:	02a787b3          	mul	a5,a5,a0
 1de:	4509                	li	a0,2
 1e0:	10072703          	lw	a4,256(a4)
 1e4:	02a7c533          	div	a0,a5,a0
 1e8:	9702                	jalr	a4
 1ea:	01455563          	bge	a0,s4,1f4 <.L431>
 1ee:	0905                	add	s2,s2,1
 1f0:	0ff97913          	zext.b	s2,s2

000001f4 <.L431>:
 1f4:	4712                	lw	a4,4(sp)
 1f6:	57a2                	lw	a5,40(sp)
 1f8:	0909                	add	s2,s2,2
 1fa:	00074a03          	lbu	s4,0(a4)
 1fe:	4719                	li	a4,6
 200:	02fa0a33          	mul	s4,s4,a5
 204:	02ea0a33          	mul	s4,s4,a4
 208:	412a5a33          	sra	s4,s4,s2
 20c:	0a42                	sll	s4,s4,0x10
 20e:	410a5a13          	sra	s4,s4,0x10
 212:	000a1663          	bnez	s4,21e <.L432>
 216:	4a05                	li	s4,1
 218:	00f04363          	bgtz	a5,21e <.L432>
 21c:	5a7d                	li	s4,-1

0000021e <.L432>:
 21e:	47b2                	lw	a5,12(sp)
 220:	41478a33          	sub	s4,a5,s4
 224:	0a42                	sll	s4,s4,0x10
 226:	410a5a13          	sra	s4,s4,0x10

0000022a <.L430>:
 22a:	3fe00713          	li	a4,1022
 22e:	87d6                	mv	a5,s5
 230:	01575463          	bge	a4,s5,238 <.L433>
 234:	3fe00793          	li	a5,1022

00000238 <.L433>:
 238:	8abe                	mv	s5,a5
 23a:	010a9793          	sll	a5,s5,0x10
 23e:	0007d363          	bgez	a5,244 <.L434>
 242:	4a81                	li	s5,0

00000244 <.L434>:
 244:	0ac2                	sll	s5,s5,0x10
 246:	3fe00713          	li	a4,1022
 24a:	410ada93          	sra	s5,s5,0x10
 24e:	87d2                	mv	a5,s4
 250:	01475463          	bge	a4,s4,258 <.L435>
 254:	3fe00793          	li	a5,1022

00000258 <.L435>:
 258:	8a3e                	mv	s4,a5
 25a:	010a1793          	sll	a5,s4,0x10
 25e:	0007d363          	bgez	a5,264 <.L436>
 262:	4a01                	li	s4,0

00000264 <.L436>:
 264:	5792                	lw	a5,36(sp)
 266:	0485                	add	s1,s1,1
 268:	0a42                	sll	s4,s4,0x10
 26a:	c03e                	sw	a5,0(sp)
 26c:	0ff4f493          	zext.b	s1,s1
 270:	47b1                	li	a5,12
 272:	410a5a13          	sra	s4,s4,0x10
 276:	5da2                	lw	s11,40(sp)
 278:	e2f493e3          	bne	s1,a5,9e <.L437>
 27c:	a005                	j	29c <.L425>

0000027e <.L419>:
 27e:	0014f793          	and	a5,s1,1
 282:	99be                	add	s3,s3,a5
 284:	0ff9f993          	zext.b	s3,s3
 288:	8085                	srl	s1,s1,0x1
 28a:	bb55                	j	3e <.L418>

0000028c <.L422>:
 28c:	00042783          	lw	a5,0(s0)
 290:	5522                	lw	a0,40(sp)
 292:	1007a783          	lw	a5,256(a5)
 296:	9782                	jalr	a5
 298:	e8abcce3          	blt	s7,a0,130 <.L426>

0000029c <.L425>:
 29c:	040c8963          	beqz	s9,2ee <.L438>
 2a0:	57a2                	lw	a5,40(sp)
 2a2:	5712                	lw	a4,36(sp)
 2a4:	00000537          	lui	a0,0x0
 2a8:	8826                	mv	a6,s1
 2aa:	86ea                	mv	a3,s10
 2ac:	864e                	mv	a2,s3
 2ae:	4585                	li	a1,1
 2b0:	00050513          	mv	a0,a0
 2b4:	00000097          	auipc	ra,0x0
 2b8:	000080e7          	jalr	ra # 2b4 <.L425+0x18>
 2bc:	020c1b63          	bnez	s8,2f2 <.L439>

000002c0 <.L441>:
 2c0:	00000537          	lui	a0,0x0
 2c4:	00050513          	mv	a0,a0
 2c8:	00000097          	auipc	ra,0x0
 2cc:	000080e7          	jalr	ra # 2c8 <.L441+0x8>

000002d0 <.L417>:
 2d0:	50b6                	lw	ra,108(sp)
 2d2:	5426                	lw	s0,104(sp)
 2d4:	5496                	lw	s1,100(sp)
 2d6:	5906                	lw	s2,96(sp)
 2d8:	49f6                	lw	s3,92(sp)
 2da:	4a66                	lw	s4,88(sp)
 2dc:	4ad6                	lw	s5,84(sp)
 2de:	4b46                	lw	s6,80(sp)
 2e0:	4bb6                	lw	s7,76(sp)
 2e2:	4c26                	lw	s8,72(sp)
 2e4:	4c96                	lw	s9,68(sp)
 2e6:	4d06                	lw	s10,64(sp)
 2e8:	5df2                	lw	s11,60(sp)
 2ea:	6165                	add	sp,sp,112
 2ec:	8082                	ret

000002ee <.L438>:
 2ee:	fe0c01e3          	beqz	s8,2d0 <.L417>

000002f2 <.L439>:
 2f2:	00000537          	lui	a0,0x0
 2f6:	00050513          	mv	a0,a0
 2fa:	00000097          	auipc	ra,0x0
 2fe:	000080e7          	jalr	ra # 2fa <.L439+0x8>
 302:	fc0c87e3          	beqz	s9,2d0 <.L417>
 306:	bf6d                	j	2c0 <.L441>

Disassembly of section .text.dc_iq_est_test:

00000000 <dc_iq_est_test>:
   0:	1101                	add	sp,sp,-32
   2:	c84a                	sw	s2,16(sp)
   4:	00000937          	lui	s2,0x0
   8:	00092783          	lw	a5,0(s2) # 0 <dc_iq_est_test>
   c:	cc22                	sw	s0,24(sp)
   e:	ca26                	sw	s1,20(sp)
  10:	1047a783          	lw	a5,260(a5)
  14:	c64e                	sw	s3,12(sp)
  16:	c452                	sw	s4,8(sp)
  18:	ce06                	sw	ra,28(sp)
  1a:	842e                	mv	s0,a1
  1c:	89b2                	mv	s3,a2
  1e:	84b6                	mv	s1,a3
  20:	9782                	jalr	a5
  22:	600066b7          	lui	a3,0x60006
  26:	15c6a503          	lw	a0,348(a3) # 6000615c <.L836+0x60003476>
  2a:	00140593          	add	a1,s0,1
  2e:	8519                	sra	a0,a0,0x6
  30:	02b54533          	div	a0,a0,a1
  34:	00a9a023          	sw	a0,0(s3)
  38:	1606a783          	lw	a5,352(a3)
  3c:	02a50533          	mul	a0,a0,a0
  40:	8799                	sra	a5,a5,0x6
  42:	02b7c7b3          	div	a5,a5,a1
  46:	00f9a223          	sw	a5,4(s3)
  4a:	1646a703          	lw	a4,356(a3)
  4e:	1686a403          	lw	s0,360(a3)
  52:	02f787b3          	mul	a5,a5,a5
  56:	16c6aa03          	lw	s4,364(a3)
  5a:	02b44433          	div	s0,s0,a1
  5e:	00f506b3          	add	a3,a0,a5
  62:	040a                	sll	s0,s0,0x2
  64:	02b74733          	div	a4,a4,a1
  68:	8c09                	sub	s0,s0,a0
  6a:	02ba4533          	div	a0,s4,a1
  6e:	070e                	sll	a4,a4,0x3
  70:	050a                	sll	a0,a0,0x2
  72:	40f50a33          	sub	s4,a0,a5
  76:	40d70533          	sub	a0,a4,a3
  7a:	00055363          	bgez	a0,80 <.L452>
  7e:	4501                	li	a0,0

00000080 <.L452>:
  80:	00092783          	lw	a5,0(s2)
  84:	4581                	li	a1,0
  86:	1187a783          	lw	a5,280(a5)
  8a:	9782                	jalr	a5
  8c:	00850713          	add	a4,a0,8 # 8 <dc_iq_est_test+0x8>
  90:	c088                	sw	a0,0(s1)
  92:	8711                	sra	a4,a4,0x4
  94:	00e9a423          	sw	a4,8(s3)
  98:	8522                	mv	a0,s0
  9a:	00045363          	bgez	s0,a0 <.L453>
  9e:	4501                	li	a0,0

000000a0 <.L453>:
  a0:	00092783          	lw	a5,0(s2)
  a4:	4581                	li	a1,0
  a6:	1187a783          	lw	a5,280(a5)
  aa:	9782                	jalr	a5
  ac:	c0c8                	sw	a0,4(s1)
  ae:	8552                	mv	a0,s4
  b0:	000a5363          	bgez	s4,b6 <.L454>
  b4:	4501                	li	a0,0

000000b6 <.L454>:
  b6:	00092783          	lw	a5,0(s2)
  ba:	4581                	li	a1,0
  bc:	1187a783          	lw	a5,280(a5)
  c0:	9782                	jalr	a5
  c2:	00092783          	lw	a5,0(s2)
  c6:	4462                	lw	s0,24(sp)
  c8:	c488                	sw	a0,8(s1)
  ca:	40f2                	lw	ra,28(sp)
  cc:	44d2                	lw	s1,20(sp)
  ce:	4942                	lw	s2,16(sp)
  d0:	49b2                	lw	s3,12(sp)
  d2:	4a22                	lw	s4,8(sp)
  d4:	1087a303          	lw	t1,264(a5)
  d8:	6105                	add	sp,sp,32
  da:	8302                	jr	t1

Disassembly of section .text.txpwr_backoff_test:

00000000 <txpwr_backoff_test>:
   0:	7139                	add	sp,sp,-64
   2:	d84a                	sw	s2,48(sp)
   4:	d452                	sw	s4,40(sp)
   6:	00000937          	lui	s2,0x0
   a:	00000a37          	lui	s4,0x0
   e:	da26                	sw	s1,52(sp)
  10:	d64e                	sw	s3,44(sp)
  12:	d256                	sw	s5,36(sp)
  14:	d05a                	sw	s6,32(sp)
  16:	ce5e                	sw	s7,28(sp)
  18:	cc62                	sw	s8,24(sp)
  1a:	de06                	sw	ra,60(sp)
  1c:	dc22                	sw	s0,56(sp)
  1e:	00c10993          	add	s3,sp,12
  22:	4485                	li	s1,1
  24:	00090913          	mv	s2,s2
  28:	8c52                	mv	s8,s4
  2a:	4b09                	li	s6,2
  2c:	4a85                	li	s5,1
  2e:	4bc1                	li	s7,16

00000030 <.L460>:
  30:	01849513          	sll	a0,s1,0x18
  34:	4581                	li	a1,0
  36:	8561                	sra	a0,a0,0x18
  38:	00000097          	auipc	ra,0x0
  3c:	000080e7          	jalr	ra # 38 <.L460+0x8>
  40:	00000097          	auipc	ra,0x0
  44:	000080e7          	jalr	ra # 40 <.L460+0x10>
  48:	17094603          	lbu	a2,368(s2) # 170 <.L643+0x2>
  4c:	4681                	li	a3,0
  4e:	00b10593          	add	a1,sp,11
  52:	02860613          	add	a2,a2,40 # 28 <txpwr_backoff_test+0x28>
  56:	0662                	sll	a2,a2,0x18
  58:	8661                	sra	a2,a2,0x18
  5a:	0f4a0513          	add	a0,s4,244 # f4 <.L459+0x6>
  5e:	00000097          	auipc	ra,0x0
  62:	000080e7          	jalr	ra # 5e <.L460+0x2e>
  66:	842a                	mv	s0,a0
  68:	e509                	bnez	a0,72 <.L457>
  6a:	00b14783          	lbu	a5,11(sp)
  6e:	03578a63          	beq	a5,s5,a2 <.L458>

00000072 <.L457>:
  72:	17094603          	lbu	a2,368(s2)
  76:	4681                	li	a3,0
  78:	00b10593          	add	a1,sp,11
  7c:	02860613          	add	a2,a2,40
  80:	0662                	sll	a2,a2,0x18
  82:	8661                	sra	a2,a2,0x18
  84:	0f4c0513          	add	a0,s8,244
  88:	00000097          	auipc	ra,0x0
  8c:	000080e7          	jalr	ra # 88 <.L457+0x16>
  90:	942a                	add	s0,s0,a0
  92:	0442                	sll	s0,s0,0x10
  94:	8441                	sra	s0,s0,0x10
  96:	ed21                	bnez	a0,ee <.L459>
  98:	00b14783          	lbu	a5,11(sp)
  9c:	05579963          	bne	a5,s5,ee <.L459>
  a0:	4401                	li	s0,0

000000a2 <.L458>:
  a2:	0495                	add	s1,s1,5
  a4:	0ff4f493          	zext.b	s1,s1
  a8:	00898023          	sb	s0,0(s3)
  ac:	00000097          	auipc	ra,0x0
  b0:	000080e7          	jalr	ra # ac <.L458+0xa>
  b4:	0985                	add	s3,s3,1
  b6:	f7749de3          	bne	s1,s7,30 <.L460>
  ba:	00e14683          	lbu	a3,14(sp)
  be:	00d14603          	lbu	a2,13(sp)
  c2:	00c14583          	lbu	a1,12(sp)
  c6:	00000537          	lui	a0,0x0
  ca:	00050513          	mv	a0,a0
  ce:	00000097          	auipc	ra,0x0
  d2:	000080e7          	jalr	ra # ce <.L458+0x2c>
  d6:	50f2                	lw	ra,60(sp)
  d8:	5462                	lw	s0,56(sp)
  da:	54d2                	lw	s1,52(sp)
  dc:	5942                	lw	s2,48(sp)
  de:	59b2                	lw	s3,44(sp)
  e0:	5a22                	lw	s4,40(sp)
  e2:	5a92                	lw	s5,36(sp)
  e4:	5b02                	lw	s6,32(sp)
  e6:	4bf2                	lw	s7,28(sp)
  e8:	4c62                	lw	s8,24(sp)
  ea:	6121                	add	sp,sp,64
  ec:	8082                	ret

000000ee <.L459>:
  ee:	0405                	add	s0,s0,1
  f0:	03644433          	div	s0,s0,s6
  f4:	0442                	sll	s0,s0,0x10
  f6:	8441                	sra	s0,s0,0x10
  f8:	b76d                	j	a2 <.L458>

Disassembly of section .text.set_tx_power:

00000000 <set_tx_power>:
   0:	1141                	add	sp,sp,-16
   2:	c422                	sw	s0,8(sp)
   4:	c226                	sw	s1,4(sp)
   6:	000007b7          	lui	a5,0x0
   a:	c606                	sw	ra,12(sp)
   c:	84aa                	mv	s1,a0
   e:	00078413          	mv	s0,a5
  12:	c1b9                	beqz	a1,58 <.L465>
  14:	00000537          	lui	a0,0x0
  18:	00050513          	mv	a0,a0
  1c:	00000097          	auipc	ra,0x0
  20:	000080e7          	jalr	ra # 1c <set_tx_power+0x1c>

00000024 <.L466>:
  24:	1f244503          	lbu	a0,498(s0)
  28:	4581                	li	a1,0
  2a:	00000097          	auipc	ra,0x0
  2e:	000080e7          	jalr	ra # 2a <.L466+0x6>
  32:	1ba40683          	lb	a3,442(s0)
  36:	1c845603          	lhu	a2,456(s0)
  3a:	1e444583          	lbu	a1,484(s0)
  3e:	4422                	lw	s0,8(sp)
  40:	40b2                	lw	ra,12(sp)
  42:	8726                	mv	a4,s1
  44:	4492                	lw	s1,4(sp)
  46:	00000537          	lui	a0,0x0
  4a:	00050513          	mv	a0,a0
  4e:	0141                	add	sp,sp,16
  50:	00000317          	auipc	t1,0x0
  54:	00030067          	jr	t1 # 50 <.L466+0x2c>

00000058 <.L465>:
  58:	00078793          	mv	a5,a5
  5c:	00e40713          	add	a4,s0,14

00000060 <.L467>:
  60:	0e978a23          	sb	s1,244(a5) # f4 <.L275>
  64:	0785                	add	a5,a5,1
  66:	fee79de3          	bne	a5,a4,60 <.L467>
  6a:	bf6d                	j	24 <.L466>

Disassembly of section .text.force_ble_tx_gain:

00000000 <force_ble_tx_gain>:
   0:	715d                	add	sp,sp,-80
   2:	000007b7          	lui	a5,0x0
   6:	c686                	sw	ra,76(sp)
   8:	00078793          	mv	a5,a5
   c:	ce91                	beqz	a3,28 <.L471>
   e:	4705                	li	a4,1
  10:	4501                	li	a0,0
  12:	08078ca3          	sb	zero,153(a5) # 99 <.L509+0x3>
  16:	08e78ea3          	sb	a4,157(a5)
  1a:	00000097          	auipc	ra,0x0
  1e:	000080e7          	jalr	ra # 1a <force_ble_tx_gain+0x1a>

00000022 <.L470>:
  22:	40b6                	lw	ra,76(sp)
  24:	6161                	add	sp,sp,80
  26:	8082                	ret

00000028 <.L471>:
  28:	4705                	li	a4,1
  2a:	08e78ca3          	sb	a4,153(a5)
  2e:	1018                	add	a4,sp,32
  30:	08078ea3          	sb	zero,157(a5)
  34:	86ba                	mv	a3,a4
  36:	4781                	li	a5,0
  38:	4841                	li	a6,16

0000003a <.L473>:
  3a:	00f108b3          	add	a7,sp,a5
  3e:	00a88023          	sb	a0,0(a7) # 20000 <.L836+0x1d31a>
  42:	01010893          	add	a7,sp,16
  46:	98be                	add	a7,a7,a5
  48:	00b71023          	sh	a1,0(a4)
  4c:	00c88023          	sb	a2,0(a7)
  50:	0785                	add	a5,a5,1
  52:	0709                	add	a4,a4,2
  54:	ff0793e3          	bne	a5,a6,3a <.L473>
  58:	000007b7          	lui	a5,0x0
  5c:	00000737          	lui	a4,0x0
  60:	18078793          	add	a5,a5,384 # 180 <.LC106+0x4>
  64:	18270713          	add	a4,a4,386 # 182 <.LC106+0x6>
  68:	860a                	mv	a2,sp
  6a:	45c1                	li	a1,16
  6c:	4505                	li	a0,1
  6e:	00000097          	auipc	ra,0x0
  72:	000080e7          	jalr	ra # 6e <.L473+0x34>
  76:	0808                	add	a0,sp,16
  78:	00000097          	auipc	ra,0x0
  7c:	000080e7          	jalr	ra # 78 <.L473+0x3e>
  80:	b74d                	j	22 <.L470>

Disassembly of section .text.force_tx_gain:

00000000 <force_tx_gain>:
   0:	711d                	add	sp,sp,-96
   2:	cca2                	sw	s0,88(sp)
   4:	caa6                	sw	s1,84(sp)
   6:	c8ca                	sw	s2,80(sp)
   8:	c6ce                	sw	s3,76(sp)
   a:	000007b7          	lui	a5,0x0
   e:	ce86                	sw	ra,92(sp)
  10:	842a                	mv	s0,a0
  12:	84ae                	mv	s1,a1
  14:	8932                	mv	s2,a2
  16:	89b6                	mv	s3,a3
  18:	00078793          	mv	a5,a5
  1c:	00000737          	lui	a4,0x0
  20:	ce85                	beqz	a3,58 <.L477>
  22:	1f27c503          	lbu	a0,498(a5) # 1f2 <.L619>
  26:	4685                	li	a3,1
  28:	4585                	li	a1,1
  2a:	08078ca3          	sb	zero,153(a5)
  2e:	00d70023          	sb	a3,0(a4) # 0 <force_tx_gain>
  32:	00000097          	auipc	ra,0x0
  36:	000080e7          	jalr	ra # 32 <force_tx_gain+0x32>

0000003a <.L478>:
  3a:	86ce                	mv	a3,s3
  3c:	864a                	mv	a2,s2
  3e:	85a6                	mv	a1,s1
  40:	8522                	mv	a0,s0
  42:	00000097          	auipc	ra,0x0
  46:	000080e7          	jalr	ra # 42 <.L478+0x8>
  4a:	40f6                	lw	ra,92(sp)
  4c:	4466                	lw	s0,88(sp)
  4e:	44d6                	lw	s1,84(sp)
  50:	4946                	lw	s2,80(sp)
  52:	49b6                	lw	s3,76(sp)
  54:	6125                	add	sp,sp,96
  56:	8082                	ret

00000058 <.L477>:
  58:	4685                	li	a3,1
  5a:	00070023          	sb	zero,0(a4)
  5e:	1058                	add	a4,sp,36
  60:	08d78ca3          	sb	a3,153(a5)
  64:	4639                	li	a2,14
  66:	4781                	li	a5,0
  68:	86ba                	mv	a3,a4

0000006a <.L479>:
  6a:	004c                	add	a1,sp,4
  6c:	95be                	add	a1,a1,a5
  6e:	00858023          	sb	s0,0(a1)
  72:	084c                	add	a1,sp,20
  74:	95be                	add	a1,a1,a5
  76:	00971023          	sh	s1,0(a4)
  7a:	01258023          	sb	s2,0(a1)
  7e:	0785                	add	a5,a5,1
  80:	0709                	add	a4,a4,2
  82:	fec794e3          	bne	a5,a2,6a <.L479>
  86:	000007b7          	lui	a5,0x0
  8a:	00000737          	lui	a4,0x0
  8e:	14c78793          	add	a5,a5,332 # 14c <.L618+0x2>
  92:	12470713          	add	a4,a4,292 # 124 <.L421+0x4>
  96:	0050                	add	a2,sp,4
  98:	45b9                	li	a1,14
  9a:	4501                	li	a0,0
  9c:	00000097          	auipc	ra,0x0
  a0:	000080e7          	jalr	ra # 9c <.L479+0x32>
  a4:	0848                	add	a0,sp,20
  a6:	00000097          	auipc	ra,0x0
  aa:	000080e7          	jalr	ra # a6 <.L479+0x3c>
  ae:	b771                	j	3a <.L478>

Disassembly of section .text.rftest_set_chan:

00000000 <rftest_set_chan>:
   0:	1141                	add	sp,sp,-16
   2:	05e2                	sll	a1,a1,0x18
   4:	0562                	sll	a0,a0,0x18
   6:	c422                	sw	s0,8(sp)
   8:	85e1                	sra	a1,a1,0x18
   a:	8561                	sra	a0,a0,0x18
   c:	00000437          	lui	s0,0x0
  10:	c606                	sw	ra,12(sp)
  12:	00040413          	mv	s0,s0
  16:	00000097          	auipc	ra,0x0
  1a:	000080e7          	jalr	ra # 16 <rftest_set_chan+0x16>
  1e:	09c44783          	lbu	a5,156(s0) # 9c <.L23>
  22:	cf89                	beqz	a5,3c <.L483>
  24:	4551                	li	a0,20
  26:	00000097          	auipc	ra,0x0
  2a:	000080e7          	jalr	ra # 26 <rftest_set_chan+0x26>
  2e:	09b44503          	lbu	a0,155(s0)
  32:	4581                	li	a1,0
  34:	00000097          	auipc	ra,0x0
  38:	000080e7          	jalr	ra # 34 <rftest_set_chan+0x34>

0000003c <.L483>:
  3c:	000007b7          	lui	a5,0x0
  40:	0007c783          	lbu	a5,0(a5) # 0 <rftest_set_chan>
  44:	c38d                	beqz	a5,66 <.L482>
  46:	000007b7          	lui	a5,0x0
  4a:	0007c503          	lbu	a0,0(a5) # 0 <rftest_set_chan>
  4e:	4581                	li	a1,0
  50:	00000097          	auipc	ra,0x0
  54:	000080e7          	jalr	ra # 50 <.L483+0x14>
  58:	4422                	lw	s0,8(sp)
  5a:	40b2                	lw	ra,12(sp)
  5c:	0141                	add	sp,sp,16
  5e:	00000317          	auipc	t1,0x0
  62:	00030067          	jr	t1 # 5e <.L483+0x22>

00000066 <.L482>:
  66:	40b2                	lw	ra,12(sp)
  68:	4422                	lw	s0,8(sp)
  6a:	0141                	add	sp,sp,16
  6c:	8082                	ret

Disassembly of section .text.rftest_pll_track:

00000000 <rftest_pll_track>:
   0:	1141                	add	sp,sp,-16
   2:	c422                	sw	s0,8(sp)
   4:	c606                	sw	ra,12(sp)
   6:	c226                	sw	s1,4(sp)
   8:	00000437          	lui	s0,0x0
   c:	00000097          	auipc	ra,0x0
  10:	000080e7          	jalr	ra # c <rftest_pll_track+0xc>
  14:	00040413          	mv	s0,s0
  18:	00000737          	lui	a4,0x0
  1c:	09c44783          	lbu	a5,156(s0) # 9c <.L23>
  20:	00074703          	lbu	a4,0(a4) # 0 <rftest_pll_track>
  24:	8fd9                	or	a5,a5,a4
  26:	c3a1                	beqz	a5,66 <.L489>
  28:	000007b7          	lui	a5,0x0
  2c:	0007a783          	lw	a5,0(a5) # 0 <rftest_pll_track>
  30:	000004b7          	lui	s1,0x0
  34:	00048493          	mv	s1,s1
  38:	09241503          	lh	a0,146(s0)
  3c:	00049703          	lh	a4,0(s1) # 0 <rftest_pll_track>
  40:	1007a783          	lw	a5,256(a5)
  44:	8d19                	sub	a0,a0,a4
  46:	9782                	jalr	a5
  48:	47a5                	li	a5,9
  4a:	00a7de63          	bge	a5,a0,66 <.L489>
  4e:	1f444583          	lbu	a1,500(s0)
  52:	1f244503          	lbu	a0,498(s0)
  56:	00000097          	auipc	ra,0x0
  5a:	000080e7          	jalr	ra # 56 <rftest_pll_track+0x56>
  5e:	09245783          	lhu	a5,146(s0)
  62:	00f49023          	sh	a5,0(s1)

00000066 <.L489>:
  66:	40b2                	lw	ra,12(sp)
  68:	4422                	lw	s0,8(sp)
  6a:	4492                	lw	s1,4(sp)
  6c:	0141                	add	sp,sp,16
  6e:	8082                	ret

Disassembly of section .text.sw_chan_test:

00000000 <sw_chan_test>:
   0:	7139                	add	sp,sp,-64
   2:	dc22                	sw	s0,56(sp)
   4:	da26                	sw	s1,52(sp)
   6:	d84a                	sw	s2,48(sp)
   8:	d64e                	sw	s3,44(sp)
   a:	d452                	sw	s4,40(sp)
   c:	d256                	sw	s5,36(sp)
   e:	d05a                	sw	s6,32(sp)
  10:	ce5e                	sw	s7,28(sp)
  12:	de06                	sw	ra,60(sp)
  14:	892a                	mv	s2,a0
  16:	8aae                	mv	s5,a1
  18:	8a32                	mv	s4,a2
  1a:	8b36                	mv	s6,a3
  1c:	842a                	mv	s0,a0
  1e:	4481                	li	s1,0
  20:	600359b7          	lui	s3,0x60035
  24:	00000bb7          	lui	s7,0x0

00000028 <.L495>:
  28:	0144cd63          	blt	s1,s4,42 <.L497>
  2c:	50f2                	lw	ra,60(sp)
  2e:	5462                	lw	s0,56(sp)
  30:	54d2                	lw	s1,52(sp)
  32:	5942                	lw	s2,48(sp)
  34:	59b2                	lw	s3,44(sp)
  36:	5a22                	lw	s4,40(sp)
  38:	5a92                	lw	s5,36(sp)
  3a:	5b02                	lw	s6,32(sp)
  3c:	4bf2                	lw	s7,28(sp)
  3e:	6121                	add	sp,sp,64
  40:	8082                	ret

00000042 <.L497>:
  42:	0009a683          	lw	a3,0(s3) # 60035000 <.L836+0x6003231a>
  46:	4581                	li	a1,0
  48:	0ff47513          	zext.b	a0,s0
  4c:	c636                	sw	a3,12(sp)
  4e:	00000097          	auipc	ra,0x0
  52:	000080e7          	jalr	ra # 4e <.L497+0xc>
  56:	0009a703          	lw	a4,0(s3)
  5a:	855a                	mv	a0,s6
  5c:	c43a                	sw	a4,8(sp)
  5e:	00000097          	auipc	ra,0x0
  62:	000080e7          	jalr	ra # 5e <.L497+0x1c>
  66:	4722                	lw	a4,8(sp)
  68:	46b2                	lw	a3,12(sp)
  6a:	8622                	mv	a2,s0
  6c:	85a6                	mv	a1,s1
  6e:	000b8513          	mv	a0,s7
  72:	00000097          	auipc	ra,0x0
  76:	000080e7          	jalr	ra # 72 <.L497+0x30>
  7a:	01540563          	beq	s0,s5,84 <.L498>
  7e:	0405                	add	s0,s0,1

00000080 <.L496>:
  80:	0485                	add	s1,s1,1
  82:	b75d                	j	28 <.L495>

00000084 <.L498>:
  84:	844a                	mv	s0,s2
  86:	bfed                	j	80 <.L496>

Disassembly of section .text.rx_2440m_opt:

00000000 <rx_2440m_opt>:
   0:	6785                	lui	a5,0x1
   2:	7155                	add	sp,sp,-208
   4:	71778793          	add	a5,a5,1815 # 1717 <.L740+0x15>
   8:	02f11223          	sh	a5,36(sp)
   c:	000007b7          	lui	a5,0x0
  10:	0007c783          	lbu	a5,0(a5) # 0 <rx_2440m_opt>
  14:	c786                	sw	ra,204(sp)
  16:	c5a2                	sw	s0,200(sp)
  18:	c3a6                	sw	s1,196(sp)
  1a:	c1ca                	sw	s2,192(sp)
  1c:	df4e                	sw	s3,188(sp)
  1e:	dd52                	sw	s4,184(sp)
  20:	db56                	sw	s5,180(sp)
  22:	d95a                	sw	s6,176(sp)
  24:	d75e                	sw	s7,172(sp)
  26:	d562                	sw	s8,168(sp)
  28:	d366                	sw	s9,164(sp)
  2a:	d16a                	sw	s10,160(sp)
  2c:	cf6e                	sw	s11,156(sp)
  2e:	22078463          	beqz	a5,256 <.L501>
  32:	600357b7          	lui	a5,0x60035
  36:	4398                	lw	a4,0(a5)
  38:	6505                	lui	a0,0x1
  3a:	000007b7          	lui	a5,0x0
  3e:	4581                	li	a1,0
  40:	98c50513          	add	a0,a0,-1652 # 98c <.LC218+0xc>
  44:	00e7a023          	sw	a4,0(a5) # 0 <rx_2440m_opt>
  48:	00000097          	auipc	ra,0x0
  4c:	000080e7          	jalr	ra # 48 <rx_2440m_opt+0x48>
  50:	6001c737          	lui	a4,0x6001c
  54:	575c                	lw	a5,44(a4)
  56:	010006b7          	lui	a3,0x1000
  5a:	16fd                	add	a3,a3,-1 # ffffff <.L836+0xffd319>
  5c:	8ff5                	and	a5,a5,a3
  5e:	4b0006b7          	lui	a3,0x4b000
  62:	8fd5                	or	a5,a5,a3
  64:	d75c                	sw	a5,44(a4)
  66:	575c                	lw	a5,44(a4)
  68:	008006b7          	lui	a3,0x800
  6c:	02410913          	add	s2,sp,36
  70:	8fd5                	or	a5,a5,a3
  72:	d75c                	sw	a5,44(a4)
  74:	4481                	li	s1,0
  76:	4b01                	li	s6,0
  78:	4981                	li	s3,0
  7a:	00000bb7          	lui	s7,0x0
  7e:	4d55                	li	s10,21
  80:	00000db7          	lui	s11,0x0
  84:	00000c37          	lui	s8,0x0

00000088 <.L502>:
  88:	02810a93          	add	s5,sp,40
  8c:	0ff4f793          	zext.b	a5,s1
  90:	8cd6                	mv	s9,s5
  92:	4401                	li	s0,0
  94:	c43e                	sw	a5,8(sp)

00000096 <.L509>:
  96:	000ba783          	lw	a5,0(s7) # 0 <rx_2440m_opt>
  9a:	01540a13          	add	s4,s0,21
  9e:	0ffa7a13          	zext.b	s4,s4
  a2:	1bc7a803          	lw	a6,444(a5)
  a6:	4701                	li	a4,0
  a8:	87d2                	mv	a5,s4
  aa:	4691                	li	a3,4
  ac:	4611                	li	a2,4
  ae:	c091                	beqz	s1,b2 <.L526>
  b0:	4619                	li	a2,6

000000b2 <.L526>:
  b2:	4581                	li	a1,0
  b4:	06d00513          	li	a0,109
  b8:	9802                	jalr	a6
  ba:	4529                	li	a0,10
  bc:	00000097          	auipc	ra,0x0
  c0:	000080e7          	jalr	ra # bc <.L526+0xa>
  c4:	4781                	li	a5,0
  c6:	4801                	li	a6,0
  c8:	00fca023          	sw	a5,0(s9)
  cc:	010ca223          	sw	a6,4(s9)
  d0:	4e09                	li	t3,2

000000d2 <.L505>:
  d2:	4781                	li	a5,0
  d4:	4701                	li	a4,0
  d6:	4681                	li	a3,0
  d8:	4601                	li	a2,0
  da:	f9900593          	li	a1,-103
  de:	4505                	li	a0,1
  e0:	ce72                	sw	t3,28(sp)
  e2:	00000097          	auipc	ra,0x0
  e6:	000080e7          	jalr	ra # e2 <.L505+0x10>
  ea:	4781                	li	a5,0
  ec:	4701                	li	a4,0
  ee:	02610693          	add	a3,sp,38
  f2:	08b0                	add	a2,sp,88
  f4:	45a9                	li	a1,10
  f6:	4519                	li	a0,6
  f8:	00000097          	auipc	ra,0x0
  fc:	000080e7          	jalr	ra # f8 <.L505+0x26>
 100:	000ca803          	lw	a6,0(s9)
 104:	004cae83          	lw	t4,4(s9)
 108:	4366                	lw	t1,88(sp)
 10a:	4f76                	lw	t5,92(sp)
 10c:	4781                	li	a5,0
 10e:	4701                	li	a4,0
 110:	4681                	li	a3,0
 112:	4601                	li	a2,0
 114:	f9a00593          	li	a1,-102
 118:	4505                	li	a0,1
 11a:	cc42                	sw	a6,24(sp)
 11c:	ca76                	sw	t4,20(sp)
 11e:	c81a                	sw	t1,16(sp)
 120:	c67a                	sw	t5,12(sp)
 122:	00000097          	auipc	ra,0x0
 126:	000080e7          	jalr	ra # 122 <.L505+0x50>
 12a:	4781                	li	a5,0
 12c:	4701                	li	a4,0
 12e:	02610693          	add	a3,sp,38
 132:	08b0                	add	a2,sp,88
 134:	45a9                	li	a1,10
 136:	4519                	li	a0,6
 138:	00000097          	auipc	ra,0x0
 13c:	000080e7          	jalr	ra # 138 <.L505+0x66>
 140:	4342                	lw	t1,16(sp)
 142:	4766                	lw	a4,88(sp)
 144:	47f6                	lw	a5,92(sp)
 146:	4f32                	lw	t5,12(sp)
 148:	4862                	lw	a6,24(sp)
 14a:	971a                	add	a4,a4,t1
 14c:	4ed2                	lw	t4,20(sp)
 14e:	00673333          	sltu	t1,a4,t1
 152:	9f3e                	add	t5,t5,a5
 154:	010706b3          	add	a3,a4,a6
 158:	937a                	add	t1,t1,t5
 15a:	00e6b7b3          	sltu	a5,a3,a4
 15e:	9376                	add	t1,t1,t4
 160:	4e72                	lw	t3,28(sp)
 162:	979a                	add	a5,a5,t1
 164:	00dca023          	sw	a3,0(s9)
 168:	00fca223          	sw	a5,4(s9)
 16c:	4705                	li	a4,1
 16e:	08ee1b63          	bne	t3,a4,204 <.L515>
 172:	00d79613          	sll	a2,a5,0xd
 176:	0136d713          	srl	a4,a3,0x13
 17a:	8f51                	or	a4,a4,a2
 17c:	83cd                	srl	a5,a5,0x13
 17e:	00eca023          	sw	a4,0(s9)
 182:	00fca223          	sw	a5,4(s9)
 186:	e049                	bnez	s0,208 <.L506>
 188:	5b22                	lw	s6,40(sp)
 18a:	59b2                	lw	s3,44(sp)
 18c:	01a90023          	sb	s10,0(s2)

00000190 <.L507>:
 190:	0405                	add	s0,s0,1
 192:	0ff47413          	zext.b	s0,s0
 196:	4799                	li	a5,6
 198:	0ca1                	add	s9,s9,8
 19a:	eef41ee3          	bne	s0,a5,96 <.L509>
 19e:	000ba783          	lw	a5,0(s7)
 1a2:	1bc7a803          	lw	a6,444(a5)
 1a6:	47a2                	lw	a5,8(sp)
 1a8:	ebbd                	bnez	a5,21e <.L510>
 1aa:	02414783          	lbu	a5,36(sp)
 1ae:	4701                	li	a4,0
 1b0:	4691                	li	a3,4
 1b2:	4611                	li	a2,4

000001b4 <.L527>:
 1b4:	4581                	li	a1,0
 1b6:	06d00513          	li	a0,109
 1ba:	9802                	jalr	a6
 1bc:	000dc783          	lbu	a5,0(s11) # 0 <rx_2440m_opt>
 1c0:	cf95                	beqz	a5,1fc <.L512>
 1c2:	4455                	li	s0,21
 1c4:	4a6d                	li	s4,27

000001c6 <.L513>:
 1c6:	000aa703          	lw	a4,0(s5)
 1ca:	004aa783          	lw	a5,4(s5)
 1ce:	8622                	mv	a2,s0
 1d0:	85a6                	mv	a1,s1
 1d2:	000c0513          	mv	a0,s8
 1d6:	0405                	add	s0,s0,1
 1d8:	00000097          	auipc	ra,0x0
 1dc:	000080e7          	jalr	ra # 1d8 <.L513+0x12>
 1e0:	0aa1                	add	s5,s5,8
 1e2:	ff4412e3          	bne	s0,s4,1c6 <.L513>
 1e6:	00094603          	lbu	a2,0(s2)
 1ea:	875a                	mv	a4,s6
 1ec:	87ce                	mv	a5,s3
 1ee:	85a6                	mv	a1,s1
 1f0:	000c0513          	mv	a0,s8
 1f4:	00000097          	auipc	ra,0x0
 1f8:	000080e7          	jalr	ra # 1f4 <.L513+0x2e>

000001fc <.L512>:
 1fc:	0905                	add	s2,s2,1
 1fe:	e495                	bnez	s1,22a <.L514>
 200:	4485                	li	s1,1
 202:	b559                	j	88 <.L502>

00000204 <.L515>:
 204:	4e05                	li	t3,1
 206:	b5f1                	j	d2 <.L505>

00000208 <.L506>:
 208:	0137e663          	bltu	a5,s3,214 <.L516>
 20c:	f8f992e3          	bne	s3,a5,190 <.L507>
 210:	f96770e3          	bgeu	a4,s6,190 <.L507>

00000214 <.L516>:
 214:	01490023          	sb	s4,0(s2)
 218:	8b3a                	mv	s6,a4
 21a:	89be                	mv	s3,a5
 21c:	bf95                	j	190 <.L507>

0000021e <.L510>:
 21e:	02514783          	lbu	a5,37(sp)
 222:	4701                	li	a4,0
 224:	4691                	li	a3,4
 226:	4619                	li	a2,6
 228:	b771                	j	1b4 <.L527>

0000022a <.L514>:
 22a:	6001c7b7          	lui	a5,0x6001c
 22e:	57d8                	lw	a4,44(a5)
 230:	010006b7          	lui	a3,0x1000
 234:	16fd                	add	a3,a3,-1 # ffffff <.L836+0xffd319>
 236:	8f75                	and	a4,a4,a3
 238:	320006b7          	lui	a3,0x32000
 23c:	8f55                	or	a4,a4,a3
 23e:	d7d8                	sw	a4,44(a5)
 240:	57d8                	lw	a4,44(a5)
 242:	008006b7          	lui	a3,0x800
 246:	8f55                	or	a4,a4,a3
 248:	d7d8                	sw	a4,44(a5)
 24a:	57d8                	lw	a4,44(a5)
 24c:	ff8006b7          	lui	a3,0xff800
 250:	16fd                	add	a3,a3,-1 # ff7fffff <.L836+0xff7fd319>
 252:	8f75                	and	a4,a4,a3
 254:	d7d8                	sw	a4,44(a5)

00000256 <.L501>:
 256:	02514603          	lbu	a2,37(sp)
 25a:	02414583          	lbu	a1,36(sp)
 25e:	00000537          	lui	a0,0x0
 262:	00050513          	mv	a0,a0
 266:	00000097          	auipc	ra,0x0
 26a:	000080e7          	jalr	ra # 266 <.L501+0x10>
 26e:	40be                	lw	ra,204(sp)
 270:	442e                	lw	s0,200(sp)
 272:	449e                	lw	s1,196(sp)
 274:	490e                	lw	s2,192(sp)
 276:	59fa                	lw	s3,188(sp)
 278:	5a6a                	lw	s4,184(sp)
 27a:	5ada                	lw	s5,180(sp)
 27c:	5b4a                	lw	s6,176(sp)
 27e:	5bba                	lw	s7,172(sp)
 280:	5c2a                	lw	s8,168(sp)
 282:	5c9a                	lw	s9,164(sp)
 284:	5d0a                	lw	s10,160(sp)
 286:	4dfa                	lw	s11,156(sp)
 288:	6169                	add	sp,sp,208
 28a:	8082                	ret

Disassembly of section .text.read_efuse_byte:

00000000 <read_efuse_byte>:
   0:	4785                	li	a5,1
   2:	04400713          	li	a4,68
   6:	00f50863          	beq	a0,a5,16 <.L529>
   a:	4789                	li	a5,2
   c:	4701                	li	a4,0
   e:	00f51463          	bne	a0,a5,16 <.L529>
  12:	05c00713          	li	a4,92

00000016 <.L529>:
  16:	0025d813          	srl	a6,a1,0x2
  1a:	478d                	li	a5,3
  1c:	06f80a63          	beq	a6,a5,90 <.L530>
  20:	0107ee63          	bltu	a5,a6,3c <.L531>
  24:	4785                	li	a5,1
  26:	06f80063          	beq	a6,a5,86 <.L532>
  2a:	0507f863          	bgeu	a5,a6,7a <.L544>
  2e:	60009837          	lui	a6,0x60009
  32:	80880813          	add	a6,a6,-2040 # 60008808 <.L836+0x60005b22>

00000036 <.L547>:
  36:	9742                	add	a4,a4,a6

00000038 <.L546>:
  38:	431c                	lw	a5,0(a4)
  3a:	a831                	j	56 <.L539>

0000003c <.L531>:
  3c:	4795                	li	a5,5
  3e:	06f80363          	beq	a6,a5,a4 <.L535>
  42:	04f86c63          	bltu	a6,a5,9a <.L536>
  46:	4799                	li	a5,6
  48:	06f80363          	beq	a6,a5,ae <.L537>
  4c:	04600793          	li	a5,70
  50:	06f80463          	beq	a6,a5,b8 <.L538>
  54:	4781                	li	a5,0

00000056 <.L539>:
  56:	898d                	and	a1,a1,3
  58:	058e                	sll	a1,a1,0x3
  5a:	00b7d7b3          	srl	a5,a5,a1
  5e:	0ff7f793          	zext.b	a5,a5
  62:	4701                	li	a4,0
  64:	4505                	li	a0,1
  66:	8e15                	sub	a2,a2,a3

00000068 <.L540>:
  68:	0705                	add	a4,a4,1 # 6001c001 <.L836+0x6001931b>
  6a:	0506                	sll	a0,a0,0x1
  6c:	fee67ee3          	bgeu	a2,a4,68 <.L540>
  70:	00d7d7b3          	srl	a5,a5,a3
  74:	157d                	add	a0,a0,-1 # ffffffff <.L836+0xffffd319>
  76:	8d7d                	and	a0,a0,a5
  78:	8082                	ret

0000007a <.L544>:
  7a:	600097b7          	lui	a5,0x60009
  7e:	80078793          	add	a5,a5,-2048 # 60008800 <.L836+0x60005b1a>

00000082 <.L545>:
  82:	973e                	add	a4,a4,a5
  84:	bf55                	j	38 <.L546>

00000086 <.L532>:
  86:	600097b7          	lui	a5,0x60009
  8a:	80478793          	add	a5,a5,-2044 # 60008804 <.L836+0x60005b1e>
  8e:	bfd5                	j	82 <.L545>

00000090 <.L530>:
  90:	60009837          	lui	a6,0x60009
  94:	80c80813          	add	a6,a6,-2036 # 6000880c <.L836+0x60005b26>
  98:	bf79                	j	36 <.L547>

0000009a <.L536>:
  9a:	60009837          	lui	a6,0x60009
  9e:	81080813          	add	a6,a6,-2032 # 60008810 <.L836+0x60005b2a>
  a2:	bf51                	j	36 <.L547>

000000a4 <.L535>:
  a4:	60009837          	lui	a6,0x60009
  a8:	81480813          	add	a6,a6,-2028 # 60008814 <.L836+0x60005b2e>
  ac:	b769                	j	36 <.L547>

000000ae <.L537>:
  ae:	60009837          	lui	a6,0x60009
  b2:	81880813          	add	a6,a6,-2024 # 60008818 <.L836+0x60005b32>
  b6:	b741                	j	36 <.L547>

000000b8 <.L538>:
  b8:	600097b7          	lui	a5,0x60009
  bc:	81c78793          	add	a5,a5,-2020 # 6000881c <.L836+0x60005b36>
  c0:	b7c9                	j	82 <.L545>

Disassembly of section .text.rftest_optimize:

00000000 <rftest_optimize>:
   0:	1141                	add	sp,sp,-16
   2:	515107b7          	lui	a5,0x51510
   6:	55678793          	add	a5,a5,1366 # 51510556 <.L836+0x5150d870>
   a:	c606                	sw	ra,12(sp)
   c:	6001d737          	lui	a4,0x6001d
  10:	d0f72223          	sw	a5,-764(a4) # 6001cd04 <.L836+0x6001a01e>
  14:	d0f72423          	sw	a5,-760(a4)
  18:	4501                	li	a0,0
  1a:	00000097          	auipc	ra,0x0
  1e:	000080e7          	jalr	ra # 1a <rftest_optimize+0x1a>
  22:	00000097          	auipc	ra,0x0
  26:	000080e7          	jalr	ra # 22 <rftest_optimize+0x22>
  2a:	000007b7          	lui	a5,0x0
  2e:	09f7c783          	lbu	a5,159(a5) # 9f <.L166+0x1>
  32:	eb91                	bnez	a5,46 <.L548>
  34:	40b2                	lw	ra,12(sp)
  36:	08000593          	li	a1,128
  3a:	4505                	li	a0,1
  3c:	0141                	add	sp,sp,16
  3e:	00000317          	auipc	t1,0x0
  42:	00030067          	jr	t1 # 3e <rftest_optimize+0x3e>

00000046 <.L548>:
  46:	40b2                	lw	ra,12(sp)
  48:	0141                	add	sp,sp,16
  4a:	8082                	ret

Disassembly of section .text.open_pwr_domain:

00000000 <open_pwr_domain>:
   0:	600087b7          	lui	a5,0x60008
   4:	0887a703          	lw	a4,136(a5) # 60008088 <.L836+0x600053a2>
   8:	7681                	lui	a3,0xfffe0
   a:	16fd                	add	a3,a3,-1 # fffdffff <.L836+0xfffdd319>
   c:	8f75                	and	a4,a4,a3
   e:	08e7a423          	sw	a4,136(a5)
  12:	08c7a703          	lw	a4,140(a5)
  16:	f00006b7          	lui	a3,0xf0000
  1a:	16fd                	add	a3,a3,-1 # efffffff <.L836+0xefffd319>
  1c:	8f75                	and	a4,a4,a3
  1e:	08e7a623          	sw	a4,140(a5)
  22:	0887a703          	lw	a4,136(a5)
  26:	76fd                	lui	a3,0xfffff
  28:	7ff68693          	add	a3,a3,2047 # fffff7ff <.L836+0xffffcb19>
  2c:	8f75                	and	a4,a4,a3
  2e:	08e7a423          	sw	a4,136(a5)
  32:	08c7a703          	lw	a4,140(a5)
  36:	ffc006b7          	lui	a3,0xffc00
  3a:	16fd                	add	a3,a3,-1 # ffbfffff <.L836+0xffbfd319>
  3c:	8f75                	and	a4,a4,a3
  3e:	08e7a623          	sw	a4,140(a5)
  42:	8082                	ret

Disassembly of section .text.rf_version_print:

00000000 <rf_version_print>:
   0:	1141                	add	sp,sp,-16
   2:	c606                	sw	ra,12(sp)
   4:	00000097          	auipc	ra,0x0
   8:	000080e7          	jalr	ra # 4 <rf_version_print+0x4>
   c:	00000097          	auipc	ra,0x0
  10:	000080e7          	jalr	ra # c <rf_version_print+0xc>
  14:	40b2                	lw	ra,12(sp)
  16:	0141                	add	sp,sp,16
  18:	00000317          	auipc	t1,0x0
  1c:	00030067          	jr	t1 # 18 <rf_version_print+0x18>

Disassembly of section .text.rftest_init:

00000000 <rftest_init>:
   0:	00000537          	lui	a0,0x0
   4:	1101                	add	sp,sp,-32
   6:	00050513          	mv	a0,a0
   a:	ce06                	sw	ra,28(sp)
   c:	cc22                	sw	s0,24(sp)
   e:	00000097          	auipc	ra,0x0
  12:	000080e7          	jalr	ra # e <rftest_init+0xe>
  16:	00000437          	lui	s0,0x0
  1a:	00040413          	mv	s0,s0
  1e:	4785                	li	a5,1
  20:	20f40b23          	sb	a5,534(s0) # 216 <.L217>
  24:	00000097          	auipc	ra,0x0
  28:	000080e7          	jalr	ra # 24 <rftest_init+0x24>
  2c:	00000097          	auipc	ra,0x0
  30:	000080e7          	jalr	ra # 2c <rftest_init+0x2c>
  34:	600267b7          	lui	a5,0x60026
  38:	577d                	li	a4,-1
  3a:	cbd8                	sw	a4,20(a5)
  3c:	00000097          	auipc	ra,0x0
  40:	000080e7          	jalr	ra # 3c <rftest_init+0x3c>
  44:	00000097          	auipc	ra,0x0
  48:	000080e7          	jalr	ra # 44 <rftest_init+0x44>
  4c:	00000097          	auipc	ra,0x0
  50:	000080e7          	jalr	ra # 4c <rftest_init+0x4c>
  54:	4799                	li	a5,6
  56:	c63e                	sw	a5,12(sp)
  58:	4795                	li	a5,5
  5a:	c43e                	sw	a5,8(sp)
  5c:	4791                	li	a5,4
  5e:	c23e                	sw	a5,4(sp)
  60:	000a0537          	lui	a0,0xa0
  64:	478d                	li	a5,3
  66:	40000593          	li	a1,1024
  6a:	40050513          	add	a0,a0,1024 # a0400 <.L836+0x9d71a>
  6e:	4889                	li	a7,2
  70:	4805                	li	a6,1
  72:	4701                	li	a4,0
  74:	4681                	li	a3,0
  76:	4601                	li	a2,0
  78:	c03e                	sw	a5,0(sp)
  7a:	4781                	li	a5,0
  7c:	00000097          	auipc	ra,0x0
  80:	000080e7          	jalr	ra # 7c <rftest_init+0x7c>
  84:	00000097          	auipc	ra,0x0
  88:	000080e7          	jalr	ra # 84 <rftest_init+0x84>
  8c:	00000097          	auipc	ra,0x0
  90:	000080e7          	jalr	ra # 8c <rftest_init+0x8c>
  94:	32040023          	sb	zero,800(s0)
  98:	30040fa3          	sb	zero,799(s0)
  9c:	00000097          	auipc	ra,0x0
  a0:	000080e7          	jalr	ra # 9c <rftest_init+0x9c>
  a4:	4462                	lw	s0,24(sp)
  a6:	40f2                	lw	ra,28(sp)
  a8:	00000537          	lui	a0,0x0
  ac:	07500593          	li	a1,117
  b0:	00050513          	mv	a0,a0
  b4:	6105                	add	sp,sp,32
  b6:	00000317          	auipc	t1,0x0
  ba:	00030067          	jr	t1 # b6 <rftest_init+0xb6>

Disassembly of section .text.write_flash:

00000000 <write_flash>:
   0:	7135                	add	sp,sp,-160
   2:	cd22                	sw	s0,152(sp)
   4:	4581                	li	a1,0
   6:	842a                	mv	s0,a0
   8:	4501                	li	a0,0
   a:	cb26                	sw	s1,148(sp)
   c:	c94a                	sw	s2,144(sp)
   e:	c74e                	sw	s3,140(sp)
  10:	cf06                	sw	ra,156(sp)
  12:	00000097          	auipc	ra,0x0
  16:	000080e7          	jalr	ra # 12 <write_flash+0x12>
  1a:	4044                	lw	s1,4(s0)
  1c:	07800993          	li	s3,120
  20:	07800613          	li	a2,120
  24:	4581                	li	a1,0
  26:	0028                	add	a0,sp,8
  28:	00042903          	lw	s2,0(s0)
  2c:	00000097          	auipc	ra,0x0
  30:	000080e7          	jalr	ra # 2c <write_flash+0x2c>
  34:	0299f163          	bgeu	s3,s1,56 <.L557>
  38:	00000537          	lui	a0,0x0
  3c:	00050513          	mv	a0,a0

00000040 <.L563>:
  40:	00000097          	auipc	ra,0x0
  44:	000080e7          	jalr	ra # 40 <.L563>
  48:	40fa                	lw	ra,156(sp)
  4a:	446a                	lw	s0,152(sp)
  4c:	44da                	lw	s1,148(sp)
  4e:	494a                	lw	s2,144(sp)
  50:	49ba                	lw	s3,140(sp)
  52:	610d                	add	sp,sp,160
  54:	8082                	ret

00000056 <.L557>:
  56:	00397793          	and	a5,s2,3
  5a:	0421                	add	s0,s0,8
  5c:	cf89                	beqz	a5,76 <.L560>
  5e:	00000537          	lui	a0,0x0
  62:	00050513          	mv	a0,a0
  66:	bfe9                	j	40 <.L563>

00000068 <.L561>:
  68:	4014                	lw	a3,0(s0)
  6a:	0038                	add	a4,sp,8
  6c:	973e                	add	a4,a4,a5
  6e:	00d70023          	sb	a3,0(a4)
  72:	0785                	add	a5,a5,1 # 60026001 <.L836+0x6002331b>
  74:	0411                	add	s0,s0,4

00000076 <.L560>:
  76:	fef499e3          	bne	s1,a5,68 <.L561>
  7a:	854a                	mv	a0,s2
  7c:	8626                	mv	a2,s1
  7e:	002c                	add	a1,sp,8
  80:	00000097          	auipc	ra,0x0
  84:	000080e7          	jalr	ra # 80 <.L560+0xa>
  88:	00000537          	lui	a0,0x0
  8c:	00050513          	mv	a0,a0
  90:	bf45                	j	40 <.L563>

Disassembly of section .text.erase_flash:

00000000 <erase_flash>:
   0:	1141                	add	sp,sp,-16
   2:	c422                	sw	s0,8(sp)
   4:	4581                	li	a1,0
   6:	842a                	mv	s0,a0
   8:	4501                	li	a0,0
   a:	c226                	sw	s1,4(sp)
   c:	c04a                	sw	s2,0(sp)
   e:	c606                	sw	ra,12(sp)
  10:	00000097          	auipc	ra,0x0
  14:	000080e7          	jalr	ra # 10 <erase_flash+0x10>
  18:	00042903          	lw	s2,0(s0)
  1c:	4044                	lw	s1,4(s0)
  1e:	40000793          	li	a5,1024
  22:	4401                	li	s0,0
  24:	01248733          	add	a4,s1,s2
  28:	02e7f663          	bgeu	a5,a4,54 <.L565>
  2c:	00000537          	lui	a0,0x0
  30:	00050513          	mv	a0,a0

00000034 <.L571>:
  34:	4422                	lw	s0,8(sp)
  36:	40b2                	lw	ra,12(sp)
  38:	4492                	lw	s1,4(sp)
  3a:	4902                	lw	s2,0(sp)
  3c:	0141                	add	sp,sp,16
  3e:	00000317          	auipc	t1,0x0
  42:	00030067          	jr	t1 # 3e <.L571+0xa>

00000046 <.L566>:
  46:	01240533          	add	a0,s0,s2
  4a:	00000097          	auipc	ra,0x0
  4e:	000080e7          	jalr	ra # 4a <.L566+0x4>
  52:	0405                	add	s0,s0,1

00000054 <.L565>:
  54:	fe8499e3          	bne	s1,s0,46 <.L566>
  58:	00000537          	lui	a0,0x0
  5c:	00050513          	mv	a0,a0
  60:	bfd1                	j	34 <.L571>

Disassembly of section .text.read_flash:

00000000 <read_flash>:
   0:	bf010113          	add	sp,sp,-1040
   4:	40912223          	sw	s1,1028(sp)
   8:	4581                	li	a1,0
   a:	84aa                	mv	s1,a0
   c:	4501                	li	a0,0
   e:	40812423          	sw	s0,1032(sp)
  12:	41212023          	sw	s2,1024(sp)
  16:	40112623          	sw	ra,1036(sp)
  1a:	00000097          	auipc	ra,0x0
  1e:	000080e7          	jalr	ra # 1a <read_flash+0x1a>
  22:	4080                	lw	s0,0(s1)
  24:	40c4                	lw	s1,4(s1)
  26:	40000913          	li	s2,1024
  2a:	40000613          	li	a2,1024
  2e:	4581                	li	a1,0
  30:	850a                	mv	a0,sp
  32:	00000097          	auipc	ra,0x0
  36:	000080e7          	jalr	ra # 32 <read_flash+0x32>
  3a:	02997763          	bgeu	s2,s1,68 <.L573>
  3e:	00000537          	lui	a0,0x0
  42:	40000593          	li	a1,1024
  46:	00050513          	mv	a0,a0
  4a:	00000097          	auipc	ra,0x0
  4e:	000080e7          	jalr	ra # 4a <read_flash+0x4a>

00000052 <.L572>:
  52:	40c12083          	lw	ra,1036(sp)
  56:	40812403          	lw	s0,1032(sp)
  5a:	40412483          	lw	s1,1028(sp)
  5e:	40012903          	lw	s2,1024(sp)
  62:	41010113          	add	sp,sp,1040
  66:	8082                	ret

00000068 <.L573>:
  68:	8626                	mv	a2,s1
  6a:	858a                	mv	a1,sp
  6c:	8522                	mv	a0,s0
  6e:	00000097          	auipc	ra,0x0
  72:	000080e7          	jalr	ra # 6e <.L573+0x6>
  76:	00000537          	lui	a0,0x0
  7a:	85a2                	mv	a1,s0
  7c:	8626                	mv	a2,s1
  7e:	00050513          	mv	a0,a0
  82:	00000097          	auipc	ra,0x0
  86:	000080e7          	jalr	ra # 82 <.L573+0x1a>
  8a:	4401                	li	s0,0
  8c:	00000937          	lui	s2,0x0

00000090 <.L575>:
  90:	00849b63          	bne	s1,s0,a6 <.L576>
  94:	00000537          	lui	a0,0x0
  98:	00050513          	mv	a0,a0
  9c:	00000097          	auipc	ra,0x0
  a0:	000080e7          	jalr	ra # 9c <.L575+0xc>
  a4:	b77d                	j	52 <.L572>

000000a6 <.L576>:
  a6:	008107b3          	add	a5,sp,s0
  aa:	0007c583          	lbu	a1,0(a5)
  ae:	00090513          	mv	a0,s2
  b2:	0405                	add	s0,s0,1
  b4:	00000097          	auipc	ra,0x0
  b8:	000080e7          	jalr	ra # b4 <.L576+0xe>
  bc:	bfd1                	j	90 <.L575>

Disassembly of section .text.set_chan_freq_sub:

00000000 <set_chan_freq_sub>:
   0:	6000e737          	lui	a4,0x6000e
   4:	15072783          	lw	a5,336(a4) # 6000e150 <.L836+0x6000b46a>
   8:	f01006b7          	lui	a3,0xf0100
   c:	16fd                	add	a3,a3,-1 # f00fffff <.L836+0xf00fd319>
   e:	8ff5                	and	a5,a5,a3
  10:	1141                	add	sp,sp,-16
  12:	01451693          	sll	a3,a0,0x14
  16:	c606                	sw	ra,12(sp)
  18:	8fd5                	or	a5,a5,a3
  1a:	14f72823          	sw	a5,336(a4)
  1e:	0c472783          	lw	a5,196(a4)
  22:	0506                	sll	a0,a0,0x1
  24:	0ff57513          	zext.b	a0,a0
  28:	f007f793          	and	a5,a5,-256
  2c:	8d5d                	or	a0,a0,a5
  2e:	0ca72223          	sw	a0,196(a4)
  32:	6000e7b7          	lui	a5,0x6000e

00000036 <.L579>:
  36:	1687a703          	lw	a4,360(a5) # 6000e168 <.L836+0x6000b482>
  3a:	fe074ee3          	bltz	a4,36 <.L579>
  3e:	0c47a703          	lw	a4,196(a5)
  42:	4505                	li	a0,1
  44:	10076713          	or	a4,a4,256
  48:	0ce7a223          	sw	a4,196(a5)
  4c:	0c47a703          	lw	a4,196(a5)
  50:	eff77713          	and	a4,a4,-257
  54:	0ce7a223          	sw	a4,196(a5)
  58:	00000097          	auipc	ra,0x0
  5c:	000080e7          	jalr	ra # 58 <.L579+0x22>
  60:	6000e737          	lui	a4,0x6000e

00000064 <.L580>:
  64:	16872783          	lw	a5,360(a4) # 6000e168 <.L836+0x6000b482>
  68:	fe07cee3          	bltz	a5,64 <.L580>
  6c:	40b2                	lw	ra,12(sp)
  6e:	0141                	add	sp,sp,16
  70:	8082                	ret

Disassembly of section .text.txon_set:

00000000 <txon_set>:
   0:	c509                	beqz	a0,a <.L585>
   2:	00000317          	auipc	t1,0x0
   6:	00030067          	jr	t1 # 2 <txon_set+0x2>

0000000a <.L585>:
   a:	600067b7          	lui	a5,0x60006
   e:	1107a703          	lw	a4,272(a5) # 60006110 <.L836+0x6000342a>
  12:	76f5                	lui	a3,0xffffd
  14:	16fd                	add	a3,a3,-1 # ffffcfff <.L836+0xffffa319>
  16:	8f75                	and	a4,a4,a3
  18:	10e7a823          	sw	a4,272(a5)
  1c:	1107a703          	lw	a4,272(a5)
  20:	76fd                	lui	a3,0xfffff
  22:	3ff68693          	add	a3,a3,1023 # fffff3ff <.L836+0xffffc719>
  26:	cff77713          	and	a4,a4,-769
  2a:	10e7a823          	sw	a4,272(a5)
  2e:	1107a703          	lw	a4,272(a5)
  32:	8f75                	and	a4,a4,a3
  34:	10e7a823          	sw	a4,272(a5)
  38:	8082                	ret

Disassembly of section .text.rf_freq_debug:

00000000 <rf_freq_debug>:
   0:	7179                	add	sp,sp,-48
   2:	c85a                	sw	s6,16(sp)
   4:	8b3a                	mv	s6,a4
   6:	60006737          	lui	a4,0x60006
   a:	d422                	sw	s0,40(sp)
   c:	843e                	mv	s0,a5
   e:	431c                	lw	a5,0(a4)
  10:	d226                	sw	s1,36(sp)
  12:	84b2                	mv	s1,a2
  14:	83c9                	srl	a5,a5,0x12
  16:	0ff7f793          	zext.b	a5,a5
  1a:	07c1                	add	a5,a5,16
  1c:	97c2                	add	a5,a5,a6
  1e:	00040637          	lui	a2,0x40
  22:	d04a                	sw	s2,32(sp)
  24:	c0060613          	add	a2,a2,-1024 # 3fc00 <.L836+0x3cf1a>
  28:	8936                	mv	s2,a3
  2a:	07aa                	sll	a5,a5,0xa
  2c:	4314                	lw	a3,0(a4)
  2e:	8ff1                	and	a5,a5,a2
  30:	fffc0637          	lui	a2,0xfffc0
  34:	3ff60613          	add	a2,a2,1023 # fffc03ff <.L836+0xfffbd719>
  38:	8ef1                	and	a3,a3,a2
  3a:	d606                	sw	ra,44(sp)
  3c:	ce4e                	sw	s3,28(sp)
  3e:	cc52                	sw	s4,24(sp)
  40:	ca56                	sw	s5,20(sp)
  42:	c65e                	sw	s7,12(sp)
  44:	c462                	sw	s8,8(sp)
  46:	c266                	sw	s9,4(sp)
  48:	8fd5                	or	a5,a5,a3
  4a:	c31c                	sw	a5,0(a4)
  4c:	431c                	lw	a5,0(a4)
  4e:	862e                	mv	a2,a1
  50:	89aa                	mv	s3,a0
  52:	0027e793          	or	a5,a5,2
  56:	8a2e                	mv	s4,a1
  58:	85aa                	mv	a1,a0
  5a:	00000537          	lui	a0,0x0
  5e:	c31c                	sw	a5,0(a4)
  60:	88c2                	mv	a7,a6
  62:	87da                	mv	a5,s6
  64:	8822                	mv	a6,s0
  66:	874a                	mv	a4,s2
  68:	86a6                	mv	a3,s1
  6a:	00050513          	mv	a0,a0
  6e:	00000097          	auipc	ra,0x0
  72:	000080e7          	jalr	ra # 6e <rf_freq_debug+0x6e>
  76:	4781                	li	a5,0
  78:	4701                	li	a4,0
  7a:	4681                	li	a3,0
  7c:	03c00613          	li	a2,60
  80:	02000593          	li	a1,32
  84:	4505                	li	a0,1
  86:	00000097          	auipc	ra,0x0
  8a:	000080e7          	jalr	ra # 86 <rf_freq_debug+0x86>
  8e:	00147793          	and	a5,s0,1
  92:	c789                	beqz	a5,9c <.L587>
  94:	00000097          	auipc	ra,0x0
  98:	000080e7          	jalr	ra # 94 <rf_freq_debug+0x94>

0000009c <.L587>:
  9c:	001b7c13          	and	s8,s6,1
  a0:	4a81                	li	s5,0
  a2:	00247b93          	and	s7,s0,2
  a6:	00447c93          	and	s9,s0,4
  aa:	002b7b13          	and	s6,s6,2

000000ae <.L588>:
  ae:	032a9563          	bne	s5,s2,d8 <.L594>
  b2:	8841                	and	s0,s0,16
  b4:	c849                	beqz	s0,146 <.L586>
  b6:	5422                	lw	s0,40(sp)
  b8:	50b2                	lw	ra,44(sp)
  ba:	5492                	lw	s1,36(sp)
  bc:	5902                	lw	s2,32(sp)
  be:	49f2                	lw	s3,28(sp)
  c0:	4a62                	lw	s4,24(sp)
  c2:	4ad2                	lw	s5,20(sp)
  c4:	4b42                	lw	s6,16(sp)
  c6:	4bb2                	lw	s7,12(sp)
  c8:	4c22                	lw	s8,8(sp)
  ca:	4c92                	lw	s9,4(sp)
  cc:	4501                	li	a0,0
  ce:	6145                	add	sp,sp,48
  d0:	00000317          	auipc	t1,0x0
  d4:	00030067          	jr	t1 # d0 <.L588+0x22>

000000d8 <.L594>:
  d8:	000b8663          	beqz	s7,e4 <.L589>
  dc:	00000097          	auipc	ra,0x0
  e0:	000080e7          	jalr	ra # dc <.L594+0x4>

000000e4 <.L589>:
  e4:	020c0263          	beqz	s8,108 <.L590>
  e8:	854e                	mv	a0,s3
  ea:	00000097          	auipc	ra,0x0
  ee:	000080e7          	jalr	ra # ea <.L589+0x6>
  f2:	000c8663          	beqz	s9,fe <.L591>
  f6:	00000097          	auipc	ra,0x0
  fa:	000080e7          	jalr	ra # f6 <.L589+0x12>

000000fe <.L591>:
  fe:	8526                	mv	a0,s1
 100:	00000097          	auipc	ra,0x0
 104:	000080e7          	jalr	ra # 100 <.L591+0x2>

00000108 <.L590>:
 108:	000b0c63          	beqz	s6,120 <.L592>
 10c:	8552                	mv	a0,s4
 10e:	00000097          	auipc	ra,0x0
 112:	000080e7          	jalr	ra # 10e <.L590+0x6>
 116:	8526                	mv	a0,s1
 118:	00000097          	auipc	ra,0x0
 11c:	000080e7          	jalr	ra # 118 <.L590+0x10>

00000120 <.L592>:
 120:	00847793          	and	a5,s0,8
 124:	c791                	beqz	a5,130 <.L593>
 126:	4501                	li	a0,0
 128:	00000097          	auipc	ra,0x0
 12c:	000080e7          	jalr	ra # 128 <.L592+0x8>

00000130 <.L593>:
 130:	0a85                	add	s5,s5,1
 132:	3e800513          	li	a0,1000
 136:	0ac2                	sll	s5,s5,0x10
 138:	00000097          	auipc	ra,0x0
 13c:	000080e7          	jalr	ra # 138 <.L593+0x8>
 140:	010ada93          	srl	s5,s5,0x10
 144:	b7ad                	j	ae <.L588>

00000146 <.L586>:
 146:	50b2                	lw	ra,44(sp)
 148:	5422                	lw	s0,40(sp)
 14a:	5492                	lw	s1,36(sp)
 14c:	5902                	lw	s2,32(sp)
 14e:	49f2                	lw	s3,28(sp)
 150:	4a62                	lw	s4,24(sp)
 152:	4ad2                	lw	s5,20(sp)
 154:	4b42                	lw	s6,16(sp)
 156:	4bb2                	lw	s7,12(sp)
 158:	4c22                	lw	s8,8(sp)
 15a:	4c92                	lw	s9,4(sp)
 15c:	6145                	add	sp,sp,48
 15e:	8082                	ret

Disassembly of section .text.rftest_en_usb:

00000000 <rftest_en_usb>:
   0:	000007b7          	lui	a5,0x0
   4:	32a781a3          	sb	a0,803(a5) # 323 <.L652+0x3>
   8:	00000317          	auipc	t1,0x0
   c:	00030067          	jr	t1 # 8 <rftest_en_usb+0x8>

Disassembly of section .text.module_test_print:

00000000 <module_test_print>:
   0:	7139                	add	sp,sp,-64
   2:	d64e                	sw	s3,44(sp)
   4:	000009b7          	lui	s3,0x0
   8:	de06                	sw	ra,60(sp)
   a:	dc22                	sw	s0,56(sp)
   c:	da26                	sw	s1,52(sp)
   e:	00098413          	mv	s0,s3
  12:	d84a                	sw	s2,48(sp)
  14:	d452                	sw	s4,40(sp)
  16:	d256                	sw	s5,36(sp)
  18:	d05a                	sw	s6,32(sp)
  1a:	ce5e                	sw	s7,28(sp)
  1c:	00000097          	auipc	ra,0x0
  20:	000080e7          	jalr	ra # 1c <module_test_print+0x1c>
  24:	20245583          	lhu	a1,514(s0)
  28:	00000537          	lui	a0,0x0
  2c:	00050513          	mv	a0,a0
  30:	00000097          	auipc	ra,0x0
  34:	000080e7          	jalr	ra # 30 <module_test_print+0x30>
  38:	00000537          	lui	a0,0x0
  3c:	00050513          	mv	a0,a0
  40:	00000097          	auipc	ra,0x0
  44:	000080e7          	jalr	ra # 40 <module_test_print+0x40>
  48:	14c45583          	lhu	a1,332(s0)
  4c:	4601                	li	a2,0
  4e:	0048                	add	a0,sp,4
  50:	00000097          	auipc	ra,0x0
  54:	000080e7          	jalr	ra # 50 <module_test_print+0x50>
  58:	00510603          	lb	a2,5(sp)
  5c:	00410583          	lb	a1,4(sp)
  60:	00000a37          	lui	s4,0x0
  64:	000a0513          	mv	a0,s4
  68:	00000097          	auipc	ra,0x0
  6c:	000080e7          	jalr	ra # 68 <module_test_print+0x68>
  70:	14e45583          	lhu	a1,334(s0)
  74:	4601                	li	a2,0
  76:	0048                	add	a0,sp,4
  78:	00000097          	auipc	ra,0x0
  7c:	000080e7          	jalr	ra # 78 <module_test_print+0x78>
  80:	00510603          	lb	a2,5(sp)
  84:	00410583          	lb	a1,4(sp)
  88:	000a0513          	mv	a0,s4
  8c:	000004b7          	lui	s1,0x0
  90:	00000097          	auipc	ra,0x0
  94:	000080e7          	jalr	ra # 90 <module_test_print+0x90>
  98:	00048513          	mv	a0,s1
  9c:	00000097          	auipc	ra,0x0
  a0:	000080e7          	jalr	ra # 9c <module_test_print+0x9c>
  a4:	00000537          	lui	a0,0x0
  a8:	00050513          	mv	a0,a0
  ac:	00000ab7          	lui	s5,0x0
  b0:	00098913          	mv	s2,s3
  b4:	00000097          	auipc	ra,0x0
  b8:	000080e7          	jalr	ra # b4 <module_test_print+0xb4>
  bc:	02840b93          	add	s7,s0,40
  c0:	00098993          	mv	s3,s3
  c4:	8b56                	mv	s6,s5

000000c6 <.L617>:
  c6:	12a95703          	lhu	a4,298(s2) # 12a <.L617+0x64>
  ca:	12895683          	lhu	a3,296(s2)
  ce:	12695603          	lhu	a2,294(s2)
  d2:	12495583          	lhu	a1,292(s2)
  d6:	000a8513          	mv	a0,s5
  da:	0921                	add	s2,s2,8
  dc:	00000097          	auipc	ra,0x0
  e0:	000080e7          	jalr	ra # dc <.L617+0x16>
  e4:	ff7911e3          	bne	s2,s7,c6 <.L617>
  e8:	00048513          	mv	a0,s1
  ec:	00000097          	auipc	ra,0x0
  f0:	000080e7          	jalr	ra # ec <.L617+0x26>
  f4:	00000537          	lui	a0,0x0
  f8:	00050513          	mv	a0,a0
  fc:	00000097          	auipc	ra,0x0
 100:	000080e7          	jalr	ra # fc <.L617+0x36>
 104:	1809d583          	lhu	a1,384(s3) # 180 <.L618+0x36>
 108:	4601                	li	a2,0
 10a:	0048                	add	a0,sp,4
 10c:	00000097          	auipc	ra,0x0
 110:	000080e7          	jalr	ra # 10c <.L617+0x46>
 114:	00510603          	lb	a2,5(sp)
 118:	00410583          	lb	a1,4(sp)
 11c:	000a0513          	mv	a0,s4
 120:	01840a93          	add	s5,s0,24
 124:	00000097          	auipc	ra,0x0
 128:	000080e7          	jalr	ra # 124 <.L617+0x5e>
 12c:	00048513          	mv	a0,s1
 130:	00000097          	auipc	ra,0x0
 134:	000080e7          	jalr	ra # 130 <.L617+0x6a>
 138:	00000537          	lui	a0,0x0
 13c:	00050513          	mv	a0,a0
 140:	00000097          	auipc	ra,0x0
 144:	000080e7          	jalr	ra # 140 <.L617+0x7a>
 148:	8922                	mv	s2,s0

0000014a <.L618>:
 14a:	18895703          	lhu	a4,392(s2)
 14e:	18695683          	lhu	a3,390(s2)
 152:	18495603          	lhu	a2,388(s2)
 156:	18295583          	lhu	a1,386(s2)
 15a:	000b0513          	mv	a0,s6
 15e:	0921                	add	s2,s2,8
 160:	00000097          	auipc	ra,0x0
 164:	000080e7          	jalr	ra # 160 <.L618+0x16>
 168:	ff5911e3          	bne	s2,s5,14a <.L618>
 16c:	00048513          	mv	a0,s1
 170:	00000097          	auipc	ra,0x0
 174:	000080e7          	jalr	ra # 170 <.L618+0x26>
 178:	00000537          	lui	a0,0x0
 17c:	00050513          	mv	a0,a0
 180:	00000097          	auipc	ra,0x0
 184:	000080e7          	jalr	ra # 180 <.L618+0x36>
 188:	1509d583          	lhu	a1,336(s3)
 18c:	4605                	li	a2,1
 18e:	0048                	add	a0,sp,4
 190:	00000097          	auipc	ra,0x0
 194:	000080e7          	jalr	ra # 190 <.L618+0x46>
 198:	00510603          	lb	a2,5(sp)
 19c:	00410583          	lb	a1,4(sp)
 1a0:	000a0513          	mv	a0,s4
 1a4:	8922                	mv	s2,s0
 1a6:	00000097          	auipc	ra,0x0
 1aa:	000080e7          	jalr	ra # 1a6 <.L618+0x5c>
 1ae:	1529d583          	lhu	a1,338(s3)
 1b2:	4605                	li	a2,1
 1b4:	0048                	add	a0,sp,4
 1b6:	00000097          	auipc	ra,0x0
 1ba:	000080e7          	jalr	ra # 1b6 <.L618+0x6c>
 1be:	00510603          	lb	a2,5(sp)
 1c2:	00410583          	lb	a1,4(sp)
 1c6:	000a0513          	mv	a0,s4
 1ca:	02440993          	add	s3,s0,36
 1ce:	00000097          	auipc	ra,0x0
 1d2:	000080e7          	jalr	ra # 1ce <.L618+0x84>
 1d6:	00048513          	mv	a0,s1
 1da:	00000097          	auipc	ra,0x0
 1de:	000080e7          	jalr	ra # 1da <.L618+0x90>
 1e2:	00000537          	lui	a0,0x0
 1e6:	00050513          	mv	a0,a0
 1ea:	00000097          	auipc	ra,0x0
 1ee:	000080e7          	jalr	ra # 1ea <.L618+0xa0>

000001f2 <.L619>:
 1f2:	2c492583          	lw	a1,708(s2)
 1f6:	0028                	add	a0,sp,8
 1f8:	0911                	add	s2,s2,4
 1fa:	00000097          	auipc	ra,0x0
 1fe:	000080e7          	jalr	ra # 1fa <.L619+0x8>
 202:	00a15603          	lhu	a2,10(sp)
 206:	00815583          	lhu	a1,8(sp)
 20a:	000a0513          	mv	a0,s4
 20e:	00000097          	auipc	ra,0x0
 212:	000080e7          	jalr	ra # 20e <.L619+0x1c>
 216:	fd391ee3          	bne	s2,s3,1f2 <.L619>
 21a:	00048513          	mv	a0,s1
 21e:	00000097          	auipc	ra,0x0
 222:	000080e7          	jalr	ra # 21e <.L619+0x2c>
 226:	00000537          	lui	a0,0x0
 22a:	00050513          	mv	a0,a0
 22e:	00000097          	auipc	ra,0x0
 232:	000080e7          	jalr	ra # 22e <.L619+0x3c>
 236:	8922                	mv	s2,s0

00000238 <.L620>:
 238:	2e892583          	lw	a1,744(s2)
 23c:	0028                	add	a0,sp,8
 23e:	0911                	add	s2,s2,4
 240:	00000097          	auipc	ra,0x0
 244:	000080e7          	jalr	ra # 240 <.L620+0x8>
 248:	00a15603          	lhu	a2,10(sp)
 24c:	00815583          	lhu	a1,8(sp)
 250:	000a0513          	mv	a0,s4
 254:	00000097          	auipc	ra,0x0
 258:	000080e7          	jalr	ra # 254 <.L620+0x1c>
 25c:	fd391ee3          	bne	s2,s3,238 <.L620>
 260:	00048513          	mv	a0,s1
 264:	00000097          	auipc	ra,0x0
 268:	000080e7          	jalr	ra # 264 <.L620+0x2c>
 26c:	00000537          	lui	a0,0x0
 270:	00050513          	mv	a0,a0
 274:	00000097          	auipc	ra,0x0
 278:	000080e7          	jalr	ra # 274 <.L620+0x3c>
 27c:	01040993          	add	s3,s0,16
 280:	8922                	mv	s2,s0

00000282 <.L621>:
 282:	30c92583          	lw	a1,780(s2)
 286:	0028                	add	a0,sp,8
 288:	0911                	add	s2,s2,4
 28a:	00000097          	auipc	ra,0x0
 28e:	000080e7          	jalr	ra # 28a <.L621+0x8>
 292:	00a15603          	lhu	a2,10(sp)
 296:	00815583          	lhu	a1,8(sp)
 29a:	000a0513          	mv	a0,s4
 29e:	00000097          	auipc	ra,0x0
 2a2:	000080e7          	jalr	ra # 29e <.L621+0x1c>
 2a6:	fd299ee3          	bne	s3,s2,282 <.L621>
 2aa:	00048513          	mv	a0,s1
 2ae:	00000097          	auipc	ra,0x0
 2b2:	000080e7          	jalr	ra # 2ae <.L621+0x2c>
 2b6:	00000537          	lui	a0,0x0
 2ba:	00050513          	mv	a0,a0
 2be:	00000097          	auipc	ra,0x0
 2c2:	000080e7          	jalr	ra # 2be <.L621+0x3c>
 2c6:	0a840913          	add	s2,s0,168

000002ca <.L622>:
 2ca:	21c42583          	lw	a1,540(s0)
 2ce:	0028                	add	a0,sp,8
 2d0:	0411                	add	s0,s0,4
 2d2:	00000097          	auipc	ra,0x0
 2d6:	000080e7          	jalr	ra # 2d2 <.L622+0x8>
 2da:	00a15603          	lhu	a2,10(sp)
 2de:	00815583          	lhu	a1,8(sp)
 2e2:	000a0513          	mv	a0,s4
 2e6:	00000097          	auipc	ra,0x0
 2ea:	000080e7          	jalr	ra # 2e6 <.L622+0x1c>
 2ee:	fc891ee3          	bne	s2,s0,2ca <.L622>
 2f2:	00048513          	mv	a0,s1
 2f6:	00000097          	auipc	ra,0x0
 2fa:	000080e7          	jalr	ra # 2f6 <.L622+0x2c>
 2fe:	50f2                	lw	ra,60(sp)
 300:	5462                	lw	s0,56(sp)
 302:	54d2                	lw	s1,52(sp)
 304:	5942                	lw	s2,48(sp)
 306:	59b2                	lw	s3,44(sp)
 308:	5a22                	lw	s4,40(sp)
 30a:	5a92                	lw	s5,36(sp)
 30c:	5b02                	lw	s6,32(sp)
 30e:	4bf2                	lw	s7,28(sp)
 310:	6121                	add	sp,sp,64
 312:	8082                	ret

Disassembly of section .text.mac_filter_enable:

00000000 <mac_filter_enable>:
   0:	000007b7          	lui	a5,0x0
   4:	00a78023          	sb	a0,0(a5) # 0 <mac_filter_enable>
   8:	8082                	ret

Disassembly of section .text.idf_enable:

00000000 <idf_enable>:
   0:	000007b7          	lui	a5,0x0
   4:	00a78023          	sb	a0,0(a5) # 0 <idf_enable>
   8:	8082                	ret

Disassembly of section .text.run_para_array_clear:

00000000 <run_para_array_clear>:
   0:	01059793          	sll	a5,a1,0x10
   4:	83c1                	srl	a5,a5,0x10
   6:	00279593          	sll	a1,a5,0x2
   a:	952e                	add	a0,a0,a1
   c:	474d                	li	a4,19

0000000e <.L633>:
   e:	00f77363          	bgeu	a4,a5,14 <.L634>
  12:	8082                	ret

00000014 <.L634>:
  14:	0785                	add	a5,a5,1
  16:	07c2                	sll	a5,a5,0x10
  18:	00052023          	sw	zero,0(a0) # 0 <run_para_array_clear>
  1c:	83c1                	srl	a5,a5,0x10
  1e:	0511                	add	a0,a0,4
  20:	b7fd                	j	e <.L633>

Disassembly of section .text.run_rftest_case:

00000000 <run_rftest_case>:
       0:	711d                	add	sp,sp,-96
       2:	cca2                	sw	s0,88(sp)
       4:	842e                	mv	s0,a1
       6:	caa6                	sw	s1,84(sp)
       8:	85b2                	mv	a1,a2
       a:	84aa                	mv	s1,a0
       c:	8522                	mv	a0,s0
       e:	c8ca                	sw	s2,80(sp)
      10:	ce86                	sw	ra,92(sp)
      12:	c6ce                	sw	s3,76(sp)
      14:	c4d2                	sw	s4,72(sp)
      16:	c2d6                	sw	s5,68(sp)
      18:	8932                	mv	s2,a2
      1a:	00000097          	auipc	ra,0x0
      1e:	000080e7          	jalr	ra # 1a <run_rftest_case+0x1a>
      22:	000005b7          	lui	a1,0x0
      26:	00058593          	mv	a1,a1
      2a:	8526                	mv	a0,s1
      2c:	00000097          	auipc	ra,0x0
      30:	000080e7          	jalr	ra # 2c <run_rftest_case+0x2c>
      34:	c509                	beqz	a0,3e <.L636>
      36:	00000097          	auipc	ra,0x0
      3a:	000080e7          	jalr	ra # 36 <run_rftest_case+0x36>

0000003e <.L636>:
      3e:	000005b7          	lui	a1,0x0
      42:	00058593          	mv	a1,a1
      46:	8526                	mv	a0,s1
      48:	00000097          	auipc	ra,0x0
      4c:	000080e7          	jalr	ra # 48 <.L636+0xa>
      50:	e52d                	bnez	a0,ba <.L637>
      52:	4050                	lw	a2,4(s0)
      54:	02c04063          	bgtz	a2,74 <.L638>
      58:	01442803          	lw	a6,20(s0)
      5c:	481c                	lw	a5,16(s0)
      5e:	4458                	lw	a4,12(s0)
      60:	4414                	lw	a3,8(s0)
      62:	400c                	lw	a1,0(s0)
      64:	00000537          	lui	a0,0x0
      68:	00050513          	mv	a0,a0
      6c:	00000097          	auipc	ra,0x0
      70:	000080e7          	jalr	ra # 6c <.L636+0x2e>

00000074 <.L638>:
      74:	485c                	lw	a5,20(s0)
      76:	4818                	lw	a4,16(s0)
      78:	4454                	lw	a3,12(s0)
      7a:	4410                	lw	a2,8(s0)
      7c:	404c                	lw	a1,4(s0)
      7e:	4008                	lw	a0,0(s0)
      80:	00000097          	auipc	ra,0x0
      84:	000080e7          	jalr	ra # 80 <.L638+0xc>
      88:	600347b7          	lui	a5,0x60034
      8c:	c687a583          	lw	a1,-920(a5) # 60033c68 <.L836+0x60030f82>
      90:	00000537          	lui	a0,0x0
      94:	00050513          	mv	a0,a0
      98:	0ff5f593          	zext.b	a1,a1
      9c:	00000097          	auipc	ra,0x0
      a0:	000080e7          	jalr	ra # 9c <.L638+0x28>
      a4:	4785                	li	a5,1

000000a6 <.L639>:
      a6:	40f6                	lw	ra,92(sp)
      a8:	4466                	lw	s0,88(sp)
      aa:	44d6                	lw	s1,84(sp)
      ac:	4946                	lw	s2,80(sp)
      ae:	49b6                	lw	s3,76(sp)
      b0:	4a26                	lw	s4,72(sp)
      b2:	4a96                	lw	s5,68(sp)
      b4:	853e                	mv	a0,a5
      b6:	6125                	add	sp,sp,96
      b8:	8082                	ret

000000ba <.L637>:
      ba:	000005b7          	lui	a1,0x0
      be:	00058593          	mv	a1,a1
      c2:	8526                	mv	a0,s1
      c4:	00000097          	auipc	ra,0x0
      c8:	000080e7          	jalr	ra # c4 <.L637+0xa>
      cc:	e11d                	bnez	a0,f2 <.L640>
      ce:	4010                	lw	a2,0(s0)
      d0:	000007b7          	lui	a5,0x0
      d4:	00000537          	lui	a0,0x0
      d8:	00c78023          	sb	a2,0(a5) # 0 <run_rftest_case>
      dc:	85a6                	mv	a1,s1
      de:	0ff67613          	zext.b	a2,a2
      e2:	00050513          	mv	a0,a0
      e6:	00000097          	auipc	ra,0x0
      ea:	000080e7          	jalr	ra # e6 <.L637+0x2c>
      ee:	4785                	li	a5,1
      f0:	bf5d                	j	a6 <.L639>

000000f2 <.L640>:
      f2:	000005b7          	lui	a1,0x0
      f6:	00058593          	mv	a1,a1
      fa:	8526                	mv	a0,s1
      fc:	00000097          	auipc	ra,0x0
     100:	000080e7          	jalr	ra # fc <.L640+0xa>
     104:	e909                	bnez	a0,116 <.L641>
     106:	00044503          	lbu	a0,0(s0)
     10a:	00000097          	auipc	ra,0x0
     10e:	000080e7          	jalr	ra # 10a <.L640+0x18>
     112:	4785                	li	a5,1
     114:	bf49                	j	a6 <.L639>

00000116 <.L641>:
     116:	000005b7          	lui	a1,0x0
     11a:	00058593          	mv	a1,a1
     11e:	8526                	mv	a0,s1
     120:	00000097          	auipc	ra,0x0
     124:	000080e7          	jalr	ra # 120 <.L641+0xa>
     128:	e10d                	bnez	a0,14a <.L642>
     12a:	4010                	lw	a2,0(s0)
     12c:	00000537          	lui	a0,0x0
     130:	000007b7          	lui	a5,0x0
     134:	85a6                	mv	a1,s1
     136:	00050513          	mv	a0,a0
     13a:	00c7a023          	sw	a2,0(a5) # 0 <run_rftest_case>
     13e:	00000097          	auipc	ra,0x0
     142:	000080e7          	jalr	ra # 13e <.L641+0x28>
     146:	4785                	li	a5,1
     148:	bfb9                	j	a6 <.L639>

0000014a <.L642>:
     14a:	000005b7          	lui	a1,0x0
     14e:	00058593          	mv	a1,a1
     152:	8526                	mv	a0,s1
     154:	00000097          	auipc	ra,0x0
     158:	000080e7          	jalr	ra # 154 <.L642+0xa>
     15c:	e909                	bnez	a0,16e <.L643>
     15e:	00044503          	lbu	a0,0(s0)
     162:	00000097          	auipc	ra,0x0
     166:	000080e7          	jalr	ra # 162 <.L642+0x18>
     16a:	4785                	li	a5,1
     16c:	bf2d                	j	a6 <.L639>

0000016e <.L643>:
     16e:	000005b7          	lui	a1,0x0
     172:	00058593          	mv	a1,a1
     176:	8526                	mv	a0,s1
     178:	00000097          	auipc	ra,0x0
     17c:	000080e7          	jalr	ra # 178 <.L643+0xa>
     180:	e909                	bnez	a0,192 <.L644>
     182:	85ca                	mv	a1,s2
     184:	8522                	mv	a0,s0
     186:	00000097          	auipc	ra,0x0
     18a:	000080e7          	jalr	ra # 186 <.L643+0x18>
     18e:	4785                	li	a5,1
     190:	bf19                	j	a6 <.L639>

00000192 <.L644>:
     192:	000005b7          	lui	a1,0x0
     196:	00058593          	mv	a1,a1
     19a:	8526                	mv	a0,s1
     19c:	00000097          	auipc	ra,0x0
     1a0:	000080e7          	jalr	ra # 19c <.L644+0xa>
     1a4:	e901                	bnez	a0,1b4 <.L645>
     1a6:	8522                	mv	a0,s0
     1a8:	00000097          	auipc	ra,0x0
     1ac:	000080e7          	jalr	ra # 1a8 <.L644+0x16>
     1b0:	4785                	li	a5,1
     1b2:	bdd5                	j	a6 <.L639>

000001b4 <.L645>:
     1b4:	000005b7          	lui	a1,0x0
     1b8:	00058593          	mv	a1,a1
     1bc:	8526                	mv	a0,s1
     1be:	00000097          	auipc	ra,0x0
     1c2:	000080e7          	jalr	ra # 1be <.L645+0xa>
     1c6:	e90d                	bnez	a0,1f8 <.L646>
     1c8:	00844603          	lbu	a2,8(s0)
     1cc:	00441583          	lh	a1,4(s0)
     1d0:	00045503          	lhu	a0,0(s0)
     1d4:	00000097          	auipc	ra,0x0
     1d8:	000080e7          	jalr	ra # 1d4 <.L645+0x20>
     1dc:	4418                	lw	a4,8(s0)
     1de:	4054                	lw	a3,4(s0)
     1e0:	4010                	lw	a2,0(s0)
     1e2:	00000537          	lui	a0,0x0
     1e6:	85a6                	mv	a1,s1
     1e8:	00050513          	mv	a0,a0
     1ec:	00000097          	auipc	ra,0x0
     1f0:	000080e7          	jalr	ra # 1ec <.L645+0x38>
     1f4:	4785                	li	a5,1
     1f6:	bd45                	j	a6 <.L639>

000001f8 <.L646>:
     1f8:	000005b7          	lui	a1,0x0
     1fc:	00058593          	mv	a1,a1
     200:	8526                	mv	a0,s1
     202:	00000097          	auipc	ra,0x0
     206:	000080e7          	jalr	ra # 202 <.L646+0xa>
     20a:	e909                	bnez	a0,21c <.L647>
     20c:	85ca                	mv	a1,s2
     20e:	8522                	mv	a0,s0
     210:	00000097          	auipc	ra,0x0
     214:	000080e7          	jalr	ra # 210 <.L646+0x18>
     218:	4785                	li	a5,1
     21a:	b571                	j	a6 <.L639>

0000021c <.L647>:
     21c:	000005b7          	lui	a1,0x0
     220:	00058593          	mv	a1,a1
     224:	8526                	mv	a0,s1
     226:	00000097          	auipc	ra,0x0
     22a:	000080e7          	jalr	ra # 226 <.L647+0xa>
     22e:	e901                	bnez	a0,23e <.L648>
     230:	8522                	mv	a0,s0
     232:	00000097          	auipc	ra,0x0
     236:	000080e7          	jalr	ra # 232 <.L647+0x16>
     23a:	4785                	li	a5,1
     23c:	b5ad                	j	a6 <.L639>

0000023e <.L648>:
     23e:	000005b7          	lui	a1,0x0
     242:	00058593          	mv	a1,a1
     246:	8526                	mv	a0,s1
     248:	00000097          	auipc	ra,0x0
     24c:	000080e7          	jalr	ra # 248 <.L648+0xa>
     250:	e10d                	bnez	a0,272 <.L649>
     252:	00000537          	lui	a0,0x0
     256:	85a6                	mv	a1,s1
     258:	00050513          	mv	a0,a0
     25c:	00000097          	auipc	ra,0x0
     260:	000080e7          	jalr	ra # 25c <.L648+0x1e>
     264:	4008                	lw	a0,0(s0)
     266:	00000097          	auipc	ra,0x0
     26a:	000080e7          	jalr	ra # 266 <.L648+0x28>
     26e:	4785                	li	a5,1
     270:	bd1d                	j	a6 <.L639>

00000272 <.L649>:
     272:	000005b7          	lui	a1,0x0
     276:	00058593          	mv	a1,a1
     27a:	8526                	mv	a0,s1
     27c:	00000097          	auipc	ra,0x0
     280:	000080e7          	jalr	ra # 27c <.L649+0xa>
     284:	e131                	bnez	a0,2c8 <.L650>
     286:	545c                	lw	a5,44(s0)
     288:	c63e                	sw	a5,12(sp)
     28a:	541c                	lw	a5,40(s0)
     28c:	c43e                	sw	a5,8(sp)
     28e:	505c                	lw	a5,36(s0)
     290:	c23e                	sw	a5,4(sp)
     292:	501c                	lw	a5,32(s0)
     294:	c03e                	sw	a5,0(sp)
     296:	485c                	lw	a5,20(s0)
     298:	01c42883          	lw	a7,28(s0)
     29c:	01842803          	lw	a6,24(s0)
     2a0:	4818                	lw	a4,16(s0)
     2a2:	4454                	lw	a3,12(s0)
     2a4:	4410                	lw	a2,8(s0)
     2a6:	404c                	lw	a1,4(s0)
     2a8:	4008                	lw	a0,0(s0)
     2aa:	00000097          	auipc	ra,0x0
     2ae:	000080e7          	jalr	ra # 2aa <.L649+0x38>
     2b2:	00000537          	lui	a0,0x0
     2b6:	85a6                	mv	a1,s1
     2b8:	00050513          	mv	a0,a0
     2bc:	00000097          	auipc	ra,0x0
     2c0:	000080e7          	jalr	ra # 2bc <.L649+0x4a>
     2c4:	4785                	li	a5,1
     2c6:	b3c5                	j	a6 <.L639>

000002c8 <.L650>:
     2c8:	000005b7          	lui	a1,0x0
     2cc:	00058593          	mv	a1,a1
     2d0:	8526                	mv	a0,s1
     2d2:	00000097          	auipc	ra,0x0
     2d6:	000080e7          	jalr	ra # 2d2 <.L650+0xa>
     2da:	ed09                	bnez	a0,2f4 <.L651>
     2dc:	401c                	lw	a5,0(s0)
     2de:	00000537          	lui	a0,0x0
     2e2:	00050513          	mv	a0,a0
     2e6:	438c                	lw	a1,0(a5)
     2e8:	00000097          	auipc	ra,0x0
     2ec:	000080e7          	jalr	ra # 2e8 <.L650+0x20>
     2f0:	4785                	li	a5,1
     2f2:	bb55                	j	a6 <.L639>

000002f4 <.L651>:
     2f4:	000005b7          	lui	a1,0x0
     2f8:	00058593          	mv	a1,a1
     2fc:	8526                	mv	a0,s1
     2fe:	00000097          	auipc	ra,0x0
     302:	000080e7          	jalr	ra # 2fe <.L651+0xa>
     306:	ed09                	bnez	a0,320 <.L652>
     308:	401c                	lw	a5,0(s0)
     30a:	00000537          	lui	a0,0x0
     30e:	00050513          	mv	a0,a0
     312:	438c                	lw	a1,0(a5)
     314:	00000097          	auipc	ra,0x0
     318:	000080e7          	jalr	ra # 314 <.L651+0x20>
     31c:	4785                	li	a5,1
     31e:	b361                	j	a6 <.L639>

00000320 <.L652>:
     320:	000005b7          	lui	a1,0x0
     324:	00058593          	mv	a1,a1
     328:	8526                	mv	a0,s1
     32a:	00000097          	auipc	ra,0x0
     32e:	000080e7          	jalr	ra # 32a <.L652+0xa>
     332:	e105                	bnez	a0,352 <.L653>
     334:	401c                	lw	a5,0(s0)
     336:	4058                	lw	a4,4(s0)
     338:	00000537          	lui	a0,0x0
     33c:	00050513          	mv	a0,a0
     340:	c398                	sw	a4,0(a5)
     342:	401c                	lw	a5,0(s0)
     344:	438c                	lw	a1,0(a5)
     346:	00000097          	auipc	ra,0x0
     34a:	000080e7          	jalr	ra # 346 <.L652+0x26>
     34e:	4785                	li	a5,1
     350:	bb99                	j	a6 <.L639>

00000352 <.L653>:
     352:	000005b7          	lui	a1,0x0
     356:	00058593          	mv	a1,a1
     35a:	8526                	mv	a0,s1
     35c:	00000097          	auipc	ra,0x0
     360:	000080e7          	jalr	ra # 35c <.L653+0xa>
     364:	e105                	bnez	a0,384 <.L654>
     366:	401c                	lw	a5,0(s0)
     368:	4058                	lw	a4,4(s0)
     36a:	00000537          	lui	a0,0x0
     36e:	00050513          	mv	a0,a0
     372:	c398                	sw	a4,0(a5)
     374:	401c                	lw	a5,0(s0)
     376:	438c                	lw	a1,0(a5)
     378:	00000097          	auipc	ra,0x0
     37c:	000080e7          	jalr	ra # 378 <.L653+0x26>
     380:	4785                	li	a5,1
     382:	b315                	j	a6 <.L639>

00000384 <.L654>:
     384:	000005b7          	lui	a1,0x0
     388:	00058593          	mv	a1,a1
     38c:	8526                	mv	a0,s1
     38e:	00000097          	auipc	ra,0x0
     392:	000080e7          	jalr	ra # 38e <.L654+0xa>
     396:	e519                	bnez	a0,3a4 <.L655>
     398:	00000097          	auipc	ra,0x0
     39c:	000080e7          	jalr	ra # 398 <.L654+0x14>
     3a0:	4785                	li	a5,1
     3a2:	b311                	j	a6 <.L639>

000003a4 <.L655>:
     3a4:	000005b7          	lui	a1,0x0
     3a8:	00058593          	mv	a1,a1
     3ac:	8526                	mv	a0,s1
     3ae:	00000097          	auipc	ra,0x0
     3b2:	000080e7          	jalr	ra # 3ae <.L655+0xa>
     3b6:	e105                	bnez	a0,3d6 <.L656>
     3b8:	00000097          	auipc	ra,0x0
     3bc:	000080e7          	jalr	ra # 3b8 <.L655+0x14>
     3c0:	00000537          	lui	a0,0x0
     3c4:	85a6                	mv	a1,s1
     3c6:	00050513          	mv	a0,a0
     3ca:	00000097          	auipc	ra,0x0
     3ce:	000080e7          	jalr	ra # 3ca <.L655+0x26>
     3d2:	4785                	li	a5,1
     3d4:	b9c9                	j	a6 <.L639>

000003d6 <.L656>:
     3d6:	000005b7          	lui	a1,0x0
     3da:	00058593          	mv	a1,a1
     3de:	8526                	mv	a0,s1
     3e0:	00000097          	auipc	ra,0x0
     3e4:	000080e7          	jalr	ra # 3e0 <.L656+0xa>
     3e8:	e11d                	bnez	a0,40e <.L657>
     3ea:	00044503          	lbu	a0,0(s0)
     3ee:	00000097          	auipc	ra,0x0
     3f2:	000080e7          	jalr	ra # 3ee <.L656+0x18>
     3f6:	4010                	lw	a2,0(s0)
     3f8:	00000537          	lui	a0,0x0
     3fc:	85a6                	mv	a1,s1
     3fe:	00050513          	mv	a0,a0
     402:	00000097          	auipc	ra,0x0
     406:	000080e7          	jalr	ra # 402 <.L656+0x2c>
     40a:	4785                	li	a5,1
     40c:	b969                	j	a6 <.L639>

0000040e <.L657>:
     40e:	000005b7          	lui	a1,0x0
     412:	00058593          	mv	a1,a1
     416:	8526                	mv	a0,s1
     418:	00000097          	auipc	ra,0x0
     41c:	000080e7          	jalr	ra # 418 <.L657+0xa>
     420:	e911                	bnez	a0,434 <.L658>
     422:	404c                	lw	a1,4(s0)
     424:	00044503          	lbu	a0,0(s0)
     428:	00000097          	auipc	ra,0x0
     42c:	000080e7          	jalr	ra # 428 <.L657+0x1a>
     430:	4785                	li	a5,1
     432:	b995                	j	a6 <.L639>

00000434 <.L658>:
     434:	000005b7          	lui	a1,0x0
     438:	00058593          	mv	a1,a1
     43c:	8526                	mv	a0,s1
     43e:	00000097          	auipc	ra,0x0
     442:	000080e7          	jalr	ra # 43e <.L658+0xa>
     446:	e911                	bnez	a0,45a <.L659>
     448:	404c                	lw	a1,4(s0)
     44a:	00044503          	lbu	a0,0(s0)
     44e:	00000097          	auipc	ra,0x0
     452:	000080e7          	jalr	ra # 44e <.L658+0x1a>
     456:	4785                	li	a5,1
     458:	b1b9                	j	a6 <.L639>

0000045a <.L659>:
     45a:	000005b7          	lui	a1,0x0
     45e:	00058593          	mv	a1,a1
     462:	8526                	mv	a0,s1
     464:	00000097          	auipc	ra,0x0
     468:	000080e7          	jalr	ra # 464 <.L659+0xa>
     46c:	e911                	bnez	a0,480 <.L660>
     46e:	404c                	lw	a1,4(s0)
     470:	00040503          	lb	a0,0(s0)
     474:	00000097          	auipc	ra,0x0
     478:	000080e7          	jalr	ra # 474 <.L659+0x1a>
     47c:	4785                	li	a5,1
     47e:	b125                	j	a6 <.L639>

00000480 <.L660>:
     480:	000005b7          	lui	a1,0x0
     484:	00058593          	mv	a1,a1
     488:	8526                	mv	a0,s1
     48a:	00000097          	auipc	ra,0x0
     48e:	000080e7          	jalr	ra # 48a <.L660+0xa>
     492:	e515                	bnez	a0,4be <.L661>
     494:	4010                	lw	a2,0(s0)
     496:	4054                	lw	a3,4(s0)
     498:	000007b7          	lui	a5,0x0
     49c:	00000537          	lui	a0,0x0
     4a0:	00c78023          	sb	a2,0(a5) # 0 <run_rftest_case>
     4a4:	85a6                	mv	a1,s1
     4a6:	000007b7          	lui	a5,0x0
     4aa:	00050513          	mv	a0,a0
     4ae:	00d78023          	sb	a3,0(a5) # 0 <run_rftest_case>
     4b2:	00000097          	auipc	ra,0x0
     4b6:	000080e7          	jalr	ra # 4b2 <.L660+0x32>
     4ba:	4785                	li	a5,1
     4bc:	b6ed                	j	a6 <.L639>

000004be <.L661>:
     4be:	000005b7          	lui	a1,0x0
     4c2:	00058593          	mv	a1,a1
     4c6:	8526                	mv	a0,s1
     4c8:	00000097          	auipc	ra,0x0
     4cc:	000080e7          	jalr	ra # 4c8 <.L661+0xa>
     4d0:	e10d                	bnez	a0,4f2 <.L662>
     4d2:	4010                	lw	a2,0(s0)
     4d4:	00000537          	lui	a0,0x0
     4d8:	000007b7          	lui	a5,0x0
     4dc:	85a6                	mv	a1,s1
     4de:	00050513          	mv	a0,a0
     4e2:	00c78023          	sb	a2,0(a5) # 0 <run_rftest_case>
     4e6:	00000097          	auipc	ra,0x0
     4ea:	000080e7          	jalr	ra # 4e6 <.L661+0x28>
     4ee:	4785                	li	a5,1
     4f0:	be5d                	j	a6 <.L639>

000004f2 <.L662>:
     4f2:	000005b7          	lui	a1,0x0
     4f6:	00058593          	mv	a1,a1
     4fa:	8526                	mv	a0,s1
     4fc:	00000097          	auipc	ra,0x0
     500:	000080e7          	jalr	ra # 4fc <.L662+0xa>
     504:	ed05                	bnez	a0,53c <.L663>
     506:	4004                	lw	s1,0(s0)
     508:	00000937          	lui	s2,0x0

0000050c <.L664>:
     50c:	401c                	lw	a5,0(s0)
     50e:	4058                	lw	a4,4(s0)
     510:	97ba                	add	a5,a5,a4
     512:	00f4ec63          	bltu	s1,a5,52a <.L665>
     516:	00000537          	lui	a0,0x0
     51a:	00050513          	mv	a0,a0
     51e:	00000097          	auipc	ra,0x0
     522:	000080e7          	jalr	ra # 51e <.L664+0x12>
     526:	4785                	li	a5,1
     528:	bebd                	j	a6 <.L639>

0000052a <.L665>:
     52a:	408c                	lw	a1,0(s1)
     52c:	00090513          	mv	a0,s2
     530:	0491                	add	s1,s1,4 # 4 <run_rftest_case+0x4>
     532:	00000097          	auipc	ra,0x0
     536:	000080e7          	jalr	ra # 532 <.L665+0x8>
     53a:	bfc9                	j	50c <.L664>

0000053c <.L663>:
     53c:	000005b7          	lui	a1,0x0
     540:	00058593          	mv	a1,a1
     544:	8526                	mv	a0,s1
     546:	00000097          	auipc	ra,0x0
     54a:	000080e7          	jalr	ra # 546 <.L663+0xa>
     54e:	e115                	bnez	a0,572 <.L666>
     550:	4018                	lw	a4,0(s0)
     552:	4054                	lw	a3,4(s0)
     554:	00000537          	lui	a0,0x0
     558:	431c                	lw	a5,0(a4)
     55a:	00050513          	mv	a0,a0
     55e:	8fd5                	or	a5,a5,a3
     560:	c31c                	sw	a5,0(a4)
     562:	400c                	lw	a1,0(s0)
     564:	4190                	lw	a2,0(a1)
     566:	00000097          	auipc	ra,0x0
     56a:	000080e7          	jalr	ra # 566 <.L663+0x2a>
     56e:	4785                	li	a5,1
     570:	be1d                	j	a6 <.L639>

00000572 <.L666>:
     572:	000005b7          	lui	a1,0x0
     576:	00058593          	mv	a1,a1
     57a:	8526                	mv	a0,s1
     57c:	00000097          	auipc	ra,0x0
     580:	000080e7          	jalr	ra # 57c <.L666+0xa>
     584:	e505                	bnez	a0,5ac <.L667>
     586:	4018                	lw	a4,0(s0)
     588:	405c                	lw	a5,4(s0)
     58a:	00000537          	lui	a0,0x0
     58e:	4314                	lw	a3,0(a4)
     590:	fff7c793          	not	a5,a5
     594:	00050513          	mv	a0,a0
     598:	8ff5                	and	a5,a5,a3
     59a:	c31c                	sw	a5,0(a4)
     59c:	400c                	lw	a1,0(s0)
     59e:	4190                	lw	a2,0(a1)
     5a0:	00000097          	auipc	ra,0x0
     5a4:	000080e7          	jalr	ra # 5a0 <.L666+0x2e>
     5a8:	4785                	li	a5,1
     5aa:	bcf5                	j	a6 <.L639>

000005ac <.L667>:
     5ac:	000005b7          	lui	a1,0x0
     5b0:	00058593          	mv	a1,a1
     5b4:	8526                	mv	a0,s1
     5b6:	00000097          	auipc	ra,0x0
     5ba:	000080e7          	jalr	ra # 5b6 <.L667+0xa>
     5be:	e90d                	bnez	a0,5f0 <.L668>
     5c0:	401c                	lw	a5,0(s0)
     5c2:	4414                	lw	a3,8(s0)
     5c4:	00000537          	lui	a0,0x0
     5c8:	4398                	lw	a4,0(a5)
     5ca:	405c                	lw	a5,4(s0)
     5cc:	00050513          	mv	a0,a0
     5d0:	8f95                	sub	a5,a5,a3
     5d2:	00178593          	add	a1,a5,1
     5d6:	4785                	li	a5,1
     5d8:	00b797b3          	sll	a5,a5,a1
     5dc:	17fd                	add	a5,a5,-1
     5de:	00d755b3          	srl	a1,a4,a3
     5e2:	8dfd                	and	a1,a1,a5
     5e4:	00000097          	auipc	ra,0x0
     5e8:	000080e7          	jalr	ra # 5e4 <.L667+0x38>
     5ec:	4785                	li	a5,1
     5ee:	bc65                	j	a6 <.L639>

000005f0 <.L668>:
     5f0:	000005b7          	lui	a1,0x0
     5f4:	00058593          	mv	a1,a1
     5f8:	8526                	mv	a0,s1
     5fa:	00000097          	auipc	ra,0x0
     5fe:	000080e7          	jalr	ra # 5fa <.L668+0xa>
     602:	e90d                	bnez	a0,634 <.L669>
     604:	000007b7          	lui	a5,0x0
     608:	0007a783          	lw	a5,0(a5) # 0 <run_rftest_case>
     60c:	00844603          	lbu	a2,8(s0)
     610:	00444583          	lbu	a1,4(s0)
     614:	1ac7a783          	lw	a5,428(a5)
     618:	00044503          	lbu	a0,0(s0)
     61c:	9782                	jalr	a5
     61e:	85aa                	mv	a1,a0
     620:	00000537          	lui	a0,0x0
     624:	00050513          	mv	a0,a0
     628:	00000097          	auipc	ra,0x0
     62c:	000080e7          	jalr	ra # 628 <.L668+0x38>
     630:	4785                	li	a5,1
     632:	bc95                	j	a6 <.L639>

00000634 <.L669>:
     634:	000005b7          	lui	a1,0x0
     638:	00058593          	mv	a1,a1
     63c:	8526                	mv	a0,s1
     63e:	00000097          	auipc	ra,0x0
     642:	000080e7          	jalr	ra # 63e <.L669+0xa>
     646:	e91d                	bnez	a0,67c <.L670>
     648:	000007b7          	lui	a5,0x0
     64c:	0007a783          	lw	a5,0(a5) # 0 <run_rftest_case>
     650:	00c44683          	lbu	a3,12(s0)
     654:	00844603          	lbu	a2,8(s0)
     658:	1b47a783          	lw	a5,436(a5)
     65c:	00444583          	lbu	a1,4(s0)
     660:	00044503          	lbu	a0,0(s0)
     664:	9782                	jalr	a5
     666:	00000537          	lui	a0,0x0
     66a:	85a6                	mv	a1,s1
     66c:	00050513          	mv	a0,a0
     670:	00000097          	auipc	ra,0x0
     674:	000080e7          	jalr	ra # 670 <.L669+0x3c>
     678:	4785                	li	a5,1
     67a:	b435                	j	a6 <.L639>

0000067c <.L670>:
     67c:	000005b7          	lui	a1,0x0
     680:	00058593          	mv	a1,a1
     684:	8526                	mv	a0,s1
     686:	00000097          	auipc	ra,0x0
     68a:	000080e7          	jalr	ra # 686 <.L670+0xa>
     68e:	ed1d                	bnez	a0,6cc <.L671>
     690:	000007b7          	lui	a5,0x0
     694:	0007a783          	lw	a5,0(a5) # 0 <run_rftest_case>
     698:	01044703          	lbu	a4,16(s0)
     69c:	00c44683          	lbu	a3,12(s0)
     6a0:	1bc7a803          	lw	a6,444(a5)
     6a4:	00844603          	lbu	a2,8(s0)
     6a8:	01444783          	lbu	a5,20(s0)
     6ac:	00444583          	lbu	a1,4(s0)
     6b0:	00044503          	lbu	a0,0(s0)
     6b4:	9802                	jalr	a6
     6b6:	00000537          	lui	a0,0x0
     6ba:	85a6                	mv	a1,s1
     6bc:	00050513          	mv	a0,a0
     6c0:	00000097          	auipc	ra,0x0
     6c4:	000080e7          	jalr	ra # 6c0 <.L670+0x44>
     6c8:	4785                	li	a5,1
     6ca:	baf1                	j	a6 <.L639>

000006cc <.L671>:
     6cc:	000005b7          	lui	a1,0x0
     6d0:	00058593          	mv	a1,a1
     6d4:	8526                	mv	a0,s1
     6d6:	00000097          	auipc	ra,0x0
     6da:	000080e7          	jalr	ra # 6d6 <.L671+0xa>
     6de:	ed0d                	bnez	a0,718 <.L672>
     6e0:	000007b7          	lui	a5,0x0
     6e4:	0007a783          	lw	a5,0(a5) # 0 <run_rftest_case>
     6e8:	01044703          	lbu	a4,16(s0)
     6ec:	00c44683          	lbu	a3,12(s0)
     6f0:	1b87a783          	lw	a5,440(a5)
     6f4:	00844603          	lbu	a2,8(s0)
     6f8:	00444583          	lbu	a1,4(s0)
     6fc:	00044503          	lbu	a0,0(s0)
     700:	9782                	jalr	a5
     702:	85aa                	mv	a1,a0
     704:	00000537          	lui	a0,0x0
     708:	00050513          	mv	a0,a0
     70c:	00000097          	auipc	ra,0x0
     710:	000080e7          	jalr	ra # 70c <.L671+0x40>
     714:	4785                	li	a5,1
     716:	ba41                	j	a6 <.L639>

00000718 <.L672>:
     718:	000005b7          	lui	a1,0x0
     71c:	00058593          	mv	a1,a1
     720:	8526                	mv	a0,s1
     722:	00000097          	auipc	ra,0x0
     726:	000080e7          	jalr	ra # 722 <.L672+0xa>
     72a:	e11d                	bnez	a0,750 <.L673>
     72c:	000007b7          	lui	a5,0x0
     730:	0007a783          	lw	a5,0(a5) # 0 <run_rftest_case>
     734:	1d47a783          	lw	a5,468(a5)
     738:	9782                	jalr	a5
     73a:	00000537          	lui	a0,0x0
     73e:	85a6                	mv	a1,s1
     740:	00050513          	mv	a0,a0
     744:	00000097          	auipc	ra,0x0
     748:	000080e7          	jalr	ra # 744 <.L672+0x2c>
     74c:	4785                	li	a5,1
     74e:	baa1                	j	a6 <.L639>

00000750 <.L673>:
     750:	000005b7          	lui	a1,0x0
     754:	00058593          	mv	a1,a1
     758:	8526                	mv	a0,s1
     75a:	00000097          	auipc	ra,0x0
     75e:	000080e7          	jalr	ra # 75a <.L673+0xa>
     762:	e11d                	bnez	a0,788 <.L674>
     764:	000007b7          	lui	a5,0x0
     768:	0007a783          	lw	a5,0(a5) # 0 <run_rftest_case>
     76c:	1d87a783          	lw	a5,472(a5)
     770:	9782                	jalr	a5
     772:	00000537          	lui	a0,0x0
     776:	85a6                	mv	a1,s1
     778:	00050513          	mv	a0,a0
     77c:	00000097          	auipc	ra,0x0
     780:	000080e7          	jalr	ra # 77c <.L673+0x2c>
     784:	4785                	li	a5,1
     786:	b205                	j	a6 <.L639>

00000788 <.L674>:
     788:	000005b7          	lui	a1,0x0
     78c:	00058593          	mv	a1,a1
     790:	8526                	mv	a0,s1
     792:	00000097          	auipc	ra,0x0
     796:	000080e7          	jalr	ra # 792 <.L674+0xa>
     79a:	e90d                	bnez	a0,7cc <.L675>
     79c:	000007b7          	lui	a5,0x0
     7a0:	0007a783          	lw	a5,0(a5) # 0 <run_rftest_case>
     7a4:	00845603          	lhu	a2,8(s0)
     7a8:	00444583          	lbu	a1,4(s0)
     7ac:	1cc7a783          	lw	a5,460(a5)
     7b0:	00044503          	lbu	a0,0(s0)
     7b4:	9782                	jalr	a5
     7b6:	00000537          	lui	a0,0x0
     7ba:	85a6                	mv	a1,s1
     7bc:	00050513          	mv	a0,a0
     7c0:	00000097          	auipc	ra,0x0
     7c4:	000080e7          	jalr	ra # 7c0 <.L674+0x38>
     7c8:	4785                	li	a5,1
     7ca:	b8f1                	j	a6 <.L639>

000007cc <.L675>:
     7cc:	000005b7          	lui	a1,0x0
     7d0:	00058593          	mv	a1,a1
     7d4:	8526                	mv	a0,s1
     7d6:	00000097          	auipc	ra,0x0
     7da:	000080e7          	jalr	ra # 7d6 <.L675+0xa>
     7de:	e51d                	bnez	a0,80c <.L676>
     7e0:	000007b7          	lui	a5,0x0
     7e4:	0007a783          	lw	a5,0(a5) # 0 <run_rftest_case>
     7e8:	00444583          	lbu	a1,4(s0)
     7ec:	00044503          	lbu	a0,0(s0)
     7f0:	1d07a783          	lw	a5,464(a5)
     7f4:	9782                	jalr	a5
     7f6:	85aa                	mv	a1,a0
     7f8:	00000537          	lui	a0,0x0
     7fc:	00050513          	mv	a0,a0
     800:	00000097          	auipc	ra,0x0
     804:	000080e7          	jalr	ra # 800 <.L675+0x34>
     808:	4785                	li	a5,1
     80a:	b871                	j	a6 <.L639>

0000080c <.L676>:
     80c:	000005b7          	lui	a1,0x0
     810:	00058593          	mv	a1,a1
     814:	8526                	mv	a0,s1
     816:	00000097          	auipc	ra,0x0
     81a:	000080e7          	jalr	ra # 816 <.L676+0xa>
     81e:	e139                	bnez	a0,864 <.L677>
     820:	4008                	lw	a0,0(s0)
     822:	4454                	lw	a3,12(s0)
     824:	000007b7          	lui	a5,0x0
     828:	00078793          	mv	a5,a5
     82c:	00d56733          	or	a4,a0,a3
     830:	c71d                	beqz	a4,85e <.L678>
     832:	4705                	li	a4,1
     834:	00e78023          	sb	a4,0(a5) # 0 <run_rftest_case>

00000838 <.L679>:
     838:	485c                	lw	a5,20(s0)
     83a:	4818                	lw	a4,16(s0)
     83c:	4410                	lw	a2,8(s0)
     83e:	404c                	lw	a1,4(s0)
     840:	00000097          	auipc	ra,0x0
     844:	000080e7          	jalr	ra # 840 <.L679+0x8>
     848:	00000537          	lui	a0,0x0
     84c:	85a6                	mv	a1,s1
     84e:	00050513          	mv	a0,a0
     852:	00000097          	auipc	ra,0x0
     856:	000080e7          	jalr	ra # 852 <.L679+0x1a>
     85a:	4785                	li	a5,1
     85c:	b0a9                	j	a6 <.L639>

0000085e <.L678>:
     85e:	00078023          	sb	zero,0(a5)
     862:	bfd9                	j	838 <.L679>

00000864 <.L677>:
     864:	000005b7          	lui	a1,0x0
     868:	00058593          	mv	a1,a1
     86c:	8526                	mv	a0,s1
     86e:	00000097          	auipc	ra,0x0
     872:	000080e7          	jalr	ra # 86e <.L677+0xa>
     876:	ed21                	bnez	a0,8ce <.L680>
     878:	4008                	lw	a0,0(s0)
     87a:	4454                	lw	a3,12(s0)
     87c:	000007b7          	lui	a5,0x0
     880:	00078793          	mv	a5,a5
     884:	00d56733          	or	a4,a0,a3
     888:	c321                	beqz	a4,8c8 <.L681>
     88a:	4705                	li	a4,1
     88c:	00e78023          	sb	a4,0(a5) # 0 <run_rftest_case>

00000890 <.L682>:
     890:	01444783          	lbu	a5,20(s0)
     894:	01041703          	lh	a4,16(s0)
     898:	00844603          	lbu	a2,8(s0)
     89c:	00441583          	lh	a1,4(s0)
     8a0:	0ff6f693          	zext.b	a3,a3
     8a4:	0ff57513          	zext.b	a0,a0
     8a8:	00000097          	auipc	ra,0x0
     8ac:	000080e7          	jalr	ra # 8a8 <.L682+0x18>
     8b0:	00000537          	lui	a0,0x0
     8b4:	85a6                	mv	a1,s1
     8b6:	00050513          	mv	a0,a0
     8ba:	00000097          	auipc	ra,0x0
     8be:	000080e7          	jalr	ra # 8ba <.L682+0x2a>
     8c2:	4785                	li	a5,1
     8c4:	fe2ff06f          	j	a6 <.L639>

000008c8 <.L681>:
     8c8:	00078023          	sb	zero,0(a5)
     8cc:	b7d1                	j	890 <.L682>

000008ce <.L680>:
     8ce:	000005b7          	lui	a1,0x0
     8d2:	00058593          	mv	a1,a1
     8d6:	8526                	mv	a0,s1
     8d8:	00000097          	auipc	ra,0x0
     8dc:	000080e7          	jalr	ra # 8d8 <.L680+0xa>
     8e0:	e515                	bnez	a0,90c <.L683>
     8e2:	000007b7          	lui	a5,0x0
     8e6:	00078023          	sb	zero,0(a5) # 0 <run_rftest_case>
     8ea:	4008                	lw	a0,0(s0)
     8ec:	00000097          	auipc	ra,0x0
     8f0:	000080e7          	jalr	ra # 8ec <.L680+0x1e>
     8f4:	00000537          	lui	a0,0x0
     8f8:	85a6                	mv	a1,s1
     8fa:	00050513          	mv	a0,a0
     8fe:	00000097          	auipc	ra,0x0
     902:	000080e7          	jalr	ra # 8fe <.L680+0x30>
     906:	4785                	li	a5,1
     908:	f9eff06f          	j	a6 <.L639>

0000090c <.L683>:
     90c:	000005b7          	lui	a1,0x0
     910:	00058593          	mv	a1,a1
     914:	8526                	mv	a0,s1
     916:	00000097          	auipc	ra,0x0
     91a:	000080e7          	jalr	ra # 916 <.L683+0xa>
     91e:	ed0d                	bnez	a0,958 <.L684>
     920:	501c                	lw	a5,32(s0)
     922:	c03e                	sw	a5,0(sp)
     924:	485c                	lw	a5,20(s0)
     926:	01c42883          	lw	a7,28(s0)
     92a:	01842803          	lw	a6,24(s0)
     92e:	4818                	lw	a4,16(s0)
     930:	4454                	lw	a3,12(s0)
     932:	4410                	lw	a2,8(s0)
     934:	404c                	lw	a1,4(s0)
     936:	4008                	lw	a0,0(s0)
     938:	00000097          	auipc	ra,0x0
     93c:	000080e7          	jalr	ra # 938 <.L683+0x2c>
     940:	00000537          	lui	a0,0x0
     944:	85a6                	mv	a1,s1
     946:	00050513          	mv	a0,a0
     94a:	00000097          	auipc	ra,0x0
     94e:	000080e7          	jalr	ra # 94a <.L683+0x3e>
     952:	4785                	li	a5,1
     954:	f52ff06f          	j	a6 <.L639>

00000958 <.L684>:
     958:	000005b7          	lui	a1,0x0
     95c:	00058593          	mv	a1,a1
     960:	8526                	mv	a0,s1
     962:	00000097          	auipc	ra,0x0
     966:	000080e7          	jalr	ra # 962 <.L684+0xa>
     96a:	e905                	bnez	a0,99a <.L685>
     96c:	4454                	lw	a3,12(s0)
     96e:	4410                	lw	a2,8(s0)
     970:	404c                	lw	a1,4(s0)
     972:	4008                	lw	a0,0(s0)
     974:	00000097          	auipc	ra,0x0
     978:	000080e7          	jalr	ra # 974 <.L684+0x1c>
     97c:	4458                	lw	a4,12(s0)
     97e:	4414                	lw	a3,8(s0)
     980:	4050                	lw	a2,4(s0)
     982:	400c                	lw	a1,0(s0)
     984:	00000537          	lui	a0,0x0
     988:	00050513          	mv	a0,a0
     98c:	00000097          	auipc	ra,0x0
     990:	000080e7          	jalr	ra # 98c <.L684+0x34>
     994:	4785                	li	a5,1
     996:	f10ff06f          	j	a6 <.L639>

0000099a <.L685>:
     99a:	000005b7          	lui	a1,0x0
     99e:	00058593          	mv	a1,a1
     9a2:	8526                	mv	a0,s1
     9a4:	00000097          	auipc	ra,0x0
     9a8:	000080e7          	jalr	ra # 9a4 <.L685+0xa>
     9ac:	e11d                	bnez	a0,9d2 <.L686>
     9ae:	400c                	lw	a1,0(s0)
     9b0:	000007b7          	lui	a5,0x0
     9b4:	00000537          	lui	a0,0x0
     9b8:	00b78023          	sb	a1,0(a5) # 0 <run_rftest_case>
     9bc:	00050513          	mv	a0,a0
     9c0:	0ff5f593          	zext.b	a1,a1
     9c4:	00000097          	auipc	ra,0x0
     9c8:	000080e7          	jalr	ra # 9c4 <.L685+0x2a>
     9cc:	4785                	li	a5,1
     9ce:	ed8ff06f          	j	a6 <.L639>

000009d2 <.L686>:
     9d2:	000005b7          	lui	a1,0x0
     9d6:	00058593          	mv	a1,a1
     9da:	8526                	mv	a0,s1
     9dc:	00000097          	auipc	ra,0x0
     9e0:	000080e7          	jalr	ra # 9dc <.L686+0xa>
     9e4:	ed05                	bnez	a0,a1c <.L687>
     9e6:	000007b7          	lui	a5,0x0
     9ea:	0007a703          	lw	a4,0(a5) # 0 <run_rftest_case>
     9ee:	000007b7          	lui	a5,0x0
     9f2:	0007a683          	lw	a3,0(a5) # 0 <run_rftest_case>
     9f6:	000007b7          	lui	a5,0x0
     9fa:	0007a603          	lw	a2,0(a5) # 0 <run_rftest_case>
     9fe:	000007b7          	lui	a5,0x0
     a02:	0007c583          	lbu	a1,0(a5) # 0 <run_rftest_case>
     a06:	00000537          	lui	a0,0x0
     a0a:	00050513          	mv	a0,a0
     a0e:	00000097          	auipc	ra,0x0
     a12:	000080e7          	jalr	ra # a0e <.L686+0x3c>
     a16:	4785                	li	a5,1
     a18:	e8eff06f          	j	a6 <.L639>

00000a1c <.L687>:
     a1c:	000005b7          	lui	a1,0x0
     a20:	00058593          	mv	a1,a1
     a24:	8526                	mv	a0,s1
     a26:	00000097          	auipc	ra,0x0
     a2a:	000080e7          	jalr	ra # a26 <.L687+0xa>
     a2e:	e139                	bnez	a0,a74 <.L688>
     a30:	4018                	lw	a4,0(s0)
     a32:	00000537          	lui	a0,0x0
     a36:	4785                	li	a5,1
     a38:	00050493          	mv	s1,a0
     a3c:	00f71763          	bne	a4,a5,a4a <.L689>
     a40:	405c                	lw	a5,4(s0)
     a42:	4418                	lw	a4,8(s0)
     a44:	97a6                	add	a5,a5,s1
     a46:	00e78023          	sb	a4,0(a5)

00000a4a <.L689>:
     a4a:	00050513          	mv	a0,a0
     a4e:	00000097          	auipc	ra,0x0
     a52:	000080e7          	jalr	ra # a4e <.L689+0x4>
     a56:	404c                	lw	a1,4(s0)
     a58:	00000537          	lui	a0,0x0
     a5c:	00050513          	mv	a0,a0
     a60:	94ae                	add	s1,s1,a1
     a62:	0004c603          	lbu	a2,0(s1)
     a66:	00000097          	auipc	ra,0x0
     a6a:	000080e7          	jalr	ra # a66 <.L689+0x1c>
     a6e:	4785                	li	a5,1
     a70:	e36ff06f          	j	a6 <.L639>

00000a74 <.L688>:
     a74:	000005b7          	lui	a1,0x0
     a78:	00058593          	mv	a1,a1
     a7c:	8526                	mv	a0,s1
     a7e:	00000097          	auipc	ra,0x0
     a82:	000080e7          	jalr	ra # a7e <.L688+0xa>
     a86:	e909                	bnez	a0,a98 <.L690>
     a88:	8522                	mv	a0,s0
     a8a:	00000097          	auipc	ra,0x0
     a8e:	000080e7          	jalr	ra # a8a <.L688+0x16>
     a92:	4785                	li	a5,1
     a94:	e12ff06f          	j	a6 <.L639>

00000a98 <.L690>:
     a98:	000005b7          	lui	a1,0x0
     a9c:	00058593          	mv	a1,a1
     aa0:	8526                	mv	a0,s1
     aa2:	00000097          	auipc	ra,0x0
     aa6:	000080e7          	jalr	ra # aa2 <.L690+0xa>
     aaa:	e91d                	bnez	a0,ae0 <.L691>
     aac:	000007b7          	lui	a5,0x0
     ab0:	00078793          	mv	a5,a5
     ab4:	1207a023          	sw	zero,288(a5) # 120 <.L641+0xa>
     ab8:	4018                	lw	a4,0(s0)
     aba:	0ae78123          	sb	a4,162(a5)
     abe:	00000097          	auipc	ra,0x0
     ac2:	000080e7          	jalr	ra # abe <.L690+0x26>
     ac6:	4010                	lw	a2,0(s0)
     ac8:	00000537          	lui	a0,0x0
     acc:	85a6                	mv	a1,s1
     ace:	00050513          	mv	a0,a0
     ad2:	00000097          	auipc	ra,0x0
     ad6:	000080e7          	jalr	ra # ad2 <.L690+0x3a>
     ada:	4785                	li	a5,1
     adc:	dcaff06f          	j	a6 <.L639>

00000ae0 <.L691>:
     ae0:	000005b7          	lui	a1,0x0
     ae4:	00058593          	mv	a1,a1
     ae8:	8526                	mv	a0,s1
     aea:	00000097          	auipc	ra,0x0
     aee:	000080e7          	jalr	ra # aea <.L691+0xa>
     af2:	e10d                	bnez	a0,b14 <.L692>
     af4:	00000097          	auipc	ra,0x0
     af8:	000080e7          	jalr	ra # af4 <.L691+0x14>
     afc:	00000537          	lui	a0,0x0
     b00:	85a6                	mv	a1,s1
     b02:	00050513          	mv	a0,a0
     b06:	00000097          	auipc	ra,0x0
     b0a:	000080e7          	jalr	ra # b06 <.L691+0x26>
     b0e:	4785                	li	a5,1
     b10:	d96ff06f          	j	a6 <.L639>

00000b14 <.L692>:
     b14:	000005b7          	lui	a1,0x0
     b18:	00058593          	mv	a1,a1
     b1c:	8526                	mv	a0,s1
     b1e:	00000097          	auipc	ra,0x0
     b22:	000080e7          	jalr	ra # b1e <.L692+0xa>
     b26:	e13d                	bnez	a0,b8c <.L693>
     b28:	000007b7          	lui	a5,0x0
     b2c:	00078793          	mv	a5,a5
     b30:	4398                	lw	a4,0(a5)
     b32:	43dc                	lw	a5,4(a5)
     b34:	00000437          	lui	s0,0x0
     b38:	d63a                	sw	a4,44(sp)
     b3a:	d83e                	sw	a5,48(sp)
     b3c:	00042783          	lw	a5,0(s0) # 0 <run_rftest_case>
     b40:	4505                	li	a0,1
     b42:	4bfc                	lw	a5,84(a5)
     b44:	9782                	jalr	a5
     b46:	00042783          	lw	a5,0(s0)
     b4a:	4505                	li	a0,1
     b4c:	4bbc                	lw	a5,80(a5)
     b4e:	9782                	jalr	a5
     b50:	6505                	lui	a0,0x1
     b52:	4705                	li	a4,1
     b54:	4685                	li	a3,1
     b56:	4629                	li	a2,10
     b58:	106c                	add	a1,sp,44
     b5a:	fa050513          	add	a0,a0,-96 # fa0 <.L709>
     b5e:	00000097          	auipc	ra,0x0
     b62:	000080e7          	jalr	ra # b5e <.L692+0x4a>
     b66:	03211703          	lh	a4,50(sp)
     b6a:	03011683          	lh	a3,48(sp)
     b6e:	02e11603          	lh	a2,46(sp)
     b72:	02c11583          	lh	a1,44(sp)
     b76:	00000537          	lui	a0,0x0
     b7a:	00050513          	mv	a0,a0
     b7e:	00000097          	auipc	ra,0x0
     b82:	000080e7          	jalr	ra # b7e <.L692+0x6a>
     b86:	4785                	li	a5,1
     b88:	d1eff06f          	j	a6 <.L639>

00000b8c <.L693>:
     b8c:	000005b7          	lui	a1,0x0
     b90:	00058593          	mv	a1,a1
     b94:	8526                	mv	a0,s1
     b96:	00000097          	auipc	ra,0x0
     b9a:	000080e7          	jalr	ra # b96 <.L693+0xa>
     b9e:	ed15                	bnez	a0,bda <.L694>
     ba0:	00042903          	lw	s2,0(s0)
     ba4:	00441683          	lh	a3,4(s0)
     ba8:	01091513          	sll	a0,s2,0x10
     bac:	85b6                	mv	a1,a3
     bae:	8141                	srl	a0,a0,0x10
     bb0:	ce36                	sw	a3,28(sp)
     bb2:	00000097          	auipc	ra,0x0
     bb6:	000080e7          	jalr	ra # bb2 <.L693+0x26>
     bba:	46f2                	lw	a3,28(sp)
     bbc:	01091613          	sll	a2,s2,0x10
     bc0:	00000537          	lui	a0,0x0
     bc4:	8241                	srl	a2,a2,0x10
     bc6:	85a6                	mv	a1,s1
     bc8:	00050513          	mv	a0,a0
     bcc:	00000097          	auipc	ra,0x0
     bd0:	000080e7          	jalr	ra # bcc <.L693+0x40>
     bd4:	4785                	li	a5,1
     bd6:	cd0ff06f          	j	a6 <.L639>

00000bda <.L694>:
     bda:	000005b7          	lui	a1,0x0
     bde:	00058593          	mv	a1,a1
     be2:	8526                	mv	a0,s1
     be4:	00000097          	auipc	ra,0x0
     be8:	000080e7          	jalr	ra # be4 <.L694+0xa>
     bec:	ed1d                	bnez	a0,c2a <.L695>
     bee:	00444583          	lbu	a1,4(s0)
     bf2:	00044503          	lbu	a0,0(s0)
     bf6:	60035937          	lui	s2,0x60035
     bfa:	00092983          	lw	s3,0(s2) # 60035000 <.L836+0x6003231a>
     bfe:	00000097          	auipc	ra,0x0
     c02:	000080e7          	jalr	ra # bfe <.L694+0x24>
     c06:	00092703          	lw	a4,0(s2)
     c0a:	4054                	lw	a3,4(s0)
     c0c:	4010                	lw	a2,0(s0)
     c0e:	00000537          	lui	a0,0x0
     c12:	41370733          	sub	a4,a4,s3
     c16:	85a6                	mv	a1,s1
     c18:	00050513          	mv	a0,a0
     c1c:	00000097          	auipc	ra,0x0
     c20:	000080e7          	jalr	ra # c1c <.L694+0x42>
     c24:	4785                	li	a5,1
     c26:	c80ff06f          	j	a6 <.L639>

00000c2a <.L695>:
     c2a:	000005b7          	lui	a1,0x0
     c2e:	00058593          	mv	a1,a1
     c32:	8526                	mv	a0,s1
     c34:	00000097          	auipc	ra,0x0
     c38:	000080e7          	jalr	ra # c34 <.L695+0xa>
     c3c:	e51d                	bnez	a0,c6a <.L696>
     c3e:	00440583          	lb	a1,4(s0)
     c42:	00040503          	lb	a0,0(s0)
     c46:	00000097          	auipc	ra,0x0
     c4a:	000080e7          	jalr	ra # c46 <.L695+0x1c>
     c4e:	4054                	lw	a3,4(s0)
     c50:	4010                	lw	a2,0(s0)
     c52:	00000537          	lui	a0,0x0
     c56:	85a6                	mv	a1,s1
     c58:	00050513          	mv	a0,a0
     c5c:	00000097          	auipc	ra,0x0
     c60:	000080e7          	jalr	ra # c5c <.L695+0x32>
     c64:	4785                	li	a5,1
     c66:	c40ff06f          	j	a6 <.L639>

00000c6a <.L696>:
     c6a:	000005b7          	lui	a1,0x0
     c6e:	00058593          	mv	a1,a1
     c72:	8526                	mv	a0,s1
     c74:	00000097          	auipc	ra,0x0
     c78:	000080e7          	jalr	ra # c74 <.L696+0xa>
     c7c:	e905                	bnez	a0,cac <.L697>
     c7e:	00040503          	lb	a0,0(s0)
     c82:	00000097          	auipc	ra,0x0
     c86:	000080e7          	jalr	ra # c82 <.L696+0x18>
     c8a:	00040603          	lb	a2,0(s0)
     c8e:	4791                	li	a5,4
     c90:	00000537          	lui	a0,0x0
     c94:	02f64633          	div	a2,a2,a5
     c98:	85a6                	mv	a1,s1
     c9a:	00050513          	mv	a0,a0
     c9e:	00000097          	auipc	ra,0x0
     ca2:	000080e7          	jalr	ra # c9e <.L696+0x34>
     ca6:	4785                	li	a5,1
     ca8:	bfeff06f          	j	a6 <.L639>

00000cac <.L697>:
     cac:	000005b7          	lui	a1,0x0
     cb0:	00058593          	mv	a1,a1
     cb4:	8526                	mv	a0,s1
     cb6:	00000097          	auipc	ra,0x0
     cba:	000080e7          	jalr	ra # cb6 <.L697+0xa>
     cbe:	e531                	bnez	a0,d0a <.L698>
     cc0:	00045503          	lhu	a0,0(s0)
     cc4:	00445583          	lhu	a1,4(s0)
     cc8:	00c44683          	lbu	a3,12(s0)
     ccc:	00840603          	lb	a2,8(s0)
     cd0:	000007b7          	lui	a5,0x0
     cd4:	00078793          	mv	a5,a5
     cd8:	00a79023          	sh	a0,0(a5) # 0 <run_rftest_case>
     cdc:	00b79123          	sh	a1,2(a5)
     ce0:	00000097          	auipc	ra,0x0
     ce4:	000080e7          	jalr	ra # ce0 <.L697+0x34>
     ce8:	445c                	lw	a5,12(s0)
     cea:	00840703          	lb	a4,8(s0)
     cee:	4054                	lw	a3,4(s0)
     cf0:	4010                	lw	a2,0(s0)
     cf2:	00000537          	lui	a0,0x0
     cf6:	85a6                	mv	a1,s1
     cf8:	00050513          	mv	a0,a0
     cfc:	00000097          	auipc	ra,0x0
     d00:	000080e7          	jalr	ra # cfc <.L697+0x50>
     d04:	4785                	li	a5,1
     d06:	ba0ff06f          	j	a6 <.L639>

00000d0a <.L698>:
     d0a:	000005b7          	lui	a1,0x0
     d0e:	00058593          	mv	a1,a1
     d12:	8526                	mv	a0,s1
     d14:	00000097          	auipc	ra,0x0
     d18:	000080e7          	jalr	ra # d14 <.L698+0xa>
     d1c:	e531                	bnez	a0,d68 <.L699>
     d1e:	00045503          	lhu	a0,0(s0)
     d22:	00445583          	lhu	a1,4(s0)
     d26:	00c44683          	lbu	a3,12(s0)
     d2a:	00840603          	lb	a2,8(s0)
     d2e:	000007b7          	lui	a5,0x0
     d32:	00078793          	mv	a5,a5
     d36:	00a79023          	sh	a0,0(a5) # 0 <run_rftest_case>
     d3a:	00b79123          	sh	a1,2(a5)
     d3e:	00000097          	auipc	ra,0x0
     d42:	000080e7          	jalr	ra # d3e <.L698+0x34>
     d46:	445c                	lw	a5,12(s0)
     d48:	00840703          	lb	a4,8(s0)
     d4c:	4054                	lw	a3,4(s0)
     d4e:	4010                	lw	a2,0(s0)
     d50:	00000537          	lui	a0,0x0
     d54:	85a6                	mv	a1,s1
     d56:	00050513          	mv	a0,a0
     d5a:	00000097          	auipc	ra,0x0
     d5e:	000080e7          	jalr	ra # d5a <.L698+0x50>
     d62:	4785                	li	a5,1
     d64:	b42ff06f          	j	a6 <.L639>

00000d68 <.L699>:
     d68:	000005b7          	lui	a1,0x0
     d6c:	00058593          	mv	a1,a1
     d70:	8526                	mv	a0,s1
     d72:	00000097          	auipc	ra,0x0
     d76:	000080e7          	jalr	ra # d72 <.L699+0xa>
     d7a:	e50d                	bnez	a0,da4 <.L700>
     d7c:	00000097          	auipc	ra,0x0
     d80:	000080e7          	jalr	ra # d7c <.L699+0x14>
     d84:	6001c7b7          	lui	a5,0x6001c
     d88:	4bac                	lw	a1,80(a5)
     d8a:	00000537          	lui	a0,0x0
     d8e:	00050513          	mv	a0,a0
     d92:	c005e593          	or	a1,a1,-1024
     d96:	00000097          	auipc	ra,0x0
     d9a:	000080e7          	jalr	ra # d96 <.L699+0x2e>
     d9e:	4785                	li	a5,1
     da0:	b06ff06f          	j	a6 <.L639>

00000da4 <.L700>:
     da4:	000005b7          	lui	a1,0x0
     da8:	00058593          	mv	a1,a1
     dac:	8526                	mv	a0,s1
     dae:	00000097          	auipc	ra,0x0
     db2:	000080e7          	jalr	ra # dae <.L700+0xa>
     db6:	e10d                	bnez	a0,dd8 <.L701>
     db8:	00000097          	auipc	ra,0x0
     dbc:	000080e7          	jalr	ra # db8 <.L700+0x14>
     dc0:	85aa                	mv	a1,a0
     dc2:	00000537          	lui	a0,0x0
     dc6:	00050513          	mv	a0,a0
     dca:	00000097          	auipc	ra,0x0
     dce:	000080e7          	jalr	ra # dca <.L700+0x26>
     dd2:	4785                	li	a5,1
     dd4:	ad2ff06f          	j	a6 <.L639>

00000dd8 <.L701>:
     dd8:	000005b7          	lui	a1,0x0
     ddc:	00058593          	mv	a1,a1
     de0:	8526                	mv	a0,s1
     de2:	00000097          	auipc	ra,0x0
     de6:	000080e7          	jalr	ra # de2 <.L701+0xa>
     dea:	e10d                	bnez	a0,e0c <.L702>
     dec:	00000097          	auipc	ra,0x0
     df0:	000080e7          	jalr	ra # dec <.L701+0x14>
     df4:	85aa                	mv	a1,a0
     df6:	00000537          	lui	a0,0x0
     dfa:	00050513          	mv	a0,a0
     dfe:	00000097          	auipc	ra,0x0
     e02:	000080e7          	jalr	ra # dfe <.L701+0x26>
     e06:	4785                	li	a5,1
     e08:	a9eff06f          	j	a6 <.L639>

00000e0c <.L702>:
     e0c:	000005b7          	lui	a1,0x0
     e10:	00058593          	mv	a1,a1
     e14:	8526                	mv	a0,s1
     e16:	00000097          	auipc	ra,0x0
     e1a:	000080e7          	jalr	ra # e16 <.L702+0xa>
     e1e:	e505                	bnez	a0,e46 <.L703>
     e20:	00040503          	lb	a0,0(s0)
     e24:	00000097          	auipc	ra,0x0
     e28:	000080e7          	jalr	ra # e24 <.L702+0x18>
     e2c:	4010                	lw	a2,0(s0)
     e2e:	00000537          	lui	a0,0x0
     e32:	85a6                	mv	a1,s1
     e34:	00050513          	mv	a0,a0
     e38:	00000097          	auipc	ra,0x0
     e3c:	000080e7          	jalr	ra # e38 <.L702+0x2c>
     e40:	4785                	li	a5,1
     e42:	a64ff06f          	j	a6 <.L639>

00000e46 <.L703>:
     e46:	000005b7          	lui	a1,0x0
     e4a:	00058593          	mv	a1,a1
     e4e:	8526                	mv	a0,s1
     e50:	00000097          	auipc	ra,0x0
     e54:	000080e7          	jalr	ra # e50 <.L703+0xa>
     e58:	e115                	bnez	a0,e7c <.L704>
     e5a:	00000097          	auipc	ra,0x0
     e5e:	000080e7          	jalr	ra # e5a <.L703+0x14>
     e62:	862a                	mv	a2,a0
     e64:	00000537          	lui	a0,0x0
     e68:	85a6                	mv	a1,s1
     e6a:	00050513          	mv	a0,a0
     e6e:	00000097          	auipc	ra,0x0
     e72:	000080e7          	jalr	ra # e6e <.L703+0x28>
     e76:	4785                	li	a5,1
     e78:	a2eff06f          	j	a6 <.L639>

00000e7c <.L704>:
     e7c:	000005b7          	lui	a1,0x0
     e80:	00058593          	mv	a1,a1
     e84:	8526                	mv	a0,s1
     e86:	00000097          	auipc	ra,0x0
     e8a:	000080e7          	jalr	ra # e86 <.L704+0xa>
     e8e:	4785                	li	a5,1
     e90:	a0050b63          	beqz	a0,a6 <.L639>
     e94:	000005b7          	lui	a1,0x0
     e98:	00058593          	mv	a1,a1
     e9c:	8526                	mv	a0,s1
     e9e:	00000097          	auipc	ra,0x0
     ea2:	000080e7          	jalr	ra # e9e <.L704+0x22>
     ea6:	e911                	bnez	a0,eba <.L705>
     ea8:	404c                	lw	a1,4(s0)
     eaa:	4008                	lw	a0,0(s0)
     eac:	00000097          	auipc	ra,0x0
     eb0:	000080e7          	jalr	ra # eac <.L704+0x30>
     eb4:	4785                	li	a5,1
     eb6:	9f0ff06f          	j	a6 <.L639>

00000eba <.L705>:
     eba:	000005b7          	lui	a1,0x0
     ebe:	00058593          	mv	a1,a1
     ec2:	8526                	mv	a0,s1
     ec4:	00000097          	auipc	ra,0x0
     ec8:	000080e7          	jalr	ra # ec4 <.L705+0xa>
     ecc:	e905                	bnez	a0,efc <.L706>
     ece:	60035437          	lui	s0,0x60035
     ed2:	00042903          	lw	s2,0(s0) # 60035000 <.L836+0x6003231a>
     ed6:	00000097          	auipc	ra,0x0
     eda:	000080e7          	jalr	ra # ed6 <.L705+0x1c>
     ede:	4010                	lw	a2,0(s0)
     ee0:	00000537          	lui	a0,0x0
     ee4:	85a6                	mv	a1,s1
     ee6:	41260633          	sub	a2,a2,s2
     eea:	00050513          	mv	a0,a0
     eee:	00000097          	auipc	ra,0x0
     ef2:	000080e7          	jalr	ra # eee <.L705+0x34>
     ef6:	4785                	li	a5,1
     ef8:	9aeff06f          	j	a6 <.L639>

00000efc <.L706>:
     efc:	000005b7          	lui	a1,0x0
     f00:	00058593          	mv	a1,a1
     f04:	8526                	mv	a0,s1
     f06:	00000097          	auipc	ra,0x0
     f0a:	000080e7          	jalr	ra # f06 <.L706+0xa>
     f0e:	e915                	bnez	a0,f42 <.L707>
     f10:	00041603          	lh	a2,0(s0)
     f14:	8532                	mv	a0,a2
     f16:	ce32                	sw	a2,28(sp)
     f18:	00000097          	auipc	ra,0x0
     f1c:	000080e7          	jalr	ra # f18 <.L706+0x1c>
     f20:	000007b7          	lui	a5,0x0
     f24:	0e079683          	lh	a3,224(a5) # e0 <.L637+0x26>
     f28:	4672                	lw	a2,28(sp)
     f2a:	400c                	lw	a1,0(s0)
     f2c:	00000537          	lui	a0,0x0
     f30:	00050513          	mv	a0,a0
     f34:	00000097          	auipc	ra,0x0
     f38:	000080e7          	jalr	ra # f34 <.L706+0x38>
     f3c:	4785                	li	a5,1
     f3e:	968ff06f          	j	a6 <.L639>

00000f42 <.L707>:
     f42:	000005b7          	lui	a1,0x0
     f46:	00058593          	mv	a1,a1
     f4a:	8526                	mv	a0,s1
     f4c:	00000097          	auipc	ra,0x0
     f50:	000080e7          	jalr	ra # f4c <.L707+0xa>
     f54:	e50d                	bnez	a0,f7e <.L708>
     f56:	000007b7          	lui	a5,0x0
     f5a:	1207a023          	sw	zero,288(a5) # 120 <.L641+0xa>
     f5e:	00000097          	auipc	ra,0x0
     f62:	000080e7          	jalr	ra # f5e <.L707+0x1c>
     f66:	00000537          	lui	a0,0x0
     f6a:	85a6                	mv	a1,s1
     f6c:	00050513          	mv	a0,a0
     f70:	00000097          	auipc	ra,0x0
     f74:	000080e7          	jalr	ra # f70 <.L707+0x2e>
     f78:	4785                	li	a5,1
     f7a:	92cff06f          	j	a6 <.L639>

00000f7e <.L708>:
     f7e:	000005b7          	lui	a1,0x0
     f82:	00058593          	mv	a1,a1
     f86:	8526                	mv	a0,s1
     f88:	00000097          	auipc	ra,0x0
     f8c:	000080e7          	jalr	ra # f88 <.L708+0xa>
     f90:	e901                	bnez	a0,fa0 <.L709>
     f92:	00000097          	auipc	ra,0x0
     f96:	000080e7          	jalr	ra # f92 <.L708+0x14>
     f9a:	4785                	li	a5,1
     f9c:	90aff06f          	j	a6 <.L639>

00000fa0 <.L709>:
     fa0:	000005b7          	lui	a1,0x0
     fa4:	00058593          	mv	a1,a1
     fa8:	8526                	mv	a0,s1
     faa:	00000097          	auipc	ra,0x0
     fae:	000080e7          	jalr	ra # faa <.L709+0xa>
     fb2:	e515                	bnez	a0,fde <.L710>
     fb4:	00000737          	lui	a4,0x0
     fb8:	000006b7          	lui	a3,0x0
     fbc:	00000537          	lui	a0,0x0
     fc0:	00070713          	mv	a4,a4
     fc4:	00068693          	mv	a3,a3
     fc8:	4605                	li	a2,1
     fca:	45b1                	li	a1,12
     fcc:	00050513          	mv	a0,a0
     fd0:	00000097          	auipc	ra,0x0
     fd4:	000080e7          	jalr	ra # fd0 <.L709+0x30>
     fd8:	4785                	li	a5,1
     fda:	8ccff06f          	j	a6 <.L639>

00000fde <.L710>:
     fde:	000005b7          	lui	a1,0x0
     fe2:	00058593          	mv	a1,a1
     fe6:	8526                	mv	a0,s1
     fe8:	00000097          	auipc	ra,0x0
     fec:	000080e7          	jalr	ra # fe8 <.L710+0xa>
     ff0:	e105                	bnez	a0,1010 <.L711>
     ff2:	00000097          	auipc	ra,0x0
     ff6:	000080e7          	jalr	ra # ff2 <.L710+0x14>
     ffa:	00000537          	lui	a0,0x0
     ffe:	00050513          	mv	a0,a0
    1002:	00000097          	auipc	ra,0x0
    1006:	000080e7          	jalr	ra # 1002 <.L710+0x24>
    100a:	4785                	li	a5,1
    100c:	89aff06f          	j	a6 <.L639>

00001010 <.L711>:
    1010:	000005b7          	lui	a1,0x0
    1014:	00058593          	mv	a1,a1
    1018:	8526                	mv	a0,s1
    101a:	00000097          	auipc	ra,0x0
    101e:	000080e7          	jalr	ra # 101a <.L711+0xa>
    1022:	ed15                	bnez	a0,105e <.L712>
    1024:	4054                	lw	a3,4(s0)
    1026:	4010                	lw	a2,0(s0)
    1028:	00000537          	lui	a0,0x0
    102c:	85a6                	mv	a1,s1
    102e:	00050513          	mv	a0,a0
    1032:	00000097          	auipc	ra,0x0
    1036:	000080e7          	jalr	ra # 1032 <.L711+0x22>
    103a:	404c                	lw	a1,4(s0)
    103c:	00044503          	lbu	a0,0(s0)
    1040:	00000097          	auipc	ra,0x0
    1044:	000080e7          	jalr	ra # 1040 <.L711+0x30>
    1048:	00000537          	lui	a0,0x0
    104c:	00050513          	mv	a0,a0
    1050:	00000097          	auipc	ra,0x0
    1054:	000080e7          	jalr	ra # 1050 <.L711+0x40>
    1058:	4785                	li	a5,1
    105a:	84cff06f          	j	a6 <.L639>

0000105e <.L712>:
    105e:	000005b7          	lui	a1,0x0
    1062:	00058593          	mv	a1,a1
    1066:	8526                	mv	a0,s1
    1068:	00000097          	auipc	ra,0x0
    106c:	000080e7          	jalr	ra # 1068 <.L712+0xa>
    1070:	ed15                	bnez	a0,10ac <.L713>
    1072:	4054                	lw	a3,4(s0)
    1074:	4010                	lw	a2,0(s0)
    1076:	00000537          	lui	a0,0x0
    107a:	85a6                	mv	a1,s1
    107c:	00050513          	mv	a0,a0
    1080:	00000097          	auipc	ra,0x0
    1084:	000080e7          	jalr	ra # 1080 <.L712+0x22>
    1088:	404c                	lw	a1,4(s0)
    108a:	00044503          	lbu	a0,0(s0)
    108e:	00000097          	auipc	ra,0x0
    1092:	000080e7          	jalr	ra # 108e <.L712+0x30>
    1096:	00000537          	lui	a0,0x0
    109a:	00050513          	mv	a0,a0
    109e:	00000097          	auipc	ra,0x0
    10a2:	000080e7          	jalr	ra # 109e <.L712+0x40>
    10a6:	4785                	li	a5,1
    10a8:	ffffe06f          	j	a6 <.L639>

000010ac <.L713>:
    10ac:	000005b7          	lui	a1,0x0
    10b0:	00058593          	mv	a1,a1
    10b4:	8526                	mv	a0,s1
    10b6:	00000097          	auipc	ra,0x0
    10ba:	000080e7          	jalr	ra # 10b6 <.L713+0xa>
    10be:	ed05                	bnez	a0,10f6 <.L714>
    10c0:	401c                	lw	a5,0(s0)
    10c2:	6001c637          	lui	a2,0x6001c
    10c6:	40062703          	lw	a4,1024(a2) # 6001c400 <.L836+0x6001971a>
    10ca:	6699                	lui	a3,0x6
    10cc:	07b6                	sll	a5,a5,0xd
    10ce:	8ff5                	and	a5,a5,a3
    10d0:	76e9                	lui	a3,0xffffa
    10d2:	16fd                	add	a3,a3,-1 # ffff9fff <.L836+0xffff7319>
    10d4:	8f75                	and	a4,a4,a3
    10d6:	8fd9                	or	a5,a5,a4
    10d8:	40f62023          	sw	a5,1024(a2)
    10dc:	4010                	lw	a2,0(s0)
    10de:	00000537          	lui	a0,0x0
    10e2:	85a6                	mv	a1,s1
    10e4:	00050513          	mv	a0,a0
    10e8:	00000097          	auipc	ra,0x0
    10ec:	000080e7          	jalr	ra # 10e8 <.L713+0x3c>
    10f0:	4785                	li	a5,1
    10f2:	fb5fe06f          	j	a6 <.L639>

000010f6 <.L714>:
    10f6:	000005b7          	lui	a1,0x0
    10fa:	00058593          	mv	a1,a1
    10fe:	8526                	mv	a0,s1
    1100:	00000097          	auipc	ra,0x0
    1104:	000080e7          	jalr	ra # 1100 <.L714+0xa>
    1108:	e50d                	bnez	a0,1132 <.L715>
    110a:	00c41683          	lh	a3,12(s0)
    110e:	4410                	lw	a2,8(s0)
    1110:	404c                	lw	a1,4(s0)
    1112:	4008                	lw	a0,0(s0)
    1114:	00000097          	auipc	ra,0x0
    1118:	000080e7          	jalr	ra # 1114 <.L714+0x1e>
    111c:	00000537          	lui	a0,0x0
    1120:	00050513          	mv	a0,a0
    1124:	00000097          	auipc	ra,0x0
    1128:	000080e7          	jalr	ra # 1124 <.L714+0x2e>
    112c:	4785                	li	a5,1
    112e:	f79fe06f          	j	a6 <.L639>

00001132 <.L715>:
    1132:	000005b7          	lui	a1,0x0
    1136:	00058593          	mv	a1,a1
    113a:	8526                	mv	a0,s1
    113c:	00000097          	auipc	ra,0x0
    1140:	000080e7          	jalr	ra # 113c <.L715+0xa>
    1144:	ed39                	bnez	a0,11a2 <.L716>
    1146:	00044783          	lbu	a5,0(s0)
    114a:	00000737          	lui	a4,0x0
    114e:	00000937          	lui	s2,0x0
    1152:	08f70ea3          	sb	a5,157(a4) # 9d <.L638+0x29>
    1156:	00f90023          	sb	a5,0(s2) # 0 <run_rftest_case>
    115a:	405c                	lw	a5,4(s0)
    115c:	000009b7          	lui	s3,0x0
    1160:	00000a37          	lui	s4,0x0
    1164:	00f98023          	sb	a5,0(s3) # 0 <run_rftest_case>
    1168:	441c                	lw	a5,8(s0)
    116a:	4505                	li	a0,1
    116c:	00fa0023          	sb	a5,0(s4) # 0 <run_rftest_case>
    1170:	000007b7          	lui	a5,0x0
    1174:	0007a783          	lw	a5,0(a5) # 0 <run_rftest_case>
    1178:	1707a783          	lw	a5,368(a5)
    117c:	9782                	jalr	a5
    117e:	000a4703          	lbu	a4,0(s4)
    1182:	0009c683          	lbu	a3,0(s3)
    1186:	00094603          	lbu	a2,0(s2)
    118a:	00000537          	lui	a0,0x0
    118e:	85a6                	mv	a1,s1
    1190:	00050513          	mv	a0,a0
    1194:	00000097          	auipc	ra,0x0
    1198:	000080e7          	jalr	ra # 1194 <.L715+0x62>
    119c:	4785                	li	a5,1
    119e:	f09fe06f          	j	a6 <.L639>

000011a2 <.L716>:
    11a2:	000005b7          	lui	a1,0x0
    11a6:	00058593          	mv	a1,a1
    11aa:	8526                	mv	a0,s1
    11ac:	00000097          	auipc	ra,0x0
    11b0:	000080e7          	jalr	ra # 11ac <.L716+0xa>
    11b4:	e11d                	bnez	a0,11da <.L717>
    11b6:	00044503          	lbu	a0,0(s0)
    11ba:	00000097          	auipc	ra,0x0
    11be:	000080e7          	jalr	ra # 11ba <.L716+0x18>
    11c2:	85aa                	mv	a1,a0
    11c4:	00000537          	lui	a0,0x0
    11c8:	00050513          	mv	a0,a0
    11cc:	00000097          	auipc	ra,0x0
    11d0:	000080e7          	jalr	ra # 11cc <.L716+0x2a>
    11d4:	4785                	li	a5,1
    11d6:	ed1fe06f          	j	a6 <.L639>

000011da <.L717>:
    11da:	000005b7          	lui	a1,0x0
    11de:	00058593          	mv	a1,a1
    11e2:	8526                	mv	a0,s1
    11e4:	00000097          	auipc	ra,0x0
    11e8:	000080e7          	jalr	ra # 11e4 <.L717+0xa>
    11ec:	e505                	bnez	a0,1214 <.L718>
    11ee:	00044503          	lbu	a0,0(s0)
    11f2:	00000097          	auipc	ra,0x0
    11f6:	000080e7          	jalr	ra # 11f2 <.L717+0x18>
    11fa:	4010                	lw	a2,0(s0)
    11fc:	00000537          	lui	a0,0x0
    1200:	85a6                	mv	a1,s1
    1202:	00050513          	mv	a0,a0
    1206:	00000097          	auipc	ra,0x0
    120a:	000080e7          	jalr	ra # 1206 <.L717+0x2c>
    120e:	4785                	li	a5,1
    1210:	e97fe06f          	j	a6 <.L639>

00001214 <.L718>:
    1214:	000005b7          	lui	a1,0x0
    1218:	00058593          	mv	a1,a1
    121c:	8526                	mv	a0,s1
    121e:	00000097          	auipc	ra,0x0
    1222:	000080e7          	jalr	ra # 121e <.L718+0xa>
    1226:	ed15                	bnez	a0,1262 <.L719>
    1228:	02445783          	lhu	a5,36(s0)
    122c:	c23e                	sw	a5,4(sp)
    122e:	02045783          	lhu	a5,32(s0)
    1232:	c03e                	sw	a5,0(sp)
    1234:	01445783          	lhu	a5,20(s0)
    1238:	01c45883          	lhu	a7,28(s0)
    123c:	01845803          	lhu	a6,24(s0)
    1240:	01045703          	lhu	a4,16(s0)
    1244:	00c45683          	lhu	a3,12(s0)
    1248:	00845603          	lhu	a2,8(s0)
    124c:	00445583          	lhu	a1,4(s0)
    1250:	00045503          	lhu	a0,0(s0)
    1254:	00000097          	auipc	ra,0x0
    1258:	000080e7          	jalr	ra # 1254 <.L718+0x40>
    125c:	4785                	li	a5,1
    125e:	e49fe06f          	j	a6 <.L639>

00001262 <.L719>:
    1262:	000005b7          	lui	a1,0x0
    1266:	00058593          	mv	a1,a1
    126a:	8526                	mv	a0,s1
    126c:	00000097          	auipc	ra,0x0
    1270:	000080e7          	jalr	ra # 126c <.L719+0xa>
    1274:	e115                	bnez	a0,1298 <.L720>
    1276:	4010                	lw	a2,0(s0)
    1278:	00000537          	lui	a0,0x0
    127c:	000007b7          	lui	a5,0x0
    1280:	85a6                	mv	a1,s1
    1282:	00050513          	mv	a0,a0
    1286:	00c78023          	sb	a2,0(a5) # 0 <run_rftest_case>
    128a:	00000097          	auipc	ra,0x0
    128e:	000080e7          	jalr	ra # 128a <.L719+0x28>
    1292:	4785                	li	a5,1
    1294:	e13fe06f          	j	a6 <.L639>

00001298 <.L720>:
    1298:	000005b7          	lui	a1,0x0
    129c:	00058593          	mv	a1,a1
    12a0:	8526                	mv	a0,s1
    12a2:	00000097          	auipc	ra,0x0
    12a6:	000080e7          	jalr	ra # 12a2 <.L720+0xa>
    12aa:	e11d                	bnez	a0,12d0 <.L721>
    12ac:	4018                	lw	a4,0(s0)
    12ae:	000007b7          	lui	a5,0x0
    12b2:	00000537          	lui	a0,0x0
    12b6:	08e78e23          	sb	a4,156(a5) # 9c <.L638+0x28>
    12ba:	4010                	lw	a2,0(s0)
    12bc:	85a6                	mv	a1,s1
    12be:	00050513          	mv	a0,a0
    12c2:	00000097          	auipc	ra,0x0
    12c6:	000080e7          	jalr	ra # 12c2 <.L720+0x2a>
    12ca:	4785                	li	a5,1
    12cc:	ddbfe06f          	j	a6 <.L639>

000012d0 <.L721>:
    12d0:	000005b7          	lui	a1,0x0
    12d4:	00058593          	mv	a1,a1
    12d8:	8526                	mv	a0,s1
    12da:	00000097          	auipc	ra,0x0
    12de:	000080e7          	jalr	ra # 12da <.L721+0xa>
    12e2:	e10d                	bnez	a0,1304 <.L722>
    12e4:	00000097          	auipc	ra,0x0
    12e8:	000080e7          	jalr	ra # 12e4 <.L721+0x14>
    12ec:	00000537          	lui	a0,0x0
    12f0:	85a6                	mv	a1,s1
    12f2:	00050513          	mv	a0,a0
    12f6:	00000097          	auipc	ra,0x0
    12fa:	000080e7          	jalr	ra # 12f6 <.L721+0x26>
    12fe:	4785                	li	a5,1
    1300:	da7fe06f          	j	a6 <.L639>

00001304 <.L722>:
    1304:	000005b7          	lui	a1,0x0
    1308:	00058593          	mv	a1,a1
    130c:	8526                	mv	a0,s1
    130e:	00000097          	auipc	ra,0x0
    1312:	000080e7          	jalr	ra # 130e <.L722+0xa>
    1316:	e50d                	bnez	a0,1340 <.L723>
    1318:	000007b7          	lui	a5,0x0
    131c:	0007a783          	lw	a5,0(a5) # 0 <run_rftest_case>
    1320:	4505                	li	a0,1
    1322:	1547a783          	lw	a5,340(a5)
    1326:	9782                	jalr	a5
    1328:	85aa                	mv	a1,a0
    132a:	00000537          	lui	a0,0x0
    132e:	00050513          	mv	a0,a0
    1332:	00000097          	auipc	ra,0x0
    1336:	000080e7          	jalr	ra # 1332 <.L722+0x2e>
    133a:	4785                	li	a5,1
    133c:	d6bfe06f          	j	a6 <.L639>

00001340 <.L723>:
    1340:	000005b7          	lui	a1,0x0
    1344:	00058593          	mv	a1,a1
    1348:	8526                	mv	a0,s1
    134a:	00000097          	auipc	ra,0x0
    134e:	000080e7          	jalr	ra # 134a <.L723+0xa>
    1352:	e10d                	bnez	a0,1374 <.L724>
    1354:	00000097          	auipc	ra,0x0
    1358:	000080e7          	jalr	ra # 1354 <.L723+0x14>
    135c:	85aa                	mv	a1,a0
    135e:	00000537          	lui	a0,0x0
    1362:	00050513          	mv	a0,a0
    1366:	00000097          	auipc	ra,0x0
    136a:	000080e7          	jalr	ra # 1366 <.L723+0x26>
    136e:	4785                	li	a5,1
    1370:	d37fe06f          	j	a6 <.L639>

00001374 <.L724>:
    1374:	000005b7          	lui	a1,0x0
    1378:	00058593          	mv	a1,a1
    137c:	8526                	mv	a0,s1
    137e:	00000097          	auipc	ra,0x0
    1382:	000080e7          	jalr	ra # 137e <.L724+0xa>
    1386:	e505                	bnez	a0,13ae <.L725>
    1388:	4010                	lw	a2,0(s0)
    138a:	000007b7          	lui	a5,0x0
    138e:	00000537          	lui	a0,0x0
    1392:	08c78da3          	sb	a2,155(a5) # 9b <.L638+0x27>
    1396:	85a6                	mv	a1,s1
    1398:	0ff67613          	zext.b	a2,a2
    139c:	00050513          	mv	a0,a0
    13a0:	00000097          	auipc	ra,0x0
    13a4:	000080e7          	jalr	ra # 13a0 <.L724+0x2c>
    13a8:	4785                	li	a5,1
    13aa:	cfdfe06f          	j	a6 <.L639>

000013ae <.L725>:
    13ae:	000005b7          	lui	a1,0x0
    13b2:	00058593          	mv	a1,a1
    13b6:	8526                	mv	a0,s1
    13b8:	00000097          	auipc	ra,0x0
    13bc:	000080e7          	jalr	ra # 13b8 <.L725+0xa>
    13c0:	ed31                	bnez	a0,141c <.L726>
    13c2:	000007b7          	lui	a5,0x0
    13c6:	0007a783          	lw	a5,0(a5) # 0 <run_rftest_case>
    13ca:	06400693          	li	a3,100
    13ce:	60035937          	lui	s2,0x60035
    13d2:	1b47a783          	lw	a5,436(a5)
    13d6:	4605                	li	a2,1
    13d8:	4585                	li	a1,1
    13da:	06200513          	li	a0,98
    13de:	00092983          	lw	s3,0(s2) # 60035000 <.L836+0x6003231a>
    13e2:	9782                	jalr	a5
    13e4:	000007b7          	lui	a5,0x0
    13e8:	0f37c503          	lbu	a0,243(a5) # f3 <.L640+0x1>
    13ec:	00045583          	lhu	a1,0(s0)
    13f0:	4601                	li	a2,0
    13f2:	00000097          	auipc	ra,0x0
    13f6:	000080e7          	jalr	ra # 13f2 <.L725+0x44>
    13fa:	00092683          	lw	a3,0(s2)
    13fe:	4010                	lw	a2,0(s0)
    1400:	00000537          	lui	a0,0x0
    1404:	413686b3          	sub	a3,a3,s3
    1408:	85a6                	mv	a1,s1
    140a:	00050513          	mv	a0,a0
    140e:	00000097          	auipc	ra,0x0
    1412:	000080e7          	jalr	ra # 140e <.L725+0x60>
    1416:	4785                	li	a5,1
    1418:	c8ffe06f          	j	a6 <.L639>

0000141c <.L726>:
    141c:	000005b7          	lui	a1,0x0
    1420:	00058593          	mv	a1,a1
    1424:	8526                	mv	a0,s1
    1426:	00000097          	auipc	ra,0x0
    142a:	000080e7          	jalr	ra # 1426 <.L726+0xa>
    142e:	e53d                	bnez	a0,149c <.L727>
    1430:	00042903          	lw	s2,0(s0)
    1434:	600357b7          	lui	a5,0x60035
    1438:	0007a983          	lw	s3,0(a5) # 60035000 <.L836+0x6003231a>
    143c:	0ff97a13          	zext.b	s4,s2
    1440:	06400413          	li	s0,100
    1444:	00000ab7          	lui	s5,0x0

00001448 <.L730>:
    1448:	000aa783          	lw	a5,0(s5) # 0 <run_rftest_case>
    144c:	040a0063          	beqz	s4,148c <.L728>
    1450:	1b47a783          	lw	a5,436(a5)
    1454:	07400693          	li	a3,116
    1458:	4629                	li	a2,10
    145a:	4581                	li	a1,0
    145c:	06b00513          	li	a0,107
    1460:	9782                	jalr	a5

00001462 <.L729>:
    1462:	147d                	add	s0,s0,-1
    1464:	f075                	bnez	s0,1448 <.L730>
    1466:	600357b7          	lui	a5,0x60035
    146a:	4394                	lw	a3,0(a5)
    146c:	00000537          	lui	a0,0x0
    1470:	0ff97613          	zext.b	a2,s2
    1474:	413686b3          	sub	a3,a3,s3
    1478:	85a6                	mv	a1,s1
    147a:	00050513          	mv	a0,a0
    147e:	00000097          	auipc	ra,0x0
    1482:	000080e7          	jalr	ra # 147e <.L729+0x1c>
    1486:	4785                	li	a5,1
    1488:	c1ffe06f          	j	a6 <.L639>

0000148c <.L728>:
    148c:	1ac7a783          	lw	a5,428(a5) # 600351ac <.L836+0x600324c6>
    1490:	4629                	li	a2,10
    1492:	4581                	li	a1,0
    1494:	06b00513          	li	a0,107
    1498:	9782                	jalr	a5
    149a:	b7e1                	j	1462 <.L729>

0000149c <.L727>:
    149c:	000005b7          	lui	a1,0x0
    14a0:	00058593          	mv	a1,a1
    14a4:	8526                	mv	a0,s1
    14a6:	00000097          	auipc	ra,0x0
    14aa:	000080e7          	jalr	ra # 14a6 <.L727+0xa>
    14ae:	e50d                	bnez	a0,14d8 <.L731>
    14b0:	000007b7          	lui	a5,0x0
    14b4:	1207a023          	sw	zero,288(a5) # 120 <.L641+0xa>
    14b8:	00000097          	auipc	ra,0x0
    14bc:	000080e7          	jalr	ra # 14b8 <.L727+0x1c>
    14c0:	00000537          	lui	a0,0x0
    14c4:	85a6                	mv	a1,s1
    14c6:	00050513          	mv	a0,a0
    14ca:	00000097          	auipc	ra,0x0
    14ce:	000080e7          	jalr	ra # 14ca <.L727+0x2e>
    14d2:	4785                	li	a5,1
    14d4:	bd3fe06f          	j	a6 <.L639>

000014d8 <.L731>:
    14d8:	000005b7          	lui	a1,0x0
    14dc:	00058593          	mv	a1,a1
    14e0:	8526                	mv	a0,s1
    14e2:	00000097          	auipc	ra,0x0
    14e6:	000080e7          	jalr	ra # 14e2 <.L731+0xa>
    14ea:	e90d                	bnez	a0,151c <.L732>
    14ec:	00c44683          	lbu	a3,12(s0)
    14f0:	00844603          	lbu	a2,8(s0)
    14f4:	00444583          	lbu	a1,4(s0)
    14f8:	00044503          	lbu	a0,0(s0)
    14fc:	00000097          	auipc	ra,0x0
    1500:	000080e7          	jalr	ra # 14fc <.L731+0x24>
    1504:	00000537          	lui	a0,0x0
    1508:	85a6                	mv	a1,s1
    150a:	00050513          	mv	a0,a0
    150e:	00000097          	auipc	ra,0x0
    1512:	000080e7          	jalr	ra # 150e <.L731+0x36>
    1516:	4785                	li	a5,1
    1518:	b8ffe06f          	j	a6 <.L639>

0000151c <.L732>:
    151c:	000005b7          	lui	a1,0x0
    1520:	00058593          	mv	a1,a1
    1524:	8526                	mv	a0,s1
    1526:	00000097          	auipc	ra,0x0
    152a:	000080e7          	jalr	ra # 1526 <.L732+0xa>
    152e:	e925                	bnez	a0,159e <.L733>
    1530:	00000437          	lui	s0,0x0
    1534:	00000537          	lui	a0,0x0
    1538:	00040793          	mv	a5,s0
    153c:	4681                	li	a3,0
    153e:	02000613          	li	a2,32
    1542:	45bd                	li	a1,15
    1544:	12450513          	add	a0,a0,292 # 124 <.L641+0xe>
    1548:	1207a023          	sw	zero,288(a5)
    154c:	00000097          	auipc	ra,0x0
    1550:	000080e7          	jalr	ra # 154c <.L732+0x30>
    1554:	00000537          	lui	a0,0x0
    1558:	00050513          	mv	a0,a0
    155c:	00040413          	mv	s0,s0
    1560:	00000097          	auipc	ra,0x0
    1564:	000080e7          	jalr	ra # 1560 <.L732+0x44>
    1568:	02840913          	add	s2,s0,40 # 28 <run_rftest_case+0x28>
    156c:	000009b7          	lui	s3,0x0

00001570 <.L734>:
    1570:	12445583          	lhu	a1,292(s0)
    1574:	00098513          	mv	a0,s3
    1578:	0409                	add	s0,s0,2
    157a:	00000097          	auipc	ra,0x0
    157e:	000080e7          	jalr	ra # 157a <.L734+0xa>
    1582:	ff2417e3          	bne	s0,s2,1570 <.L734>

00001586 <.L767>:
    1586:	00000537          	lui	a0,0x0
    158a:	85a6                	mv	a1,s1
    158c:	00050513          	mv	a0,a0
    1590:	00000097          	auipc	ra,0x0
    1594:	000080e7          	jalr	ra # 1590 <.L767+0xa>
    1598:	4785                	li	a5,1
    159a:	b0dfe06f          	j	a6 <.L639>

0000159e <.L733>:
    159e:	000005b7          	lui	a1,0x0
    15a2:	00058593          	mv	a1,a1
    15a6:	8526                	mv	a0,s1
    15a8:	00000097          	auipc	ra,0x0
    15ac:	000080e7          	jalr	ra # 15a8 <.L733+0xa>
    15b0:	e115                	bnez	a0,15d4 <.L735>
    15b2:	4581                	li	a1,0
    15b4:	00000097          	auipc	ra,0x0
    15b8:	000080e7          	jalr	ra # 15b4 <.L733+0x16>
    15bc:	00000537          	lui	a0,0x0
    15c0:	85a6                	mv	a1,s1
    15c2:	00050513          	mv	a0,a0
    15c6:	00000097          	auipc	ra,0x0
    15ca:	000080e7          	jalr	ra # 15c6 <.L733+0x28>
    15ce:	4785                	li	a5,1
    15d0:	ad7fe06f          	j	a6 <.L639>

000015d4 <.L735>:
    15d4:	000005b7          	lui	a1,0x0
    15d8:	00058593          	mv	a1,a1
    15dc:	8526                	mv	a0,s1
    15de:	00000097          	auipc	ra,0x0
    15e2:	000080e7          	jalr	ra # 15de <.L735+0xa>
    15e6:	e50d                	bnez	a0,1610 <.L736>
    15e8:	000007b7          	lui	a5,0x0
    15ec:	1207a023          	sw	zero,288(a5) # 120 <.L641+0xa>
    15f0:	00000097          	auipc	ra,0x0
    15f4:	000080e7          	jalr	ra # 15f0 <.L735+0x1c>
    15f8:	00000537          	lui	a0,0x0
    15fc:	85a6                	mv	a1,s1
    15fe:	00050513          	mv	a0,a0
    1602:	00000097          	auipc	ra,0x0
    1606:	000080e7          	jalr	ra # 1602 <.L735+0x2e>
    160a:	4785                	li	a5,1
    160c:	a9bfe06f          	j	a6 <.L639>

00001610 <.L736>:
    1610:	000005b7          	lui	a1,0x0
    1614:	00058593          	mv	a1,a1
    1618:	8526                	mv	a0,s1
    161a:	00000097          	auipc	ra,0x0
    161e:	000080e7          	jalr	ra # 161a <.L736+0xa>
    1622:	e50d                	bnez	a0,164c <.L737>
    1624:	000007b7          	lui	a5,0x0
    1628:	1207a023          	sw	zero,288(a5) # 120 <.L641+0xa>
    162c:	00000097          	auipc	ra,0x0
    1630:	000080e7          	jalr	ra # 162c <.L736+0x1c>
    1634:	00000537          	lui	a0,0x0
    1638:	85a6                	mv	a1,s1
    163a:	00050513          	mv	a0,a0
    163e:	00000097          	auipc	ra,0x0
    1642:	000080e7          	jalr	ra # 163e <.L736+0x2e>
    1646:	4785                	li	a5,1
    1648:	a5ffe06f          	j	a6 <.L639>

0000164c <.L737>:
    164c:	000005b7          	lui	a1,0x0
    1650:	00058593          	mv	a1,a1
    1654:	8526                	mv	a0,s1
    1656:	00000097          	auipc	ra,0x0
    165a:	000080e7          	jalr	ra # 1656 <.L737+0xa>
    165e:	e515                	bnez	a0,168a <.L738>
    1660:	000007b7          	lui	a5,0x0
    1664:	4505                	li	a0,1
    1666:	1207a023          	sw	zero,288(a5) # 120 <.L641+0xa>
    166a:	00000097          	auipc	ra,0x0
    166e:	000080e7          	jalr	ra # 166a <.L737+0x1e>
    1672:	00000537          	lui	a0,0x0
    1676:	85a6                	mv	a1,s1
    1678:	00050513          	mv	a0,a0
    167c:	00000097          	auipc	ra,0x0
    1680:	000080e7          	jalr	ra # 167c <.L737+0x30>
    1684:	4785                	li	a5,1
    1686:	a21fe06f          	j	a6 <.L639>

0000168a <.L738>:
    168a:	000005b7          	lui	a1,0x0
    168e:	00058593          	mv	a1,a1
    1692:	8526                	mv	a0,s1
    1694:	00000097          	auipc	ra,0x0
    1698:	000080e7          	jalr	ra # 1694 <.L738+0xa>
    169c:	e50d                	bnez	a0,16c6 <.L739>
    169e:	000007b7          	lui	a5,0x0
    16a2:	1207a023          	sw	zero,288(a5) # 120 <.L641+0xa>
    16a6:	00000097          	auipc	ra,0x0
    16aa:	000080e7          	jalr	ra # 16a6 <.L738+0x1c>
    16ae:	00000537          	lui	a0,0x0
    16b2:	85a6                	mv	a1,s1
    16b4:	00050513          	mv	a0,a0
    16b8:	00000097          	auipc	ra,0x0
    16bc:	000080e7          	jalr	ra # 16b8 <.L738+0x2e>
    16c0:	4785                	li	a5,1
    16c2:	9e5fe06f          	j	a6 <.L639>

000016c6 <.L739>:
    16c6:	000005b7          	lui	a1,0x0
    16ca:	00058593          	mv	a1,a1
    16ce:	8526                	mv	a0,s1
    16d0:	00000097          	auipc	ra,0x0
    16d4:	000080e7          	jalr	ra # 16d0 <.L739+0xa>
    16d8:	e50d                	bnez	a0,1702 <.L740>
    16da:	000007b7          	lui	a5,0x0
    16de:	1207a023          	sw	zero,288(a5) # 120 <.L641+0xa>
    16e2:	00000097          	auipc	ra,0x0
    16e6:	000080e7          	jalr	ra # 16e2 <.L739+0x1c>
    16ea:	00000537          	lui	a0,0x0
    16ee:	85a6                	mv	a1,s1
    16f0:	00050513          	mv	a0,a0
    16f4:	00000097          	auipc	ra,0x0
    16f8:	000080e7          	jalr	ra # 16f4 <.L739+0x2e>
    16fc:	4785                	li	a5,1
    16fe:	9a9fe06f          	j	a6 <.L639>

00001702 <.L740>:
    1702:	000005b7          	lui	a1,0x0
    1706:	00058593          	mv	a1,a1
    170a:	8526                	mv	a0,s1
    170c:	00000097          	auipc	ra,0x0
    1710:	000080e7          	jalr	ra # 170c <.L740+0xa>
    1714:	e50d                	bnez	a0,173e <.L741>
    1716:	000007b7          	lui	a5,0x0
    171a:	1207a023          	sw	zero,288(a5) # 120 <.L641+0xa>
    171e:	00000097          	auipc	ra,0x0
    1722:	000080e7          	jalr	ra # 171e <.L740+0x1c>
    1726:	00000537          	lui	a0,0x0
    172a:	85a6                	mv	a1,s1
    172c:	00050513          	mv	a0,a0
    1730:	00000097          	auipc	ra,0x0
    1734:	000080e7          	jalr	ra # 1730 <.L740+0x2e>
    1738:	4785                	li	a5,1
    173a:	96dfe06f          	j	a6 <.L639>

0000173e <.L741>:
    173e:	000005b7          	lui	a1,0x0
    1742:	00058593          	mv	a1,a1
    1746:	8526                	mv	a0,s1
    1748:	00000097          	auipc	ra,0x0
    174c:	000080e7          	jalr	ra # 1748 <.L741+0xa>
    1750:	e91d                	bnez	a0,1786 <.L742>
    1752:	000007b7          	lui	a5,0x0
    1756:	1207a023          	sw	zero,288(a5) # 120 <.L641+0xa>
    175a:	00044583          	lbu	a1,0(s0)
    175e:	6505                	lui	a0,0x1
    1760:	98550513          	add	a0,a0,-1659 # 985 <.L684+0x2d>
    1764:	00000097          	auipc	ra,0x0
    1768:	000080e7          	jalr	ra # 1764 <.L741+0x26>
    176c:	4010                	lw	a2,0(s0)
    176e:	00000537          	lui	a0,0x0
    1772:	85a6                	mv	a1,s1
    1774:	00050513          	mv	a0,a0
    1778:	00000097          	auipc	ra,0x0
    177c:	000080e7          	jalr	ra # 1778 <.L741+0x3a>
    1780:	4785                	li	a5,1
    1782:	925fe06f          	j	a6 <.L639>

00001786 <.L742>:
    1786:	000005b7          	lui	a1,0x0
    178a:	00058593          	mv	a1,a1
    178e:	8526                	mv	a0,s1
    1790:	00000097          	auipc	ra,0x0
    1794:	000080e7          	jalr	ra # 1790 <.L742+0xa>
    1798:	e515                	bnez	a0,17c4 <.L743>
    179a:	000007b7          	lui	a5,0x0
    179e:	0007a783          	lw	a5,0(a5) # 0 <run_rftest_case>
    17a2:	00044503          	lbu	a0,0(s0)
    17a6:	1507a783          	lw	a5,336(a5)
    17aa:	9782                	jalr	a5
    17ac:	85aa                	mv	a1,a0
    17ae:	00000537          	lui	a0,0x0
    17b2:	00050513          	mv	a0,a0
    17b6:	00000097          	auipc	ra,0x0
    17ba:	000080e7          	jalr	ra # 17b6 <.L742+0x30>
    17be:	4785                	li	a5,1
    17c0:	8e7fe06f          	j	a6 <.L639>

000017c4 <.L743>:
    17c4:	000005b7          	lui	a1,0x0
    17c8:	00058593          	mv	a1,a1
    17cc:	8526                	mv	a0,s1
    17ce:	00000097          	auipc	ra,0x0
    17d2:	000080e7          	jalr	ra # 17ce <.L743+0xa>
    17d6:	e505                	bnez	a0,17fe <.L744>
    17d8:	000007b7          	lui	a5,0x0
    17dc:	0007a783          	lw	a5,0(a5) # 0 <run_rftest_case>
    17e0:	14c7a783          	lw	a5,332(a5)
    17e4:	9782                	jalr	a5
    17e6:	85aa                	mv	a1,a0
    17e8:	00000537          	lui	a0,0x0
    17ec:	00050513          	mv	a0,a0
    17f0:	00000097          	auipc	ra,0x0
    17f4:	000080e7          	jalr	ra # 17f0 <.L743+0x2c>
    17f8:	4785                	li	a5,1
    17fa:	8adfe06f          	j	a6 <.L639>

000017fe <.L744>:
    17fe:	000005b7          	lui	a1,0x0
    1802:	00058593          	mv	a1,a1
    1806:	8526                	mv	a0,s1
    1808:	00000097          	auipc	ra,0x0
    180c:	000080e7          	jalr	ra # 1808 <.L744+0xa>
    1810:	e50d                	bnez	a0,183a <.L745>
    1812:	404c                	lw	a1,4(s0)
    1814:	00044503          	lbu	a0,0(s0)
    1818:	00000097          	auipc	ra,0x0
    181c:	000080e7          	jalr	ra # 1818 <.L744+0x1a>
    1820:	4050                	lw	a2,4(s0)
    1822:	400c                	lw	a1,0(s0)
    1824:	00000537          	lui	a0,0x0
    1828:	00050513          	mv	a0,a0
    182c:	00000097          	auipc	ra,0x0
    1830:	000080e7          	jalr	ra # 182c <.L744+0x2e>
    1834:	4785                	li	a5,1
    1836:	871fe06f          	j	a6 <.L639>

0000183a <.L745>:
    183a:	000005b7          	lui	a1,0x0
    183e:	00058593          	mv	a1,a1
    1842:	8526                	mv	a0,s1
    1844:	00000097          	auipc	ra,0x0
    1848:	000080e7          	jalr	ra # 1844 <.L745+0xa>
    184c:	e10d                	bnez	a0,186e <.L746>
    184e:	00000097          	auipc	ra,0x0
    1852:	000080e7          	jalr	ra # 184e <.L745+0x14>
    1856:	00000537          	lui	a0,0x0
    185a:	85a6                	mv	a1,s1
    185c:	00050513          	mv	a0,a0
    1860:	00000097          	auipc	ra,0x0
    1864:	000080e7          	jalr	ra # 1860 <.L745+0x26>
    1868:	4785                	li	a5,1
    186a:	83dfe06f          	j	a6 <.L639>

0000186e <.L746>:
    186e:	000005b7          	lui	a1,0x0
    1872:	00058593          	mv	a1,a1
    1876:	8526                	mv	a0,s1
    1878:	00000097          	auipc	ra,0x0
    187c:	000080e7          	jalr	ra # 1878 <.L746+0xa>
    1880:	ed01                	bnez	a0,1898 <.L747>
    1882:	00440583          	lb	a1,4(s0)
    1886:	00044503          	lbu	a0,0(s0)
    188a:	00000097          	auipc	ra,0x0
    188e:	000080e7          	jalr	ra # 188a <.L746+0x1c>
    1892:	4785                	li	a5,1
    1894:	813fe06f          	j	a6 <.L639>

00001898 <.L747>:
    1898:	000005b7          	lui	a1,0x0
    189c:	00058593          	mv	a1,a1
    18a0:	8526                	mv	a0,s1
    18a2:	00000097          	auipc	ra,0x0
    18a6:	000080e7          	jalr	ra # 18a2 <.L747+0xa>
    18aa:	e911                	bnez	a0,18be <.L748>
    18ac:	00040503          	lb	a0,0(s0)
    18b0:	00000097          	auipc	ra,0x0
    18b4:	000080e7          	jalr	ra # 18b0 <.L747+0x18>
    18b8:	4785                	li	a5,1
    18ba:	fecfe06f          	j	a6 <.L639>

000018be <.L748>:
    18be:	000005b7          	lui	a1,0x0
    18c2:	00058593          	mv	a1,a1
    18c6:	8526                	mv	a0,s1
    18c8:	00000097          	auipc	ra,0x0
    18cc:	000080e7          	jalr	ra # 18c8 <.L748+0xa>
    18d0:	e51d                	bnez	a0,18fe <.L749>
    18d2:	00845603          	lhu	a2,8(s0)
    18d6:	00441583          	lh	a1,4(s0)
    18da:	00040503          	lb	a0,0(s0)
    18de:	00000097          	auipc	ra,0x0
    18e2:	000080e7          	jalr	ra # 18de <.L748+0x20>
    18e6:	85aa                	mv	a1,a0
    18e8:	00000537          	lui	a0,0x0
    18ec:	00050513          	mv	a0,a0
    18f0:	00000097          	auipc	ra,0x0
    18f4:	000080e7          	jalr	ra # 18f0 <.L748+0x32>
    18f8:	4785                	li	a5,1
    18fa:	facfe06f          	j	a6 <.L639>

000018fe <.L749>:
    18fe:	000005b7          	lui	a1,0x0
    1902:	00058593          	mv	a1,a1
    1906:	8526                	mv	a0,s1
    1908:	00000097          	auipc	ra,0x0
    190c:	000080e7          	jalr	ra # 1908 <.L749+0xa>
    1910:	e12d                	bnez	a0,1972 <.L750>
    1912:	02444783          	lbu	a5,36(s0)
    1916:	c23e                	sw	a5,4(sp)
    1918:	02044783          	lbu	a5,32(s0)
    191c:	c03e                	sw	a5,0(sp)
    191e:	01c42883          	lw	a7,28(s0)
    1922:	01842803          	lw	a6,24(s0)
    1926:	485c                	lw	a5,20(s0)
    1928:	4818                	lw	a4,16(s0)
    192a:	00c45683          	lhu	a3,12(s0)
    192e:	00844603          	lbu	a2,8(s0)
    1932:	404c                	lw	a1,4(s0)
    1934:	4008                	lw	a0,0(s0)
    1936:	00000097          	auipc	ra,0x0
    193a:	000080e7          	jalr	ra # 1936 <.L749+0x38>
    193e:	501c                	lw	a5,32(s0)
    1940:	00000537          	lui	a0,0x0
    1944:	85a6                	mv	a1,s1
    1946:	c43e                	sw	a5,8(sp)
    1948:	4c5c                	lw	a5,28(s0)
    194a:	00050513          	mv	a0,a0
    194e:	c23e                	sw	a5,4(sp)
    1950:	4c1c                	lw	a5,24(s0)
    1952:	c03e                	sw	a5,0(sp)
    1954:	445c                	lw	a5,12(s0)
    1956:	01442883          	lw	a7,20(s0)
    195a:	01042803          	lw	a6,16(s0)
    195e:	4418                	lw	a4,8(s0)
    1960:	4054                	lw	a3,4(s0)
    1962:	4010                	lw	a2,0(s0)
    1964:	00000097          	auipc	ra,0x0
    1968:	000080e7          	jalr	ra # 1964 <.L749+0x66>
    196c:	4785                	li	a5,1
    196e:	f38fe06f          	j	a6 <.L639>

00001972 <.L750>:
    1972:	000005b7          	lui	a1,0x0
    1976:	00058593          	mv	a1,a1
    197a:	8526                	mv	a0,s1
    197c:	00000097          	auipc	ra,0x0
    1980:	000080e7          	jalr	ra # 197c <.L750+0xa>
    1984:	e121                	bnez	a0,19c4 <.L751>
    1986:	01444783          	lbu	a5,20(s0)
    198a:	01044703          	lbu	a4,16(s0)
    198e:	4454                	lw	a3,12(s0)
    1990:	00844603          	lbu	a2,8(s0)
    1994:	404c                	lw	a1,4(s0)
    1996:	4008                	lw	a0,0(s0)
    1998:	00000097          	auipc	ra,0x0
    199c:	000080e7          	jalr	ra # 1998 <.L750+0x26>
    19a0:	445c                	lw	a5,12(s0)
    19a2:	01042803          	lw	a6,16(s0)
    19a6:	4418                	lw	a4,8(s0)
    19a8:	4054                	lw	a3,4(s0)
    19aa:	4010                	lw	a2,0(s0)
    19ac:	00000537          	lui	a0,0x0
    19b0:	85a6                	mv	a1,s1
    19b2:	00050513          	mv	a0,a0
    19b6:	00000097          	auipc	ra,0x0
    19ba:	000080e7          	jalr	ra # 19b6 <.L750+0x44>
    19be:	4785                	li	a5,1
    19c0:	ee6fe06f          	j	a6 <.L639>

000019c4 <.L751>:
    19c4:	000005b7          	lui	a1,0x0
    19c8:	00058593          	mv	a1,a1
    19cc:	8526                	mv	a0,s1
    19ce:	00000097          	auipc	ra,0x0
    19d2:	000080e7          	jalr	ra # 19ce <.L751+0xa>
    19d6:	e539                	bnez	a0,1a24 <.L752>
    19d8:	4454                	lw	a3,12(s0)
    19da:	4410                	lw	a2,8(s0)
    19dc:	404c                	lw	a1,4(s0)
    19de:	00045503          	lhu	a0,0(s0)
    19e2:	1078                	add	a4,sp,44
    19e4:	00000097          	auipc	ra,0x0
    19e8:	000080e7          	jalr	ra # 19e4 <.L751+0x20>
    19ec:	57f2                	lw	a5,60(sp)
    19ee:	5762                	lw	a4,56(sp)
    19f0:	56d2                	lw	a3,52(sp)
    19f2:	5642                	lw	a2,48(sp)
    19f4:	55b2                	lw	a1,44(sp)
    19f6:	00000537          	lui	a0,0x0
    19fa:	00050513          	mv	a0,a0
    19fe:	00000097          	auipc	ra,0x0
    1a02:	000080e7          	jalr	ra # 19fe <.L751+0x3a>
    1a06:	4458                	lw	a4,12(s0)
    1a08:	4414                	lw	a3,8(s0)
    1a0a:	4050                	lw	a2,4(s0)
    1a0c:	400c                	lw	a1,0(s0)
    1a0e:	00000537          	lui	a0,0x0
    1a12:	00050513          	mv	a0,a0
    1a16:	00000097          	auipc	ra,0x0
    1a1a:	000080e7          	jalr	ra # 1a16 <.L751+0x52>
    1a1e:	4785                	li	a5,1
    1a20:	e86fe06f          	j	a6 <.L639>

00001a24 <.L752>:
    1a24:	000005b7          	lui	a1,0x0
    1a28:	00058593          	mv	a1,a1
    1a2c:	8526                	mv	a0,s1
    1a2e:	00000097          	auipc	ra,0x0
    1a32:	000080e7          	jalr	ra # 1a2e <.L752+0xa>
    1a36:	e915                	bnez	a0,1a6a <.L753>
    1a38:	00844603          	lbu	a2,8(s0)
    1a3c:	00444583          	lbu	a1,4(s0)
    1a40:	00044503          	lbu	a0,0(s0)
    1a44:	00000097          	auipc	ra,0x0
    1a48:	000080e7          	jalr	ra # 1a44 <.L752+0x20>
    1a4c:	4418                	lw	a4,8(s0)
    1a4e:	4054                	lw	a3,4(s0)
    1a50:	4010                	lw	a2,0(s0)
    1a52:	00000537          	lui	a0,0x0
    1a56:	85a6                	mv	a1,s1
    1a58:	00050513          	mv	a0,a0
    1a5c:	00000097          	auipc	ra,0x0
    1a60:	000080e7          	jalr	ra # 1a5c <.L752+0x38>
    1a64:	4785                	li	a5,1
    1a66:	e40fe06f          	j	a6 <.L639>

00001a6a <.L753>:
    1a6a:	000005b7          	lui	a1,0x0
    1a6e:	00058593          	mv	a1,a1
    1a72:	8526                	mv	a0,s1
    1a74:	00000097          	auipc	ra,0x0
    1a78:	000080e7          	jalr	ra # 1a74 <.L753+0xa>
    1a7c:	e905                	bnez	a0,1aac <.L754>
    1a7e:	60035437          	lui	s0,0x60035
    1a82:	00042903          	lw	s2,0(s0) # 60035000 <.L836+0x6003231a>
    1a86:	00000097          	auipc	ra,0x0
    1a8a:	000080e7          	jalr	ra # 1a86 <.L753+0x1c>
    1a8e:	4010                	lw	a2,0(s0)
    1a90:	00000537          	lui	a0,0x0
    1a94:	85a6                	mv	a1,s1
    1a96:	41260633          	sub	a2,a2,s2
    1a9a:	00050513          	mv	a0,a0
    1a9e:	00000097          	auipc	ra,0x0
    1aa2:	000080e7          	jalr	ra # 1a9e <.L753+0x34>
    1aa6:	4785                	li	a5,1
    1aa8:	dfefe06f          	j	a6 <.L639>

00001aac <.L754>:
    1aac:	000005b7          	lui	a1,0x0
    1ab0:	00058593          	mv	a1,a1
    1ab4:	8526                	mv	a0,s1
    1ab6:	00000097          	auipc	ra,0x0
    1aba:	000080e7          	jalr	ra # 1ab6 <.L754+0xa>
    1abe:	e10d                	bnez	a0,1ae0 <.L755>
    1ac0:	00000097          	auipc	ra,0x0
    1ac4:	000080e7          	jalr	ra # 1ac0 <.L754+0x14>
    1ac8:	00000537          	lui	a0,0x0
    1acc:	85a6                	mv	a1,s1
    1ace:	00050513          	mv	a0,a0
    1ad2:	00000097          	auipc	ra,0x0
    1ad6:	000080e7          	jalr	ra # 1ad2 <.L754+0x26>
    1ada:	4785                	li	a5,1
    1adc:	dcafe06f          	j	a6 <.L639>

00001ae0 <.L755>:
    1ae0:	000005b7          	lui	a1,0x0
    1ae4:	00058593          	mv	a1,a1
    1ae8:	8526                	mv	a0,s1
    1aea:	00000097          	auipc	ra,0x0
    1aee:	000080e7          	jalr	ra # 1aea <.L755+0xa>
    1af2:	e51d                	bnez	a0,1b20 <.L756>
    1af4:	00444583          	lbu	a1,4(s0)
    1af8:	00044503          	lbu	a0,0(s0)
    1afc:	00000097          	auipc	ra,0x0
    1b00:	000080e7          	jalr	ra # 1afc <.L755+0x1c>
    1b04:	4054                	lw	a3,4(s0)
    1b06:	4010                	lw	a2,0(s0)
    1b08:	00000537          	lui	a0,0x0
    1b0c:	85a6                	mv	a1,s1
    1b0e:	00050513          	mv	a0,a0
    1b12:	00000097          	auipc	ra,0x0
    1b16:	000080e7          	jalr	ra # 1b12 <.L755+0x32>
    1b1a:	4785                	li	a5,1
    1b1c:	d8afe06f          	j	a6 <.L639>

00001b20 <.L756>:
    1b20:	000005b7          	lui	a1,0x0
    1b24:	00058593          	mv	a1,a1
    1b28:	8526                	mv	a0,s1
    1b2a:	00000097          	auipc	ra,0x0
    1b2e:	000080e7          	jalr	ra # 1b2a <.L756+0xa>
    1b32:	e50d                	bnez	a0,1b5c <.L757>
    1b34:	000007b7          	lui	a5,0x0
    1b38:	1207a023          	sw	zero,288(a5) # 120 <.L641+0xa>
    1b3c:	00000097          	auipc	ra,0x0
    1b40:	000080e7          	jalr	ra # 1b3c <.L756+0x1c>
    1b44:	00000537          	lui	a0,0x0
    1b48:	85a6                	mv	a1,s1
    1b4a:	00050513          	mv	a0,a0
    1b4e:	00000097          	auipc	ra,0x0
    1b52:	000080e7          	jalr	ra # 1b4e <.L756+0x2e>
    1b56:	4785                	li	a5,1
    1b58:	d4efe06f          	j	a6 <.L639>

00001b5c <.L757>:
    1b5c:	000005b7          	lui	a1,0x0
    1b60:	00058593          	mv	a1,a1
    1b64:	8526                	mv	a0,s1
    1b66:	00000097          	auipc	ra,0x0
    1b6a:	000080e7          	jalr	ra # 1b66 <.L757+0xa>
    1b6e:	e50d                	bnez	a0,1b98 <.L758>
    1b70:	404c                	lw	a1,4(s0)
    1b72:	4008                	lw	a0,0(s0)
    1b74:	00000097          	auipc	ra,0x0
    1b78:	000080e7          	jalr	ra # 1b74 <.L757+0x18>
    1b7c:	4054                	lw	a3,4(s0)
    1b7e:	4010                	lw	a2,0(s0)
    1b80:	00000537          	lui	a0,0x0
    1b84:	85a6                	mv	a1,s1
    1b86:	00050513          	mv	a0,a0
    1b8a:	00000097          	auipc	ra,0x0
    1b8e:	000080e7          	jalr	ra # 1b8a <.L757+0x2e>
    1b92:	4785                	li	a5,1
    1b94:	d12fe06f          	j	a6 <.L639>

00001b98 <.L758>:
    1b98:	000005b7          	lui	a1,0x0
    1b9c:	00058593          	mv	a1,a1
    1ba0:	8526                	mv	a0,s1
    1ba2:	00000097          	auipc	ra,0x0
    1ba6:	000080e7          	jalr	ra # 1ba2 <.L758+0xa>
    1baa:	e51d                	bnez	a0,1bd8 <.L759>
    1bac:	00444583          	lbu	a1,4(s0)
    1bb0:	00044503          	lbu	a0,0(s0)
    1bb4:	00000097          	auipc	ra,0x0
    1bb8:	000080e7          	jalr	ra # 1bb4 <.L758+0x1c>
    1bbc:	4054                	lw	a3,4(s0)
    1bbe:	4010                	lw	a2,0(s0)
    1bc0:	00000537          	lui	a0,0x0
    1bc4:	85a6                	mv	a1,s1
    1bc6:	00050513          	mv	a0,a0
    1bca:	00000097          	auipc	ra,0x0
    1bce:	000080e7          	jalr	ra # 1bca <.L758+0x32>
    1bd2:	4785                	li	a5,1
    1bd4:	cd2fe06f          	j	a6 <.L639>

00001bd8 <.L759>:
    1bd8:	000005b7          	lui	a1,0x0
    1bdc:	00058593          	mv	a1,a1
    1be0:	8526                	mv	a0,s1
    1be2:	00000097          	auipc	ra,0x0
    1be6:	000080e7          	jalr	ra # 1be2 <.L759+0xa>
    1bea:	e10d                	bnez	a0,1c0c <.L760>
    1bec:	00000097          	auipc	ra,0x0
    1bf0:	000080e7          	jalr	ra # 1bec <.L759+0x14>
    1bf4:	85aa                	mv	a1,a0
    1bf6:	00000537          	lui	a0,0x0
    1bfa:	00050513          	mv	a0,a0
    1bfe:	00000097          	auipc	ra,0x0
    1c02:	000080e7          	jalr	ra # 1bfe <.L759+0x26>
    1c06:	4785                	li	a5,1
    1c08:	c9efe06f          	j	a6 <.L639>

00001c0c <.L760>:
    1c0c:	000005b7          	lui	a1,0x0
    1c10:	00058593          	mv	a1,a1
    1c14:	8526                	mv	a0,s1
    1c16:	00000097          	auipc	ra,0x0
    1c1a:	000080e7          	jalr	ra # 1c16 <.L760+0xa>
    1c1e:	e91d                	bnez	a0,1c54 <.L761>
    1c20:	000007b7          	lui	a5,0x0
    1c24:	4705                	li	a4,1
    1c26:	00e78023          	sb	a4,0(a5) # 0 <run_rftest_case>
    1c2a:	00040603          	lb	a2,0(s0)
    1c2e:	8532                	mv	a0,a2
    1c30:	ce32                	sw	a2,28(sp)
    1c32:	00000097          	auipc	ra,0x0
    1c36:	000080e7          	jalr	ra # 1c32 <.L760+0x26>
    1c3a:	4672                	lw	a2,28(sp)
    1c3c:	00000537          	lui	a0,0x0
    1c40:	85a6                	mv	a1,s1
    1c42:	00050513          	mv	a0,a0
    1c46:	00000097          	auipc	ra,0x0
    1c4a:	000080e7          	jalr	ra # 1c46 <.L760+0x3a>
    1c4e:	4785                	li	a5,1
    1c50:	c56fe06f          	j	a6 <.L639>

00001c54 <.L761>:
    1c54:	000005b7          	lui	a1,0x0
    1c58:	00058593          	mv	a1,a1
    1c5c:	8526                	mv	a0,s1
    1c5e:	00000097          	auipc	ra,0x0
    1c62:	000080e7          	jalr	ra # 1c5e <.L761+0xa>
    1c66:	e105                	bnez	a0,1c86 <.L762>
    1c68:	00000097          	auipc	ra,0x0
    1c6c:	000080e7          	jalr	ra # 1c68 <.L761+0x14>
    1c70:	00000537          	lui	a0,0x0
    1c74:	00050513          	mv	a0,a0
    1c78:	00000097          	auipc	ra,0x0
    1c7c:	000080e7          	jalr	ra # 1c78 <.L761+0x24>
    1c80:	4785                	li	a5,1
    1c82:	c24fe06f          	j	a6 <.L639>

00001c86 <.L762>:
    1c86:	000005b7          	lui	a1,0x0
    1c8a:	00058593          	mv	a1,a1
    1c8e:	8526                	mv	a0,s1
    1c90:	00000097          	auipc	ra,0x0
    1c94:	000080e7          	jalr	ra # 1c90 <.L762+0xa>
    1c98:	e11d                	bnez	a0,1cbe <.L763>
    1c9a:	00044503          	lbu	a0,0(s0)
    1c9e:	00000097          	auipc	ra,0x0
    1ca2:	000080e7          	jalr	ra # 1c9e <.L762+0x18>
    1ca6:	85aa                	mv	a1,a0
    1ca8:	00000537          	lui	a0,0x0
    1cac:	00050513          	mv	a0,a0
    1cb0:	00000097          	auipc	ra,0x0
    1cb4:	000080e7          	jalr	ra # 1cb0 <.L762+0x2a>
    1cb8:	4785                	li	a5,1
    1cba:	becfe06f          	j	a6 <.L639>

00001cbe <.L763>:
    1cbe:	000005b7          	lui	a1,0x0
    1cc2:	00058593          	mv	a1,a1
    1cc6:	8526                	mv	a0,s1
    1cc8:	00000097          	auipc	ra,0x0
    1ccc:	000080e7          	jalr	ra # 1cc8 <.L763+0xa>
    1cd0:	e505                	bnez	a0,1cf8 <.L764>
    1cd2:	0f400513          	li	a0,244
    1cd6:	00000097          	auipc	ra,0x0
    1cda:	000080e7          	jalr	ra # 1cd6 <.L763+0x18>
    1cde:	862a                	mv	a2,a0
    1ce0:	00000537          	lui	a0,0x0
    1ce4:	85a6                	mv	a1,s1
    1ce6:	00050513          	mv	a0,a0
    1cea:	00000097          	auipc	ra,0x0
    1cee:	000080e7          	jalr	ra # 1cea <.L763+0x2c>
    1cf2:	4785                	li	a5,1
    1cf4:	bb2fe06f          	j	a6 <.L639>

00001cf8 <.L764>:
    1cf8:	000005b7          	lui	a1,0x0
    1cfc:	00058593          	mv	a1,a1
    1d00:	8526                	mv	a0,s1
    1d02:	00000097          	auipc	ra,0x0
    1d06:	000080e7          	jalr	ra # 1d02 <.L764+0xa>
    1d0a:	e10d                	bnez	a0,1d2c <.L765>
    1d0c:	00000097          	auipc	ra,0x0
    1d10:	000080e7          	jalr	ra # 1d0c <.L764+0x14>
    1d14:	00000537          	lui	a0,0x0
    1d18:	85a6                	mv	a1,s1
    1d1a:	00050513          	mv	a0,a0
    1d1e:	00000097          	auipc	ra,0x0
    1d22:	000080e7          	jalr	ra # 1d1e <.L764+0x26>
    1d26:	4785                	li	a5,1
    1d28:	b7efe06f          	j	a6 <.L639>

00001d2c <.L765>:
    1d2c:	000005b7          	lui	a1,0x0
    1d30:	00058593          	mv	a1,a1
    1d34:	8526                	mv	a0,s1
    1d36:	00000097          	auipc	ra,0x0
    1d3a:	000080e7          	jalr	ra # 1d36 <.L765+0xa>
    1d3e:	e50d                	bnez	a0,1d68 <.L766>
    1d40:	00000097          	auipc	ra,0x0
    1d44:	000080e7          	jalr	ra # 1d40 <.L765+0x14>
    1d48:	000007b7          	lui	a5,0x0
    1d4c:	21079603          	lh	a2,528(a5) # 210 <.L646+0x18>
    1d50:	85aa                	mv	a1,a0
    1d52:	00000537          	lui	a0,0x0
    1d56:	00050513          	mv	a0,a0
    1d5a:	00000097          	auipc	ra,0x0
    1d5e:	000080e7          	jalr	ra # 1d5a <.L765+0x2e>
    1d62:	4785                	li	a5,1
    1d64:	b42fe06f          	j	a6 <.L639>

00001d68 <.L766>:
    1d68:	000005b7          	lui	a1,0x0
    1d6c:	00058593          	mv	a1,a1
    1d70:	8526                	mv	a0,s1
    1d72:	00000097          	auipc	ra,0x0
    1d76:	000080e7          	jalr	ra # 1d72 <.L766+0xa>
    1d7a:	800506e3          	beqz	a0,1586 <.L767>
    1d7e:	000005b7          	lui	a1,0x0
    1d82:	00058593          	mv	a1,a1
    1d86:	8526                	mv	a0,s1
    1d88:	00000097          	auipc	ra,0x0
    1d8c:	000080e7          	jalr	ra # 1d88 <.L766+0x20>
    1d90:	e51d                	bnez	a0,1dbe <.L768>
    1d92:	00044503          	lbu	a0,0(s0)
    1d96:	00000097          	auipc	ra,0x0
    1d9a:	000080e7          	jalr	ra # 1d96 <.L766+0x2e>
    1d9e:	000007b7          	lui	a5,0x0
    1da2:	09d7c603          	lbu	a2,157(a5) # 9d <.L638+0x29>
    1da6:	00000537          	lui	a0,0x0
    1daa:	85a6                	mv	a1,s1
    1dac:	00050513          	mv	a0,a0
    1db0:	00000097          	auipc	ra,0x0
    1db4:	000080e7          	jalr	ra # 1db0 <.L766+0x48>
    1db8:	4785                	li	a5,1
    1dba:	aecfe06f          	j	a6 <.L639>

00001dbe <.L768>:
    1dbe:	000005b7          	lui	a1,0x0
    1dc2:	00058593          	mv	a1,a1
    1dc6:	8526                	mv	a0,s1
    1dc8:	00000097          	auipc	ra,0x0
    1dcc:	000080e7          	jalr	ra # 1dc8 <.L768+0xa>
    1dd0:	e105                	bnez	a0,1df0 <.L769>
    1dd2:	00000097          	auipc	ra,0x0
    1dd6:	000080e7          	jalr	ra # 1dd2 <.L768+0x14>
    1dda:	00000537          	lui	a0,0x0
    1dde:	00050513          	mv	a0,a0
    1de2:	00000097          	auipc	ra,0x0
    1de6:	000080e7          	jalr	ra # 1de2 <.L768+0x24>
    1dea:	4785                	li	a5,1
    1dec:	abafe06f          	j	a6 <.L639>

00001df0 <.L769>:
    1df0:	000005b7          	lui	a1,0x0
    1df4:	00058593          	mv	a1,a1
    1df8:	8526                	mv	a0,s1
    1dfa:	00000097          	auipc	ra,0x0
    1dfe:	000080e7          	jalr	ra # 1dfa <.L769+0xa>
    1e02:	e105                	bnez	a0,1e22 <.L770>
    1e04:	00000097          	auipc	ra,0x0
    1e08:	000080e7          	jalr	ra # 1e04 <.L769+0x14>
    1e0c:	00000537          	lui	a0,0x0
    1e10:	00050513          	mv	a0,a0
    1e14:	00000097          	auipc	ra,0x0
    1e18:	000080e7          	jalr	ra # 1e14 <.L769+0x24>
    1e1c:	4785                	li	a5,1
    1e1e:	a88fe06f          	j	a6 <.L639>

00001e22 <.L770>:
    1e22:	000005b7          	lui	a1,0x0
    1e26:	00058593          	mv	a1,a1
    1e2a:	8526                	mv	a0,s1
    1e2c:	00000097          	auipc	ra,0x0
    1e30:	000080e7          	jalr	ra # 1e2c <.L770+0xa>
    1e34:	e115                	bnez	a0,1e58 <.L771>
    1e36:	00044503          	lbu	a0,0(s0)
    1e3a:	00000097          	auipc	ra,0x0
    1e3e:	000080e7          	jalr	ra # 1e3a <.L770+0x18>
    1e42:	00000537          	lui	a0,0x0
    1e46:	00050513          	mv	a0,a0
    1e4a:	00000097          	auipc	ra,0x0
    1e4e:	000080e7          	jalr	ra # 1e4a <.L770+0x28>
    1e52:	4785                	li	a5,1
    1e54:	a52fe06f          	j	a6 <.L639>

00001e58 <.L771>:
    1e58:	000005b7          	lui	a1,0x0
    1e5c:	00058593          	mv	a1,a1
    1e60:	8526                	mv	a0,s1
    1e62:	00000097          	auipc	ra,0x0
    1e66:	000080e7          	jalr	ra # 1e62 <.L771+0xa>
    1e6a:	e105                	bnez	a0,1e8a <.L772>
    1e6c:	00000097          	auipc	ra,0x0
    1e70:	000080e7          	jalr	ra # 1e6c <.L771+0x14>
    1e74:	00000537          	lui	a0,0x0
    1e78:	00050513          	mv	a0,a0
    1e7c:	00000097          	auipc	ra,0x0
    1e80:	000080e7          	jalr	ra # 1e7c <.L771+0x24>
    1e84:	4785                	li	a5,1
    1e86:	a20fe06f          	j	a6 <.L639>

00001e8a <.L772>:
    1e8a:	000005b7          	lui	a1,0x0
    1e8e:	00058593          	mv	a1,a1
    1e92:	8526                	mv	a0,s1
    1e94:	00000097          	auipc	ra,0x0
    1e98:	000080e7          	jalr	ra # 1e94 <.L772+0xa>
    1e9c:	ed05                	bnez	a0,1ed4 <.L773>
    1e9e:	4010                	lw	a2,0(s0)
    1ea0:	000007b7          	lui	a5,0x0
    1ea4:	0007a783          	lw	a5,0(a5) # 0 <run_rftest_case>
    1ea8:	40c00633          	neg	a2,a2
    1eac:	0642                	sll	a2,a2,0x10
    1eae:	08c7a783          	lw	a5,140(a5)
    1eb2:	8641                	sra	a2,a2,0x10
    1eb4:	8532                	mv	a0,a2
    1eb6:	ce32                	sw	a2,28(sp)
    1eb8:	9782                	jalr	a5
    1eba:	4672                	lw	a2,28(sp)
    1ebc:	00000537          	lui	a0,0x0
    1ec0:	85a6                	mv	a1,s1
    1ec2:	00050513          	mv	a0,a0
    1ec6:	00000097          	auipc	ra,0x0
    1eca:	000080e7          	jalr	ra # 1ec6 <.L772+0x3c>
    1ece:	4785                	li	a5,1
    1ed0:	9d6fe06f          	j	a6 <.L639>

00001ed4 <.L773>:
    1ed4:	000005b7          	lui	a1,0x0
    1ed8:	00058593          	mv	a1,a1
    1edc:	8526                	mv	a0,s1
    1ede:	00000097          	auipc	ra,0x0
    1ee2:	000080e7          	jalr	ra # 1ede <.L773+0xa>
    1ee6:	e10d                	bnez	a0,1f08 <.L774>
    1ee8:	00000097          	auipc	ra,0x0
    1eec:	000080e7          	jalr	ra # 1ee8 <.L773+0x14>
    1ef0:	85aa                	mv	a1,a0
    1ef2:	00000537          	lui	a0,0x0
    1ef6:	00050513          	mv	a0,a0
    1efa:	00000097          	auipc	ra,0x0
    1efe:	000080e7          	jalr	ra # 1efa <.L773+0x26>
    1f02:	4785                	li	a5,1
    1f04:	9a2fe06f          	j	a6 <.L639>

00001f08 <.L774>:
    1f08:	000005b7          	lui	a1,0x0
    1f0c:	00058593          	mv	a1,a1
    1f10:	8526                	mv	a0,s1
    1f12:	00000097          	auipc	ra,0x0
    1f16:	000080e7          	jalr	ra # 1f12 <.L774+0xa>
    1f1a:	e915                	bnez	a0,1f4e <.L775>
    1f1c:	000007b7          	lui	a5,0x0
    1f20:	0007a783          	lw	a5,0(a5) # 0 <run_rftest_case>
    1f24:	00045583          	lhu	a1,0(s0)
    1f28:	1070                	add	a2,sp,44
    1f2a:	10c7a783          	lw	a5,268(a5)
    1f2e:	4505                	li	a0,1
    1f30:	9782                	jalr	a5
    1f32:	56d2                	lw	a3,52(sp)
    1f34:	5642                	lw	a2,48(sp)
    1f36:	55b2                	lw	a1,44(sp)
    1f38:	00000537          	lui	a0,0x0
    1f3c:	00050513          	mv	a0,a0
    1f40:	00000097          	auipc	ra,0x0
    1f44:	000080e7          	jalr	ra # 1f40 <.L774+0x38>
    1f48:	4785                	li	a5,1
    1f4a:	95cfe06f          	j	a6 <.L639>

00001f4e <.L775>:
    1f4e:	000005b7          	lui	a1,0x0
    1f52:	00058593          	mv	a1,a1
    1f56:	8526                	mv	a0,s1
    1f58:	00000097          	auipc	ra,0x0
    1f5c:	000080e7          	jalr	ra # 1f58 <.L775+0xa>
    1f60:	ed11                	bnez	a0,1f7c <.L776>
    1f62:	4010                	lw	a2,0(s0)
    1f64:	00000537          	lui	a0,0x0
    1f68:	85a6                	mv	a1,s1
    1f6a:	00050513          	mv	a0,a0
    1f6e:	00000097          	auipc	ra,0x0
    1f72:	000080e7          	jalr	ra # 1f6e <.L775+0x20>
    1f76:	4785                	li	a5,1
    1f78:	92efe06f          	j	a6 <.L639>

00001f7c <.L776>:
    1f7c:	000005b7          	lui	a1,0x0
    1f80:	00058593          	mv	a1,a1
    1f84:	8526                	mv	a0,s1
    1f86:	00000097          	auipc	ra,0x0
    1f8a:	000080e7          	jalr	ra # 1f86 <.L776+0xa>
    1f8e:	e905                	bnez	a0,1fbe <.L777>
    1f90:	4010                	lw	a2,0(s0)
    1f92:	00000537          	lui	a0,0x0
    1f96:	3fcb06b7          	lui	a3,0x3fcb0
    1f9a:	85a6                	mv	a1,s1
    1f9c:	00050513          	mv	a0,a0
    1fa0:	00000097          	auipc	ra,0x0
    1fa4:	000080e7          	jalr	ra # 1fa0 <.L776+0x24>
    1fa8:	00044503          	lbu	a0,0(s0)
    1fac:	3fcb05b7          	lui	a1,0x3fcb0
    1fb0:	00000097          	auipc	ra,0x0
    1fb4:	000080e7          	jalr	ra # 1fb0 <.L776+0x34>
    1fb8:	4785                	li	a5,1
    1fba:	8ecfe06f          	j	a6 <.L639>

00001fbe <.L777>:
    1fbe:	000005b7          	lui	a1,0x0
    1fc2:	00058593          	mv	a1,a1
    1fc6:	8526                	mv	a0,s1
    1fc8:	00000097          	auipc	ra,0x0
    1fcc:	000080e7          	jalr	ra # 1fc8 <.L777+0xa>
    1fd0:	e51d                	bnez	a0,1ffe <.L778>
    1fd2:	00444583          	lbu	a1,4(s0)
    1fd6:	00040503          	lb	a0,0(s0)
    1fda:	00000097          	auipc	ra,0x0
    1fde:	000080e7          	jalr	ra # 1fda <.L777+0x1c>
    1fe2:	4054                	lw	a3,4(s0)
    1fe4:	4010                	lw	a2,0(s0)
    1fe6:	00000537          	lui	a0,0x0
    1fea:	85a6                	mv	a1,s1
    1fec:	00050513          	mv	a0,a0
    1ff0:	00000097          	auipc	ra,0x0
    1ff4:	000080e7          	jalr	ra # 1ff0 <.L777+0x32>
    1ff8:	4785                	li	a5,1
    1ffa:	8acfe06f          	j	a6 <.L639>

00001ffe <.L778>:
    1ffe:	000005b7          	lui	a1,0x0
    2002:	00058593          	mv	a1,a1
    2006:	8526                	mv	a0,s1
    2008:	00000097          	auipc	ra,0x0
    200c:	000080e7          	jalr	ra # 2008 <.L778+0xa>
    2010:	e505                	bnez	a0,2038 <.L779>
    2012:	00044503          	lbu	a0,0(s0)
    2016:	00000097          	auipc	ra,0x0
    201a:	000080e7          	jalr	ra # 2016 <.L778+0x18>
    201e:	4010                	lw	a2,0(s0)
    2020:	00000537          	lui	a0,0x0
    2024:	85a6                	mv	a1,s1
    2026:	00050513          	mv	a0,a0
    202a:	00000097          	auipc	ra,0x0
    202e:	000080e7          	jalr	ra # 202a <.L778+0x2c>
    2032:	4785                	li	a5,1
    2034:	872fe06f          	j	a6 <.L639>

00002038 <.L779>:
    2038:	000005b7          	lui	a1,0x0
    203c:	00058593          	mv	a1,a1
    2040:	8526                	mv	a0,s1
    2042:	00000097          	auipc	ra,0x0
    2046:	000080e7          	jalr	ra # 2042 <.L779+0xa>
    204a:	e91d                	bnez	a0,2080 <.L780>
    204c:	000007b7          	lui	a5,0x0
    2050:	1f27c503          	lbu	a0,498(a5) # 1f2 <.L645+0x3e>
    2054:	4585                	li	a1,1
    2056:	00000097          	auipc	ra,0x0
    205a:	000080e7          	jalr	ra # 2056 <.L779+0x1e>
    205e:	4505                	li	a0,1
    2060:	00000097          	auipc	ra,0x0
    2064:	000080e7          	jalr	ra # 2060 <.L779+0x28>
    2068:	00000537          	lui	a0,0x0
    206c:	85a6                	mv	a1,s1
    206e:	00050513          	mv	a0,a0
    2072:	00000097          	auipc	ra,0x0
    2076:	000080e7          	jalr	ra # 2072 <.L779+0x3a>
    207a:	4785                	li	a5,1
    207c:	82afe06f          	j	a6 <.L639>

00002080 <.L780>:
    2080:	000005b7          	lui	a1,0x0
    2084:	00058593          	mv	a1,a1
    2088:	8526                	mv	a0,s1
    208a:	00000097          	auipc	ra,0x0
    208e:	000080e7          	jalr	ra # 208a <.L780+0xa>
    2092:	e529                	bnez	a0,20dc <.L781>
    2094:	00000937          	lui	s2,0x0
    2098:	00090913          	mv	s2,s2
    209c:	0b091603          	lh	a2,176(s2) # b0 <.L639+0xa>
    20a0:	0ae91583          	lh	a1,174(s2)
    20a4:	00000537          	lui	a0,0x0
    20a8:	00050513          	mv	a0,a0
    20ac:	00000097          	auipc	ra,0x0
    20b0:	000080e7          	jalr	ra # 20ac <.L780+0x2c>
    20b4:	00041603          	lh	a2,0(s0)
    20b8:	00441683          	lh	a3,4(s0)
    20bc:	00000537          	lui	a0,0x0
    20c0:	85a6                	mv	a1,s1
    20c2:	00050513          	mv	a0,a0
    20c6:	0ac91723          	sh	a2,174(s2)
    20ca:	0ad91823          	sh	a3,176(s2)
    20ce:	00000097          	auipc	ra,0x0
    20d2:	000080e7          	jalr	ra # 20ce <.L780+0x4e>
    20d6:	4785                	li	a5,1
    20d8:	fcffd06f          	j	a6 <.L639>

000020dc <.L781>:
    20dc:	000005b7          	lui	a1,0x0
    20e0:	00058593          	mv	a1,a1
    20e4:	8526                	mv	a0,s1
    20e6:	00000097          	auipc	ra,0x0
    20ea:	000080e7          	jalr	ra # 20e6 <.L781+0xa>
    20ee:	e529                	bnez	a0,2138 <.L782>
    20f0:	00000937          	lui	s2,0x0
    20f4:	00090913          	mv	s2,s2
    20f8:	0b491603          	lh	a2,180(s2) # b4 <.L639+0xe>
    20fc:	0b291583          	lh	a1,178(s2)
    2100:	00000537          	lui	a0,0x0
    2104:	00050513          	mv	a0,a0
    2108:	00000097          	auipc	ra,0x0
    210c:	000080e7          	jalr	ra # 2108 <.L781+0x2c>
    2110:	00041603          	lh	a2,0(s0)
    2114:	00441683          	lh	a3,4(s0)
    2118:	00000537          	lui	a0,0x0
    211c:	85a6                	mv	a1,s1
    211e:	00050513          	mv	a0,a0
    2122:	0ac91923          	sh	a2,178(s2)
    2126:	0ad91a23          	sh	a3,180(s2)
    212a:	00000097          	auipc	ra,0x0
    212e:	000080e7          	jalr	ra # 212a <.L781+0x4e>
    2132:	4785                	li	a5,1
    2134:	f73fd06f          	j	a6 <.L639>

00002138 <.L782>:
    2138:	000005b7          	lui	a1,0x0
    213c:	00058593          	mv	a1,a1
    2140:	8526                	mv	a0,s1
    2142:	00000097          	auipc	ra,0x0
    2146:	000080e7          	jalr	ra # 2142 <.L782+0xa>
    214a:	e10d                	bnez	a0,216c <.L783>
    214c:	00000097          	auipc	ra,0x0
    2150:	000080e7          	jalr	ra # 214c <.L782+0x14>
    2154:	00000537          	lui	a0,0x0
    2158:	85a6                	mv	a1,s1
    215a:	00050513          	mv	a0,a0
    215e:	00000097          	auipc	ra,0x0
    2162:	000080e7          	jalr	ra # 215e <.L782+0x26>
    2166:	4785                	li	a5,1
    2168:	f3ffd06f          	j	a6 <.L639>

0000216c <.L783>:
    216c:	000005b7          	lui	a1,0x0
    2170:	00058593          	mv	a1,a1
    2174:	8526                	mv	a0,s1
    2176:	00000097          	auipc	ra,0x0
    217a:	000080e7          	jalr	ra # 2176 <.L783+0xa>
    217e:	e10d                	bnez	a0,21a0 <.L784>
    2180:	00000097          	auipc	ra,0x0
    2184:	000080e7          	jalr	ra # 2180 <.L783+0x14>
    2188:	00000537          	lui	a0,0x0
    218c:	85a6                	mv	a1,s1
    218e:	00050513          	mv	a0,a0
    2192:	00000097          	auipc	ra,0x0
    2196:	000080e7          	jalr	ra # 2192 <.L783+0x26>
    219a:	4785                	li	a5,1
    219c:	f0bfd06f          	j	a6 <.L639>

000021a0 <.L784>:
    21a0:	000005b7          	lui	a1,0x0
    21a4:	00058593          	mv	a1,a1
    21a8:	8526                	mv	a0,s1
    21aa:	00000097          	auipc	ra,0x0
    21ae:	000080e7          	jalr	ra # 21aa <.L784+0xa>
    21b2:	e115                	bnez	a0,21d6 <.L785>
    21b4:	00000097          	auipc	ra,0x0
    21b8:	000080e7          	jalr	ra # 21b4 <.L784+0x14>
    21bc:	862a                	mv	a2,a0
    21be:	00000537          	lui	a0,0x0
    21c2:	85a6                	mv	a1,s1
    21c4:	00050513          	mv	a0,a0
    21c8:	00000097          	auipc	ra,0x0
    21cc:	000080e7          	jalr	ra # 21c8 <.L784+0x28>
    21d0:	4785                	li	a5,1
    21d2:	ed5fd06f          	j	a6 <.L639>

000021d6 <.L785>:
    21d6:	000005b7          	lui	a1,0x0
    21da:	00058593          	mv	a1,a1
    21de:	8526                	mv	a0,s1
    21e0:	00000097          	auipc	ra,0x0
    21e4:	000080e7          	jalr	ra # 21e0 <.L785+0xa>
    21e8:	e115                	bnez	a0,220c <.L786>
    21ea:	00000097          	auipc	ra,0x0
    21ee:	000080e7          	jalr	ra # 21ea <.L785+0x14>
    21f2:	862a                	mv	a2,a0
    21f4:	00000537          	lui	a0,0x0
    21f8:	85a6                	mv	a1,s1
    21fa:	00050513          	mv	a0,a0
    21fe:	00000097          	auipc	ra,0x0
    2202:	000080e7          	jalr	ra # 21fe <.L785+0x28>
    2206:	4785                	li	a5,1
    2208:	e9ffd06f          	j	a6 <.L639>

0000220c <.L786>:
    220c:	000005b7          	lui	a1,0x0
    2210:	00058593          	mv	a1,a1
    2214:	8526                	mv	a0,s1
    2216:	00000097          	auipc	ra,0x0
    221a:	000080e7          	jalr	ra # 2216 <.L786+0xa>
    221e:	ed21                	bnez	a0,2276 <.L787>
    2220:	01c44883          	lbu	a7,28(s0)
    2224:	01844803          	lbu	a6,24(s0)
    2228:	485c                	lw	a5,20(s0)
    222a:	01045703          	lhu	a4,16(s0)
    222e:	00c40683          	lb	a3,12(s0)
    2232:	00845603          	lhu	a2,8(s0)
    2236:	00444583          	lbu	a1,4(s0)
    223a:	00044503          	lbu	a0,0(s0)
    223e:	00000097          	auipc	ra,0x0
    2242:	000080e7          	jalr	ra # 223e <.L786+0x32>
    2246:	4c5c                	lw	a5,28(s0)
    2248:	00000537          	lui	a0,0x0
    224c:	85a6                	mv	a1,s1
    224e:	c23e                	sw	a5,4(sp)
    2250:	4c1c                	lw	a5,24(s0)
    2252:	00050513          	mv	a0,a0
    2256:	c03e                	sw	a5,0(sp)
    2258:	445c                	lw	a5,12(s0)
    225a:	01442883          	lw	a7,20(s0)
    225e:	01042803          	lw	a6,16(s0)
    2262:	4418                	lw	a4,8(s0)
    2264:	4054                	lw	a3,4(s0)
    2266:	4010                	lw	a2,0(s0)
    2268:	00000097          	auipc	ra,0x0
    226c:	000080e7          	jalr	ra # 2268 <.L786+0x5c>
    2270:	4785                	li	a5,1
    2272:	e35fd06f          	j	a6 <.L639>

00002276 <.L787>:
    2276:	000005b7          	lui	a1,0x0
    227a:	00058593          	mv	a1,a1
    227e:	8526                	mv	a0,s1
    2280:	00000097          	auipc	ra,0x0
    2284:	000080e7          	jalr	ra # 2280 <.L787+0xa>
    2288:	e901                	bnez	a0,2298 <.L788>
    228a:	00000097          	auipc	ra,0x0
    228e:	000080e7          	jalr	ra # 228a <.L787+0x14>
    2292:	4785                	li	a5,1
    2294:	e13fd06f          	j	a6 <.L639>

00002298 <.L788>:
    2298:	000005b7          	lui	a1,0x0
    229c:	00058593          	mv	a1,a1
    22a0:	8526                	mv	a0,s1
    22a2:	00000097          	auipc	ra,0x0
    22a6:	000080e7          	jalr	ra # 22a2 <.L788+0xa>
    22aa:	e90d                	bnez	a0,22dc <.L789>
    22ac:	445c                	lw	a5,12(s0)
    22ae:	4418                	lw	a4,8(s0)
    22b0:	4054                	lw	a3,4(s0)
    22b2:	4010                	lw	a2,0(s0)
    22b4:	00000537          	lui	a0,0x0
    22b8:	85a6                	mv	a1,s1
    22ba:	00050513          	mv	a0,a0
    22be:	00000097          	auipc	ra,0x0
    22c2:	000080e7          	jalr	ra # 22be <.L788+0x26>
    22c6:	4454                	lw	a3,12(s0)
    22c8:	4410                	lw	a2,8(s0)
    22ca:	400c                	lw	a1,0(s0)
    22cc:	4048                	lw	a0,4(s0)
    22ce:	00000097          	auipc	ra,0x0
    22d2:	000080e7          	jalr	ra # 22ce <.L788+0x36>
    22d6:	4785                	li	a5,1
    22d8:	dcffd06f          	j	a6 <.L639>

000022dc <.L789>:
    22dc:	000005b7          	lui	a1,0x0
    22e0:	00058593          	mv	a1,a1
    22e4:	8526                	mv	a0,s1
    22e6:	00000097          	auipc	ra,0x0
    22ea:	000080e7          	jalr	ra # 22e6 <.L789+0xa>
    22ee:	ed05                	bnez	a0,2326 <.L790>
    22f0:	4818                	lw	a4,16(s0)
    22f2:	4454                	lw	a3,12(s0)
    22f4:	4410                	lw	a2,8(s0)
    22f6:	404c                	lw	a1,4(s0)
    22f8:	4008                	lw	a0,0(s0)
    22fa:	00000097          	auipc	ra,0x0
    22fe:	000080e7          	jalr	ra # 22fa <.L789+0x1e>
    2302:	445c                	lw	a5,12(s0)
    2304:	01042803          	lw	a6,16(s0)
    2308:	4418                	lw	a4,8(s0)
    230a:	4054                	lw	a3,4(s0)
    230c:	4010                	lw	a2,0(s0)
    230e:	00000537          	lui	a0,0x0
    2312:	85a6                	mv	a1,s1
    2314:	00050513          	mv	a0,a0
    2318:	00000097          	auipc	ra,0x0
    231c:	000080e7          	jalr	ra # 2318 <.L789+0x3c>
    2320:	4785                	li	a5,1
    2322:	d85fd06f          	j	a6 <.L639>

00002326 <.L790>:
    2326:	000005b7          	lui	a1,0x0
    232a:	00058593          	mv	a1,a1
    232e:	8526                	mv	a0,s1
    2330:	00000097          	auipc	ra,0x0
    2334:	000080e7          	jalr	ra # 2330 <.L790+0xa>
    2338:	e115                	bnez	a0,235c <.L791>
    233a:	4505                	li	a0,1
    233c:	00000097          	auipc	ra,0x0
    2340:	000080e7          	jalr	ra # 233c <.L790+0x16>
    2344:	00000537          	lui	a0,0x0
    2348:	85a6                	mv	a1,s1
    234a:	00050513          	mv	a0,a0
    234e:	00000097          	auipc	ra,0x0
    2352:	000080e7          	jalr	ra # 234e <.L790+0x28>
    2356:	4785                	li	a5,1
    2358:	d4ffd06f          	j	a6 <.L639>

0000235c <.L791>:
    235c:	000005b7          	lui	a1,0x0
    2360:	00058593          	mv	a1,a1
    2364:	8526                	mv	a0,s1
    2366:	00000097          	auipc	ra,0x0
    236a:	000080e7          	jalr	ra # 2366 <.L791+0xa>
    236e:	e901                	bnez	a0,237e <.L792>
    2370:	00000097          	auipc	ra,0x0
    2374:	000080e7          	jalr	ra # 2370 <.L791+0x14>
    2378:	4785                	li	a5,1
    237a:	d2dfd06f          	j	a6 <.L639>

0000237e <.L792>:
    237e:	000005b7          	lui	a1,0x0
    2382:	00058593          	mv	a1,a1
    2386:	8526                	mv	a0,s1
    2388:	00000097          	auipc	ra,0x0
    238c:	000080e7          	jalr	ra # 2388 <.L792+0xa>
    2390:	e90d                	bnez	a0,23c2 <.L793>
    2392:	00844603          	lbu	a2,8(s0)
    2396:	00444583          	lbu	a1,4(s0)
    239a:	00044503          	lbu	a0,0(s0)
    239e:	00000097          	auipc	ra,0x0
    23a2:	000080e7          	jalr	ra # 239e <.L792+0x20>
    23a6:	4414                	lw	a3,8(s0)
    23a8:	4050                	lw	a2,4(s0)
    23aa:	400c                	lw	a1,0(s0)
    23ac:	00000537          	lui	a0,0x0
    23b0:	00050513          	mv	a0,a0
    23b4:	00000097          	auipc	ra,0x0
    23b8:	000080e7          	jalr	ra # 23b4 <.L792+0x36>
    23bc:	4785                	li	a5,1
    23be:	ce9fd06f          	j	a6 <.L639>

000023c2 <.L793>:
    23c2:	000005b7          	lui	a1,0x0
    23c6:	00058593          	mv	a1,a1
    23ca:	8526                	mv	a0,s1
    23cc:	00000097          	auipc	ra,0x0
    23d0:	000080e7          	jalr	ra # 23cc <.L793+0xa>
    23d4:	e51d                	bnez	a0,2402 <.L794>
    23d6:	401c                	lw	a5,0(s0)
    23d8:	4685                	li	a3,1
    23da:	4601                	li	a2,0
    23dc:	00f696b3          	sll	a3,a3,a5
    23e0:	4581                	li	a1,0
    23e2:	00000097          	auipc	ra,0x0
    23e6:	000080e7          	jalr	ra # 23e2 <.L793+0x20>
    23ea:	400c                	lw	a1,0(s0)
    23ec:	00000537          	lui	a0,0x0
    23f0:	00050513          	mv	a0,a0
    23f4:	00000097          	auipc	ra,0x0
    23f8:	000080e7          	jalr	ra # 23f4 <.L793+0x32>
    23fc:	4785                	li	a5,1
    23fe:	ca9fd06f          	j	a6 <.L639>

00002402 <.L794>:
    2402:	000005b7          	lui	a1,0x0
    2406:	00058593          	mv	a1,a1
    240a:	8526                	mv	a0,s1
    240c:	00000097          	auipc	ra,0x0
    2410:	000080e7          	jalr	ra # 240c <.L794+0xa>
    2414:	e515                	bnez	a0,2440 <.L795>
    2416:	400c                	lw	a1,0(s0)
    2418:	0ff5f513          	zext.b	a0,a1
    241c:	ce2e                	sw	a1,28(sp)
    241e:	00000097          	auipc	ra,0x0
    2422:	000080e7          	jalr	ra # 241e <.L794+0x1c>
    2426:	45f2                	lw	a1,28(sp)
    2428:	862a                	mv	a2,a0
    242a:	00000537          	lui	a0,0x0
    242e:	00050513          	mv	a0,a0
    2432:	00000097          	auipc	ra,0x0
    2436:	000080e7          	jalr	ra # 2432 <.L794+0x30>
    243a:	4785                	li	a5,1
    243c:	c6bfd06f          	j	a6 <.L639>

00002440 <.L795>:
    2440:	000005b7          	lui	a1,0x0
    2444:	00058593          	mv	a1,a1
    2448:	8526                	mv	a0,s1
    244a:	00000097          	auipc	ra,0x0
    244e:	000080e7          	jalr	ra # 244a <.L795+0xa>
    2452:	e90d                	bnez	a0,2484 <.L796>
    2454:	460d                	li	a2,3
    2456:	106c                	add	a1,sp,44
    2458:	8522                	mv	a0,s0
    245a:	00000097          	auipc	ra,0x0
    245e:	000080e7          	jalr	ra # 245a <.L795+0x1a>
    2462:	5642                	lw	a2,48(sp)
    2464:	55b2                	lw	a1,44(sp)
    2466:	00000537          	lui	a0,0x0
    246a:	00050513          	mv	a0,a0
    246e:	00000097          	auipc	ra,0x0
    2472:	000080e7          	jalr	ra # 246e <.L795+0x2e>
    2476:	00000097          	auipc	ra,0x0
    247a:	000080e7          	jalr	ra # 2476 <.L795+0x36>
    247e:	4785                	li	a5,1
    2480:	c27fd06f          	j	a6 <.L639>

00002484 <.L796>:
    2484:	000005b7          	lui	a1,0x0
    2488:	00058593          	mv	a1,a1
    248c:	8526                	mv	a0,s1
    248e:	00000097          	auipc	ra,0x0
    2492:	000080e7          	jalr	ra # 248e <.L796+0xa>
    2496:	e105                	bnez	a0,24b6 <.L797>
    2498:	00000097          	auipc	ra,0x0
    249c:	000080e7          	jalr	ra # 2498 <.L796+0x14>
    24a0:	00000537          	lui	a0,0x0
    24a4:	00050513          	mv	a0,a0
    24a8:	00000097          	auipc	ra,0x0
    24ac:	000080e7          	jalr	ra # 24a8 <.L796+0x24>
    24b0:	4785                	li	a5,1
    24b2:	bf5fd06f          	j	a6 <.L639>

000024b6 <.L797>:
    24b6:	000005b7          	lui	a1,0x0
    24ba:	00058593          	mv	a1,a1
    24be:	8526                	mv	a0,s1
    24c0:	00000097          	auipc	ra,0x0
    24c4:	000080e7          	jalr	ra # 24c0 <.L797+0xa>
    24c8:	e901                	bnez	a0,24d8 <.L798>
    24ca:	00000097          	auipc	ra,0x0
    24ce:	000080e7          	jalr	ra # 24ca <.L797+0x14>
    24d2:	4785                	li	a5,1
    24d4:	bd3fd06f          	j	a6 <.L639>

000024d8 <.L798>:
    24d8:	000005b7          	lui	a1,0x0
    24dc:	00058593          	mv	a1,a1
    24e0:	8526                	mv	a0,s1
    24e2:	00000097          	auipc	ra,0x0
    24e6:	000080e7          	jalr	ra # 24e2 <.L798+0xa>
    24ea:	ed01                	bnez	a0,2502 <.L799>
    24ec:	4454                	lw	a3,12(s0)
    24ee:	4410                	lw	a2,8(s0)
    24f0:	404c                	lw	a1,4(s0)
    24f2:	4008                	lw	a0,0(s0)
    24f4:	00000097          	auipc	ra,0x0
    24f8:	000080e7          	jalr	ra # 24f4 <.L798+0x1c>
    24fc:	4785                	li	a5,1
    24fe:	ba9fd06f          	j	a6 <.L639>

00002502 <.L799>:
    2502:	000005b7          	lui	a1,0x0
    2506:	00058593          	mv	a1,a1
    250a:	8526                	mv	a0,s1
    250c:	00000097          	auipc	ra,0x0
    2510:	000080e7          	jalr	ra # 250c <.L799+0xa>
    2514:	e11d                	bnez	a0,253a <.L800>
    2516:	000007b7          	lui	a5,0x0
    251a:	0007a783          	lw	a5,0(a5) # 0 <run_rftest_case>
    251e:	4b9c                	lw	a5,16(a5)
    2520:	9782                	jalr	a5
    2522:	00000537          	lui	a0,0x0
    2526:	85a6                	mv	a1,s1
    2528:	00050513          	mv	a0,a0
    252c:	00000097          	auipc	ra,0x0
    2530:	000080e7          	jalr	ra # 252c <.L799+0x2a>
    2534:	4785                	li	a5,1
    2536:	b71fd06f          	j	a6 <.L639>

0000253a <.L800>:
    253a:	000005b7          	lui	a1,0x0
    253e:	00058593          	mv	a1,a1
    2542:	8526                	mv	a0,s1
    2544:	00000097          	auipc	ra,0x0
    2548:	000080e7          	jalr	ra # 2544 <.L800+0xa>
    254c:	e11d                	bnez	a0,2572 <.L801>
    254e:	000007b7          	lui	a5,0x0
    2552:	0007a783          	lw	a5,0(a5) # 0 <run_rftest_case>
    2556:	4bdc                	lw	a5,20(a5)
    2558:	9782                	jalr	a5
    255a:	00000537          	lui	a0,0x0
    255e:	85a6                	mv	a1,s1
    2560:	00050513          	mv	a0,a0
    2564:	00000097          	auipc	ra,0x0
    2568:	000080e7          	jalr	ra # 2564 <.L800+0x2a>
    256c:	4785                	li	a5,1
    256e:	b39fd06f          	j	a6 <.L639>

00002572 <.L801>:
    2572:	000005b7          	lui	a1,0x0
    2576:	00058593          	mv	a1,a1
    257a:	8526                	mv	a0,s1
    257c:	00000097          	auipc	ra,0x0
    2580:	000080e7          	jalr	ra # 257c <.L801+0xa>
    2584:	e921                	bnez	a0,25d4 <.L802>
    2586:	00044503          	lbu	a0,0(s0)
    258a:	00000097          	auipc	ra,0x0
    258e:	000080e7          	jalr	ra # 258a <.L801+0x18>
    2592:	401c                	lw	a5,0(s0)
    2594:	ef99                	bnez	a5,25b2 <.L803>
    2596:	000007b7          	lui	a5,0x0
    259a:	0007a783          	lw	a5,0(a5) # 0 <run_rftest_case>
    259e:	4719                	li	a4,6
    25a0:	4699                	li	a3,6
    25a2:	1bc7a803          	lw	a6,444(a5)
    25a6:	4615                	li	a2,5
    25a8:	4781                	li	a5,0
    25aa:	4581                	li	a1,0
    25ac:	06100513          	li	a0,97
    25b0:	9802                	jalr	a6

000025b2 <.L803>:
    25b2:	00000097          	auipc	ra,0x0
    25b6:	000080e7          	jalr	ra # 25b2 <.L803>
    25ba:	4010                	lw	a2,0(s0)
    25bc:	00000537          	lui	a0,0x0
    25c0:	85a6                	mv	a1,s1
    25c2:	00050513          	mv	a0,a0
    25c6:	00000097          	auipc	ra,0x0
    25ca:	000080e7          	jalr	ra # 25c6 <.L803+0x14>
    25ce:	4785                	li	a5,1
    25d0:	ad7fd06f          	j	a6 <.L639>

000025d4 <.L802>:
    25d4:	000005b7          	lui	a1,0x0
    25d8:	00058593          	mv	a1,a1
    25dc:	8526                	mv	a0,s1
    25de:	00000097          	auipc	ra,0x0
    25e2:	000080e7          	jalr	ra # 25de <.L802+0xa>
    25e6:	e115                	bnez	a0,260a <.L804>
    25e8:	4505                	li	a0,1
    25ea:	00000097          	auipc	ra,0x0
    25ee:	000080e7          	jalr	ra # 25ea <.L802+0x16>
    25f2:	00000537          	lui	a0,0x0
    25f6:	85a6                	mv	a1,s1
    25f8:	00050513          	mv	a0,a0
    25fc:	00000097          	auipc	ra,0x0
    2600:	000080e7          	jalr	ra # 25fc <.L802+0x28>
    2604:	4785                	li	a5,1
    2606:	aa1fd06f          	j	a6 <.L639>

0000260a <.L804>:
    260a:	000005b7          	lui	a1,0x0
    260e:	00058593          	mv	a1,a1
    2612:	8526                	mv	a0,s1
    2614:	00000097          	auipc	ra,0x0
    2618:	000080e7          	jalr	ra # 2614 <.L804+0xa>
    261c:	ed1d                	bnez	a0,265a <.L805>
    261e:	505c                	lw	a5,36(s0)
    2620:	c23e                	sw	a5,4(sp)
    2622:	501c                	lw	a5,32(s0)
    2624:	c03e                	sw	a5,0(sp)
    2626:	485c                	lw	a5,20(s0)
    2628:	01c42883          	lw	a7,28(s0)
    262c:	01842803          	lw	a6,24(s0)
    2630:	4818                	lw	a4,16(s0)
    2632:	4454                	lw	a3,12(s0)
    2634:	4410                	lw	a2,8(s0)
    2636:	404c                	lw	a1,4(s0)
    2638:	4008                	lw	a0,0(s0)
    263a:	00000097          	auipc	ra,0x0
    263e:	000080e7          	jalr	ra # 263a <.L804+0x30>
    2642:	00000537          	lui	a0,0x0
    2646:	85a6                	mv	a1,s1
    2648:	00050513          	mv	a0,a0
    264c:	00000097          	auipc	ra,0x0
    2650:	000080e7          	jalr	ra # 264c <.L804+0x42>
    2654:	4785                	li	a5,1
    2656:	a51fd06f          	j	a6 <.L639>

0000265a <.L805>:
    265a:	000005b7          	lui	a1,0x0
    265e:	00058593          	mv	a1,a1
    2662:	8526                	mv	a0,s1
    2664:	00000097          	auipc	ra,0x0
    2668:	000080e7          	jalr	ra # 2664 <.L805+0xa>
    266c:	e115                	bnez	a0,2690 <.L806>
    266e:	00000097          	auipc	ra,0x0
    2672:	000080e7          	jalr	ra # 266e <.L805+0x14>
    2676:	862a                	mv	a2,a0
    2678:	00000537          	lui	a0,0x0
    267c:	85a6                	mv	a1,s1
    267e:	00050513          	mv	a0,a0
    2682:	00000097          	auipc	ra,0x0
    2686:	000080e7          	jalr	ra # 2682 <.L805+0x28>
    268a:	4785                	li	a5,1
    268c:	a1bfd06f          	j	a6 <.L639>

00002690 <.L806>:
    2690:	000005b7          	lui	a1,0x0
    2694:	00058593          	mv	a1,a1
    2698:	8526                	mv	a0,s1
    269a:	00000097          	auipc	ra,0x0
    269e:	000080e7          	jalr	ra # 269a <.L806+0xa>
    26a2:	e909                	bnez	a0,26b4 <.L807>
    26a4:	8522                	mv	a0,s0
    26a6:	00000097          	auipc	ra,0x0
    26aa:	000080e7          	jalr	ra # 26a6 <.L806+0x16>
    26ae:	4785                	li	a5,1
    26b0:	9f7fd06f          	j	a6 <.L639>

000026b4 <.L807>:
    26b4:	000005b7          	lui	a1,0x0
    26b8:	00058593          	mv	a1,a1
    26bc:	8526                	mv	a0,s1
    26be:	00000097          	auipc	ra,0x0
    26c2:	000080e7          	jalr	ra # 26be <.L807+0xa>
    26c6:	e909                	bnez	a0,26d8 <.L808>
    26c8:	8522                	mv	a0,s0
    26ca:	00000097          	auipc	ra,0x0
    26ce:	000080e7          	jalr	ra # 26ca <.L807+0x16>
    26d2:	4785                	li	a5,1
    26d4:	9d3fd06f          	j	a6 <.L639>

000026d8 <.L808>:
    26d8:	000005b7          	lui	a1,0x0
    26dc:	00058593          	mv	a1,a1
    26e0:	8526                	mv	a0,s1
    26e2:	00000097          	auipc	ra,0x0
    26e6:	000080e7          	jalr	ra # 26e2 <.L808+0xa>
    26ea:	e919                	bnez	a0,2700 <.L809>
    26ec:	4410                	lw	a2,8(s0)
    26ee:	404c                	lw	a1,4(s0)
    26f0:	4008                	lw	a0,0(s0)
    26f2:	00000097          	auipc	ra,0x0
    26f6:	000080e7          	jalr	ra # 26f2 <.L808+0x1a>
    26fa:	4785                	li	a5,1
    26fc:	9abfd06f          	j	a6 <.L639>

00002700 <.L809>:
    2700:	000005b7          	lui	a1,0x0
    2704:	00058593          	mv	a1,a1
    2708:	8526                	mv	a0,s1
    270a:	00000097          	auipc	ra,0x0
    270e:	000080e7          	jalr	ra # 270a <.L809+0xa>
    2712:	e115                	bnez	a0,2736 <.L810>
    2714:	4505                	li	a0,1
    2716:	00000097          	auipc	ra,0x0
    271a:	000080e7          	jalr	ra # 2716 <.L809+0x16>
    271e:	00000537          	lui	a0,0x0
    2722:	85a6                	mv	a1,s1
    2724:	00050513          	mv	a0,a0
    2728:	00000097          	auipc	ra,0x0
    272c:	000080e7          	jalr	ra # 2728 <.L809+0x28>
    2730:	4785                	li	a5,1
    2732:	975fd06f          	j	a6 <.L639>

00002736 <.L810>:
    2736:	000005b7          	lui	a1,0x0
    273a:	00058593          	mv	a1,a1
    273e:	8526                	mv	a0,s1
    2740:	00000097          	auipc	ra,0x0
    2744:	000080e7          	jalr	ra # 2740 <.L810+0xa>
    2748:	e11d                	bnez	a0,276e <.L811>
    274a:	08000513          	li	a0,128
    274e:	00000097          	auipc	ra,0x0
    2752:	000080e7          	jalr	ra # 274e <.L810+0x18>
    2756:	85aa                	mv	a1,a0
    2758:	00000537          	lui	a0,0x0
    275c:	00050513          	mv	a0,a0
    2760:	00000097          	auipc	ra,0x0
    2764:	000080e7          	jalr	ra # 2760 <.L810+0x2a>
    2768:	4785                	li	a5,1
    276a:	93dfd06f          	j	a6 <.L639>

0000276e <.L811>:
    276e:	000005b7          	lui	a1,0x0
    2772:	00058593          	mv	a1,a1
    2776:	8526                	mv	a0,s1
    2778:	00000097          	auipc	ra,0x0
    277c:	000080e7          	jalr	ra # 2778 <.L811+0xa>
    2780:	e10d                	bnez	a0,27a2 <.L812>
    2782:	00000097          	auipc	ra,0x0
    2786:	000080e7          	jalr	ra # 2782 <.L811+0x14>
    278a:	85aa                	mv	a1,a0
    278c:	00000537          	lui	a0,0x0
    2790:	00050513          	mv	a0,a0
    2794:	00000097          	auipc	ra,0x0
    2798:	000080e7          	jalr	ra # 2794 <.L811+0x26>
    279c:	4785                	li	a5,1
    279e:	909fd06f          	j	a6 <.L639>

000027a2 <.L812>:
    27a2:	000005b7          	lui	a1,0x0
    27a6:	00058593          	mv	a1,a1
    27aa:	8526                	mv	a0,s1
    27ac:	00000097          	auipc	ra,0x0
    27b0:	000080e7          	jalr	ra # 27ac <.L812+0xa>
    27b4:	e515                	bnez	a0,27e0 <.L813>
    27b6:	01444783          	lbu	a5,20(s0)
    27ba:	01844803          	lbu	a6,24(s0)
    27be:	01044703          	lbu	a4,16(s0)
    27c2:	00c45683          	lhu	a3,12(s0)
    27c6:	00845603          	lhu	a2,8(s0)
    27ca:	00444583          	lbu	a1,4(s0)
    27ce:	00044503          	lbu	a0,0(s0)
    27d2:	00000097          	auipc	ra,0x0
    27d6:	000080e7          	jalr	ra # 27d2 <.L812+0x30>
    27da:	4785                	li	a5,1
    27dc:	8cbfd06f          	j	a6 <.L639>

000027e0 <.L813>:
    27e0:	000005b7          	lui	a1,0x0
    27e4:	00058593          	mv	a1,a1
    27e8:	8526                	mv	a0,s1
    27ea:	00000097          	auipc	ra,0x0
    27ee:	000080e7          	jalr	ra # 27ea <.L813+0xa>
    27f2:	e515                	bnez	a0,281e <.L814>
    27f4:	00000097          	auipc	ra,0x0
    27f8:	000080e7          	jalr	ra # 27f4 <.L813+0x14>
    27fc:	00000537          	lui	a0,0x0
    2800:	000007b7          	lui	a5,0x0
    2804:	4705                	li	a4,1
    2806:	85a6                	mv	a1,s1
    2808:	00050513          	mv	a0,a0
    280c:	00e78023          	sb	a4,0(a5) # 0 <run_rftest_case>
    2810:	00000097          	auipc	ra,0x0
    2814:	000080e7          	jalr	ra # 2810 <.L813+0x30>
    2818:	4785                	li	a5,1
    281a:	88dfd06f          	j	a6 <.L639>

0000281e <.L814>:
    281e:	000005b7          	lui	a1,0x0
    2822:	00058593          	mv	a1,a1
    2826:	8526                	mv	a0,s1
    2828:	00000097          	auipc	ra,0x0
    282c:	000080e7          	jalr	ra # 2828 <.L814+0xa>
    2830:	e50d                	bnez	a0,285a <.L815>
    2832:	00000097          	auipc	ra,0x0
    2836:	000080e7          	jalr	ra # 2832 <.L814+0x14>
    283a:	00000537          	lui	a0,0x0
    283e:	000007b7          	lui	a5,0x0
    2842:	85a6                	mv	a1,s1
    2844:	00050513          	mv	a0,a0
    2848:	00078023          	sb	zero,0(a5) # 0 <run_rftest_case>
    284c:	00000097          	auipc	ra,0x0
    2850:	000080e7          	jalr	ra # 284c <.L814+0x2e>
    2854:	4785                	li	a5,1
    2856:	851fd06f          	j	a6 <.L639>

0000285a <.L815>:
    285a:	000005b7          	lui	a1,0x0
    285e:	00058593          	mv	a1,a1
    2862:	8526                	mv	a0,s1
    2864:	00000097          	auipc	ra,0x0
    2868:	000080e7          	jalr	ra # 2864 <.L815+0xa>
    286c:	e915                	bnez	a0,28a0 <.L816>
    286e:	00844603          	lbu	a2,8(s0)
    2872:	00444583          	lbu	a1,4(s0)
    2876:	00044503          	lbu	a0,0(s0)
    287a:	00000097          	auipc	ra,0x0
    287e:	000080e7          	jalr	ra # 287a <.L815+0x20>
    2882:	4418                	lw	a4,8(s0)
    2884:	4054                	lw	a3,4(s0)
    2886:	4010                	lw	a2,0(s0)
    2888:	00000537          	lui	a0,0x0
    288c:	85a6                	mv	a1,s1
    288e:	00050513          	mv	a0,a0
    2892:	00000097          	auipc	ra,0x0
    2896:	000080e7          	jalr	ra # 2892 <.L815+0x38>
    289a:	4785                	li	a5,1
    289c:	80bfd06f          	j	a6 <.L639>

000028a0 <.L816>:
    28a0:	000005b7          	lui	a1,0x0
    28a4:	00058593          	mv	a1,a1
    28a8:	8526                	mv	a0,s1
    28aa:	00000097          	auipc	ra,0x0
    28ae:	000080e7          	jalr	ra # 28aa <.L816+0xa>
    28b2:	e915                	bnez	a0,28e6 <.L817>
    28b4:	4418                	lw	a4,8(s0)
    28b6:	4054                	lw	a3,4(s0)
    28b8:	4010                	lw	a2,0(s0)
    28ba:	00000537          	lui	a0,0x0
    28be:	85a6                	mv	a1,s1
    28c0:	00050513          	mv	a0,a0
    28c4:	00000097          	auipc	ra,0x0
    28c8:	000080e7          	jalr	ra # 28c4 <.L816+0x24>
    28cc:	00844603          	lbu	a2,8(s0)
    28d0:	00444583          	lbu	a1,4(s0)
    28d4:	00044503          	lbu	a0,0(s0)
    28d8:	00000097          	auipc	ra,0x0
    28dc:	000080e7          	jalr	ra # 28d8 <.L816+0x38>
    28e0:	4785                	li	a5,1
    28e2:	fc4fd06f          	j	a6 <.L639>

000028e6 <.L817>:
    28e6:	000005b7          	lui	a1,0x0
    28ea:	00058593          	mv	a1,a1
    28ee:	8526                	mv	a0,s1
    28f0:	00000097          	auipc	ra,0x0
    28f4:	000080e7          	jalr	ra # 28f0 <.L817+0xa>
    28f8:	e51d                	bnez	a0,2926 <.L818>
    28fa:	00444583          	lbu	a1,4(s0)
    28fe:	00044503          	lbu	a0,0(s0)
    2902:	00000097          	auipc	ra,0x0
    2906:	000080e7          	jalr	ra # 2902 <.L817+0x1c>
    290a:	4054                	lw	a3,4(s0)
    290c:	4010                	lw	a2,0(s0)
    290e:	00000537          	lui	a0,0x0
    2912:	85a6                	mv	a1,s1
    2914:	00050513          	mv	a0,a0
    2918:	00000097          	auipc	ra,0x0
    291c:	000080e7          	jalr	ra # 2918 <.L817+0x32>
    2920:	4785                	li	a5,1
    2922:	f84fd06f          	j	a6 <.L639>

00002926 <.L818>:
    2926:	000005b7          	lui	a1,0x0
    292a:	00058593          	mv	a1,a1
    292e:	8526                	mv	a0,s1
    2930:	00000097          	auipc	ra,0x0
    2934:	000080e7          	jalr	ra # 2930 <.L818+0xa>
    2938:	e51d                	bnez	a0,2966 <.L819>
    293a:	00445583          	lhu	a1,4(s0)
    293e:	00044503          	lbu	a0,0(s0)
    2942:	00000097          	auipc	ra,0x0
    2946:	000080e7          	jalr	ra # 2942 <.L818+0x1c>
    294a:	4054                	lw	a3,4(s0)
    294c:	4010                	lw	a2,0(s0)
    294e:	00000537          	lui	a0,0x0
    2952:	85a6                	mv	a1,s1
    2954:	00050513          	mv	a0,a0
    2958:	00000097          	auipc	ra,0x0
    295c:	000080e7          	jalr	ra # 2958 <.L818+0x32>
    2960:	4785                	li	a5,1
    2962:	f44fd06f          	j	a6 <.L639>

00002966 <.L819>:
    2966:	000005b7          	lui	a1,0x0
    296a:	00058593          	mv	a1,a1
    296e:	8526                	mv	a0,s1
    2970:	00000097          	auipc	ra,0x0
    2974:	000080e7          	jalr	ra # 2970 <.L819+0xa>
    2978:	e115                	bnez	a0,299c <.L820>
    297a:	00000097          	auipc	ra,0x0
    297e:	000080e7          	jalr	ra # 297a <.L819+0x14>
    2982:	862a                	mv	a2,a0
    2984:	00000537          	lui	a0,0x0
    2988:	85a6                	mv	a1,s1
    298a:	00050513          	mv	a0,a0
    298e:	00000097          	auipc	ra,0x0
    2992:	000080e7          	jalr	ra # 298e <.L819+0x28>
    2996:	4785                	li	a5,1
    2998:	f0efd06f          	j	a6 <.L639>

0000299c <.L820>:
    299c:	000005b7          	lui	a1,0x0
    29a0:	00058593          	mv	a1,a1
    29a4:	8526                	mv	a0,s1
    29a6:	00000097          	auipc	ra,0x0
    29aa:	000080e7          	jalr	ra # 29a6 <.L820+0xa>
    29ae:	e505                	bnez	a0,29d6 <.L821>
    29b0:	00040503          	lb	a0,0(s0)
    29b4:	00000097          	auipc	ra,0x0
    29b8:	000080e7          	jalr	ra # 29b4 <.L820+0x18>
    29bc:	4010                	lw	a2,0(s0)
    29be:	00000537          	lui	a0,0x0
    29c2:	85a6                	mv	a1,s1
    29c4:	00050513          	mv	a0,a0
    29c8:	00000097          	auipc	ra,0x0
    29cc:	000080e7          	jalr	ra # 29c8 <.L820+0x2c>
    29d0:	4785                	li	a5,1
    29d2:	ed4fd06f          	j	a6 <.L639>

000029d6 <.L821>:
    29d6:	000005b7          	lui	a1,0x0
    29da:	00058593          	mv	a1,a1
    29de:	8526                	mv	a0,s1
    29e0:	00000097          	auipc	ra,0x0
    29e4:	000080e7          	jalr	ra # 29e0 <.L821+0xa>
    29e8:	e10d                	bnez	a0,2a0a <.L822>
    29ea:	00000097          	auipc	ra,0x0
    29ee:	000080e7          	jalr	ra # 29ea <.L821+0x14>
    29f2:	00000537          	lui	a0,0x0
    29f6:	85a6                	mv	a1,s1
    29f8:	00050513          	mv	a0,a0
    29fc:	00000097          	auipc	ra,0x0
    2a00:	000080e7          	jalr	ra # 29fc <.L821+0x26>
    2a04:	4785                	li	a5,1
    2a06:	ea0fd06f          	j	a6 <.L639>

00002a0a <.L822>:
    2a0a:	000005b7          	lui	a1,0x0
    2a0e:	00058593          	mv	a1,a1
    2a12:	8526                	mv	a0,s1
    2a14:	00000097          	auipc	ra,0x0
    2a18:	000080e7          	jalr	ra # 2a14 <.L822+0xa>
    2a1c:	e901                	bnez	a0,2a2c <.L823>
    2a1e:	00000097          	auipc	ra,0x0
    2a22:	000080e7          	jalr	ra # 2a1e <.L822+0x14>
    2a26:	4785                	li	a5,1
    2a28:	e7efd06f          	j	a6 <.L639>

00002a2c <.L823>:
    2a2c:	000005b7          	lui	a1,0x0
    2a30:	00058593          	mv	a1,a1
    2a34:	8526                	mv	a0,s1
    2a36:	00000097          	auipc	ra,0x0
    2a3a:	000080e7          	jalr	ra # 2a36 <.L823+0xa>
    2a3e:	e515                	bnez	a0,2a6a <.L824>
    2a40:	1068                	add	a0,sp,44
    2a42:	00000097          	auipc	ra,0x0
    2a46:	000080e7          	jalr	ra # 2a42 <.L823+0x16>
    2a4a:	5752                	lw	a4,52(sp)
    2a4c:	56c2                	lw	a3,48(sp)
    2a4e:	5632                	lw	a2,44(sp)
    2a50:	87aa                	mv	a5,a0
    2a52:	00000537          	lui	a0,0x0
    2a56:	85a6                	mv	a1,s1
    2a58:	00050513          	mv	a0,a0
    2a5c:	00000097          	auipc	ra,0x0
    2a60:	000080e7          	jalr	ra # 2a5c <.L823+0x30>
    2a64:	4785                	li	a5,1
    2a66:	e40fd06f          	j	a6 <.L639>

00002a6a <.L824>:
    2a6a:	000005b7          	lui	a1,0x0
    2a6e:	00058593          	mv	a1,a1
    2a72:	8526                	mv	a0,s1
    2a74:	00000097          	auipc	ra,0x0
    2a78:	000080e7          	jalr	ra # 2a74 <.L824+0xa>
    2a7c:	e505                	bnez	a0,2aa4 <.L825>
    2a7e:	00040503          	lb	a0,0(s0)
    2a82:	00000097          	auipc	ra,0x0
    2a86:	000080e7          	jalr	ra # 2a82 <.L824+0x18>
    2a8a:	4010                	lw	a2,0(s0)
    2a8c:	00000537          	lui	a0,0x0
    2a90:	85a6                	mv	a1,s1
    2a92:	00050513          	mv	a0,a0
    2a96:	00000097          	auipc	ra,0x0
    2a9a:	000080e7          	jalr	ra # 2a96 <.L824+0x2c>
    2a9e:	4785                	li	a5,1
    2aa0:	e06fd06f          	j	a6 <.L639>

00002aa4 <.L825>:
    2aa4:	000005b7          	lui	a1,0x0
    2aa8:	00058593          	mv	a1,a1
    2aac:	8526                	mv	a0,s1
    2aae:	00000097          	auipc	ra,0x0
    2ab2:	000080e7          	jalr	ra # 2aae <.L825+0xa>
    2ab6:	e505                	bnez	a0,2ade <.L826>
    2ab8:	00044503          	lbu	a0,0(s0)
    2abc:	00000097          	auipc	ra,0x0
    2ac0:	000080e7          	jalr	ra # 2abc <.L825+0x18>
    2ac4:	4010                	lw	a2,0(s0)
    2ac6:	00000537          	lui	a0,0x0
    2aca:	85a6                	mv	a1,s1
    2acc:	00050513          	mv	a0,a0
    2ad0:	00000097          	auipc	ra,0x0
    2ad4:	000080e7          	jalr	ra # 2ad0 <.L825+0x2c>
    2ad8:	4785                	li	a5,1
    2ada:	dccfd06f          	j	a6 <.L639>

00002ade <.L826>:
    2ade:	000005b7          	lui	a1,0x0
    2ae2:	00058593          	mv	a1,a1
    2ae6:	8526                	mv	a0,s1
    2ae8:	00000097          	auipc	ra,0x0
    2aec:	000080e7          	jalr	ra # 2ae8 <.L826+0xa>
    2af0:	ed19                	bnez	a0,2b0e <.L827>
    2af2:	00000537          	lui	a0,0x0
    2af6:	35000613          	li	a2,848
    2afa:	85a6                	mv	a1,s1
    2afc:	00050513          	mv	a0,a0
    2b00:	00000097          	auipc	ra,0x0
    2b04:	000080e7          	jalr	ra # 2b00 <.L826+0x22>
    2b08:	4785                	li	a5,1
    2b0a:	d9cfd06f          	j	a6 <.L639>

00002b0e <.L827>:
    2b0e:	000005b7          	lui	a1,0x0
    2b12:	00058593          	mv	a1,a1
    2b16:	8526                	mv	a0,s1
    2b18:	00000097          	auipc	ra,0x0
    2b1c:	000080e7          	jalr	ra # 2b18 <.L827+0xa>
    2b20:	e10d                	bnez	a0,2b42 <.L828>
    2b22:	00000097          	auipc	ra,0x0
    2b26:	000080e7          	jalr	ra # 2b22 <.L827+0x14>
    2b2a:	00000537          	lui	a0,0x0
    2b2e:	85a6                	mv	a1,s1
    2b30:	00050513          	mv	a0,a0
    2b34:	00000097          	auipc	ra,0x0
    2b38:	000080e7          	jalr	ra # 2b34 <.L827+0x26>
    2b3c:	4785                	li	a5,1
    2b3e:	d68fd06f          	j	a6 <.L639>

00002b42 <.L828>:
    2b42:	000005b7          	lui	a1,0x0
    2b46:	00058593          	mv	a1,a1
    2b4a:	8526                	mv	a0,s1
    2b4c:	00000097          	auipc	ra,0x0
    2b50:	000080e7          	jalr	ra # 2b4c <.L828+0xa>
    2b54:	e13d                	bnez	a0,2bba <.L829>
    2b56:	00044683          	lbu	a3,0(s0)
    2b5a:	00000937          	lui	s2,0x0
    2b5e:	00090793          	mv	a5,s2
    2b62:	32d78123          	sb	a3,802(a5)
    2b66:	4605                	li	a2,1
    2b68:	00090913          	mv	s2,s2
    2b6c:	00000737          	lui	a4,0x0
    2b70:	000007b7          	lui	a5,0x0
    2b74:	02c69c63          	bne	a3,a2,2bac <.L830>
    2b78:	4054                	lw	a3,4(s0)
    2b7a:	00d71023          	sh	a3,0(a4) # 0 <run_rftest_case>
    2b7e:	4418                	lw	a4,8(s0)

00002b80 <.L849>:
    2b80:	00e79023          	sh	a4,0(a5) # 0 <run_rftest_case>
    2b84:	00000097          	auipc	ra,0x0
    2b88:	000080e7          	jalr	ra # 2b84 <.L849+0x4>
    2b8c:	16a94683          	lbu	a3,362(s2) # 16a <.L642+0x20>
    2b90:	16894603          	lbu	a2,360(s2)
    2b94:	00000537          	lui	a0,0x0
    2b98:	85a6                	mv	a1,s1
    2b9a:	00050513          	mv	a0,a0
    2b9e:	00000097          	auipc	ra,0x0
    2ba2:	000080e7          	jalr	ra # 2b9e <.L849+0x1e>
    2ba6:	4785                	li	a5,1
    2ba8:	cfefd06f          	j	a6 <.L639>

00002bac <.L830>:
    2bac:	0be00693          	li	a3,190
    2bb0:	00d71023          	sh	a3,0(a4)
    2bb4:	19a00713          	li	a4,410
    2bb8:	b7e1                	j	2b80 <.L849>

00002bba <.L829>:
    2bba:	000005b7          	lui	a1,0x0
    2bbe:	00058593          	mv	a1,a1
    2bc2:	8526                	mv	a0,s1
    2bc4:	00000097          	auipc	ra,0x0
    2bc8:	000080e7          	jalr	ra # 2bc4 <.L829+0xa>
    2bcc:	e915                	bnez	a0,2c00 <.L832>
    2bce:	00000537          	lui	a0,0x0
    2bd2:	85a6                	mv	a1,s1
    2bd4:	00050513          	mv	a0,a0
    2bd8:	00000097          	auipc	ra,0x0
    2bdc:	000080e7          	jalr	ra # 2bd8 <.L829+0x1e>
    2be0:	00000097          	auipc	ra,0x0
    2be4:	000080e7          	jalr	ra # 2be0 <.L829+0x26>
    2be8:	00000537          	lui	a0,0x0
    2bec:	85a6                	mv	a1,s1
    2bee:	00050513          	mv	a0,a0
    2bf2:	00000097          	auipc	ra,0x0
    2bf6:	000080e7          	jalr	ra # 2bf2 <.L829+0x38>
    2bfa:	4785                	li	a5,1
    2bfc:	caafd06f          	j	a6 <.L639>

00002c00 <.L832>:
    2c00:	000005b7          	lui	a1,0x0
    2c04:	00058593          	mv	a1,a1
    2c08:	8526                	mv	a0,s1
    2c0a:	00000097          	auipc	ra,0x0
    2c0e:	000080e7          	jalr	ra # 2c0a <.L832+0xa>
    2c12:	e515                	bnez	a0,2c3e <.L833>
    2c14:	00444583          	lbu	a1,4(s0)
    2c18:	4008                	lw	a0,0(s0)
    2c1a:	00000097          	auipc	ra,0x0
    2c1e:	000080e7          	jalr	ra # 2c1a <.L832+0x1a>
    2c22:	4054                	lw	a3,4(s0)
    2c24:	4010                	lw	a2,0(s0)
    2c26:	00000537          	lui	a0,0x0
    2c2a:	85a6                	mv	a1,s1
    2c2c:	00050513          	mv	a0,a0
    2c30:	00000097          	auipc	ra,0x0
    2c34:	000080e7          	jalr	ra # 2c30 <.L832+0x30>
    2c38:	4785                	li	a5,1
    2c3a:	c6cfd06f          	j	a6 <.L639>

00002c3e <.L833>:
    2c3e:	000005b7          	lui	a1,0x0
    2c42:	00058593          	mv	a1,a1
    2c46:	8526                	mv	a0,s1
    2c48:	00000097          	auipc	ra,0x0
    2c4c:	000080e7          	jalr	ra # 2c48 <.L833+0xa>
    2c50:	e505                	bnez	a0,2c78 <.L834>
    2c52:	1068                	add	a0,sp,44
    2c54:	00000097          	auipc	ra,0x0
    2c58:	000080e7          	jalr	ra # 2c54 <.L833+0x16>
    2c5c:	56c2                	lw	a3,48(sp)
    2c5e:	5632                	lw	a2,44(sp)
    2c60:	00000537          	lui	a0,0x0
    2c64:	85a6                	mv	a1,s1
    2c66:	00050513          	mv	a0,a0
    2c6a:	00000097          	auipc	ra,0x0
    2c6e:	000080e7          	jalr	ra # 2c6a <.L833+0x2c>
    2c72:	4785                	li	a5,1
    2c74:	c32fd06f          	j	a6 <.L639>

00002c78 <.L834>:
    2c78:	000005b7          	lui	a1,0x0
    2c7c:	00058593          	mv	a1,a1
    2c80:	8526                	mv	a0,s1
    2c82:	00000097          	auipc	ra,0x0
    2c86:	000080e7          	jalr	ra # 2c82 <.L834+0xa>
    2c8a:	e505                	bnez	a0,2cb2 <.L835>
    2c8c:	4010                	lw	a2,0(s0)
    2c8e:	000007b7          	lui	a5,0x0
    2c92:	00000537          	lui	a0,0x0
    2c96:	00c78023          	sb	a2,0(a5) # 0 <run_rftest_case>
    2c9a:	85a6                	mv	a1,s1
    2c9c:	0ff67613          	zext.b	a2,a2
    2ca0:	00050513          	mv	a0,a0
    2ca4:	00000097          	auipc	ra,0x0
    2ca8:	000080e7          	jalr	ra # 2ca4 <.L834+0x2c>
    2cac:	4785                	li	a5,1
    2cae:	bf8fd06f          	j	a6 <.L639>

00002cb2 <.L835>:
    2cb2:	000005b7          	lui	a1,0x0
    2cb6:	00058593          	mv	a1,a1
    2cba:	8526                	mv	a0,s1
    2cbc:	00000097          	auipc	ra,0x0
    2cc0:	000080e7          	jalr	ra # 2cbc <.L835+0xa>
    2cc4:	e10d                	bnez	a0,2ce6 <.L836>
    2cc6:	00000097          	auipc	ra,0x0
    2cca:	000080e7          	jalr	ra # 2cc6 <.L835+0x14>
    2cce:	00000537          	lui	a0,0x0
    2cd2:	85a6                	mv	a1,s1
    2cd4:	00050513          	mv	a0,a0
    2cd8:	00000097          	auipc	ra,0x0
    2cdc:	000080e7          	jalr	ra # 2cd8 <.L835+0x26>
    2ce0:	4785                	li	a5,1
    2ce2:	bc4fd06f          	j	a6 <.L639>

00002ce6 <.L836>:
    2ce6:	000005b7          	lui	a1,0x0
    2cea:	00058593          	mv	a1,a1
    2cee:	8526                	mv	a0,s1
    2cf0:	00000097          	auipc	ra,0x0
    2cf4:	000080e7          	jalr	ra # 2cf0 <.L836+0xa>
    2cf8:	4781                	li	a5,0
    2cfa:	c119                	beqz	a0,2d00 <.L836+0x1a>
    2cfc:	baafd06f          	j	a6 <.L639>
    2d00:	00c44683          	lbu	a3,12(s0)
    2d04:	00845603          	lhu	a2,8(s0)
    2d08:	00445583          	lhu	a1,4(s0)
    2d0c:	00045503          	lhu	a0,0(s0)
    2d10:	00000097          	auipc	ra,0x0
    2d14:	000080e7          	jalr	ra # 2d10 <.L836+0x2a>
    2d18:	445c                	lw	a5,12(s0)
    2d1a:	4418                	lw	a4,8(s0)
    2d1c:	4054                	lw	a3,4(s0)
    2d1e:	4010                	lw	a2,0(s0)
    2d20:	00000537          	lui	a0,0x0
    2d24:	85a6                	mv	a1,s1
    2d26:	00050513          	mv	a0,a0
    2d2a:	00000097          	auipc	ra,0x0
    2d2e:	000080e7          	jalr	ra # 2d2a <.L836+0x44>
    2d32:	4785                	li	a5,1
    2d34:	b72fd06f          	j	a6 <.L639>
