In archive /Users/dimajolkin/GolandProjects/espradio/blobs/libs/esp32c3/libsmartconfig.a:

sc_broadcast.o:     file format elf32-littleriscv


Disassembly of section .text.sc_is_sync_frame:

00000000 <sc_is_sync_frame>:
   0:	715d                	add	sp,sp,-80
   2:	c4a2                	sw	s0,72(sp)
   4:	c686                	sw	ra,76(sp)
   6:	843e                	mv	s0,a5
   8:	c2a6                	sw	s1,68(sp)
   a:	c0ca                	sw	s2,64(sp)
   c:	de4e                	sw	s3,60(sp)
   e:	dc52                	sw	s4,56(sp)
  10:	da56                	sw	s5,52(sp)
  12:	d85a                	sw	s6,48(sp)
  14:	d65e                	sw	s7,44(sp)
  16:	d462                	sw	s8,40(sp)
  18:	d266                	sw	s9,36(sp)
  1a:	d06a                	sw	s10,32(sp)
  1c:	ce6e                	sw	s11,28(sp)
  1e:	4791                	li	a5,4
  20:	02a7eb63          	bltu	a5,a0,56 <.L21>
  24:	000007b7          	lui	a5,0x0
  28:	84ba                	mv	s1,a4
  2a:	00078793          	mv	a5,a5
  2e:	00151713          	sll	a4,a0,0x1
  32:	97ba                	add	a5,a5,a4
  34:	97a2                	add	a5,a5,s0
  36:	0007cd83          	lbu	s11,0(a5) # 0 <sc_is_sync_frame>
  3a:	000007b7          	lui	a5,0x0
  3e:	8c2a                	mv	s8,a0
  40:	8ab2                	mv	s5,a2
  42:	8cb6                	mv	s9,a3
  44:	8d42                	mv	s10,a6
  46:	41b585b3          	sub	a1,a1,s11
  4a:	00078793          	mv	a5,a5
  4e:	4901                	li	s2,0

00000050 <.L3>:
  50:	0007d703          	lhu	a4,0(a5) # 0 <sc_is_sync_frame>
  54:	e319                	bnez	a4,5a <.L7>

00000056 <.L21>:
  56:	4781                	li	a5,0
  58:	a241                	j	1d8 <.L1>

0000005a <.L7>:
  5a:	0789                	add	a5,a5,2
  5c:	18e59e63          	bne	a1,a4,1f8 <.L4>
  60:	00000a37          	lui	s4,0x0
  64:	000a2b03          	lw	s6,0(s4) # 0 <sc_is_sync_frame>
  68:	6985                	lui	s3,0x1
  6a:	aee98b93          	add	s7,s3,-1298 # aee <.L174+0x426>
  6e:	9bda                	add	s7,s7,s6
  70:	000005b7          	lui	a1,0x0
  74:	4619                	li	a2,6
  76:	00058593          	mv	a1,a1
  7a:	855e                	mv	a0,s7
  7c:	a3098993          	add	s3,s3,-1488
  80:	00000097          	auipc	ra,0x0
  84:	000080e7          	jalr	ra # 80 <.L7+0x26>
  88:	99da                	add	s3,s3,s6
  8a:	16051963          	bnez	a0,1fc <.L54>
  8e:	4619                	li	a2,6
  90:	85d6                	mv	a1,s5
  92:	855e                	mv	a0,s7
  94:	00000097          	auipc	ra,0x0
  98:	000080e7          	jalr	ra # 94 <.L7+0x3a>
  9c:	4619                	li	a2,6
  9e:	85e6                	mv	a1,s9
  a0:	854e                	mv	a0,s3
  a2:	00000097          	auipc	ra,0x0
  a6:	000080e7          	jalr	ra # a2 <.L7+0x48>

000000aa <.L8>:
  aa:	47d1                	li	a5,20
  ac:	02f407b3          	mul	a5,s0,a5
  b0:	090e                	sll	s2,s2,0x3
  b2:	6505                	lui	a0,0x1
  b4:	0ff97913          	zext.b	s2,s2
  b8:	06400713          	li	a4,100
  bc:	a8b50513          	add	a0,a0,-1397 # a8b <.L174+0x3c3>
  c0:	02100613          	li	a2,33
  c4:	4581                	li	a1,0
  c6:	955a                	add	a0,a0,s6
  c8:	97da                	add	a5,a5,s6
  ca:	01278123          	sb	s2,2(a5)
  ce:	012781a3          	sb	s2,3(a5)
  d2:	01b780a3          	sb	s11,1(a5)
  d6:	00e783a3          	sb	a4,7(a5)
  da:	01a79523          	sh	s10,10(a5)
  de:	01a79623          	sh	s10,12(a5)
  e2:	00000097          	auipc	ra,0x0
  e6:	000080e7          	jalr	ra # e2 <.L8+0x38>
  ea:	8556                	mv	a0,s5
  ec:	00000097          	auipc	ra,0x0
  f0:	000080e7          	jalr	ra # ec <.L8+0x42>
  f4:	892a                	mv	s2,a0
  f6:	18050c63          	beqz	a0,28e <.L11>
  fa:	942a                	add	s0,s0,a0
  fc:	03044703          	lbu	a4,48(s0)
 100:	4791                	li	a5,4
 102:	04e7f063          	bgeu	a5,a4,142 <.L12>
 106:	000007b7          	lui	a5,0x0
 10a:	0007a783          	lw	a5,0(a5) # 0 <sc_is_sync_frame>
 10e:	18078063          	beqz	a5,28e <.L11>
 112:	14c7a983          	lw	s3,332(a5)
 116:	16098c63          	beqz	s3,28e <.L11>
 11a:	00000ab7          	lui	s5,0x0
 11e:	000aa583          	lw	a1,0(s5) # 0 <sc_is_sync_frame>
 122:	1547a783          	lw	a5,340(a5)
 126:	c62e                	sw	a1,12(sp)
 128:	9782                	jalr	a5
 12a:	000aa703          	lw	a4,0(s5)
 12e:	45b2                	lw	a1,12(sp)
 130:	00000637          	lui	a2,0x0
 134:	86aa                	mv	a3,a0
 136:	03390793          	add	a5,s2,51
 13a:	00060613          	mv	a2,a2
 13e:	4509                	li	a0,2
 140:	9982                	jalr	s3

00000142 <.L12>:
 142:	03044783          	lbu	a5,48(s0)
 146:	15879463          	bne	a5,s8,28e <.L11>
 14a:	05494703          	lbu	a4,84(s2)
 14e:	14070063          	beqz	a4,28e <.L11>
 152:	000007b7          	lui	a5,0x0
 156:	0007a783          	lw	a5,0(a5) # 0 <sc_is_sync_frame>
 15a:	0ee48c63          	beq	s1,a4,252 <.L13>
 15e:	cb8d                	beqz	a5,190 <.L14>
 160:	14c7a403          	lw	s0,332(a5)
 164:	c415                	beqz	s0,190 <.L14>
 166:	000009b7          	lui	s3,0x0
 16a:	0009a583          	lw	a1,0(s3) # 0 <sc_is_sync_frame>
 16e:	1547a783          	lw	a5,340(a5)
 172:	c62e                	sw	a1,12(sp)
 174:	9782                	jalr	a5
 176:	05494803          	lbu	a6,84(s2)
 17a:	0009a703          	lw	a4,0(s3)
 17e:	45b2                	lw	a1,12(sp)
 180:	00000637          	lui	a2,0x0
 184:	86aa                	mv	a3,a0
 186:	87a6                	mv	a5,s1
 188:	00060613          	mv	a2,a2
 18c:	450d                	li	a0,3
 18e:	9402                	jalr	s0

00000190 <.L14>:
 190:	000a2783          	lw	a5,0(s4)
 194:	05494503          	lbu	a0,84(s2)
 198:	6705                	lui	a4,0x1
 19a:	97ba                	add	a5,a5,a4
 19c:	a2a78b23          	sb	a0,-1482(a5)
 1a0:	00000097          	auipc	ra,0x0
 1a4:	000080e7          	jalr	ra # 1a0 <.L14+0x10>

000001a8 <.L15>:
 1a8:	000a2783          	lw	a5,0(s4)
 1ac:	6705                	lui	a4,0x1
 1ae:	97ba                	add	a5,a5,a4
 1b0:	a367c783          	lbu	a5,-1482(a5)
 1b4:	e7e5                	bnez	a5,29c <.L16>

000001b6 <.L19>:
 1b6:	000a2503          	lw	a0,0(s4)
 1ba:	6785                	lui	a5,0x1
 1bc:	a8b78793          	add	a5,a5,-1397 # a8b <.L174+0x3c3>
 1c0:	953e                	add	a0,a0,a5
 1c2:	02100613          	li	a2,33
 1c6:	10090b63          	beqz	s2,2dc <.L17>
 1ca:	03390593          	add	a1,s2,51
 1ce:	00000097          	auipc	ra,0x0
 1d2:	000080e7          	jalr	ra # 1ce <.L19+0x18>

000001d6 <.L56>:
 1d6:	4785                	li	a5,1

000001d8 <.L1>:
 1d8:	40b6                	lw	ra,76(sp)
 1da:	4426                	lw	s0,72(sp)
 1dc:	4496                	lw	s1,68(sp)
 1de:	4906                	lw	s2,64(sp)
 1e0:	59f2                	lw	s3,60(sp)
 1e2:	5a62                	lw	s4,56(sp)
 1e4:	5ad2                	lw	s5,52(sp)
 1e6:	5b42                	lw	s6,48(sp)
 1e8:	5bb2                	lw	s7,44(sp)
 1ea:	5c22                	lw	s8,40(sp)
 1ec:	5c92                	lw	s9,36(sp)
 1ee:	5d02                	lw	s10,32(sp)
 1f0:	4df2                	lw	s11,28(sp)
 1f2:	853e                	mv	a0,a5
 1f4:	6161                	add	sp,sp,80
 1f6:	8082                	ret

000001f8 <.L4>:
 1f8:	0905                	add	s2,s2,1
 1fa:	bd99                	j	50 <.L3>

000001fc <.L54>:
 1fc:	4619                	li	a2,6
 1fe:	85e6                	mv	a1,s9
 200:	854e                	mv	a0,s3
 202:	00000097          	auipc	ra,0x0
 206:	000080e7          	jalr	ra # 202 <.L54+0x6>
 20a:	c62a                	sw	a0,12(sp)
 20c:	e40515e3          	bnez	a0,56 <.L21>
 210:	4619                	li	a2,6
 212:	85d6                	mv	a1,s5
 214:	855e                	mv	a0,s7
 216:	00000097          	auipc	ra,0x0
 21a:	000080e7          	jalr	ra # 216 <.L54+0x1a>
 21e:	e80506e3          	beqz	a0,aa <.L8>
 222:	47b2                	lw	a5,12(sp)
 224:	d855                	beqz	s0,1d8 <.L1>
 226:	4619                	li	a2,6
 228:	85d6                	mv	a1,s5
 22a:	855e                	mv	a0,s7
 22c:	00000097          	auipc	ra,0x0
 230:	000080e7          	jalr	ra # 22c <.L54+0x30>
 234:	4619                	li	a2,6
 236:	85e6                	mv	a1,s9
 238:	854e                	mv	a0,s3
 23a:	00000097          	auipc	ra,0x0
 23e:	000080e7          	jalr	ra # 23a <.L54+0x3e>
 242:	000b4703          	lbu	a4,0(s6)
 246:	478d                	li	a5,3
 248:	e6f711e3          	bne	a4,a5,aa <.L8>
 24c:	000b0023          	sb	zero,0(s6)
 250:	bda9                	j	aa <.L8>

00000252 <.L13>:
 252:	000a2703          	lw	a4,0(s4)
 256:	6685                	lui	a3,0x1
 258:	9736                	add	a4,a4,a3
 25a:	a2970b23          	sb	s1,-1482(a4) # a36 <.L174+0x36e>
 25e:	cf9d                	beqz	a5,29c <.L16>
 260:	14c7a403          	lw	s0,332(a5)
 264:	cc05                	beqz	s0,29c <.L16>
 266:	000009b7          	lui	s3,0x0
 26a:	0009a583          	lw	a1,0(s3) # 0 <sc_is_sync_frame>
 26e:	1547a783          	lw	a5,340(a5)
 272:	c62e                	sw	a1,12(sp)
 274:	9782                	jalr	a5
 276:	0009a703          	lw	a4,0(s3)
 27a:	45b2                	lw	a1,12(sp)
 27c:	00000637          	lui	a2,0x0
 280:	86aa                	mv	a3,a0
 282:	87a6                	mv	a5,s1
 284:	00060613          	mv	a2,a2
 288:	450d                	li	a0,3
 28a:	9402                	jalr	s0
 28c:	bf31                	j	1a8 <.L15>

0000028e <.L11>:
 28e:	000a2783          	lw	a5,0(s4)
 292:	d899                	beqz	s1,1a8 <.L15>
 294:	6705                	lui	a4,0x1
 296:	97ba                	add	a5,a5,a4
 298:	a2978b23          	sb	s1,-1482(a5)

0000029c <.L16>:
 29c:	000007b7          	lui	a5,0x0
 2a0:	0007a783          	lw	a5,0(a5) # 0 <sc_is_sync_frame>
 2a4:	00000537          	lui	a0,0x0
 2a8:	00050513          	mv	a0,a0
 2ac:	0e47a783          	lw	a5,228(a5)
 2b0:	9782                	jalr	a5
 2b2:	000007b7          	lui	a5,0x0
 2b6:	00078023          	sb	zero,0(a5) # 0 <sc_is_sync_frame>
 2ba:	000a2783          	lw	a5,0(s4)
 2be:	6705                	lui	a4,0x1
 2c0:	4581                	li	a1,0
 2c2:	97ba                	add	a5,a5,a4
 2c4:	a367c503          	lbu	a0,-1482(a5)
 2c8:	00000097          	auipc	ra,0x0
 2cc:	000080e7          	jalr	ra # 2c8 <.L16+0x2c>
 2d0:	4501                	li	a0,0
 2d2:	00000097          	auipc	ra,0x0
 2d6:	000080e7          	jalr	ra # 2d2 <.L16+0x36>
 2da:	bdf1                	j	1b6 <.L19>

000002dc <.L17>:
 2dc:	4581                	li	a1,0
 2de:	00000097          	auipc	ra,0x0
 2e2:	000080e7          	jalr	ra # 2de <.L17+0x2>
 2e6:	000007b7          	lui	a5,0x0
 2ea:	0007a703          	lw	a4,0(a5) # 0 <sc_is_sync_frame>
 2ee:	4785                	li	a5,1
 2f0:	ee0704e3          	beqz	a4,1d8 <.L1>
 2f4:	14c72403          	lw	s0,332(a4) # 114c <.L174+0xa84>
 2f8:	ee0400e3          	beqz	s0,1d8 <.L1>
 2fc:	000004b7          	lui	s1,0x0
 300:	0004a583          	lw	a1,0(s1) # 0 <sc_is_sync_frame>
 304:	15472783          	lw	a5,340(a4)
 308:	c62e                	sw	a1,12(sp)
 30a:	9782                	jalr	a5
 30c:	0004a703          	lw	a4,0(s1)
 310:	45b2                	lw	a1,12(sp)
 312:	00000637          	lui	a2,0x0
 316:	86aa                	mv	a3,a0
 318:	00060613          	mv	a2,a2
 31c:	450d                	li	a0,3
 31e:	9402                	jalr	s0
 320:	bd5d                	j	1d6 <.L56>

Disassembly of section .text.sc_get_data_score:

00000000 <sc_get_data_score>:
   0:	40a58633          	sub	a2,a1,a0
   4:	6505                	lui	a0,0x1
   6:	157d                	add	a0,a0,-1 # fff <.L174+0x937>
   8:	8e69                	and	a2,a2,a0
   a:	0642                	sll	a2,a2,0x10
   c:	8241                	srl	a2,a2,0x10
   e:	fff60813          	add	a6,a2,-1 # ffffffff <.L174+0xfffff937>
  12:	0842                	sll	a6,a6,0x10
  14:	01085813          	srl	a6,a6,0x10
  18:	3e600893          	li	a7,998
  1c:	0708e663          	bltu	a7,a6,88 <.L61>
  20:	4851                	li	a6,20
  22:	030787b3          	mul	a5,a5,a6
  26:	00000837          	lui	a6,0x0
  2a:	00082803          	lw	a6,0(a6) # 0 <sc_get_data_score>
  2e:	983e                	add	a6,a6,a5
  30:	00c85783          	lhu	a5,12(a6)
  34:	8d9d                	sub	a1,a1,a5
  36:	8de9                	and	a1,a1,a0
  38:	15fd                	add	a1,a1,-1 # ffffffff <.L174+0xfffff937>
  3a:	05c2                	sll	a1,a1,0x10
  3c:	81c1                	srl	a1,a1,0x10
  3e:	4501                	li	a0,0
  40:	04b8e563          	bltu	a7,a1,8a <.L58>
  44:	04d77363          	bgeu	a4,a3,8a <.L58>
  48:	8e99                	sub	a3,a3,a4
  4a:	16f9                	add	a3,a3,-2 # ffe <.L174+0x936>
  4c:	9636                	add	a2,a2,a3
  4e:	0642                	sll	a2,a2,0x10
  50:	000006b7          	lui	a3,0x0
  54:	8241                	srl	a2,a2,0x10
  56:	4781                	li	a5,0
  58:	00068693          	mv	a3,a3

0000005c <.L59>:
  5c:	00279713          	sll	a4,a5,0x2
  60:	9736                	add	a4,a4,a3
  62:	00075583          	lhu	a1,0(a4)
  66:	00c5ed63          	bltu	a1,a2,80 <.L60>
  6a:	00274703          	lbu	a4,2(a4)
  6e:	00784783          	lbu	a5,7(a6)
  72:	4505                	li	a0,1
  74:	00f77b63          	bgeu	a4,a5,8a <.L58>
  78:	8f99                	sub	a5,a5,a4
  7a:	0ff7f513          	zext.b	a0,a5
  7e:	8082                	ret

00000080 <.L60>:
  80:	0785                	add	a5,a5,1
  82:	0ff7f793          	zext.b	a5,a5
  86:	bfd9                	j	5c <.L59>

00000088 <.L61>:
  88:	4501                	li	a0,0

0000008a <.L58>:
  8a:	8082                	ret

Disassembly of section .text.sc_try_to_sync_pos:

00000000 <sc_try_to_sync_pos>:
   0:	7179                	add	sp,sp,-48
   2:	d422                	sw	s0,40(sp)
   4:	d226                	sw	s1,36(sp)
   6:	d04a                	sw	s2,32(sp)
   8:	84aa                	mv	s1,a0
   a:	ce4e                	sw	s3,28(sp)
   c:	cc52                	sw	s4,24(sp)
   e:	ca56                	sw	s5,20(sp)
  10:	c65e                	sw	s7,12(sp)
  12:	893a                	mv	s2,a4
  14:	d606                	sw	ra,44(sp)
  16:	c85a                	sw	s6,16(sp)
  18:	c462                	sw	s8,8(sp)
  1a:	00000097          	auipc	ra,0x0
  1e:	000080e7          	jalr	ra # 1a <sc_try_to_sync_pos+0x1a>
  22:	02400313          	li	t1,36
  26:	02648333          	mul	t1,s1,t1
  2a:	4e000593          	li	a1,1248
  2e:	13800693          	li	a3,312
  32:	000007b7          	lui	a5,0x0
  36:	0007a883          	lw	a7,0(a5) # 0 <sc_try_to_sync_pos>
  3a:	6785                	lui	a5,0x1
  3c:	9ec78793          	add	a5,a5,-1556 # 9ec <.L174+0x324>
  40:	4a89                	li	s5,2
  42:	49a1                	li	s3,8
  44:	547d                	li	s0,-1
  46:	02b485b3          	mul	a1,s1,a1
  4a:	979a                	add	a5,a5,t1
  4c:	00f883b3          	add	t2,a7,a5
  50:	4a01                	li	s4,0
  52:	4781                	li	a5,0
  54:	4705                	li	a4,1
  56:	4ba5                	li	s7,9
  58:	02d486b3          	mul	a3,s1,a3
  5c:	95c6                	add	a1,a1,a7

0000005e <.L66>:
  5e:	82ae                	mv	t0,a1
  60:	4e01                	li	t3,0
  62:	4081                	li	ra,0

00000064 <.L67>:
  64:	00ae4e63          	blt	t3,a0,80 <.L94>
  68:	12009863          	bnez	ra,198 <.L74>
  6c:	4a05                	li	s4,1
  6e:	00ea9763          	bne	s5,a4,7c <.L95>
  72:	577d                	li	a4,-1
  74:	06e91763          	bne	s2,a4,e2 <.L92>

00000078 <.L115>:
  78:	547d                	li	s0,-1
  7a:	a2a1                	j	1c2 <.L84>

0000007c <.L95>:
  7c:	4a85                	li	s5,1
  7e:	b7c5                	j	5e <.L66>

00000080 <.L94>:
  80:	8816                	mv	a6,t0
  82:	8f9e                	mv	t6,t2
  84:	06400e93          	li	t4,100
  88:	4f05                	li	t5,1
  8a:	4601                	li	a2,0

0000008c <.L72>:
  8c:	002fcb03          	lbu	s6,2(t6)
  90:	000b0a63          	beqz	s6,a4 <.L68>
  94:	020a0863          	beqz	s4,c4 <.L69>
  98:	02e84b03          	lbu	s6,46(a6)
  9c:	01676463          	bltu	a4,s6,a4 <.L68>
  a0:	0605                	add	a2,a2,1
  a2:	8ed2                	mv	t4,s4

000000a4 <.L68>:
  a4:	0f05                	add	t5,t5,1
  a6:	0f91                	add	t6,t6,4
  a8:	0811                	add	a6,a6,4
  aa:	ff7f11e3          	bne	t5,s7,8c <.L72>

000000ae <.L70>:
  ae:	00c0d763          	bge	ra,a2,bc <.L73>
  b2:	ffff0993          	add	s3,t5,-1
  b6:	87f6                	mv	a5,t4
  b8:	8472                	mv	s0,t3
  ba:	80b2                	mv	ra,a2

000000bc <.L73>:
  bc:	0e21                	add	t3,t3,8
  be:	02028293          	add	t0,t0,32
  c2:	b74d                	j	64 <.L67>

000000c4 <.L69>:
  c4:	02c85b03          	lhu	s6,44(a6)
  c8:	fc0b0ee3          	beqz	s6,a4 <.L68>
  cc:	000fdc03          	lhu	s8,0(t6)
  d0:	fd6c1fe3          	bne	s8,s6,ae <.L70>
  d4:	02e84b03          	lbu	s6,46(a6)
  d8:	0605                	add	a2,a2,1
  da:	fddb55e3          	bge	s6,t4,a4 <.L68>
  de:	8eda                	mv	t4,s6
  e0:	b7d1                	j	a4 <.L68>

000000e2 <.L92>:
  e2:	1961                	add	s2,s2,-8
  e4:	00095763          	bgez	s2,f2 <.L76>
  e8:	4721                	li	a4,8
  ea:	02e54733          	div	a4,a0,a4
  ee:	00371913          	sll	s2,a4,0x3

000000f2 <.L76>:
  f2:	10009863          	bnez	ra,202 <.L78>

000000f6 <.L101>:
  f6:	4789                	li	a5,2
  f8:	a035                	j	124 <.L77>

000000fa <.L79>:
  fa:	4709                	li	a4,2
  fc:	00e09763          	bne	ra,a4,10a <.L82>
 100:	4751                	li	a4,20
 102:	0af75563          	bge	a4,a5,1ac <.L81>
 106:	47d1                	li	a5,20
 108:	a055                	j	1ac <.L81>

0000010a <.L82>:
 10a:	4721                	li	a4,8
 10c:	f61746e3          	blt	a4,ra,78 <.L115>
 110:	4779                	li	a4,30
 112:	08f75d63          	bge	a4,a5,1ac <.L81>
 116:	47f9                	li	a5,30
 118:	a851                	j	1ac <.L81>

0000011a <.L87>:
 11a:	4705                	li	a4,1
 11c:	00e08463          	beq	ra,a4,124 <.L77>
 120:	080a0d63          	beqz	s4,1ba <.L86>

00000124 <.L77>:
 124:	45d1                	li	a1,20
 126:	02b485b3          	mul	a1,s1,a1
 12a:	96ca                	add	a3,a3,s2
 12c:	068a                	sll	a3,a3,0x2
 12e:	0ff7f713          	zext.b	a4,a5
 132:	00190613          	add	a2,s2,1
 136:	96c6                	add	a3,a3,a7
 138:	00990e93          	add	t4,s2,9
 13c:	547d                	li	s0,-1
 13e:	99ca                	add	s3,s3,s2
 140:	4f05                	li	t5,1
 142:	95c6                	add	a1,a1,a7
 144:	00170f93          	add	t6,a4,1

00000148 <.L88>:
 148:	06c9cd63          	blt	s3,a2,1c2 <.L84>
 14c:	07d60b63          	beq	a2,t4,1c2 <.L84>
 150:	06a65963          	bge	a2,a0,1c2 <.L84>
 154:	02e6c803          	lbu	a6,46(a3) # 2e <sc_try_to_sync_pos+0x2e>
 158:	02f85c63          	bge	a6,a5,190 <.L89>
 15c:	0023c803          	lbu	a6,2(t2)
 160:	02080863          	beqz	a6,190 <.L89>
 164:	0003de03          	lhu	t3,0(t2)
 168:	03c69623          	sh	t3,44(a3)
 16c:	8e3a                	mv	t3,a4
 16e:	0107c663          	blt	a5,a6,17a <.L90>
 172:	410f8833          	sub	a6,t6,a6
 176:	0ff87e13          	zext.b	t3,a6

0000017a <.L90>:
 17a:	03c68723          	sb	t3,46(a3)
 17e:	0045c803          	lbu	a6,4(a1)
 182:	01e58323          	sb	t5,6(a1)
 186:	4401                	li	s0,0
 188:	00c85463          	bge	a6,a2,190 <.L89>
 18c:	00c58223          	sb	a2,4(a1)

00000190 <.L89>:
 190:	0605                	add	a2,a2,1
 192:	0691                	add	a3,a3,4
 194:	0391                	add	t2,t2,4
 196:	bf4d                	j	148 <.L88>

00000198 <.L74>:
 198:	577d                	li	a4,-1
 19a:	f4e914e3          	bne	s2,a4,e2 <.L92>

0000019e <.L93>:
 19e:	4705                	li	a4,1
 1a0:	f4e09de3          	bne	ra,a4,fa <.L79>
 1a4:	4729                	li	a4,10
 1a6:	00f75363          	bge	a4,a5,1ac <.L81>
 1aa:	47a9                	li	a5,10

000001ac <.L81>:
 1ac:	577d                	li	a4,-1
 1ae:	00e90663          	beq	s2,a4,1ba <.L86>
 1b2:	f72414e3          	bne	s0,s2,11a <.L87>
 1b6:	0789                	add	a5,a5,2
 1b8:	49a1                	li	s3,8

000001ba <.L86>:
 1ba:	577d                	li	a4,-1
 1bc:	8922                	mv	s2,s0
 1be:	f6e413e3          	bne	s0,a4,124 <.L77>

000001c2 <.L84>:
 1c2:	47d1                	li	a5,20
 1c4:	02f487b3          	mul	a5,s1,a5
 1c8:	02400613          	li	a2,36
 1cc:	4581                	li	a1,0
 1ce:	97c6                	add	a5,a5,a7
 1d0:	00078423          	sb	zero,8(a5)
 1d4:	6785                	lui	a5,0x1
 1d6:	9e878793          	add	a5,a5,-1560 # 9e8 <.L174+0x320>
 1da:	979a                	add	a5,a5,t1
 1dc:	00f88533          	add	a0,a7,a5
 1e0:	00000097          	auipc	ra,0x0
 1e4:	000080e7          	jalr	ra # 1e0 <.L84+0x1e>
 1e8:	50b2                	lw	ra,44(sp)
 1ea:	8522                	mv	a0,s0
 1ec:	5422                	lw	s0,40(sp)
 1ee:	5492                	lw	s1,36(sp)
 1f0:	5902                	lw	s2,32(sp)
 1f2:	49f2                	lw	s3,28(sp)
 1f4:	4a62                	lw	s4,24(sp)
 1f6:	4ad2                	lw	s5,20(sp)
 1f8:	4b42                	lw	s6,16(sp)
 1fa:	4bb2                	lw	s7,12(sp)
 1fc:	4c22                	lw	s8,8(sp)
 1fe:	6145                	add	sp,sp,48
 200:	8082                	ret

00000202 <.L78>:
 202:	f80a0ee3          	beqz	s4,19e <.L93>
 206:	bdc5                	j	f6 <.L101>

Disassembly of section .text.sc_try_to_replace_same_pos:

00000000 <sc_try_to_replace_same_pos>:
   0:	1141                	add	sp,sp,-16
   2:	c422                	sw	s0,8(sp)
   4:	c226                	sw	s1,4(sp)
   6:	842a                	mv	s0,a0
   8:	84ae                	mv	s1,a1
   a:	c04a                	sw	s2,0(sp)
   c:	c606                	sw	ra,12(sp)
   e:	8932                	mv	s2,a2
  10:	00000097          	auipc	ra,0x0
  14:	000080e7          	jalr	ra # 10 <sc_try_to_replace_same_pos+0x10>
  18:	4721                	li	a4,8
  1a:	02e4e733          	rem	a4,s1,a4
  1e:	000007b7          	lui	a5,0x0
  22:	0007a683          	lw	a3,0(a5) # 0 <sc_try_to_replace_same_pos>
  26:	13800793          	li	a5,312
  2a:	4e000613          	li	a2,1248
  2e:	0542                	sll	a0,a0,0x10
  30:	4801                	li	a6,0
  32:	4881                	li	a7,0
  34:	8141                	srl	a0,a0,0x10
  36:	02f407b3          	mul	a5,s0,a5
  3a:	02c40633          	mul	a2,s0,a2
  3e:	97a6                	add	a5,a5,s1
  40:	07a1                	add	a5,a5,8
  42:	078a                	sll	a5,a5,0x2
  44:	97b6                	add	a5,a5,a3

00000046 <.L118>:
  46:	02e55963          	bge	a0,a4,78 <.L121>
  4a:	00088463          	beqz	a7,52 <.L122>
  4e:	00080463          	beqz	a6,56 <.L123>

00000052 <.L122>:
  52:	4501                	li	a0,0
  54:	ec01                	bnez	s0,6c <.L117>

00000056 <.L123>:
  56:	13800793          	li	a5,312
  5a:	02f40433          	mul	s0,s0,a5
  5e:	4505                	li	a0,1
  60:	9426                	add	s0,s0,s1
  62:	0421                	add	s0,s0,8
  64:	040a                	sll	s0,s0,0x2
  66:	96a2                	add	a3,a3,s0
  68:	01269423          	sh	s2,8(a3)

0000006c <.L117>:
  6c:	40b2                	lw	ra,12(sp)
  6e:	4422                	lw	s0,8(sp)
  70:	4492                	lw	s1,4(sp)
  72:	4902                	lw	s2,0(sp)
  74:	0141                	add	sp,sp,16
  76:	8082                	ret

00000078 <.L121>:
  78:	00271593          	sll	a1,a4,0x2
  7c:	95b2                	add	a1,a1,a2
  7e:	95b6                	add	a1,a1,a3
  80:	0285d583          	lhu	a1,40(a1)
  84:	00970763          	beq	a4,s1,92 <.L119>
  88:	0087d303          	lhu	t1,8(a5)
  8c:	00b31363          	bne	t1,a1,92 <.L119>
  90:	4885                	li	a7,1

00000092 <.L119>:
  92:	01259363          	bne	a1,s2,98 <.L120>
  96:	4805                	li	a6,1

00000098 <.L120>:
  98:	0721                	add	a4,a4,8
  9a:	b775                	j	46 <.L118>

Disassembly of section .text.sc_recv_callback_broadcast:

00000000 <sc_recv_callback_broadcast>:
   0:	7119                	add	sp,sp,-128
   2:	d6ce                	sw	s3,108(sp)
   4:	89aa                	mv	s3,a0
   6:	dca2                	sw	s0,120(sp)
   8:	daa6                	sw	s1,116(sp)
   a:	d8ca                	sw	s2,112(sp)
   c:	d4d2                	sw	s4,104(sp)
   e:	d2d6                	sw	s5,100(sp)
  10:	d0da                	sw	s6,96(sp)
  12:	cae6                	sw	s9,84(sp)
  14:	c8ea                	sw	s10,80(sp)
  16:	c6ee                	sw	s11,76(sp)
  18:	de86                	sw	ra,124(sp)
  1a:	cede                	sw	s7,92(sp)
  1c:	cce2                	sw	s8,88(sp)
  1e:	00000097          	auipc	ra,0x0
  22:	000080e7          	jalr	ra # 1e <sc_recv_callback_broadcast+0x1e>
  26:	0149c403          	lbu	s0,20(s3)
  2a:	4ad1                	li	s5,20
  2c:	00c9a783          	lw	a5,12(s3)
  30:	03540ab3          	mul	s5,s0,s5
  34:	00000937          	lui	s2,0x0
  38:	00092c83          	lw	s9,0(s2) # 0 <sc_recv_callback_broadcast>
  3c:	ce3e                	sw	a5,28(sp)
  3e:	0159c783          	lbu	a5,21(s3)
  42:	8d2a                	mv	s10,a0
  44:	0089ab03          	lw	s6,8(s3)
  48:	d23e                	sw	a5,36(sp)
  4a:	0109ad83          	lw	s11,16(s3)
  4e:	0049da03          	lhu	s4,4(s3)
  52:	015c87b3          	add	a5,s9,s5
  56:	0007c703          	lbu	a4,0(a5)
  5a:	d03e                	sw	a5,32(sp)
  5c:	0029d483          	lhu	s1,2(s3)
  60:	0009c503          	lbu	a0,0(s3)
  64:	16071563          	bnez	a4,1ce <.L135>
  68:	5712                	lw	a4,36(sp)
  6a:	866e                	mv	a2,s11
  6c:	8852                	mv	a6,s4
  6e:	87a2                	mv	a5,s0
  70:	86da                	mv	a3,s6
  72:	85a6                	mv	a1,s1
  74:	00000097          	auipc	ra,0x0
  78:	000080e7          	jalr	ra # 74 <sc_recv_callback_broadcast+0x74>
  7c:	8daa                	mv	s11,a0
  7e:	4b81                	li	s7,0
  80:	12050863          	beqz	a0,1b0 <.L136>
  84:	5612                	lw	a2,36(sp)
  86:	85a2                	mv	a1,s0
  88:	450d                	li	a0,3
  8a:	00000097          	auipc	ra,0x0
  8e:	000080e7          	jalr	ra # 8a <sc_recv_callback_broadcast+0x8a>
  92:	000007b7          	lui	a5,0x0
  96:	0007a783          	lw	a5,0(a5) # 0 <sc_recv_callback_broadcast>
  9a:	4705                	li	a4,1
  9c:	000009b7          	lui	s3,0x0
  a0:	0007c683          	lbu	a3,0(a5)
  a4:	0ce68263          	beq	a3,a4,168 <.L137>
  a8:	00e78023          	sb	a4,0(a5)
  ac:	000007b7          	lui	a5,0x0
  b0:	00078793          	mv	a5,a5
  b4:	468d                	li	a3,3
  b6:	cbd4                	sw	a3,20(a5)
  b8:	00e78ca3          	sb	a4,25(a5) # 19 <sc_recv_callback_broadcast+0x19>
  bc:	0009a783          	lw	a5,0(s3) # 0 <sc_recv_callback_broadcast>
  c0:	c79d                	beqz	a5,ee <.L138>
  c2:	14c7aa83          	lw	s5,332(a5)
  c6:	020a8463          	beqz	s5,ee <.L138>
  ca:	00000b37          	lui	s6,0x0
  ce:	000b2583          	lw	a1,0(s6) # 0 <sc_recv_callback_broadcast>
  d2:	1547a783          	lw	a5,340(a5)
  d6:	ce2e                	sw	a1,28(sp)
  d8:	9782                	jalr	a5
  da:	000b2703          	lw	a4,0(s6)
  de:	45f2                	lw	a1,28(sp)
  e0:	00000637          	lui	a2,0x0
  e4:	86aa                	mv	a3,a0
  e6:	00060613          	mv	a2,a2
  ea:	450d                	li	a0,3
  ec:	9a82                	jalr	s5

000000ee <.L138>:
  ee:	0009a783          	lw	a5,0(s3)
  f2:	00000ab7          	lui	s5,0x0
  f6:	000a8513          	mv	a0,s5
  fa:	0e47a783          	lw	a5,228(a5)
  fe:	9782                	jalr	a5
 100:	0009a783          	lw	a5,0(s3)
 104:	000a8513          	mv	a0,s5
 108:	0e87a783          	lw	a5,232(a5)
 10c:	9782                	jalr	a5
 10e:	0009a783          	lw	a5,0(s3)
 112:	000005b7          	lui	a1,0x0
 116:	4601                	li	a2,0
 118:	0ec7a783          	lw	a5,236(a5)
 11c:	00058593          	mv	a1,a1
 120:	000a8513          	mv	a0,s5
 124:	9782                	jalr	a5
 126:	000007b7          	lui	a5,0x0
 12a:	0007c583          	lbu	a1,0(a5) # 0 <sc_recv_callback_broadcast>
 12e:	3e800713          	li	a4,1000
 132:	0009a783          	lw	a5,0(s3)
 136:	02e585b3          	mul	a1,a1,a4
 13a:	4601                	li	a2,0
 13c:	0e07a783          	lw	a5,224(a5)
 140:	000a8513          	mv	a0,s5
 144:	9782                	jalr	a5
 146:	0009a783          	lw	a5,0(s3)
 14a:	00000537          	lui	a0,0x0
 14e:	00052503          	lw	a0,0(a0) # 0 <sc_recv_callback_broadcast>
 152:	0b47a783          	lw	a5,180(a5)
 156:	577d                	li	a4,-1
 158:	4681                	li	a3,0
 15a:	4601                	li	a2,0
 15c:	4585                	li	a1,1
 15e:	9782                	jalr	a5
 160:	000007b7          	lui	a5,0x0
 164:	0007a023          	sw	zero,0(a5) # 0 <sc_recv_callback_broadcast>

00000168 <.L137>:
 168:	0009a783          	lw	a5,0(s3)
 16c:	c3a1                	beqz	a5,1ac <.L173>
 16e:	14c7a983          	lw	s3,332(a5)
 172:	02098d63          	beqz	s3,1ac <.L173>
 176:	00000ab7          	lui	s5,0x0
 17a:	000aa583          	lw	a1,0(s5) # 0 <sc_recv_callback_broadcast>
 17e:	1547a783          	lw	a5,340(a5)
 182:	ce2e                	sw	a1,28(sp)
 184:	9782                	jalr	a5
 186:	4751                	li	a4,20
 188:	02e40733          	mul	a4,s0,a4
 18c:	00092783          	lw	a5,0(s2)
 190:	45f2                	lw	a1,28(sp)
 192:	00000637          	lui	a2,0x0
 196:	86aa                	mv	a3,a0
 198:	8822                	mv	a6,s0
 19a:	00060613          	mv	a2,a2
 19e:	450d                	li	a0,3
 1a0:	97ba                	add	a5,a5,a4
 1a2:	0017c783          	lbu	a5,1(a5)
 1a6:	000aa703          	lw	a4,0(s5)
 1aa:	9982                	jalr	s3

000001ac <.L173>:
 1ac:	4b81                	li	s7,0
 1ae:	4d8d                	li	s11,3

000001b0 <.L136>:
 1b0:	4751                	li	a4,20
 1b2:	02e40433          	mul	s0,s0,a4
 1b6:	00092783          	lw	a5,0(s2)
 1ba:	97a2                	add	a5,a5,s0
 1bc:	01479623          	sh	s4,12(a5)
 1c0:	01a7a823          	sw	s10,16(a5)
 1c4:	017782a3          	sb	s7,5(a5)
 1c8:	00979723          	sh	s1,14(a5)
 1cc:	a005                	j	1ec <.L134>

000001ce <.L135>:
 1ce:	468d                	li	a3,3
 1d0:	4ed71c63          	bne	a4,a3,6c8 <.L174>
 1d4:	6b85                	lui	s7,0x1
 1d6:	a30b8593          	add	a1,s7,-1488 # a30 <.L174+0x368>
 1da:	4619                	li	a2,6
 1dc:	95e6                	add	a1,a1,s9
 1de:	855a                	mv	a0,s6
 1e0:	00000097          	auipc	ra,0x0
 1e4:	000080e7          	jalr	ra # 1e0 <.L135+0x12>
 1e8:	c115                	beqz	a0,20c <.L139>

000001ea <.L141>:
 1ea:	4d81                	li	s11,0

000001ec <.L134>:
 1ec:	50f6                	lw	ra,124(sp)
 1ee:	5466                	lw	s0,120(sp)
 1f0:	54d6                	lw	s1,116(sp)
 1f2:	5946                	lw	s2,112(sp)
 1f4:	59b6                	lw	s3,108(sp)
 1f6:	5a26                	lw	s4,104(sp)
 1f8:	5a96                	lw	s5,100(sp)
 1fa:	5b06                	lw	s6,96(sp)
 1fc:	4bf6                	lw	s7,92(sp)
 1fe:	4c66                	lw	s8,88(sp)
 200:	4cd6                	lw	s9,84(sp)
 202:	4d46                	lw	s10,80(sp)
 204:	856e                	mv	a0,s11
 206:	4db6                	lw	s11,76(sp)
 208:	6109                	add	sp,sp,128
 20a:	8082                	ret

0000020c <.L139>:
 20c:	4572                	lw	a0,28(sp)
 20e:	000005b7          	lui	a1,0x0
 212:	4619                	li	a2,6
 214:	00058593          	mv	a1,a1
 218:	00000097          	auipc	ra,0x0
 21c:	000080e7          	jalr	ra # 218 <.L139+0xc>
 220:	f569                	bnez	a0,1ea <.L141>
 222:	aeeb8593          	add	a1,s7,-1298
 226:	856e                	mv	a0,s11
 228:	4619                	li	a2,6
 22a:	95e6                	add	a1,a1,s9
 22c:	00000097          	auipc	ra,0x0
 230:	000080e7          	jalr	ra # 22c <.L139+0x20>
 234:	8daa                	mv	s11,a0
 236:	f955                	bnez	a0,1ea <.L141>
 238:	015c87b3          	add	a5,s9,s5
 23c:	4b98                	lw	a4,16(a5)
 23e:	19000613          	li	a2,400
 242:	4c01                	li	s8,0
 244:	40ed05b3          	sub	a1,s10,a4
 248:	00b67963          	bgeu	a2,a1,25a <.L142>
 24c:	9be6                	add	s7,s7,s9
 24e:	a37bcc03          	lbu	s8,-1481(s7)
 252:	000c0463          	beqz	s8,25a <.L142>
 256:	01a73c33          	sltu	s8,a4,s10

0000025a <.L142>:
 25a:	015c87b3          	add	a5,s9,s5
 25e:	00c7d703          	lhu	a4,12(a5)
 262:	3e700613          	li	a2,999
 266:	40ea0733          	sub	a4,s4,a4
 26a:	0752                	sll	a4,a4,0x14
 26c:	8351                	srl	a4,a4,0x14
 26e:	14e66363          	bltu	a2,a4,3b4 <.L143>
 272:	12070963          	beqz	a4,3a4 <.L144>

00000276 <.L146>:
 276:	5782                	lw	a5,32(sp)
 278:	0017c783          	lbu	a5,1(a5)
 27c:	f697f7e3          	bgeu	a5,s1,1ea <.L141>
 280:	40f487b3          	sub	a5,s1,a5
 284:	01079493          	sll	s1,a5,0x10
 288:	80c1                	srl	s1,s1,0x10
 28a:	8526                	mv	a0,s1
 28c:	00000097          	auipc	ra,0x0
 290:	000080e7          	jalr	ra # 28c <.L146+0x16>
 294:	2e050d63          	beqz	a0,58e <.L147>
 298:	8526                	mv	a0,s1
 29a:	00000097          	auipc	ra,0x0
 29e:	000080e7          	jalr	ra # 29a <.L146+0x24>
 2a2:	00092783          	lw	a5,0(s2)
 2a6:	01051b93          	sll	s7,a0,0x10
 2aa:	010bdb93          	srl	s7,s7,0x10
 2ae:	97d6                	add	a5,a5,s5
 2b0:	4721                	li	a4,8
 2b2:	0027ca83          	lbu	s5,2(a5)
 2b6:	8caa                	mv	s9,a0
 2b8:	f37769e3          	bltu	a4,s7,1ea <.L141>
 2bc:	015b8733          	add	a4,s7,s5
 2c0:	01071d93          	sll	s11,a4,0x10
 2c4:	0057c703          	lbu	a4,5(a5)
 2c8:	010ddd93          	srl	s11,s11,0x10
 2cc:	00e56a63          	bltu	a0,a4,2e0 <.L148>
 2d0:	00e51663          	bne	a0,a4,2dc <.L149>
 2d4:	00e7d703          	lhu	a4,14(a5)
 2d8:	00971463          	bne	a4,s1,2e0 <.L148>

000002dc <.L149>:
 2dc:	020c0963          	beqz	s8,30e <.L150>

000002e0 <.L148>:
 2e0:	0087c703          	lbu	a4,8(a5)
 2e4:	cf01                	beqz	a4,2fc <.L151>
 2e6:	00c7d583          	lhu	a1,12(a5)
 2ea:	577d                	li	a4,-1
 2ec:	86d6                	mv	a3,s5
 2ee:	0ffa7613          	zext.b	a2,s4
 2f2:	8522                	mv	a0,s0
 2f4:	00000097          	auipc	ra,0x0
 2f8:	000080e7          	jalr	ra # 2f4 <.L148+0x14>

000002fc <.L151>:
 2fc:	4751                	li	a4,20
 2fe:	02e40733          	mul	a4,s0,a4
 302:	00092783          	lw	a5,0(s2)
 306:	97ba                	add	a5,a5,a4
 308:	4705                	li	a4,1
 30a:	00e78423          	sb	a4,8(a5)

0000030e <.L150>:
 30e:	00ad8793          	add	a5,s11,10
 312:	078a                	sll	a5,a5,0x2
 314:	9ae6                	add	s5,s5,s9
 316:	d63e                	sw	a5,44(sp)
 318:	0ffaf793          	zext.b	a5,s5
 31c:	d43e                	sw	a5,40(sp)
 31e:	000007b7          	lui	a5,0x0
 322:	00078793          	mv	a5,a5
 326:	da3e                	sw	a5,52(sp)
 328:	fffd8793          	add	a5,s11,-1
 32c:	07c2                	sll	a5,a5,0x10
 32e:	83c1                	srl	a5,a5,0x10
 330:	dc3e                	sw	a5,56(sp)

00000332 <.L168>:
 332:	4751                	li	a4,20
 334:	02e40ab3          	mul	s5,s0,a4
 338:	00092503          	lw	a0,0(s2)
 33c:	01550833          	add	a6,a0,s5
 340:	00884783          	lbu	a5,8(a6)
 344:	c3d9                	beqz	a5,3ca <.L152>
 346:	47a5                	li	a5,9
 348:	02f407b3          	mul	a5,s0,a5
 34c:	27ac8713          	add	a4,s9,634
 350:	4672                	lw	a2,28(sp)
 352:	86a2                	mv	a3,s0
 354:	85da                	mv	a1,s6
 356:	97ba                	add	a5,a5,a4
 358:	078a                	sll	a5,a5,0x2
 35a:	8726                	mv	a4,s1
 35c:	953e                	add	a0,a0,a5
 35e:	00000097          	auipc	ra,0x0
 362:	000080e7          	jalr	ra # 35e <.L168+0x2c>
 366:	00092583          	lw	a1,0(s2)
 36a:	4785                	li	a5,1
 36c:	4685                	li	a3,1
 36e:	01558733          	add	a4,a1,s5
 372:	00874603          	lbu	a2,8(a4)
 376:	00f60863          	beq	a2,a5,386 <.L153>
 37a:	00c75683          	lhu	a3,12(a4)
 37e:	40da06b3          	sub	a3,s4,a3
 382:	0ff6f693          	zext.b	a3,a3

00000386 <.L153>:
 386:	47a5                	li	a5,9
 388:	02f407b3          	mul	a5,s0,a5
 38c:	0605                	add	a2,a2,1 # 1 <sc_recv_callback_broadcast+0x1>
 38e:	97e6                	add	a5,a5,s9
 390:	27878793          	add	a5,a5,632 # 278 <.L146+0x2>
 394:	078a                	sll	a5,a5,0x2
 396:	95be                	add	a1,a1,a5
 398:	00d58523          	sb	a3,10(a1) # a <sc_recv_callback_broadcast+0xa>
 39c:	00c70423          	sb	a2,8(a4)

000003a0 <.L178>:
 3a0:	4d91                	li	s11,4
 3a2:	b539                	j	1b0 <.L136>

000003a4 <.L144>:
 3a4:	4751                	li	a4,20
 3a6:	02e40733          	mul	a4,s0,a4
 3aa:	00ec87b3          	add	a5,s9,a4
 3ae:	01a7a823          	sw	s10,16(a5)
 3b2:	bd2d                	j	1ec <.L134>

000003b4 <.L143>:
 3b4:	4751                	li	a4,20
 3b6:	02e40733          	mul	a4,s0,a4
 3ba:	00ec87b3          	add	a5,s9,a4
 3be:	01a7a823          	sw	s10,16(a5)
 3c2:	ea0c1ae3          	bnez	s8,276 <.L146>
 3c6:	4b81                	li	s7,0
 3c8:	b3e5                	j	1b0 <.L136>

000003ca <.L152>:
 3ca:	00384703          	lbu	a4,3(a6)
 3ce:	56a2                	lw	a3,40(sp)
 3d0:	00c85603          	lhu	a2,12(a6)
 3d4:	00a85503          	lhu	a0,10(a6)
 3d8:	87a2                	mv	a5,s0
 3da:	85d2                	mv	a1,s4
 3dc:	d042                	sw	a6,32(sp)
 3de:	00000097          	auipc	ra,0x0
 3e2:	000080e7          	jalr	ra # 3de <.L152+0x14>
 3e6:	8c2a                	mv	s8,a0
 3e8:	dd45                	beqz	a0,3a0 <.L178>
 3ea:	5802                	lw	a6,32(sp)
 3ec:	00784783          	lbu	a5,7(a6)
 3f0:	00f57463          	bgeu	a0,a5,3f8 <.L154>
 3f4:	00a803a3          	sb	a0,7(a6)

000003f8 <.L154>:
 3f8:	57d2                	lw	a5,52(sp)
 3fa:	01481523          	sh	s4,10(a6)
 3fe:	0187c703          	lbu	a4,24(a5)
 402:	4785                	li	a5,1
 404:	04f71d63          	bne	a4,a5,45e <.L155>
 408:	000007b7          	lui	a5,0x0
 40c:	0007a783          	lw	a5,0(a5) # 0 <sc_recv_callback_broadcast>
 410:	c7b9                	beqz	a5,45e <.L155>
 412:	14c7aa83          	lw	s5,332(a5)
 416:	040a8463          	beqz	s5,45e <.L155>
 41a:	00000737          	lui	a4,0x0
 41e:	00072583          	lw	a1,0(a4) # 0 <sc_recv_callback_broadcast>
 422:	1547a783          	lw	a5,340(a5)
 426:	d02e                	sw	a1,32(sp)
 428:	9782                	jalr	a5
 42a:	4751                	li	a4,20
 42c:	02e40733          	mul	a4,s0,a4
 430:	00092783          	lw	a5,0(s2)
 434:	5582                	lw	a1,32(sp)
 436:	00000637          	lui	a2,0x0
 43a:	86aa                	mv	a3,a0
 43c:	88e2                	mv	a7,s8
 43e:	8866                	mv	a6,s9
 440:	00060613          	mv	a2,a2
 444:	450d                	li	a0,3
 446:	97ba                	add	a5,a5,a4
 448:	0027c783          	lbu	a5,2(a5)
 44c:	00000737          	lui	a4,0x0
 450:	00072703          	lw	a4,0(a4) # 0 <sc_recv_callback_broadcast>
 454:	c422                	sw	s0,8(sp)
 456:	c226                	sw	s1,4(sp)
 458:	c052                	sw	s4,0(sp)
 45a:	838d                	srl	a5,a5,0x3
 45c:	9a82                	jalr	s5

0000045e <.L155>:
 45e:	5762                	lw	a4,56(sp)
 460:	13600793          	li	a5,310
 464:	d8e7e3e3          	bltu	a5,a4,1ea <.L141>
 468:	4751                	li	a4,20
 46a:	02e40733          	mul	a4,s0,a4
 46e:	00092783          	lw	a5,0(s2)
 472:	4a81                	li	s5,0
 474:	97ba                	add	a5,a5,a4
 476:	5722                	lw	a4,40(sp)
 478:	00e781a3          	sb	a4,3(a5)
 47c:	57b2                	lw	a5,44(sp)
 47e:	d03e                	sw	a5,32(sp)
 480:	001c0793          	add	a5,s8,1
 484:	d83e                	sw	a5,48(sp)

00000486 <.L169>:
 486:	5782                	lw	a5,32(sp)
 488:	00092503          	lw	a0,0(s2)
 48c:	4672                	lw	a2,28(sp)
 48e:	0ffaf413          	zext.b	s0,s5
 492:	8726                	mv	a4,s1
 494:	86a2                	mv	a3,s0
 496:	953e                	add	a0,a0,a5
 498:	85da                	mv	a1,s6
 49a:	00000097          	auipc	ra,0x0
 49e:	000080e7          	jalr	ra # 49a <.L169+0x14>
 4a2:	13800793          	li	a5,312
 4a6:	02fa8733          	mul	a4,s5,a5
 4aa:	00092803          	lw	a6,0(s2)
 4ae:	976e                	add	a4,a4,s11
 4b0:	070a                	sll	a4,a4,0x2
 4b2:	00e80633          	add	a2,a6,a4
 4b6:	02a64683          	lbu	a3,42(a2) # 2a <sc_recv_callback_broadcast+0x2a>
 4ba:	1986fa63          	bgeu	a3,s8,64e <.L161>
 4be:	03860523          	sb	s8,42(a2)
 4c2:	c11d                	beqz	a0,4e8 <.L163>
 4c4:	47d1                	li	a5,20
 4c6:	02fa8733          	mul	a4,s5,a5
 4ca:	4785                	li	a5,1
 4cc:	4672                	lw	a2,28(sp)
 4ce:	86a2                	mv	a3,s0
 4d0:	85da                	mv	a1,s6
 4d2:	9742                	add	a4,a4,a6
 4d4:	00f70323          	sb	a5,6(a4)
 4d8:	5782                	lw	a5,32(sp)
 4da:	8726                	mv	a4,s1
 4dc:	00f80533          	add	a0,a6,a5
 4e0:	00000097          	auipc	ra,0x0
 4e4:	000080e7          	jalr	ra # 4e0 <.L169+0x5a>

000004e8 <.L163>:
 4e8:	5782                	lw	a5,32(sp)
 4ea:	4e078793          	add	a5,a5,1248
 4ee:	d03e                	sw	a5,32(sp)
 4f0:	4785                	li	a5,1
 4f2:	14fa9c63          	bne	s5,a5,64a <.L182>
 4f6:	0149c403          	lbu	s0,20(s3)
 4fa:	4d91                	li	s11,4

000004fc <.L160>:
 4fc:	47d1                	li	a5,20
 4fe:	02f407b3          	mul	a5,s0,a5
 502:	00092703          	lw	a4,0(s2)
 506:	97ba                	add	a5,a5,a4
 508:	0047c583          	lbu	a1,4(a5)
 50c:	0037c603          	lbu	a2,3(a5)
 510:	86ae                	mv	a3,a1
 512:	00c5f363          	bgeu	a1,a2,518 <.L170>
 516:	86b2                	mv	a3,a2

00000518 <.L170>:
 518:	6a85                	lui	s5,0x1
 51a:	00d78223          	sb	a3,4(a5)
 51e:	9756                	add	a4,a4,s5
 520:	a3774703          	lbu	a4,-1481(a4)
 524:	0ff6f613          	zext.b	a2,a3
 528:	00371693          	sll	a3,a4,0x3
 52c:	c8d642e3          	blt	a2,a3,1b0 <.L136>
 530:	c80700e3          	beqz	a4,1b0 <.L136>
 534:	0067c783          	lbu	a5,6(a5)
 538:	c6078ce3          	beqz	a5,1b0 <.L136>
 53c:	8522                	mv	a0,s0
 53e:	00000097          	auipc	ra,0x0
 542:	000080e7          	jalr	ra # 53e <.L170+0x26>
 546:	c60505e3          	beqz	a0,1b0 <.L136>
 54a:	47d1                	li	a5,20
 54c:	02f407b3          	mul	a5,s0,a5
 550:	00092503          	lw	a0,0(s2)
 554:	aeea8a93          	add	s5,s5,-1298 # aee <.L174+0x426>
 558:	4619                	li	a2,6
 55a:	97aa                	add	a5,a5,a0
 55c:	00078323          	sb	zero,6(a5)
 560:	0109a583          	lw	a1,16(s3)
 564:	9556                	add	a0,a0,s5
 566:	00000097          	auipc	ra,0x0
 56a:	000080e7          	jalr	ra # 566 <.L170+0x4e>
 56e:	8522                	mv	a0,s0
 570:	00000097          	auipc	ra,0x0
 574:	000080e7          	jalr	ra # 570 <.L170+0x58>
 578:	c2051ce3          	bnez	a0,1b0 <.L136>
 57c:	5612                	lw	a2,36(sp)
 57e:	85a2                	mv	a1,s0
 580:	451d                	li	a0,7
 582:	00000097          	auipc	ra,0x0
 586:	000080e7          	jalr	ra # 582 <.L170+0x6a>
 58a:	4d99                	li	s11,6
 58c:	b185                	j	1ec <.L134>

0000058e <.L147>:
 58e:	8526                	mv	a0,s1
 590:	00000097          	auipc	ra,0x0
 594:	000080e7          	jalr	ra # 590 <.L147+0x2>
 598:	c155                	beqz	a0,63c <.L156>

0000059a <.L159>:
 59a:	8526                	mv	a0,s1
 59c:	00000097          	auipc	ra,0x0
 5a0:	000080e7          	jalr	ra # 59c <.L159+0x2>
 5a4:	00092783          	lw	a5,0(s2)
 5a8:	8b2a                	mv	s6,a0
 5aa:	97d6                	add	a5,a5,s5
 5ac:	0087c703          	lbu	a4,8(a5)
 5b0:	cf09                	beqz	a4,5ca <.L158>
 5b2:	0027c683          	lbu	a3,2(a5)
 5b6:	00c7d583          	lhu	a1,12(a5)
 5ba:	872a                	mv	a4,a0
 5bc:	0ffa7613          	zext.b	a2,s4
 5c0:	8522                	mv	a0,s0
 5c2:	00000097          	auipc	ra,0x0
 5c6:	000080e7          	jalr	ra # 5c2 <.L159+0x28>

000005ca <.L158>:
 5ca:	00092783          	lw	a5,0(s2)
 5ce:	06400713          	li	a4,100
 5d2:	97d6                	add	a5,a5,s5
 5d4:	016781a3          	sb	s6,3(a5)
 5d8:	01678123          	sb	s6,2(a5)
 5dc:	01479523          	sh	s4,10(a5)
 5e0:	00e783a3          	sb	a4,7(a5)
 5e4:	000007b7          	lui	a5,0x0
 5e8:	0187c703          	lbu	a4,24(a5) # 18 <sc_recv_callback_broadcast+0x18>
 5ec:	4785                	li	a5,1
 5ee:	04f71463          	bne	a4,a5,636 <.L181>
 5f2:	000007b7          	lui	a5,0x0
 5f6:	0007a783          	lw	a5,0(a5) # 0 <sc_recv_callback_broadcast>
 5fa:	cf95                	beqz	a5,636 <.L181>
 5fc:	14c7aa83          	lw	s5,332(a5)
 600:	020a8b63          	beqz	s5,636 <.L181>
 604:	00000bb7          	lui	s7,0x0
 608:	000ba583          	lw	a1,0(s7) # 0 <sc_recv_callback_broadcast>
 60c:	1547a783          	lw	a5,340(a5)
 610:	ce2e                	sw	a1,28(sp)
 612:	9782                	jalr	a5
 614:	000ba703          	lw	a4,0(s7)
 618:	45f2                	lw	a1,28(sp)
 61a:	003b5793          	srl	a5,s6,0x3
 61e:	00000637          	lui	a2,0x0
 622:	86aa                	mv	a3,a0
 624:	c022                	sw	s0,0(sp)
 626:	88a6                	mv	a7,s1
 628:	8852                	mv	a6,s4
 62a:	0ff7f793          	zext.b	a5,a5
 62e:	00060613          	mv	a2,a2
 632:	450d                	li	a0,3
 634:	9a82                	jalr	s5

00000636 <.L181>:
 636:	4b81                	li	s7,0
 638:	4d8d                	li	s11,3
 63a:	b5c9                	j	4fc <.L160>

0000063c <.L156>:
 63c:	8526                	mv	a0,s1
 63e:	00000097          	auipc	ra,0x0
 642:	000080e7          	jalr	ra # 63e <.L156+0x2>
 646:	f931                	bnez	a0,59a <.L159>
 648:	b64d                	j	1ea <.L141>

0000064a <.L182>:
 64a:	4a85                	li	s5,1
 64c:	bd2d                	j	486 <.L169>

0000064e <.L161>:
 64e:	03869b63          	bne	a3,s8,684 <.L164>
 652:	e509                	bnez	a0,65c <.L165>
 654:	57c2                	lw	a5,48(sp)
 656:	02f60523          	sb	a5,42(a2) # 2a <sc_recv_callback_broadcast+0x2a>
 65a:	b579                	j	4e8 <.L163>

0000065c <.L165>:
 65c:	8626                	mv	a2,s1
 65e:	85ee                	mv	a1,s11
 660:	8556                	mv	a0,s5
 662:	de3a                	sw	a4,60(sp)
 664:	00000097          	auipc	ra,0x0
 668:	000080e7          	jalr	ra # 664 <.L165+0x8>
 66c:	e6051ee3          	bnez	a0,4e8 <.L163>
 670:	00092683          	lw	a3,0(s2)
 674:	5772                	lw	a4,60(sp)
 676:	9736                	add	a4,a4,a3
 678:	02a74683          	lbu	a3,42(a4)
 67c:	8285                	srl	a3,a3,0x1
 67e:	02d70523          	sb	a3,42(a4)
 682:	b59d                	j	4e8 <.L163>

00000684 <.L164>:
 684:	0149c703          	lbu	a4,20(s3)
 688:	e68710e3          	bne	a4,s0,4e8 <.L163>
 68c:	47d1                	li	a5,20
 68e:	02fa8733          	mul	a4,s5,a5
 692:	c911                	beqz	a0,6a6 <.L167>
 694:	9742                	add	a4,a4,a6
 696:	00874683          	lbu	a3,8(a4)
 69a:	e40697e3          	bnez	a3,4e8 <.L163>
 69e:	4785                	li	a5,1
 6a0:	00f70423          	sb	a5,8(a4)
 6a4:	b179                	j	332 <.L168>

000006a6 <.L167>:
 6a6:	983a                	add	a6,a6,a4
 6a8:	00784703          	lbu	a4,7(a6)
 6ac:	03100793          	li	a5,49
 6b0:	e2e7fce3          	bgeu	a5,a4,4e8 <.L163>
 6b4:	41868633          	sub	a2,a3,s8
 6b8:	47a5                	li	a5,9
 6ba:	e2c7c7e3          	blt	a5,a2,4e8 <.L163>
 6be:	9736                	add	a4,a4,a3
 6c0:	8705                	sra	a4,a4,0x1
 6c2:	00e803a3          	sb	a4,7(a6)
 6c6:	b50d                	j	4e8 <.L163>

000006c8 <.L174>:
 6c8:	4b81                	li	s7,0
 6ca:	4d81                	li	s11,0
 6cc:	b4d5                	j	1b0 <.L136>

sc_sniffer.o:     file format elf32-littleriscv


Disassembly of section .text.esp_smartconfig_fast_mode_local:

00000000 <esp_smartconfig_fast_mode_local>:
   0:	03200793          	li	a5,50
   4:	e119                	bnez	a0,a <.L2>
   6:	06400793          	li	a5,100

0000000a <.L2>:
   a:	00000737          	lui	a4,0x0
   e:	00f70023          	sb	a5,0(a4) # 0 <esp_smartconfig_fast_mode_local>
  12:	4501                	li	a0,0
  14:	8082                	ret

Disassembly of section .text.sc_smartconfig_restart:

00000000 <sc_smartconfig_restart>:
   0:	1101                	add	sp,sp,-32
   2:	000007b7          	lui	a5,0x0
   6:	c42a                	sw	a0,8(sp)
   8:	00078793          	mv	a5,a5
   c:	0048                	add	a0,sp,4
   e:	4581                	li	a1,0
  10:	ce06                	sw	ra,28(sp)
  12:	c23e                	sw	a5,4(sp)
  14:	c602                	sw	zero,12(sp)
  16:	00000097          	auipc	ra,0x0
  1a:	000080e7          	jalr	ra # 16 <sc_smartconfig_restart+0x16>
  1e:	40f2                	lw	ra,28(sp)
  20:	6105                	add	sp,sp,32
  22:	8082                	ret

Disassembly of section .text.sc_channel_timer_cb:

00000000 <sc_channel_timer_cb>:
   0:	1101                	add	sp,sp,-32
   2:	000007b7          	lui	a5,0x0
   6:	c42a                	sw	a0,8(sp)
   8:	00078793          	mv	a5,a5
   c:	0048                	add	a0,sp,4
   e:	4581                	li	a1,0
  10:	ce06                	sw	ra,28(sp)
  12:	c23e                	sw	a5,4(sp)
  14:	c602                	sw	zero,12(sp)
  16:	00000097          	auipc	ra,0x0
  1a:	000080e7          	jalr	ra # 16 <sc_channel_timer_cb+0x16>
  1e:	40f2                	lw	ra,28(sp)
  20:	6105                	add	sp,sp,32
  22:	8082                	ret

Disassembly of section .text.sc_PackCallback:

00000000 <sc_PackCallback>:
   0:	00000737          	lui	a4,0x0
   4:	00070713          	mv	a4,a4
   8:	01074783          	lbu	a5,16(a4) # 10 <sc_PackCallback+0x10>
   c:	4605                	li	a2,1
   e:	0ac78e63          	beq	a5,a2,ca <.L24>
  12:	000007b7          	lui	a5,0x0
  16:	0007a783          	lw	a5,0(a5) # 0 <sc_PackCallback>
  1a:	480d                	li	a6,3
  1c:	01079663          	bne	a5,a6,28 <.L10>
  20:	00000317          	auipc	t1,0x0
  24:	00030067          	jr	t1 # 20 <sc_PackCallback+0x20>

00000028 <.L10>:
  28:	01974883          	lbu	a7,25(a4)
  2c:	06089f63          	bnez	a7,aa <.L11>
  30:	1141                	add	sp,sp,-16
  32:	c422                	sw	s0,8(sp)
  34:	c606                	sw	ra,12(sp)
  36:	842a                	mv	s0,a0
  38:	03059e63          	bne	a1,a6,74 <.L12>
  3c:	4154                	lw	a3,4(a0)
  3e:	08000737          	lui	a4,0x8000
  42:	8f75                	and	a4,a4,a3
  44:	cf11                	beqz	a4,60 <.L13>
  46:	5554                	lw	a3,44(a0)
  48:	6605                	lui	a2,0x1
  4a:	167d                	add	a2,a2,-1 # fff <.L172+0xb6f>
  4c:	00c6f733          	and	a4,a3,a2
  50:	1771                	add	a4,a4,-4 # 7fffffc <.L172+0x7fffb6c>
  52:	0742                	sll	a4,a4,0x10
  54:	8341                	srl	a4,a4,0x10
  56:	8f71                	and	a4,a4,a2
  58:	767d                	lui	a2,0xfffff
  5a:	8ef1                	and	a3,a3,a2
  5c:	8ed9                	or	a3,a3,a4
  5e:	d554                	sw	a3,44(a0)

00000060 <.L13>:
  60:	9bf5                	and	a5,a5,-3
  62:	e3a5                	bnez	a5,c2 <.L8>
  64:	8522                	mv	a0,s0
  66:	4422                	lw	s0,8(sp)
  68:	40b2                	lw	ra,12(sp)
  6a:	0141                	add	sp,sp,16
  6c:	00000317          	auipc	t1,0x0
  70:	00030067          	jr	t1 # 6c <.L13+0xc>

00000074 <.L12>:
  74:	4709                	li	a4,2
  76:	04e59663          	bne	a1,a4,c2 <.L8>
  7a:	02c78163          	beq	a5,a2,9c <.L15>
  7e:	00b78a63          	beq	a5,a1,92 <.L16>
  82:	e3a1                	bnez	a5,c2 <.L8>
  84:	4422                	lw	s0,8(sp)
  86:	40b2                	lw	ra,12(sp)
  88:	0141                	add	sp,sp,16
  8a:	00000317          	auipc	t1,0x0
  8e:	00030067          	jr	t1 # 8a <.L12+0x16>

00000092 <.L16>:
  92:	00000097          	auipc	ra,0x0
  96:	000080e7          	jalr	ra # 92 <.L16>
  9a:	8522                	mv	a0,s0

0000009c <.L15>:
  9c:	4422                	lw	s0,8(sp)
  9e:	40b2                	lw	ra,12(sp)
  a0:	0141                	add	sp,sp,16
  a2:	00000317          	auipc	t1,0x0
  a6:	00030067          	jr	t1 # a2 <.L15+0x6>

000000aa <.L11>:
  aa:	4b5c                	lw	a5,20(a4)
  ac:	e789                	bnez	a5,b6 <.L19>
  ae:	00000317          	auipc	t1,0x0
  b2:	00030067          	jr	t1 # ae <.L11+0x4>

000000b6 <.L19>:
  b6:	00c79a63          	bne	a5,a2,ca <.L24>
  ba:	00000317          	auipc	t1,0x0
  be:	00030067          	jr	t1 # ba <.L19+0x4>

000000c2 <.L8>:
  c2:	40b2                	lw	ra,12(sp)
  c4:	4422                	lw	s0,8(sp)
  c6:	0141                	add	sp,sp,16
  c8:	8082                	ret

000000ca <.L24>:
  ca:	8082                	ret

Disassembly of section .text.sc_init_sniffer_glob:

00000000 <sc_init_sniffer_glob>:
   0:	1101                	add	sp,sp,-32
   2:	cc22                	sw	s0,24(sp)
   4:	00000437          	lui	s0,0x0
   8:	00040793          	mv	a5,s0
   c:	439c                	lw	a5,0(a5)
   e:	ce06                	sw	ra,28(sp)
  10:	ca26                	sw	s1,20(sp)
  12:	00040413          	mv	s0,s0
  16:	ef91                	bnez	a5,32 <.L28>
  18:	000007b7          	lui	a5,0x0
  1c:	0007a783          	lw	a5,0(a5) # 0 <sc_init_sniffer_glob>
  20:	4585                	li	a1,1
  22:	05c00513          	li	a0,92
  26:	1707a783          	lw	a5,368(a5)
  2a:	9782                	jalr	a5
  2c:	c008                	sw	a0,0(s0)
  2e:	04052c23          	sw	zero,88(a0)

00000032 <.L28>:
  32:	401c                	lw	a5,0(s0)
  34:	ebb1                	bnez	a5,88 <.L29>
  36:	000007b7          	lui	a5,0x0
  3a:	0007a783          	lw	a5,0(a5) # 0 <sc_init_sniffer_glob>
  3e:	cf85                	beqz	a5,76 <.L30>
  40:	14c7a483          	lw	s1,332(a5)
  44:	c88d                	beqz	s1,76 <.L30>
  46:	00000437          	lui	s0,0x0
  4a:	00040413          	mv	s0,s0
  4e:	400c                	lw	a1,0(s0)
  50:	1547a783          	lw	a5,340(a5)
  54:	c62e                	sw	a1,12(sp)
  56:	9782                	jalr	a5
  58:	4018                	lw	a4,0(s0)
  5a:	45b2                	lw	a1,12(sp)
  5c:	000007b7          	lui	a5,0x0
  60:	00000637          	lui	a2,0x0
  64:	86aa                	mv	a3,a0
  66:	04900813          	li	a6,73
  6a:	00078793          	mv	a5,a5
  6e:	00060613          	mv	a2,a2
  72:	4505                	li	a0,1
  74:	9482                	jalr	s1

00000076 <.L30>:
  76:	4462                	lw	s0,24(sp)
  78:	40f2                	lw	ra,28(sp)
  7a:	44d2                	lw	s1,20(sp)
  7c:	4501                	li	a0,0
  7e:	6105                	add	sp,sp,32
  80:	00000317          	auipc	t1,0x0
  84:	00030067          	jr	t1 # 80 <.L30+0xa>

00000088 <.L29>:
  88:	40f2                	lw	ra,28(sp)
  8a:	4462                	lw	s0,24(sp)
  8c:	00000737          	lui	a4,0x0
  90:	00f72023          	sw	a5,0(a4) # 0 <sc_init_sniffer_glob>
  94:	44d2                	lw	s1,20(sp)
  96:	6105                	add	sp,sp,32
  98:	8082                	ret

Disassembly of section .text.sc_free_sniffer_glob:

00000000 <sc_free_sniffer_glob>:
   0:	000007b7          	lui	a5,0x0
   4:	00078713          	mv	a4,a5
   8:	1141                	add	sp,sp,-16
   a:	4308                	lw	a0,0(a4)
   c:	c422                	sw	s0,8(sp)
   e:	00000437          	lui	s0,0x0
  12:	c226                	sw	s1,4(sp)
  14:	c04a                	sw	s2,0(sp)
  16:	c606                	sw	ra,12(sp)
  18:	00078493          	mv	s1,a5
  1c:	00040413          	mv	s0,s0
  20:	00000937          	lui	s2,0x0

00000024 <.L39>:
  24:	e919                	bnez	a0,3a <.L40>
  26:	40b2                	lw	ra,12(sp)
  28:	00042023          	sw	zero,0(s0) # 0 <sc_free_sniffer_glob>
  2c:	4422                	lw	s0,8(sp)
  2e:	0004a023          	sw	zero,0(s1)
  32:	4902                	lw	s2,0(sp)
  34:	4492                	lw	s1,4(sp)
  36:	0141                	add	sp,sp,16
  38:	8082                	ret

0000003a <.L40>:
  3a:	4d3c                	lw	a5,88(a0)
  3c:	c01c                	sw	a5,0(s0)
  3e:	00092783          	lw	a5,0(s2) # 0 <sc_free_sniffer_glob>
  42:	0b07a783          	lw	a5,176(a5) # b0 <.L11+0x6>
  46:	9782                	jalr	a5
  48:	4008                	lw	a0,0(s0)
  4a:	bfe9                	j	24 <.L39>

Disassembly of section .text.esp_smartconfig_stop_local:

00000000 <esp_smartconfig_stop_local>:
   0:	000007b7          	lui	a5,0x0
   4:	00078793          	mv	a5,a5
   8:	4bd8                	lw	a4,20(a5)
   a:	1101                	add	sp,sp,-32
   c:	ce06                	sw	ra,28(sp)
   e:	cc22                	sw	s0,24(sp)
  10:	ca26                	sw	s1,20(sp)
  12:	c84a                	sw	s2,16(sp)
  14:	c64e                	sw	s3,12(sp)
  16:	e375                	bnez	a4,fa <.L43>
  18:	4705                	li	a4,1
  1a:	00000437          	lui	s0,0x0
  1e:	00e79823          	sh	a4,16(a5) # 10 <esp_smartconfig_stop_local+0x10>
  22:	00078923          	sb	zero,18(a5)
  26:	00042783          	lw	a5,0(s0) # 0 <esp_smartconfig_stop_local>
  2a:	000006b7          	lui	a3,0x0
  2e:	00000937          	lui	s2,0x0
  32:	0e47a783          	lw	a5,228(a5)
  36:	00e68023          	sb	a4,0(a3) # 0 <esp_smartconfig_stop_local>
  3a:	4609                	li	a2,2
  3c:	000006b7          	lui	a3,0x0
  40:	00090513          	mv	a0,s2
  44:	00c68023          	sb	a2,0(a3) # 0 <esp_smartconfig_stop_local>
  48:	9782                	jalr	a5
  4a:	00042783          	lw	a5,0(s0)
  4e:	000004b7          	lui	s1,0x0
  52:	00048513          	mv	a0,s1
  56:	0e47a783          	lw	a5,228(a5)
  5a:	9782                	jalr	a5
  5c:	00042783          	lw	a5,0(s0)
  60:	00090513          	mv	a0,s2
  64:	0e87a783          	lw	a5,232(a5)
  68:	9782                	jalr	a5
  6a:	00042783          	lw	a5,0(s0)
  6e:	00048513          	mv	a0,s1
  72:	000004b7          	lui	s1,0x0
  76:	0e87a783          	lw	a5,232(a5)
  7a:	9782                	jalr	a5
  7c:	00042783          	lw	a5,0(s0)
  80:	00048513          	mv	a0,s1
  84:	0e47a783          	lw	a5,228(a5)
  88:	9782                	jalr	a5
  8a:	00042783          	lw	a5,0(s0)
  8e:	00048513          	mv	a0,s1
  92:	0e87a783          	lw	a5,232(a5)
  96:	9782                	jalr	a5
  98:	000007b7          	lui	a5,0x0
  9c:	4501                	li	a0,0
  9e:	00078023          	sb	zero,0(a5) # 0 <esp_smartconfig_stop_local>
  a2:	00000097          	auipc	ra,0x0
  a6:	000080e7          	jalr	ra # a2 <esp_smartconfig_stop_local+0xa2>
  aa:	85aa                	mv	a1,a0
  ac:	cd19                	beqz	a0,ca <.L44>
  ae:	00000637          	lui	a2,0x0
  b2:	00000537          	lui	a0,0x0
  b6:	28a00693          	li	a3,650
  ba:	00060613          	mv	a2,a2
  be:	00050513          	mv	a0,a0
  c2:	00000097          	auipc	ra,0x0
  c6:	000080e7          	jalr	ra # c2 <esp_smartconfig_stop_local+0xc2>

000000ca <.L44>:
  ca:	00000097          	auipc	ra,0x0
  ce:	000080e7          	jalr	ra # ca <.L44>
  d2:	00000097          	auipc	ra,0x0
  d6:	000080e7          	jalr	ra # d2 <.L44+0x8>
  da:	00000097          	auipc	ra,0x0
  de:	000080e7          	jalr	ra # da <.L44+0x10>
  e2:	00000097          	auipc	ra,0x0
  e6:	000080e7          	jalr	ra # e2 <.L44+0x18>

000000ea <.L45>:
  ea:	40f2                	lw	ra,28(sp)
  ec:	4462                	lw	s0,24(sp)
  ee:	44d2                	lw	s1,20(sp)
  f0:	4942                	lw	s2,16(sp)
  f2:	49b2                	lw	s3,12(sp)
  f4:	4501                	li	a0,0
  f6:	6105                	add	sp,sp,32
  f8:	8082                	ret

000000fa <.L43>:
  fa:	4685                	li	a3,1
  fc:	0ad71f63          	bne	a4,a3,1ba <.L46>
 100:	00000437          	lui	s0,0x0
 104:	00e79823          	sh	a4,16(a5)
 108:	00078923          	sb	zero,18(a5)
 10c:	00042783          	lw	a5,0(s0) # 0 <esp_smartconfig_stop_local>
 110:	000004b7          	lui	s1,0x0
 114:	000006b7          	lui	a3,0x0
 118:	0e47a783          	lw	a5,228(a5)
 11c:	00e68023          	sb	a4,0(a3) # 0 <esp_smartconfig_stop_local>
 120:	4609                	li	a2,2
 122:	000006b7          	lui	a3,0x0
 126:	00048513          	mv	a0,s1
 12a:	00c68023          	sb	a2,0(a3) # 0 <esp_smartconfig_stop_local>
 12e:	9782                	jalr	a5
 130:	00042783          	lw	a5,0(s0)
 134:	00048513          	mv	a0,s1
 138:	000004b7          	lui	s1,0x0
 13c:	0e87a783          	lw	a5,232(a5)
 140:	9782                	jalr	a5
 142:	00042783          	lw	a5,0(s0)
 146:	00048513          	mv	a0,s1
 14a:	0e47a783          	lw	a5,228(a5)
 14e:	9782                	jalr	a5
 150:	00042783          	lw	a5,0(s0)
 154:	00048513          	mv	a0,s1
 158:	0e87a783          	lw	a5,232(a5)
 15c:	9782                	jalr	a5
 15e:	000007b7          	lui	a5,0x0
 162:	4501                	li	a0,0
 164:	00078023          	sb	zero,0(a5) # 0 <esp_smartconfig_stop_local>
 168:	00000097          	auipc	ra,0x0
 16c:	000080e7          	jalr	ra # 168 <.L43+0x6e>
 170:	85aa                	mv	a1,a0
 172:	cd19                	beqz	a0,190 <.L47>
 174:	00000637          	lui	a2,0x0
 178:	00000537          	lui	a0,0x0
 17c:	29e00693          	li	a3,670
 180:	00060613          	mv	a2,a2
 184:	00050513          	mv	a0,a0
 188:	00000097          	auipc	ra,0x0
 18c:	000080e7          	jalr	ra # 188 <.L43+0x8e>

00000190 <.L47>:
 190:	00000097          	auipc	ra,0x0
 194:	000080e7          	jalr	ra # 190 <.L47>
 198:	00000097          	auipc	ra,0x0
 19c:	000080e7          	jalr	ra # 198 <.L47+0x8>
 1a0:	00000097          	auipc	ra,0x0
 1a4:	000080e7          	jalr	ra # 1a0 <.L47+0x10>

000001a8 <.L65>:
 1a8:	00000097          	auipc	ra,0x0
 1ac:	000080e7          	jalr	ra # 1a8 <.L65>

000001b0 <.L64>:
 1b0:	00000097          	auipc	ra,0x0
 1b4:	000080e7          	jalr	ra # 1b0 <.L64>
 1b8:	bf0d                	j	ea <.L45>

000001ba <.L46>:
 1ba:	4609                	li	a2,2
 1bc:	0cc71a63          	bne	a4,a2,290 <.L48>
 1c0:	00000437          	lui	s0,0x0
 1c4:	00d79823          	sh	a3,16(a5)
 1c8:	00078923          	sb	zero,18(a5)
 1cc:	00042783          	lw	a5,0(s0) # 0 <esp_smartconfig_stop_local>
 1d0:	00000637          	lui	a2,0x0
 1d4:	00000937          	lui	s2,0x0
 1d8:	0e47a783          	lw	a5,228(a5)
 1dc:	00d60023          	sb	a3,0(a2) # 0 <esp_smartconfig_stop_local>
 1e0:	00090513          	mv	a0,s2
 1e4:	00000637          	lui	a2,0x0
 1e8:	00e60023          	sb	a4,0(a2) # 0 <esp_smartconfig_stop_local>
 1ec:	9782                	jalr	a5
 1ee:	00042783          	lw	a5,0(s0)
 1f2:	000004b7          	lui	s1,0x0
 1f6:	00048513          	mv	a0,s1
 1fa:	0e47a783          	lw	a5,228(a5)
 1fe:	9782                	jalr	a5
 200:	00042783          	lw	a5,0(s0)
 204:	00090513          	mv	a0,s2
 208:	0e87a783          	lw	a5,232(a5)
 20c:	9782                	jalr	a5
 20e:	00042783          	lw	a5,0(s0)
 212:	00048513          	mv	a0,s1
 216:	000004b7          	lui	s1,0x0
 21a:	0e87a783          	lw	a5,232(a5)
 21e:	9782                	jalr	a5
 220:	00042783          	lw	a5,0(s0)
 224:	00048513          	mv	a0,s1
 228:	0e47a783          	lw	a5,228(a5)
 22c:	9782                	jalr	a5
 22e:	00042783          	lw	a5,0(s0)
 232:	00048513          	mv	a0,s1
 236:	0e87a783          	lw	a5,232(a5)
 23a:	9782                	jalr	a5
 23c:	000007b7          	lui	a5,0x0
 240:	4501                	li	a0,0
 242:	00078023          	sb	zero,0(a5) # 0 <esp_smartconfig_stop_local>
 246:	00000097          	auipc	ra,0x0
 24a:	000080e7          	jalr	ra # 246 <.L46+0x8c>
 24e:	85aa                	mv	a1,a0
 250:	cd19                	beqz	a0,26e <.L49>
 252:	00000637          	lui	a2,0x0
 256:	00000537          	lui	a0,0x0
 25a:	2b400693          	li	a3,692
 25e:	00060613          	mv	a2,a2
 262:	00050513          	mv	a0,a0
 266:	00000097          	auipc	ra,0x0
 26a:	000080e7          	jalr	ra # 266 <.L46+0xac>

0000026e <.L49>:
 26e:	00000097          	auipc	ra,0x0
 272:	000080e7          	jalr	ra # 26e <.L49>
 276:	00000097          	auipc	ra,0x0
 27a:	000080e7          	jalr	ra # 276 <.L49+0x8>
 27e:	00000097          	auipc	ra,0x0
 282:	000080e7          	jalr	ra # 27e <.L49+0x10>
 286:	00000097          	auipc	ra,0x0
 28a:	000080e7          	jalr	ra # 286 <.L49+0x18>
 28e:	bf29                	j	1a8 <.L65>

00000290 <.L48>:
 290:	458d                	li	a1,3
 292:	e4b71ce3          	bne	a4,a1,ea <.L45>
 296:	00000437          	lui	s0,0x0
 29a:	00d79823          	sh	a3,16(a5)
 29e:	00078923          	sb	zero,18(a5)
 2a2:	00042783          	lw	a5,0(s0) # 0 <esp_smartconfig_stop_local>
 2a6:	00000737          	lui	a4,0x0
 2aa:	000009b7          	lui	s3,0x0
 2ae:	0e47a783          	lw	a5,228(a5)
 2b2:	00d70023          	sb	a3,0(a4) # 0 <esp_smartconfig_stop_local>
 2b6:	00098513          	mv	a0,s3
 2ba:	00000737          	lui	a4,0x0
 2be:	00c70023          	sb	a2,0(a4) # 0 <esp_smartconfig_stop_local>
 2c2:	9782                	jalr	a5
 2c4:	00042783          	lw	a5,0(s0)
 2c8:	00000937          	lui	s2,0x0
 2cc:	00090513          	mv	a0,s2
 2d0:	0e47a783          	lw	a5,228(a5)
 2d4:	000004b7          	lui	s1,0x0
 2d8:	9782                	jalr	a5
 2da:	00042783          	lw	a5,0(s0)
 2de:	00048513          	mv	a0,s1
 2e2:	0e47a783          	lw	a5,228(a5)
 2e6:	9782                	jalr	a5
 2e8:	00042783          	lw	a5,0(s0)
 2ec:	00098513          	mv	a0,s3
 2f0:	0e87a783          	lw	a5,232(a5)
 2f4:	9782                	jalr	a5
 2f6:	00042783          	lw	a5,0(s0)
 2fa:	00090513          	mv	a0,s2
 2fe:	0e87a783          	lw	a5,232(a5)
 302:	9782                	jalr	a5
 304:	00042783          	lw	a5,0(s0)
 308:	00048513          	mv	a0,s1
 30c:	0e87a783          	lw	a5,232(a5)
 310:	9782                	jalr	a5
 312:	000007b7          	lui	a5,0x0
 316:	4501                	li	a0,0
 318:	00078023          	sb	zero,0(a5) # 0 <esp_smartconfig_stop_local>
 31c:	00000097          	auipc	ra,0x0
 320:	000080e7          	jalr	ra # 31c <.L48+0x8c>
 324:	85aa                	mv	a1,a0
 326:	cd19                	beqz	a0,344 <.L50>
 328:	00000637          	lui	a2,0x0
 32c:	00000537          	lui	a0,0x0
 330:	2cb00693          	li	a3,715
 334:	00060613          	mv	a2,a2
 338:	00050513          	mv	a0,a0
 33c:	00000097          	auipc	ra,0x0
 340:	000080e7          	jalr	ra # 33c <.L48+0xac>

00000344 <.L50>:
 344:	00000097          	auipc	ra,0x0
 348:	000080e7          	jalr	ra # 344 <.L50>
 34c:	b595                	j	1b0 <.L64>

Disassembly of section .text.sc_listen_next_channel:

00000000 <sc_listen_next_channel>:
   0:	1101                	add	sp,sp,-32
   2:	c84a                	sw	s2,16(sp)
   4:	00000937          	lui	s2,0x0
   8:	00090793          	mv	a5,s2
   c:	cc22                	sw	s0,24(sp)
   e:	c64e                	sw	s3,12(sp)
  10:	c452                	sw	s4,8(sp)
  12:	c256                	sw	s5,4(sp)
  14:	ce06                	sw	ra,28(sp)
  16:	ca26                	sw	s1,20(sp)
  18:	0007c483          	lbu	s1,0(a5)
  1c:	49b9                	li	s3,14
  1e:	0087aa03          	lw	s4,8(a5)
  22:	00c7aa83          	lw	s5,12(a5)
  26:	8426                	mv	s0,s1
  28:	00090913          	mv	s2,s2
  2c:	0099f363          	bgeu	s3,s1,32 <.L68>

00000030 <.L82>:
  30:	4405                	li	s0,1

00000032 <.L68>:
  32:	0ff47493          	zext.b	s1,s0
  36:	fe99ede3          	bltu	s3,s1,30 <.L82>
  3a:	8622                	mv	a2,s0
  3c:	8552                	mv	a0,s4
  3e:	85d6                	mv	a1,s5
  40:	00000097          	auipc	ra,0x0
  44:	000080e7          	jalr	ra # 40 <.L68+0xe>
  48:	00148793          	add	a5,s1,1 # 1 <sc_listen_next_channel+0x1>
  4c:	8905                	and	a0,a0,1
  4e:	0ff7f793          	zext.b	a5,a5
  52:	0405                	add	s0,s0,1
  54:	dd79                	beqz	a0,32 <.L68>
  56:	4581                	li	a1,0
  58:	8526                	mv	a0,s1
  5a:	00f90023          	sb	a5,0(s2) # 0 <sc_listen_next_channel>
  5e:	009900a3          	sb	s1,1(s2)
  62:	00000097          	auipc	ra,0x0
  66:	000080e7          	jalr	ra # 62 <.L68+0x30>
  6a:	85aa                	mv	a1,a0
  6c:	cd19                	beqz	a0,8a <.L70>
  6e:	00000637          	lui	a2,0x0
  72:	00000537          	lui	a0,0x0
  76:	09c00693          	li	a3,156
  7a:	00060613          	mv	a2,a2
  7e:	00050513          	mv	a0,a0
  82:	00000097          	auipc	ra,0x0
  86:	000080e7          	jalr	ra # 82 <.L68+0x50>

0000008a <.L70>:
  8a:	000007b7          	lui	a5,0x0
  8e:	0007a703          	lw	a4,0(a5) # 0 <sc_listen_next_channel>
  92:	478d                	li	a5,3
  94:	00f71a63          	bne	a4,a5,a8 <.L71>
  98:	000007b7          	lui	a5,0x0
  9c:	0007a783          	lw	a5,0(a5) # 0 <sc_listen_next_channel>
  a0:	557d                	li	a0,-1
  a2:	0007c783          	lbu	a5,0(a5)
  a6:	eb85                	bnez	a5,d6 <.L66>

000000a8 <.L71>:
  a8:	000007b7          	lui	a5,0x0
  ac:	0007c783          	lbu	a5,0(a5) # 0 <sc_listen_next_channel>
  b0:	557d                	li	a0,-1
  b2:	c395                	beqz	a5,d6 <.L66>
  b4:	000007b7          	lui	a5,0x0
  b8:	0007a783          	lw	a5,0(a5) # 0 <sc_listen_next_channel>
  bc:	00000737          	lui	a4,0x0
  c0:	00074583          	lbu	a1,0(a4) # 0 <sc_listen_next_channel>
  c4:	0e07a783          	lw	a5,224(a5)
  c8:	00000537          	lui	a0,0x0
  cc:	00050513          	mv	a0,a0
  d0:	4601                	li	a2,0
  d2:	9782                	jalr	a5
  d4:	4501                	li	a0,0

000000d6 <.L66>:
  d6:	40f2                	lw	ra,28(sp)
  d8:	4462                	lw	s0,24(sp)
  da:	44d2                	lw	s1,20(sp)
  dc:	4942                	lw	s2,16(sp)
  de:	49b2                	lw	s3,12(sp)
  e0:	4a22                	lw	s4,8(sp)
  e2:	4a92                	lw	s5,4(sp)
  e4:	6105                	add	sp,sp,32
  e6:	8082                	ret

Disassembly of section .text.sc_channel_timer_cb_local:

00000000 <sc_channel_timer_cb_local>:
   0:	000007b7          	lui	a5,0x0
   4:	0007c783          	lbu	a5,0(a5) # 0 <sc_channel_timer_cb_local>
   8:	eb81                	bnez	a5,18 <.L85>
   a:	557d                	li	a0,-1
   c:	8082                	ret

0000000e <.L88>:
   e:	557d                	li	a0,-1

00000010 <.L84>:
  10:	40b2                	lw	ra,12(sp)
  12:	4422                	lw	s0,8(sp)
  14:	0141                	add	sp,sp,16
  16:	8082                	ret

00000018 <.L85>:
  18:	000007b7          	lui	a5,0x0
  1c:	0007a783          	lw	a5,0(a5) # 0 <sc_channel_timer_cb_local>
  20:	1141                	add	sp,sp,-16
  22:	00000537          	lui	a0,0x0
  26:	0e47a783          	lw	a5,228(a5)
  2a:	c422                	sw	s0,8(sp)
  2c:	c606                	sw	ra,12(sp)
  2e:	00050513          	mv	a0,a0
  32:	9782                	jalr	a5
  34:	000007b7          	lui	a5,0x0
  38:	00078713          	mv	a4,a5
  3c:	4314                	lw	a3,0(a4)
  3e:	470d                	li	a4,3
  40:	00078413          	mv	s0,a5
  44:	00e69963          	bne	a3,a4,56 <.L87>
  48:	000007b7          	lui	a5,0x0
  4c:	0007a783          	lw	a5,0(a5) # 0 <sc_channel_timer_cb_local>
  50:	0007c783          	lbu	a5,0(a5)
  54:	ffcd                	bnez	a5,e <.L88>

00000056 <.L87>:
  56:	00000097          	auipc	ra,0x0
  5a:	000080e7          	jalr	ra # 56 <.L87>
  5e:	57fd                	li	a5,-1
  60:	faf507e3          	beq	a0,a5,e <.L88>
  64:	401c                	lw	a5,0(s0)
  66:	e795                	bnez	a5,92 <.L89>
  68:	000007b7          	lui	a5,0x0
  6c:	0007a783          	lw	a5,0(a5) # 0 <sc_channel_timer_cb_local>
  70:	4685                	li	a3,1
  72:	4501                	li	a0,0
  74:	0197c703          	lbu	a4,25(a5)
  78:	f8d71ce3          	bne	a4,a3,10 <.L84>
  7c:	000006b7          	lui	a3,0x0
  80:	0187c603          	lbu	a2,24(a5)
  84:	0016c683          	lbu	a3,1(a3) # 1 <sc_channel_timer_cb_local+0x1>
  88:	f8d614e3          	bne	a2,a3,10 <.L84>
  8c:	00e78d23          	sb	a4,26(a5)
  90:	b741                	j	10 <.L84>

00000092 <.L89>:
  92:	4705                	li	a4,1
  94:	02e79663          	bne	a5,a4,c0 <.L90>
  98:	00000737          	lui	a4,0x0
  9c:	00072703          	lw	a4,0(a4) # 0 <sc_channel_timer_cb_local>
  a0:	4501                	li	a0,0
  a2:	01c74683          	lbu	a3,28(a4)
  a6:	f6f695e3          	bne	a3,a5,10 <.L84>
  aa:	000007b7          	lui	a5,0x0
  ae:	01a74603          	lbu	a2,26(a4)
  b2:	0017c783          	lbu	a5,1(a5) # 1 <sc_channel_timer_cb_local+0x1>
  b6:	f4f61de3          	bne	a2,a5,10 <.L84>
  ba:	00d70ea3          	sb	a3,29(a4)
  be:	bf89                	j	10 <.L84>

000000c0 <.L90>:
  c0:	4689                	li	a3,2
  c2:	4501                	li	a0,0
  c4:	f4d796e3          	bne	a5,a3,10 <.L84>
  c8:	000007b7          	lui	a5,0x0
  cc:	0007a783          	lw	a5,0(a5) # 0 <sc_channel_timer_cb_local>
  d0:	0197c683          	lbu	a3,25(a5)
  d4:	00e69d63          	bne	a3,a4,ee <.L91>
  d8:	00000737          	lui	a4,0x0
  dc:	0187c603          	lbu	a2,24(a5)
  e0:	00174703          	lbu	a4,1(a4) # 1 <sc_channel_timer_cb_local+0x1>
  e4:	f2e616e3          	bne	a2,a4,10 <.L84>
  e8:	00d78d23          	sb	a3,26(a5)
  ec:	b715                	j	10 <.L84>

000000ee <.L91>:
  ee:	000007b7          	lui	a5,0x0
  f2:	0007a783          	lw	a5,0(a5) # 0 <sc_channel_timer_cb_local>
  f6:	01c7c683          	lbu	a3,28(a5)
  fa:	f0e69be3          	bne	a3,a4,10 <.L84>
  fe:	00000737          	lui	a4,0x0
 102:	01a7c603          	lbu	a2,26(a5)
 106:	00174703          	lbu	a4,1(a4) # 1 <sc_channel_timer_cb_local+0x1>
 10a:	f0e613e3          	bne	a2,a4,10 <.L84>
 10e:	00d78ea3          	sb	a3,29(a5)
 112:	bdfd                	j	10 <.L84>

Disassembly of section .text.sc_add_bss:

00000000 <sc_add_bss>:
   0:	12050a63          	beqz	a0,134 <.L109>
   4:	1101                	add	sp,sp,-32
   6:	c84a                	sw	s2,16(sp)
   8:	00000937          	lui	s2,0x0
   c:	00092783          	lw	a5,0(s2) # 0 <sc_add_bss>
  10:	cc22                	sw	s0,24(sp)
  12:	ca26                	sw	s1,20(sp)
  14:	1707a783          	lw	a5,368(a5)
  18:	ce06                	sw	ra,28(sp)
  1a:	84aa                	mv	s1,a0
  1c:	4585                	li	a1,1
  1e:	05c00513          	li	a0,92
  22:	9782                	jalr	a5
  24:	842a                	mv	s0,a0
  26:	e939                	bnez	a0,7c <.L105>
  28:	00092783          	lw	a5,0(s2)
  2c:	cf85                	beqz	a5,64 <.L106>
  2e:	14c7a483          	lw	s1,332(a5)
  32:	c88d                	beqz	s1,64 <.L106>
  34:	00000437          	lui	s0,0x0
  38:	00040413          	mv	s0,s0
  3c:	400c                	lw	a1,0(s0)
  3e:	1547a783          	lw	a5,340(a5)
  42:	c62e                	sw	a1,12(sp)
  44:	9782                	jalr	a5
  46:	4018                	lw	a4,0(s0)
  48:	45b2                	lw	a1,12(sp)
  4a:	000007b7          	lui	a5,0x0
  4e:	00000637          	lui	a2,0x0
  52:	86aa                	mv	a3,a0
  54:	14600813          	li	a6,326
  58:	00078793          	mv	a5,a5
  5c:	00060613          	mv	a2,a2
  60:	4505                	li	a0,1
  62:	9482                	jalr	s1

00000064 <.L106>:
  64:	4501                	li	a0,0
  66:	00000097          	auipc	ra,0x0
  6a:	000080e7          	jalr	ra # 66 <.L106+0x2>
  6e:	557d                	li	a0,-1

00000070 <.L103>:
  70:	40f2                	lw	ra,28(sp)
  72:	4462                	lw	s0,24(sp)
  74:	44d2                	lw	s1,20(sp)
  76:	4942                	lw	s2,16(sp)
  78:	6105                	add	sp,sp,32
  7a:	8082                	ret

0000007c <.L105>:
  7c:	4619                	li	a2,6
  7e:	00448593          	add	a1,s1,4
  82:	00000097          	auipc	ra,0x0
  86:	000080e7          	jalr	ra # 82 <.L105+0x6>
  8a:	02000613          	li	a2,32
  8e:	00a48593          	add	a1,s1,10
  92:	03340513          	add	a0,s0,51 # 33 <sc_add_bss+0x33>
  96:	00000097          	auipc	ra,0x0
  9a:	000080e7          	jalr	ra # 96 <.L105+0x1a>
  9e:	02b4c783          	lbu	a5,43(s1)
  a2:	04f40a23          	sb	a5,84(s0)
  a6:	02c4c783          	lbu	a5,44(s1)
  aa:	02f40723          	sb	a5,46(s0)
  ae:	000007b7          	lui	a5,0x0
  b2:	0007a703          	lw	a4,0(a5) # 0 <sc_add_bss>
  b6:	478d                	li	a5,3
  b8:	02f71163          	bne	a4,a5,da <.L107>
  bc:	02e4c783          	lbu	a5,46(s1)
  c0:	02f407a3          	sb	a5,47(s0)
  c4:	02d4c703          	lbu	a4,45(s1)
  c8:	02e40923          	sb	a4,50(s0)
  cc:	4705                	li	a4,1
  ce:	04e79263          	bne	a5,a4,112 <.L108>
  d2:	10100793          	li	a5,257
  d6:	02f41823          	sh	a5,48(s0)

000000da <.L107>:
  da:	000007b7          	lui	a5,0x0
  de:	00078793          	mv	a5,a5
  e2:	4398                	lw	a4,0(a5)
  e4:	04042c23          	sw	zero,88(s0)
  e8:	c380                	sw	s0,0(a5)
  ea:	cf20                	sw	s0,88(a4)
  ec:	02b4c683          	lbu	a3,43(s1)
  f0:	000007b7          	lui	a5,0x0
  f4:	00078793          	mv	a5,a5
  f8:	4705                	li	a4,1
  fa:	00d71733          	sll	a4,a4,a3
  fe:	4794                	lw	a3,8(a5)
 100:	41f75613          	sra	a2,a4,0x1f
 104:	4501                	li	a0,0
 106:	8ed9                	or	a3,a3,a4
 108:	47d8                	lw	a4,12(a5)
 10a:	c794                	sw	a3,8(a5)
 10c:	8f51                	or	a4,a4,a2
 10e:	c7d8                	sw	a4,12(a5)
 110:	b785                	j	70 <.L103>

00000112 <.L108>:
 112:	0444c503          	lbu	a0,68(s1)
 116:	00000097          	auipc	ra,0x0
 11a:	000080e7          	jalr	ra # 116 <.L108+0x4>
 11e:	02a40823          	sb	a0,48(s0)
 122:	0404c503          	lbu	a0,64(s1)
 126:	00000097          	auipc	ra,0x0
 12a:	000080e7          	jalr	ra # 126 <.L108+0x14>
 12e:	02a408a3          	sb	a0,49(s0)
 132:	b765                	j	da <.L107>

00000134 <.L109>:
 134:	557d                	li	a0,-1
 136:	8082                	ret

Disassembly of section .text.sc_system_init_done:

00000000 <sc_system_init_done>:
   0:	000007b7          	lui	a5,0x0
   4:	0107c703          	lbu	a4,16(a5) # 10 <sc_system_init_done+0x10>
   8:	4785                	li	a5,1
   a:	0af70063          	beq	a4,a5,aa <.L137>
   e:	715d                	add	sp,sp,-80
  10:	c686                	sw	ra,76(sp)
  12:	c4a2                	sw	s0,72(sp)
  14:	c2a6                	sw	s1,68(sp)
  16:	00000097          	auipc	ra,0x0
  1a:	000080e7          	jalr	ra # 16 <sc_system_init_done+0x16>
  1e:	85aa                	mv	a1,a0
  20:	cd19                	beqz	a0,3e <.L122>
  22:	00000637          	lui	a2,0x0
  26:	00000537          	lui	a0,0x0
  2a:	21700693          	li	a3,535
  2e:	00060613          	mv	a2,a2
  32:	00050513          	mv	a0,a0
  36:	00000097          	auipc	ra,0x0
  3a:	000080e7          	jalr	ra # 36 <sc_system_init_done+0x36>

0000003e <.L122>:
  3e:	02c00613          	li	a2,44
  42:	4581                	li	a1,0
  44:	0848                	add	a0,sp,20
  46:	00000097          	auipc	ra,0x0
  4a:	000080e7          	jalr	ra # 46 <.L122+0x8>
  4e:	000005b7          	lui	a1,0x0
  52:	4785                	li	a5,1
  54:	00058593          	mv	a1,a1
  58:	0848                	add	a0,sp,20
  5a:	00f10ea3          	sb	a5,29(sp)
  5e:	00000097          	auipc	ra,0x0
  62:	000080e7          	jalr	ra # 5e <.L122+0x20>
  66:	c62a                	sw	a0,12(sp)
  68:	cd05                	beqz	a0,a0 <.L120>
  6a:	00000737          	lui	a4,0x0
  6e:	00072703          	lw	a4,0(a4) # 0 <sc_system_init_done>
  72:	c71d                	beqz	a4,a0 <.L120>
  74:	14c72483          	lw	s1,332(a4)
  78:	c485                	beqz	s1,a0 <.L120>
  7a:	00000437          	lui	s0,0x0
  7e:	00040413          	mv	s0,s0
  82:	400c                	lw	a1,0(s0)
  84:	15472703          	lw	a4,340(a4)
  88:	c42e                	sw	a1,8(sp)
  8a:	9702                	jalr	a4
  8c:	47b2                	lw	a5,12(sp)
  8e:	4018                	lw	a4,0(s0)
  90:	45a2                	lw	a1,8(sp)
  92:	00000637          	lui	a2,0x0
  96:	86aa                	mv	a3,a0
  98:	00060613          	mv	a2,a2
  9c:	4505                	li	a0,1
  9e:	9482                	jalr	s1

000000a0 <.L120>:
  a0:	40b6                	lw	ra,76(sp)
  a2:	4426                	lw	s0,72(sp)
  a4:	4496                	lw	s1,68(sp)
  a6:	6161                	add	sp,sp,80
  a8:	8082                	ret

000000aa <.L137>:
  aa:	8082                	ret

Disassembly of section .text.sc_wifi_scan_done:

00000000 <sc_wifi_scan_done>:
   0:	715d                	add	sp,sp,-80
   2:	c0ca                	sw	s2,64(sp)
   4:	00000937          	lui	s2,0x0
   8:	00094683          	lbu	a3,0(s2) # 0 <sc_wifi_scan_done>
   c:	c4a2                	sw	s0,72(sp)
   e:	c2a6                	sw	s1,68(sp)
  10:	c686                	sw	ra,76(sp)
  12:	000004b7          	lui	s1,0x0
  16:	de4e                	sw	s3,60(sp)
  18:	dc52                	sw	s4,56(sp)
  1a:	da56                	sw	s5,52(sp)
  1c:	d85a                	sw	s6,48(sp)
  1e:	d65e                	sw	s7,44(sp)
  20:	d462                	sw	s8,40(sp)
  22:	d266                	sw	s9,36(sp)
  24:	4705                	li	a4,1
  26:	842a                	mv	s0,a0
  28:	87ae                	mv	a5,a1
  2a:	00090913          	mv	s2,s2
  2e:	00048493          	mv	s1,s1
  32:	00e69a63          	bne	a3,a4,46 <.L141>
  36:	4701                	li	a4,0
  38:	4681                	li	a3,0
  3a:	c4d8                	sw	a4,12(s1)
  3c:	10100713          	li	a4,257
  40:	c494                	sw	a3,8(s1)
  42:	00e49023          	sh	a4,0(s1) # 0 <sc_wifi_scan_done>

00000046 <.L141>:
  46:	0104c683          	lbu	a3,16(s1)
  4a:	4705                	li	a4,1
  4c:	06e68b63          	beq	a3,a4,c2 <.L140>
  50:	12078663          	beqz	a5,17c <.L174>
  54:	000004b7          	lui	s1,0x0
  58:	0004a703          	lw	a4,0(s1) # 0 <sc_wifi_scan_done>
  5c:	c63e                	sw	a5,12(sp)
  5e:	cb05                	beqz	a4,8e <.L173>
  60:	14c72903          	lw	s2,332(a4)
  64:	02090563          	beqz	s2,8e <.L173>
  68:	00000437          	lui	s0,0x0
  6c:	00040413          	mv	s0,s0
  70:	400c                	lw	a1,0(s0)
  72:	15472703          	lw	a4,340(a4)
  76:	c42e                	sw	a1,8(sp)
  78:	9702                	jalr	a4
  7a:	47b2                	lw	a5,12(sp)
  7c:	4018                	lw	a4,0(s0)
  7e:	45a2                	lw	a1,8(sp)
  80:	00000637          	lui	a2,0x0
  84:	86aa                	mv	a3,a0
  86:	00060613          	mv	a2,a2
  8a:	450d                	li	a0,3
  8c:	9902                	jalr	s2

0000008e <.L173>:
  8e:	0004a783          	lw	a5,0(s1)
  92:	03200513          	li	a0,50
  96:	09c7a403          	lw	s0,156(a5)
  9a:	0a07a783          	lw	a5,160(a5)
  9e:	9782                	jalr	a5
  a0:	9402                	jalr	s0
  a2:	a045                	j	142 <.L236>

000000a4 <.L151>:
  a4:	02b44783          	lbu	a5,43(s0) # 2b <sc_wifi_scan_done+0x2b>
  a8:	cbb9                	beqz	a5,fe <.L145>
  aa:	02d40783          	lb	a5,45(s0)
  ae:	0577c863          	blt	a5,s7,fe <.L145>
  b2:	03871563          	bne	a4,s8,dc <.L146>
  b6:	8522                	mv	a0,s0
  b8:	00000097          	auipc	ra,0x0
  bc:	000080e7          	jalr	ra # b8 <.L151+0x14>
  c0:	cd1d                	beqz	a0,fe <.L145>

000000c2 <.L140>:
  c2:	40b6                	lw	ra,76(sp)
  c4:	4426                	lw	s0,72(sp)
  c6:	4496                	lw	s1,68(sp)
  c8:	4906                	lw	s2,64(sp)
  ca:	59f2                	lw	s3,60(sp)
  cc:	5a62                	lw	s4,56(sp)
  ce:	5ad2                	lw	s5,52(sp)
  d0:	5b42                	lw	s6,48(sp)
  d2:	5bb2                	lw	s7,44(sp)
  d4:	5c22                	lw	s8,40(sp)
  d6:	5c92                	lw	s9,36(sp)
  d8:	6161                	add	sp,sp,80
  da:	8082                	ret

000000dc <.L146>:
  dc:	000aa783          	lw	a5,0(s5)
  e0:	00440c93          	add	s9,s0,4
  e4:	0587a983          	lw	s3,88(a5)
  e8:	00fa2023          	sw	a5,0(s4)

000000ec <.L148>:
  ec:	06099b63          	bnez	s3,162 <.L149>
  f0:	8522                	mv	a0,s0
  f2:	00000097          	auipc	ra,0x0
  f6:	000080e7          	jalr	ra # f2 <.L148+0x6>
  fa:	f561                	bnez	a0,c2 <.L140>
  fc:	4b05                	li	s6,1

000000fe <.L145>:
  fe:	4000                	lw	s0,0(s0)

00000100 <.L143>:
 100:	00094703          	lbu	a4,0(s2)
 104:	f045                	bnez	s0,a4 <.L151>
 106:	000007b7          	lui	a5,0x0
 10a:	00078793          	mv	a5,a5
 10e:	000b0763          	beqz	s6,11c <.L152>
 112:	0007c683          	lbu	a3,0(a5) # 0 <sc_wifi_scan_done>
 116:	0685                	add	a3,a3,1
 118:	00d78023          	sb	a3,0(a5)

0000011c <.L152>:
 11c:	0007c683          	lbu	a3,0(a5)
 120:	00d77563          	bgeu	a4,a3,12a <.L153>
 124:	4685                	li	a3,1
 126:	00e6fb63          	bgeu	a3,a4,13c <.L154>

0000012a <.L153>:
 12a:	000009b7          	lui	s3,0x0
 12e:	00098693          	mv	a3,s3
 132:	4294                	lw	a3,0(a3)
 134:	00098993          	mv	s3,s3
 138:	4eb4                	lw	a3,88(a3)
 13a:	eeb1                	bnez	a3,196 <.L155>

0000013c <.L154>:
 13c:	0705                	add	a4,a4,1
 13e:	00e90023          	sb	a4,0(s2)

00000142 <.L236>:
 142:	4426                	lw	s0,72(sp)
 144:	40b6                	lw	ra,76(sp)
 146:	4496                	lw	s1,68(sp)
 148:	4906                	lw	s2,64(sp)
 14a:	59f2                	lw	s3,60(sp)
 14c:	5a62                	lw	s4,56(sp)
 14e:	5ad2                	lw	s5,52(sp)
 150:	5b42                	lw	s6,48(sp)
 152:	5bb2                	lw	s7,44(sp)
 154:	5c22                	lw	s8,40(sp)
 156:	5c92                	lw	s9,36(sp)
 158:	6161                	add	sp,sp,80
 15a:	00000317          	auipc	t1,0x0
 15e:	00030067          	jr	t1 # 15a <.L236+0x18>

00000162 <.L149>:
 162:	4619                	li	a2,6
 164:	85ce                	mv	a1,s3
 166:	8566                	mv	a0,s9
 168:	00000097          	auipc	ra,0x0
 16c:	000080e7          	jalr	ra # 168 <.L149+0x6>
 170:	d559                	beqz	a0,fe <.L145>
 172:	013a2023          	sw	s3,0(s4)
 176:	0589a983          	lw	s3,88(s3) # 58 <.L141+0x12>
 17a:	bf8d                	j	ec <.L148>

0000017c <.L174>:
 17c:	00000ab7          	lui	s5,0x0
 180:	00000a37          	lui	s4,0x0
 184:	4b01                	li	s6,0
 186:	fac00b93          	li	s7,-84
 18a:	4c05                	li	s8,1
 18c:	000a8a93          	mv	s5,s5
 190:	000a0a13          	mv	s4,s4
 194:	b7b5                	j	100 <.L143>

00000196 <.L155>:
 196:	4705                	li	a4,1
 198:	00e90023          	sb	a4,0(s2)
 19c:	4709                	li	a4,2
 19e:	00e78023          	sb	a4,0(a5)
 1a2:	000007b7          	lui	a5,0x0
 1a6:	0007a703          	lw	a4,0(a5) # 0 <sc_wifi_scan_done>
 1aa:	478d                	li	a5,3
 1ac:	10f70a63          	beq	a4,a5,2c0 <.L157>
 1b0:	00000937          	lui	s2,0x0
 1b4:	00092783          	lw	a5,0(s2) # 0 <sc_wifi_scan_done>
 1b8:	4585                	li	a1,1
 1ba:	05c00513          	li	a0,92
 1be:	1707a783          	lw	a5,368(a5)
 1c2:	9782                	jalr	a5
 1c4:	842a                	mv	s0,a0
 1c6:	e125                	bnez	a0,226 <.L158>
 1c8:	00092783          	lw	a5,0(s2)
 1cc:	cf85                	beqz	a5,204 <.L160>
 1ce:	14c7a483          	lw	s1,332(a5)
 1d2:	c88d                	beqz	s1,204 <.L160>
 1d4:	00000437          	lui	s0,0x0
 1d8:	00040413          	mv	s0,s0
 1dc:	400c                	lw	a1,0(s0)
 1de:	1547a783          	lw	a5,340(a5)
 1e2:	c42e                	sw	a1,8(sp)
 1e4:	9782                	jalr	a5
 1e6:	86aa                	mv	a3,a0
 1e8:	1ca00813          	li	a6,458

000001ec <.L235>:
 1ec:	4018                	lw	a4,0(s0)
 1ee:	45a2                	lw	a1,8(sp)
 1f0:	000007b7          	lui	a5,0x0
 1f4:	00000637          	lui	a2,0x0
 1f8:	00078793          	mv	a5,a5
 1fc:	00060613          	mv	a2,a2
 200:	4505                	li	a0,1
 202:	9482                	jalr	s1

00000204 <.L160>:
 204:	4426                	lw	s0,72(sp)
 206:	40b6                	lw	ra,76(sp)
 208:	4496                	lw	s1,68(sp)
 20a:	4906                	lw	s2,64(sp)
 20c:	59f2                	lw	s3,60(sp)
 20e:	5a62                	lw	s4,56(sp)
 210:	5ad2                	lw	s5,52(sp)
 212:	5b42                	lw	s6,48(sp)
 214:	5bb2                	lw	s7,44(sp)
 216:	5c22                	lw	s8,40(sp)
 218:	5c92                	lw	s9,36(sp)
 21a:	4501                	li	a0,0
 21c:	6161                	add	sp,sp,80
 21e:	00000317          	auipc	t1,0x0
 222:	00030067          	jr	t1 # 21e <.L160+0x1a>

00000226 <.L158>:
 226:	000005b7          	lui	a1,0x0
 22a:	4619                	li	a2,6
 22c:	00058593          	mv	a1,a1
 230:	00000097          	auipc	ra,0x0
 234:	000080e7          	jalr	ra # 230 <.L158+0xa>
 238:	0009a783          	lw	a5,0(s3)
 23c:	4fb8                	lw	a4,88(a5)
 23e:	cc38                	sw	a4,88(s0)
 240:	cfa0                	sw	s0,88(a5)
 242:	4c3c                	lw	a5,88(s0)
 244:	cb89                	beqz	a5,256 <.L162>
 246:	0547c703          	lbu	a4,84(a5) # 54 <.L141+0xe>
 24a:	04e40a23          	sb	a4,84(s0) # 54 <.L141+0xe>
 24e:	02e7c783          	lbu	a5,46(a5)
 252:	02f40723          	sb	a5,46(s0)

00000256 <.L162>:
 256:	00092783          	lw	a5,0(s2)
 25a:	4585                	li	a1,1
 25c:	05c00513          	li	a0,92
 260:	1707a783          	lw	a5,368(a5)
 264:	9782                	jalr	a5
 266:	842a                	mv	s0,a0
 268:	e505                	bnez	a0,290 <.L163>
 26a:	00092783          	lw	a5,0(s2)
 26e:	dbd9                	beqz	a5,204 <.L160>
 270:	14c7a483          	lw	s1,332(a5)
 274:	d8c1                	beqz	s1,204 <.L160>
 276:	00000437          	lui	s0,0x0
 27a:	00040413          	mv	s0,s0
 27e:	400c                	lw	a1,0(s0)
 280:	1547a783          	lw	a5,340(a5)
 284:	c42e                	sw	a1,8(sp)
 286:	9782                	jalr	a5
 288:	86aa                	mv	a3,a0
 28a:	1da00813          	li	a6,474
 28e:	bfb9                	j	1ec <.L235>

00000290 <.L163>:
 290:	000005b7          	lui	a1,0x0
 294:	4619                	li	a2,6
 296:	00058593          	mv	a1,a1
 29a:	00000097          	auipc	ra,0x0
 29e:	000080e7          	jalr	ra # 29a <.L163+0xa>
 2a2:	0009a783          	lw	a5,0(s3)
 2a6:	4fb8                	lw	a4,88(a5)
 2a8:	cc38                	sw	a4,88(s0)
 2aa:	cfa0                	sw	s0,88(a5)
 2ac:	4c3c                	lw	a5,88(s0)
 2ae:	cb89                	beqz	a5,2c0 <.L157>
 2b0:	0547c703          	lbu	a4,84(a5)
 2b4:	04e40a23          	sb	a4,84(s0) # 54 <.L141+0xe>
 2b8:	02e7c783          	lbu	a5,46(a5)
 2bc:	02f40723          	sb	a5,46(s0)

000002c0 <.L157>:
 2c0:	449c                	lw	a5,8(s1)
 2c2:	6721                	lui	a4,0x8
 2c4:	1779                	add	a4,a4,-2 # 7ffe <.L172+0x7b6e>
 2c6:	8ff9                	and	a5,a5,a4
 2c8:	c49c                	sw	a5,8(s1)
 2ca:	0004a623          	sw	zero,12(s1)
 2ce:	4701                	li	a4,0
 2d0:	4685                	li	a3,1
 2d2:	ef95                	bnez	a5,30e <.L165>
 2d4:	000007b7          	lui	a5,0x0
 2d8:	0007a783          	lw	a5,0(a5) # 0 <sc_wifi_scan_done>
 2dc:	e60783e3          	beqz	a5,142 <.L236>
 2e0:	14c7a483          	lw	s1,332(a5)
 2e4:	e4048fe3          	beqz	s1,142 <.L236>
 2e8:	00000437          	lui	s0,0x0
 2ec:	00040413          	mv	s0,s0
 2f0:	400c                	lw	a1,0(s0)
 2f2:	1547a783          	lw	a5,340(a5)
 2f6:	c42e                	sw	a1,8(sp)
 2f8:	9782                	jalr	a5
 2fa:	4018                	lw	a4,0(s0)
 2fc:	45a2                	lw	a1,8(sp)
 2fe:	00000637          	lui	a2,0x0
 302:	86aa                	mv	a3,a0
 304:	00060613          	mv	a2,a2
 308:	450d                	li	a0,3
 30a:	9482                	jalr	s1
 30c:	bd1d                	j	142 <.L236>

0000030e <.L165>:
 30e:	0017b613          	seqz	a2,a5
 312:	fff78593          	add	a1,a5,-1
 316:	40c70633          	sub	a2,a4,a2
 31a:	8f71                	and	a4,a4,a2
 31c:	8fed                	and	a5,a5,a1
 31e:	8636                	mv	a2,a3
 320:	00e7e5b3          	or	a1,a5,a4
 324:	0685                	add	a3,a3,1
 326:	0ff6f693          	zext.b	a3,a3
 32a:	f1f5                	bnez	a1,30e <.L165>
 32c:	0014c503          	lbu	a0,1(s1)
 330:	00c48d23          	sb	a2,26(s1)
 334:	00000097          	auipc	ra,0x0
 338:	000080e7          	jalr	ra # 334 <.L165+0x26>
 33c:	85aa                	mv	a1,a0
 33e:	cd19                	beqz	a0,35c <.L167>
 340:	00000637          	lui	a2,0x0
 344:	00000537          	lui	a0,0x0
 348:	1f800693          	li	a3,504
 34c:	00060613          	mv	a2,a2
 350:	00050513          	mv	a0,a0
 354:	00000097          	auipc	ra,0x0
 358:	000080e7          	jalr	ra # 354 <.L165+0x46>

0000035c <.L167>:
 35c:	4501                	li	a0,0
 35e:	00000097          	auipc	ra,0x0
 362:	000080e7          	jalr	ra # 35e <.L167+0x2>
 366:	85aa                	mv	a1,a0
 368:	cd19                	beqz	a0,386 <.L168>
 36a:	00000637          	lui	a2,0x0
 36e:	00000537          	lui	a0,0x0
 372:	1f900693          	li	a3,505
 376:	00060613          	mv	a2,a2
 37a:	00050513          	mv	a0,a0
 37e:	00000097          	auipc	ra,0x0
 382:	000080e7          	jalr	ra # 37e <.L167+0x22>

00000386 <.L168>:
 386:	47b1                	li	a5,12
 388:	0868                	add	a0,sp,28
 38a:	ce3e                	sw	a5,28(sp)
 38c:	00000097          	auipc	ra,0x0
 390:	000080e7          	jalr	ra # 38c <.L168+0x6>
 394:	85aa                	mv	a1,a0
 396:	cd19                	beqz	a0,3b4 <.L169>
 398:	00000637          	lui	a2,0x0
 39c:	00000537          	lui	a0,0x0
 3a0:	1fd00693          	li	a3,509
 3a4:	00060613          	mv	a2,a2
 3a8:	00050513          	mv	a0,a0
 3ac:	00000097          	auipc	ra,0x0
 3b0:	000080e7          	jalr	ra # 3ac <.L168+0x26>

000003b4 <.L169>:
 3b4:	00000537          	lui	a0,0x0
 3b8:	00050513          	mv	a0,a0
 3bc:	00000097          	auipc	ra,0x0
 3c0:	000080e7          	jalr	ra # 3bc <.L169+0x8>
 3c4:	85aa                	mv	a1,a0
 3c6:	cd19                	beqz	a0,3e4 <.L170>
 3c8:	00000637          	lui	a2,0x0
 3cc:	00000537          	lui	a0,0x0
 3d0:	1fe00693          	li	a3,510
 3d4:	00060613          	mv	a2,a2
 3d8:	00050513          	mv	a0,a0
 3dc:	00000097          	auipc	ra,0x0
 3e0:	000080e7          	jalr	ra # 3dc <.L169+0x28>

000003e4 <.L170>:
 3e4:	4505                	li	a0,1
 3e6:	00000097          	auipc	ra,0x0
 3ea:	000080e7          	jalr	ra # 3e6 <.L170+0x2>
 3ee:	85aa                	mv	a1,a0
 3f0:	cd19                	beqz	a0,40e <.L171>
 3f2:	00000637          	lui	a2,0x0
 3f6:	00000537          	lui	a0,0x0
 3fa:	1ff00693          	li	a3,511
 3fe:	00060613          	mv	a2,a2
 402:	00050513          	mv	a0,a0
 406:	00000097          	auipc	ra,0x0
 40a:	000080e7          	jalr	ra # 406 <.L170+0x22>

0000040e <.L171>:
 40e:	00000437          	lui	s0,0x0
 412:	00042783          	lw	a5,0(s0) # 0 <sc_wifi_scan_done>
 416:	000004b7          	lui	s1,0x0
 41a:	00048513          	mv	a0,s1
 41e:	0e47a783          	lw	a5,228(a5)
 422:	9782                	jalr	a5
 424:	00042783          	lw	a5,0(s0)
 428:	00048513          	mv	a0,s1
 42c:	0e87a783          	lw	a5,232(a5)
 430:	9782                	jalr	a5
 432:	00042783          	lw	a5,0(s0)
 436:	000005b7          	lui	a1,0x0
 43a:	4601                	li	a2,0
 43c:	0ec7a783          	lw	a5,236(a5)
 440:	00058593          	mv	a1,a1
 444:	00048513          	mv	a0,s1
 448:	9782                	jalr	a5
 44a:	000007b7          	lui	a5,0x0
 44e:	4705                	li	a4,1
 450:	4501                	li	a0,0
 452:	00e78023          	sb	a4,0(a5) # 0 <sc_wifi_scan_done>
 456:	00000097          	auipc	ra,0x0
 45a:	000080e7          	jalr	ra # 456 <.L171+0x48>
 45e:	00042783          	lw	a5,0(s0)
 462:	c79d                	beqz	a5,490 <.L172>
 464:	14c7a903          	lw	s2,332(a5)
 468:	02090463          	beqz	s2,490 <.L172>
 46c:	000004b7          	lui	s1,0x0
 470:	00048493          	mv	s1,s1
 474:	408c                	lw	a1,0(s1)
 476:	1547a783          	lw	a5,340(a5)
 47a:	c42e                	sw	a1,8(sp)
 47c:	9782                	jalr	a5
 47e:	4098                	lw	a4,0(s1)
 480:	45a2                	lw	a1,8(sp)
 482:	00000637          	lui	a2,0x0
 486:	86aa                	mv	a3,a0
 488:	00060613          	mv	a2,a2
 48c:	450d                	li	a0,3
 48e:	9902                	jalr	s2

00000490 <.L172>:
 490:	00042783          	lw	a5,0(s0)
 494:	00000537          	lui	a0,0x0
 498:	00052503          	lw	a0,0(a0) # 0 <sc_wifi_scan_done>
 49c:	0b47a783          	lw	a5,180(a5)
 4a0:	577d                	li	a4,-1
 4a2:	4681                	li	a3,0
 4a4:	4601                	li	a2,0
 4a6:	4581                	li	a1,0
 4a8:	9782                	jalr	a5
 4aa:	b921                	j	c2 <.L140>

Disassembly of section .text.esp_smartconfig_internal_start:

00000000 <esp_smartconfig_internal_start>:
   0:	1101                	add	sp,sp,-32
   2:	000007b7          	lui	a5,0x0
   6:	c42a                	sw	a0,8(sp)
   8:	00078793          	mv	a5,a5
   c:	0048                	add	a0,sp,4
   e:	4585                	li	a1,1
  10:	ce06                	sw	ra,28(sp)
  12:	c602                	sw	zero,12(sp)
  14:	c23e                	sw	a5,4(sp)
  16:	00000097          	auipc	ra,0x0
  1a:	000080e7          	jalr	ra # 16 <esp_smartconfig_internal_start+0x16>
  1e:	40f2                	lw	ra,28(sp)
  20:	6105                	add	sp,sp,32
  22:	8082                	ret

Disassembly of section .text.esp_smartconfig_internal_stop:

00000000 <esp_smartconfig_internal_stop>:
   0:	1101                	add	sp,sp,-32
   2:	000007b7          	lui	a5,0x0
   6:	00078793          	mv	a5,a5
   a:	0048                	add	a0,sp,4
   c:	4585                	li	a1,1
   e:	ce06                	sw	ra,28(sp)
  10:	c23e                	sw	a5,4(sp)
  12:	c402                	sw	zero,8(sp)
  14:	c602                	sw	zero,12(sp)
  16:	00000097          	auipc	ra,0x0
  1a:	000080e7          	jalr	ra # 16 <esp_smartconfig_internal_stop+0x16>
  1e:	40f2                	lw	ra,28(sp)
  20:	6105                	add	sp,sp,32
  22:	8082                	ret

Disassembly of section .text.sc_smartconfig_restart_local:

00000000 <sc_smartconfig_restart_local>:
   0:	7179                	add	sp,sp,-48
   2:	d422                	sw	s0,40(sp)
   4:	d606                	sw	ra,44(sp)
   6:	d226                	sw	s1,36(sp)
   8:	00000097          	auipc	ra,0x0
   c:	000080e7          	jalr	ra # 8 <sc_smartconfig_restart_local+0x8>
  10:	00000437          	lui	s0,0x0
  14:	cd31                	beqz	a0,70 <.L242>
  16:	00042783          	lw	a5,0(s0) # 0 <sc_smartconfig_restart_local>
  1a:	000004b7          	lui	s1,0x0
  1e:	00048513          	mv	a0,s1
  22:	0e47a783          	lw	a5,228(a5) # e4 <.L330+0x2>
  26:	9782                	jalr	a5
  28:	00042783          	lw	a5,0(s0)
  2c:	00048513          	mv	a0,s1
  30:	0e87a783          	lw	a5,232(a5)
  34:	9782                	jalr	a5
  36:	00042783          	lw	a5,0(s0)
  3a:	000005b7          	lui	a1,0x0
  3e:	4601                	li	a2,0
  40:	0ec7a783          	lw	a5,236(a5)
  44:	00058593          	mv	a1,a1
  48:	00048513          	mv	a0,s1
  4c:	9782                	jalr	a5
  4e:	00042783          	lw	a5,0(s0)
  52:	6585                	lui	a1,0x1
  54:	4601                	li	a2,0
  56:	0e07a783          	lw	a5,224(a5)
  5a:	38858593          	add	a1,a1,904 # 1388 <.L172+0xef8>
  5e:	00048513          	mv	a0,s1
  62:	9782                	jalr	a5

00000064 <.L243>:
  64:	50b2                	lw	ra,44(sp)
  66:	5422                	lw	s0,40(sp)
  68:	5492                	lw	s1,36(sp)
  6a:	4501                	li	a0,0
  6c:	6145                	add	sp,sp,48
  6e:	8082                	ret

00000070 <.L242>:
  70:	00000097          	auipc	ra,0x0
  74:	000080e7          	jalr	ra # 70 <.L242>
  78:	00042783          	lw	a5,0(s0)
  7c:	c795                	beqz	a5,a8 <.L244>
  7e:	14c7a483          	lw	s1,332(a5)
  82:	c09d                	beqz	s1,a8 <.L244>
  84:	00000437          	lui	s0,0x0
  88:	00040413          	mv	s0,s0
  8c:	400c                	lw	a1,0(s0)
  8e:	1547a783          	lw	a5,340(a5)
  92:	c62e                	sw	a1,12(sp)
  94:	9782                	jalr	a5
  96:	4018                	lw	a4,0(s0)
  98:	45b2                	lw	a1,12(sp)
  9a:	00000637          	lui	a2,0x0
  9e:	86aa                	mv	a3,a0
  a0:	00060613          	mv	a2,a2
  a4:	450d                	li	a0,3
  a6:	9482                	jalr	s1

000000a8 <.L244>:
  a8:	000007b7          	lui	a5,0x0
  ac:	0187c783          	lbu	a5,24(a5) # 18 <sc_smartconfig_restart_local+0x18>
  b0:	cc02                	sw	zero,24(sp)
  b2:	0828                	add	a0,sp,24
  b4:	00f037b3          	snez	a5,a5
  b8:	ce02                	sw	zero,28(sp)
  ba:	00f10c23          	sb	a5,24(sp)
  be:	00000097          	auipc	ra,0x0
  c2:	000080e7          	jalr	ra # be <.L244+0x16>
  c6:	bf79                	j	64 <.L243>

Disassembly of section .text.smartconfig_get_status:

00000000 <smartconfig_get_status>:
   0:	000007b7          	lui	a5,0x0
   4:	00078793          	mv	a5,a5
   8:	4bc8                	lw	a0,20(a5)
   a:	e129                	bnez	a0,4c <.L253>
   c:	0117c703          	lbu	a4,17(a5) # 11 <smartconfig_get_status+0x11>
  10:	cb5d                	beqz	a4,c6 <.L252>
  12:	0127c683          	lbu	a3,18(a5)
  16:	4705                	li	a4,1
  18:	0ae68663          	beq	a3,a4,c4 <.L265>
  1c:	0197c783          	lbu	a5,25(a5)
  20:	cfc1                	beqz	a5,b8 <.L261>
  22:	000007b7          	lui	a5,0x0
  26:	0007a783          	lw	a5,0(a5) # 0 <smartconfig_get_status>
  2a:	4398                	lw	a4,0(a5)
  2c:	43d4                	lw	a3,4(a5)
  2e:	0ff6f793          	zext.b	a5,a3
  32:	00e6f463          	bgeu	a3,a4,3a <.L256>
  36:	0ff77793          	zext.b	a5,a4

0000003a <.L256>:
  3a:	cfbd                	beqz	a5,b8 <.L261>
  3c:	4705                	li	a4,1
  3e:	06e78f63          	beq	a5,a4,bc <.L262>
  42:	4709                	li	a4,2

00000044 <.L280>:
  44:	08e79163          	bne	a5,a4,c6 <.L252>
  48:	450d                	li	a0,3
  4a:	8082                	ret

0000004c <.L253>:
  4c:	4705                	li	a4,1
  4e:	06e51963          	bne	a0,a4,c0 <.L264>
  52:	0117c703          	lbu	a4,17(a5)
  56:	c72d                	beqz	a4,c0 <.L264>
  58:	0127c703          	lbu	a4,18(a5)
  5c:	06a70463          	beq	a4,a0,c4 <.L265>
  60:	0197c783          	lbu	a5,25(a5)
  64:	c3ad                	beqz	a5,c6 <.L252>
  66:	000007b7          	lui	a5,0x0
  6a:	0007a703          	lw	a4,0(a5) # 0 <smartconfig_get_status>
  6e:	4781                	li	a5,0
  70:	01f74683          	lbu	a3,31(a4)
  74:	00a69863          	bne	a3,a0,84 <.L257>
  78:	000007b7          	lui	a5,0x0
  7c:	0007a783          	lw	a5,0(a5) # 0 <smartconfig_get_status>
  80:	0007c783          	lbu	a5,0(a5)

00000084 <.L257>:
  84:	02074683          	lbu	a3,32(a4)
  88:	4705                	li	a4,1
  8a:	00e69b63          	bne	a3,a4,a0 <.L258>
  8e:	00000737          	lui	a4,0x0
  92:	00072703          	lw	a4,0(a4) # 0 <smartconfig_get_status>
  96:	4318                	lw	a4,0(a4)
  98:	00e7f463          	bgeu	a5,a4,a0 <.L258>
  9c:	0ff77793          	zext.b	a5,a4

000000a0 <.L258>:
  a0:	c39d                	beqz	a5,c6 <.L252>
  a2:	fff78713          	add	a4,a5,-1
  a6:	0ff77713          	zext.b	a4,a4
  aa:	468d                	li	a3,3
  ac:	4509                	li	a0,2
  ae:	00e6fc63          	bgeu	a3,a4,c6 <.L252>
  b2:	4719                	li	a4,6
  b4:	4501                	li	a0,0
  b6:	b779                	j	44 <.L280>

000000b8 <.L261>:
  b8:	4505                	li	a0,1
  ba:	8082                	ret

000000bc <.L262>:
  bc:	4509                	li	a0,2
  be:	8082                	ret

000000c0 <.L264>:
  c0:	4501                	li	a0,0
  c2:	8082                	ret

000000c4 <.L265>:
  c4:	4511                	li	a0,4

000000c6 <.L252>:
  c6:	8082                	ret

Disassembly of section .text.esp_smartconfig_start_local:

00000000 <esp_smartconfig_start_local>:
   0:	7139                	add	sp,sp,-64
   2:	d64e                	sw	s3,44(sp)
   4:	de06                	sw	ra,60(sp)
   6:	dc22                	sw	s0,56(sp)
   8:	da26                	sw	s1,52(sp)
   a:	d84a                	sw	s2,48(sp)
   c:	d452                	sw	s4,40(sp)
   e:	d256                	sw	s5,36(sp)
  10:	000009b7          	lui	s3,0x0
  14:	e539                	bnez	a0,62 <.L282>
  16:	0009a783          	lw	a5,0(s3) # 0 <esp_smartconfig_start_local>
  1a:	10200413          	li	s0,258
  1e:	cb85                	beqz	a5,4e <.L281>
  20:	14c7a483          	lw	s1,332(a5)
  24:	c48d                	beqz	s1,4e <.L281>
  26:	00000437          	lui	s0,0x0
  2a:	00040413          	mv	s0,s0
  2e:	400c                	lw	a1,0(s0)
  30:	1547a783          	lw	a5,340(a5)
  34:	c62e                	sw	a1,12(sp)
  36:	9782                	jalr	a5
  38:	4018                	lw	a4,0(s0)
  3a:	45b2                	lw	a1,12(sp)
  3c:	00000637          	lui	a2,0x0
  40:	86aa                	mv	a3,a0
  42:	00060613          	mv	a2,a2
  46:	4505                	li	a0,1
  48:	9482                	jalr	s1
  4a:	10200413          	li	s0,258

0000004e <.L281>:
  4e:	50f2                	lw	ra,60(sp)
  50:	8522                	mv	a0,s0
  52:	5462                	lw	s0,56(sp)
  54:	54d2                	lw	s1,52(sp)
  56:	5942                	lw	s2,48(sp)
  58:	59b2                	lw	s3,44(sp)
  5a:	5a22                	lw	s4,40(sp)
  5c:	5a92                	lw	s5,36(sp)
  5e:	6121                	add	sp,sp,64
  60:	8082                	ret

00000062 <.L282>:
  62:	892a                	mv	s2,a0
  64:	0868                	add	a0,sp,28
  66:	00000097          	auipc	ra,0x0
  6a:	000080e7          	jalr	ra # 66 <.L282+0x4>
  6e:	842a                	mv	s0,a0
  70:	c91d                	beqz	a0,a6 <.L284>
  72:	0009a783          	lw	a5,0(s3)
  76:	547d                	li	s0,-1
  78:	dbf9                	beqz	a5,4e <.L281>
  7a:	14c7a483          	lw	s1,332(a5)
  7e:	d8e1                	beqz	s1,4e <.L281>
  80:	00000437          	lui	s0,0x0
  84:	00040413          	mv	s0,s0
  88:	400c                	lw	a1,0(s0)
  8a:	1547a783          	lw	a5,340(a5)
  8e:	c62e                	sw	a1,12(sp)
  90:	9782                	jalr	a5
  92:	4018                	lw	a4,0(s0)
  94:	00000637          	lui	a2,0x0
  98:	86aa                	mv	a3,a0
  9a:	00060613          	mv	a2,a2

0000009e <.L331>:
  9e:	45b2                	lw	a1,12(sp)
  a0:	4505                	li	a0,1
  a2:	9482                	jalr	s1
  a4:	a83d                	j	e2 <.L330>

000000a6 <.L284>:
  a6:	4772                	lw	a4,28(sp)
  a8:	4789                	li	a5,2
  aa:	02f71e63          	bne	a4,a5,e6 <.L285>
  ae:	0009a783          	lw	a5,0(s3)
  b2:	547d                	li	s0,-1
  b4:	dfc9                	beqz	a5,4e <.L281>
  b6:	14c7a483          	lw	s1,332(a5)
  ba:	d8d1                	beqz	s1,4e <.L281>
  bc:	00000437          	lui	s0,0x0
  c0:	00040413          	mv	s0,s0
  c4:	400c                	lw	a1,0(s0)
  c6:	1547a783          	lw	a5,340(a5)
  ca:	c62e                	sw	a1,12(sp)
  cc:	9782                	jalr	a5
  ce:	47f2                	lw	a5,28(sp)
  d0:	4018                	lw	a4,0(s0)
  d2:	45b2                	lw	a1,12(sp)
  d4:	00000637          	lui	a2,0x0
  d8:	86aa                	mv	a3,a0
  da:	00060613          	mv	a2,a2
  de:	4505                	li	a0,1
  e0:	9482                	jalr	s1

000000e2 <.L330>:
  e2:	547d                	li	s0,-1
  e4:	b7ad                	j	4e <.L281>

000000e6 <.L285>:
  e6:	00000097          	auipc	ra,0x0
  ea:	000080e7          	jalr	ra # e6 <.L285>
  ee:	c905                	beqz	a0,11e <.L286>
  f0:	0009a783          	lw	a5,0(s3)
  f4:	547d                	li	s0,-1
  f6:	dfa1                	beqz	a5,4e <.L281>
  f8:	14c7a483          	lw	s1,332(a5)
  fc:	d8a9                	beqz	s1,4e <.L281>
  fe:	00000437          	lui	s0,0x0
 102:	00040413          	mv	s0,s0
 106:	400c                	lw	a1,0(s0)
 108:	1547a783          	lw	a5,340(a5)
 10c:	c62e                	sw	a1,12(sp)
 10e:	9782                	jalr	a5
 110:	00000637          	lui	a2,0x0
 114:	4018                	lw	a4,0(s0)
 116:	86aa                	mv	a3,a0
 118:	00060613          	mv	a2,a2
 11c:	b749                	j	9e <.L331>

0000011e <.L286>:
 11e:	00000097          	auipc	ra,0x0
 122:	000080e7          	jalr	ra # 11e <.L286>
 126:	85aa                	mv	a1,a0
 128:	cd19                	beqz	a0,146 <.L287>
 12a:	00000637          	lui	a2,0x0
 12e:	00000537          	lui	a0,0x0
 132:	23d00693          	li	a3,573
 136:	00060613          	mv	a2,a2
 13a:	00050513          	mv	a0,a0
 13e:	00000097          	auipc	ra,0x0
 142:	000080e7          	jalr	ra # 13e <.L286+0x20>

00000146 <.L287>:
 146:	0009a783          	lw	a5,0(s3)
 14a:	03200513          	li	a0,50
 14e:	09c7a483          	lw	s1,156(a5)
 152:	0a07a783          	lw	a5,160(a5)
 156:	9782                	jalr	a5
 158:	9482                	jalr	s1
 15a:	00094703          	lbu	a4,0(s2)
 15e:	000004b7          	lui	s1,0x0
 162:	00048793          	mv	a5,s1
 166:	00e78c23          	sb	a4,24(a5)
 16a:	0009a783          	lw	a5,0(s3)
 16e:	00048493          	mv	s1,s1
 172:	cf8d                	beqz	a5,1ac <.L288>
 174:	14c7aa83          	lw	s5,332(a5)
 178:	020a8a63          	beqz	s5,1ac <.L288>
 17c:	00000a37          	lui	s4,0x0
 180:	000a0a13          	mv	s4,s4
 184:	000a2583          	lw	a1,0(s4) # 0 <esp_smartconfig_start_local>
 188:	1547a783          	lw	a5,340(a5)
 18c:	c62e                	sw	a1,12(sp)
 18e:	9782                	jalr	a5
 190:	000a2703          	lw	a4,0(s4)
 194:	45b2                	lw	a1,12(sp)
 196:	000007b7          	lui	a5,0x0
 19a:	00000637          	lui	a2,0x0
 19e:	86aa                	mv	a3,a0
 1a0:	00078793          	mv	a5,a5
 1a4:	00060613          	mv	a2,a2
 1a8:	450d                	li	a0,3
 1aa:	9a82                	jalr	s5

000001ac <.L288>:
 1ac:	00049823          	sh	zero,16(s1) # 10 <esp_smartconfig_start_local+0x10>
 1b0:	4501                	li	a0,0
 1b2:	00048923          	sb	zero,18(s1)
 1b6:	00048ca3          	sb	zero,25(s1)
 1ba:	00000097          	auipc	ra,0x0
 1be:	000080e7          	jalr	ra # 1ba <.L288+0xe>
 1c2:	cd05                	beqz	a0,1fa <.L289>
 1c4:	0009a783          	lw	a5,0(s3)
 1c8:	cb8d                	beqz	a5,1fa <.L289>
 1ca:	14c7aa03          	lw	s4,332(a5) # 14c <.L287+0x6>
 1ce:	020a0663          	beqz	s4,1fa <.L289>
 1d2:	000009b7          	lui	s3,0x0
 1d6:	00098993          	mv	s3,s3
 1da:	0009a583          	lw	a1,0(s3) # 0 <esp_smartconfig_start_local>
 1de:	1547a783          	lw	a5,340(a5)
 1e2:	c62e                	sw	a1,12(sp)
 1e4:	9782                	jalr	a5
 1e6:	0009a703          	lw	a4,0(s3)
 1ea:	45b2                	lw	a1,12(sp)
 1ec:	00000637          	lui	a2,0x0
 1f0:	86aa                	mv	a3,a0
 1f2:	00060613          	mv	a2,a2
 1f6:	4505                	li	a0,1
 1f8:	9a02                	jalr	s4

000001fa <.L289>:
 1fa:	00000097          	auipc	ra,0x0
 1fe:	000080e7          	jalr	ra # 1fa <.L289>
 202:	000007b7          	lui	a5,0x0
 206:	0007a783          	lw	a5,0(a5) # 0 <esp_smartconfig_start_local>
 20a:	4709                	li	a4,2
 20c:	02e78563          	beq	a5,a4,236 <.L290>
 210:	00f76863          	bltu	a4,a5,220 <.L291>
 214:	e78d                	bnez	a5,23e <.L328>
 216:	00000097          	auipc	ra,0x0
 21a:	000080e7          	jalr	ra # 216 <.L289+0x1c>
 21e:	a021                	j	226 <.L295>

00000220 <.L291>:
 220:	470d                	li	a4,3
 222:	02e78363          	beq	a5,a4,248 <.L294>

00000226 <.L295>:
 226:	00000097          	auipc	ra,0x0
 22a:	000080e7          	jalr	ra # 226 <.L295>
 22e:	4785                	li	a5,1
 230:	00f488a3          	sb	a5,17(s1)
 234:	bd29                	j	4e <.L281>

00000236 <.L290>:
 236:	00000097          	auipc	ra,0x0
 23a:	000080e7          	jalr	ra # 236 <.L290>

0000023e <.L328>:
 23e:	00000097          	auipc	ra,0x0
 242:	000080e7          	jalr	ra # 23e <.L328>
 246:	b7c5                	j	226 <.L295>

00000248 <.L294>:
 248:	00000097          	auipc	ra,0x0
 24c:	000080e7          	jalr	ra # 248 <.L294>
 250:	00194783          	lbu	a5,1(s2)
 254:	dbe9                	beqz	a5,226 <.L295>
 256:	00492783          	lw	a5,4(s2)
 25a:	d7f1                	beqz	a5,226 <.L295>
 25c:	00000097          	auipc	ra,0x0
 260:	000080e7          	jalr	ra # 25c <.L294+0x14>
 264:	00492903          	lw	s2,4(s2)
 268:	854a                	mv	a0,s2
 26a:	00000097          	auipc	ra,0x0
 26e:	000080e7          	jalr	ra # 26a <.L294+0x22>
 272:	0ff57593          	zext.b	a1,a0
 276:	854a                	mv	a0,s2
 278:	00000097          	auipc	ra,0x0
 27c:	000080e7          	jalr	ra # 278 <.L294+0x30>
 280:	b75d                	j	226 <.L295>

Disassembly of section .text.esp_esptouch_set_timeout_local:

00000000 <esp_esptouch_set_timeout_local>:
   0:	1141                	add	sp,sp,-16
   2:	c422                	sw	s0,8(sp)
   4:	c606                	sw	ra,12(sp)
   6:	842a                	mv	s0,a0
   8:	00000097          	auipc	ra,0x0
   c:	000080e7          	jalr	ra # 8 <esp_esptouch_set_timeout_local+0x8>
  10:	ed19                	bnez	a0,2e <.L335>
  12:	47bd                	li	a5,15
  14:	8522                	mv	a0,s0
  16:	00f47363          	bgeu	s0,a5,1c <.L334>
  1a:	453d                	li	a0,15

0000001c <.L334>:
  1c:	000007b7          	lui	a5,0x0
  20:	00a7a023          	sw	a0,0(a5) # 0 <esp_esptouch_set_timeout_local>
  24:	4501                	li	a0,0

00000026 <.L332>:
  26:	40b2                	lw	ra,12(sp)
  28:	4422                	lw	s0,8(sp)
  2a:	0141                	add	sp,sp,16
  2c:	8082                	ret

0000002e <.L335>:
  2e:	557d                	li	a0,-1
  30:	bfdd                	j	26 <.L332>

Disassembly of section .text.esp_smartconfig_set_type_local:

00000000 <esp_smartconfig_set_type_local>:
   0:	1141                	add	sp,sp,-16
   2:	c422                	sw	s0,8(sp)
   4:	c606                	sw	ra,12(sp)
   6:	842a                	mv	s0,a0
   8:	00000097          	auipc	ra,0x0
   c:	000080e7          	jalr	ra # 8 <esp_smartconfig_set_type_local+0x8>
  10:	ed01                	bnez	a0,28 <.L339>
  12:	478d                	li	a5,3
  14:	0087e663          	bltu	a5,s0,20 <.L337>
  18:	000007b7          	lui	a5,0x0
  1c:	0087a023          	sw	s0,0(a5) # 0 <esp_smartconfig_set_type_local>

00000020 <.L337>:
  20:	40b2                	lw	ra,12(sp)
  22:	4422                	lw	s0,8(sp)
  24:	0141                	add	sp,sp,16
  26:	8082                	ret

00000028 <.L339>:
  28:	557d                	li	a0,-1
  2a:	bfdd                	j	20 <.L337>

Disassembly of section .text.esp_smartconfig_get_version:

00000000 <esp_smartconfig_get_version>:
   0:	00000537          	lui	a0,0x0
   4:	00050513          	mv	a0,a0
   8:	8082                	ret

Disassembly of section .text.esp_esptouch_set_timeout:

00000000 <esp_esptouch_set_timeout>:
   0:	1101                	add	sp,sp,-32
   2:	000007b7          	lui	a5,0x0
   6:	c42a                	sw	a0,8(sp)
   8:	00078793          	mv	a5,a5
   c:	0048                	add	a0,sp,4
   e:	4585                	li	a1,1
  10:	ce06                	sw	ra,28(sp)
  12:	c23e                	sw	a5,4(sp)
  14:	c602                	sw	zero,12(sp)
  16:	00000097          	auipc	ra,0x0
  1a:	000080e7          	jalr	ra # 16 <esp_esptouch_set_timeout+0x16>
  1e:	40f2                	lw	ra,28(sp)
  20:	4501                	li	a0,0
  22:	6105                	add	sp,sp,32
  24:	8082                	ret

Disassembly of section .text.esp_smartconfig_set_type:

00000000 <esp_smartconfig_set_type>:
   0:	1101                	add	sp,sp,-32
   2:	000007b7          	lui	a5,0x0
   6:	c42a                	sw	a0,8(sp)
   8:	00078793          	mv	a5,a5
   c:	0048                	add	a0,sp,4
   e:	4585                	li	a1,1
  10:	ce06                	sw	ra,28(sp)
  12:	c23e                	sw	a5,4(sp)
  14:	c602                	sw	zero,12(sp)
  16:	00000097          	auipc	ra,0x0
  1a:	000080e7          	jalr	ra # 16 <esp_smartconfig_set_type+0x16>
  1e:	40f2                	lw	ra,28(sp)
  20:	6105                	add	sp,sp,32
  22:	8082                	ret

Disassembly of section .text.esp_smartconfig_get_type:

00000000 <esp_smartconfig_get_type>:
   0:	000007b7          	lui	a5,0x0
   4:	0007a503          	lw	a0,0(a5) # 0 <esp_smartconfig_get_type>
   8:	8082                	ret

Disassembly of section .text.esp_smartconfig_fast_mode:

00000000 <esp_smartconfig_fast_mode>:
   0:	1101                	add	sp,sp,-32
   2:	000007b7          	lui	a5,0x0
   6:	c42a                	sw	a0,8(sp)
   8:	00078793          	mv	a5,a5
   c:	0048                	add	a0,sp,4
   e:	4585                	li	a1,1
  10:	ce06                	sw	ra,28(sp)
  12:	c23e                	sw	a5,4(sp)
  14:	c602                	sw	zero,12(sp)
  16:	00000097          	auipc	ra,0x0
  1a:	000080e7          	jalr	ra # 16 <esp_smartconfig_fast_mode+0x16>
  1e:	40f2                	lw	ra,28(sp)
  20:	6105                	add	sp,sp,32
  22:	8082                	ret

Disassembly of section .text.esp_smartconfig_get_rvd_data:

00000000 <esp_smartconfig_get_rvd_data>:
   0:	000007b7          	lui	a5,0x0
   4:	0007a703          	lw	a4,0(a5) # 0 <esp_smartconfig_get_rvd_data>
   8:	7179                	add	sp,sp,-48
   a:	d606                	sw	ra,44(sp)
   c:	d422                	sw	s0,40(sp)
   e:	d226                	sw	s1,36(sp)
  10:	d04a                	sw	s2,32(sp)
  12:	ce4e                	sw	s3,28(sp)
  14:	cc52                	sw	s4,24(sp)
  16:	ca56                	sw	s5,20(sp)
  18:	478d                	li	a5,3
  1a:	04f70763          	beq	a4,a5,68 <.L351>
  1e:	000007b7          	lui	a5,0x0
  22:	0007a783          	lw	a5,0(a5) # 0 <esp_smartconfig_get_rvd_data>
  26:	557d                	li	a0,-1
  28:	c79d                	beqz	a5,56 <.L350>
  2a:	14c7a483          	lw	s1,332(a5)
  2e:	c485                	beqz	s1,56 <.L350>
  30:	00000437          	lui	s0,0x0
  34:	00040413          	mv	s0,s0
  38:	400c                	lw	a1,0(s0)
  3a:	1547a783          	lw	a5,340(a5)
  3e:	c62e                	sw	a1,12(sp)
  40:	9782                	jalr	a5
  42:	4018                	lw	a4,0(s0)
  44:	45b2                	lw	a1,12(sp)
  46:	00000637          	lui	a2,0x0
  4a:	86aa                	mv	a3,a0
  4c:	00060613          	mv	a2,a2
  50:	4505                	li	a0,1
  52:	9482                	jalr	s1
  54:	557d                	li	a0,-1

00000056 <.L350>:
  56:	50b2                	lw	ra,44(sp)
  58:	5422                	lw	s0,40(sp)
  5a:	5492                	lw	s1,36(sp)
  5c:	5902                	lw	s2,32(sp)
  5e:	49f2                	lw	s3,28(sp)
  60:	4a62                	lw	s4,24(sp)
  62:	4ad2                	lw	s5,20(sp)
  64:	6145                	add	sp,sp,48
  66:	8082                	ret

00000068 <.L351>:
  68:	842a                	mv	s0,a0
  6a:	557d                	li	a0,-1
  6c:	d46d                	beqz	s0,56 <.L350>
  6e:	000009b7          	lui	s3,0x0
  72:	0009a783          	lw	a5,0(s3) # 0 <esp_smartconfig_get_rvd_data>
  76:	6a85                	lui	s5,0x1
  78:	84ae                	mv	s1,a1
  7a:	97d6                	add	a5,a5,s5
  7c:	a417c783          	lbu	a5,-1471(a5)
  80:	04b7e463          	bltu	a5,a1,c8 <.L353>
  84:	000007b7          	lui	a5,0x0
  88:	0007a783          	lw	a5,0(a5) # 0 <esp_smartconfig_get_rvd_data>
  8c:	cf95                	beqz	a5,c8 <.L353>
  8e:	14c7aa03          	lw	s4,332(a5)
  92:	020a0b63          	beqz	s4,c8 <.L353>
  96:	00000937          	lui	s2,0x0
  9a:	00090913          	mv	s2,s2
  9e:	00092583          	lw	a1,0(s2) # 0 <esp_smartconfig_get_rvd_data>
  a2:	1547a783          	lw	a5,340(a5)
  a6:	c62e                	sw	a1,12(sp)
  a8:	9782                	jalr	a5
  aa:	0009a783          	lw	a5,0(s3)
  ae:	00092703          	lw	a4,0(s2)
  b2:	45b2                	lw	a1,12(sp)
  b4:	97d6                	add	a5,a5,s5
  b6:	a417c783          	lbu	a5,-1471(a5)
  ba:	00000637          	lui	a2,0x0
  be:	86aa                	mv	a3,a0
  c0:	00060613          	mv	a2,a2
  c4:	450d                	li	a0,3
  c6:	9a02                	jalr	s4

000000c8 <.L353>:
  c8:	0009a583          	lw	a1,0(s3)
  cc:	6785                	lui	a5,0x1
  ce:	97ae                	add	a5,a5,a1
  d0:	a417c903          	lbu	s2,-1471(a5) # a41 <.L172+0x5b1>
  d4:	00996563          	bltu	s2,s1,de <.L354>
  d8:	14fd                	add	s1,s1,-1
  da:	0ff4f913          	zext.b	s2,s1

000000de <.L354>:
  de:	6785                	lui	a5,0x1
  e0:	aac78793          	add	a5,a5,-1364 # aac <.L172+0x61c>
  e4:	8522                	mv	a0,s0
  e6:	864a                	mv	a2,s2
  e8:	95be                	add	a1,a1,a5
  ea:	00000097          	auipc	ra,0x0
  ee:	000080e7          	jalr	ra # ea <.L354+0xc>
  f2:	944a                	add	s0,s0,s2
  f4:	00040023          	sb	zero,0(s0) # 0 <esp_smartconfig_get_rvd_data>
  f8:	4501                	li	a0,0
  fa:	bfb1                	j	56 <.L350>

Disassembly of section .text.esp_smartconfig_internal_set_encrypt:

00000000 <esp_smartconfig_internal_set_encrypt>:
   0:	000007b7          	lui	a5,0x0
   4:	00a78023          	sb	a0,0(a5) # 0 <esp_smartconfig_internal_set_encrypt>
   8:	c11d                	beqz	a0,2e <.L366>
   a:	000007b7          	lui	a5,0x0
   e:	06300713          	li	a4,99
  12:	00e79023          	sh	a4,0(a5) # 0 <esp_smartconfig_internal_set_encrypt>
  16:	000007b7          	lui	a5,0x0
  1a:	19c00713          	li	a4,412
  1e:	00e79023          	sh	a4,0(a5) # 0 <esp_smartconfig_internal_set_encrypt>
  22:	000007b7          	lui	a5,0x0
  26:	1da00713          	li	a4,474
  2a:	00e79023          	sh	a4,0(a5) # 0 <esp_smartconfig_internal_set_encrypt>

0000002e <.L366>:
  2e:	4501                	li	a0,0
  30:	8082                	ret

sc_esptouch.o:     file format elf32-littleriscv


Disassembly of section .text.restart_delay_cb_local:

00000000 <restart_delay_cb_local>:
   0:	000007b7          	lui	a5,0x0
   4:	00078023          	sb	zero,0(a5) # 0 <restart_delay_cb_local>
   8:	4501                	li	a0,0
   a:	8082                	ret

Disassembly of section .text.restart_delay_cb:

00000000 <restart_delay_cb>:
   0:	1101                	add	sp,sp,-32
   2:	000007b7          	lui	a5,0x0
   6:	c42a                	sw	a0,8(sp)
   8:	00078793          	mv	a5,a5
   c:	0048                	add	a0,sp,4
   e:	4581                	li	a1,0
  10:	ce06                	sw	ra,28(sp)
  12:	c23e                	sw	a5,4(sp)
  14:	c602                	sw	zero,12(sp)
  16:	00000097          	auipc	ra,0x0
  1a:	000080e7          	jalr	ra # 16 <restart_delay_cb+0x16>
  1e:	40f2                	lw	ra,28(sp)
  20:	6105                	add	sp,sp,32
  22:	8082                	ret

Disassembly of section .text.get_delay_restart_flag:

00000000 <get_delay_restart_flag>:
   0:	000007b7          	lui	a5,0x0
   4:	0007c503          	lbu	a0,0(a5) # 0 <get_delay_restart_flag>
   8:	8082                	ret

Disassembly of section .text.set_delay_restart_flag:

00000000 <set_delay_restart_flag>:
   0:	00a03533          	snez	a0,a0
   4:	000007b7          	lui	a5,0x0
   8:	00a78023          	sb	a0,0(a5) # 0 <set_delay_restart_flag>
   c:	8082                	ret

Disassembly of section .text.TOUCH_Init_guide_glob:

00000000 <TOUCH_Init_guide_glob>:
   0:	1141                	add	sp,sp,-16
   2:	c422                	sw	s0,8(sp)
   4:	00000437          	lui	s0,0x0
   8:	00040413          	mv	s0,s0
   c:	401c                	lw	a5,0(s0)
   e:	c606                	sw	ra,12(sp)
  10:	e78d                	bnez	a5,3a <.L7>
  12:	000007b7          	lui	a5,0x0
  16:	0007a783          	lw	a5,0(a5) # 0 <TOUCH_Init_guide_glob>
  1a:	4585                	li	a1,1
  1c:	05c00513          	li	a0,92
  20:	1707a783          	lw	a5,368(a5)
  24:	9782                	jalr	a5
  26:	c008                	sw	a0,0(s0)
  28:	e909                	bnez	a0,3a <.L7>

0000002a <.L9>:
  2a:	4422                	lw	s0,8(sp)
  2c:	40b2                	lw	ra,12(sp)
  2e:	4501                	li	a0,0
  30:	0141                	add	sp,sp,16
  32:	00000317          	auipc	t1,0x0
  36:	00030067          	jr	t1 # 32 <.L9+0x8>

0000003a <.L7>:
  3a:	00000437          	lui	s0,0x0
  3e:	00040793          	mv	a5,s0
  42:	439c                	lw	a5,0(a5)
  44:	00040413          	mv	s0,s0
  48:	ef89                	bnez	a5,62 <.L8>
  4a:	000007b7          	lui	a5,0x0
  4e:	0007a783          	lw	a5,0(a5) # 0 <TOUCH_Init_guide_glob>
  52:	4585                	li	a1,1
  54:	4541                	li	a0,16
  56:	1707a783          	lw	a5,368(a5)
  5a:	9782                	jalr	a5
  5c:	c008                	sw	a0,0(s0)
  5e:	00052623          	sw	zero,12(a0)

00000062 <.L8>:
  62:	401c                	lw	a5,0(s0)
  64:	d3f9                	beqz	a5,2a <.L9>
  66:	40b2                	lw	ra,12(sp)
  68:	4422                	lw	s0,8(sp)
  6a:	00000737          	lui	a4,0x0
  6e:	00f72023          	sw	a5,0(a4) # 0 <TOUCH_Init_guide_glob>
  72:	0141                	add	sp,sp,16
  74:	8082                	ret

Disassembly of section .text.TOUCH_Free_guide_glob:

00000000 <TOUCH_Free_guide_glob>:
   0:	1141                	add	sp,sp,-16
   2:	c422                	sw	s0,8(sp)
   4:	00000437          	lui	s0,0x0
   8:	00040413          	mv	s0,s0
   c:	4008                	lw	a0,0(s0)
   e:	c606                	sw	ra,12(sp)
  10:	c226                	sw	s1,4(sp)
  12:	c04a                	sw	s2,0(sp)
  14:	c911                	beqz	a0,28 <.L15>
  16:	000007b7          	lui	a5,0x0
  1a:	0007a783          	lw	a5,0(a5) # 0 <TOUCH_Free_guide_glob>
  1e:	0b07a783          	lw	a5,176(a5)
  22:	9782                	jalr	a5
  24:	00042023          	sw	zero,0(s0) # 0 <TOUCH_Free_guide_glob>

00000028 <.L15>:
  28:	000007b7          	lui	a5,0x0
  2c:	00078713          	mv	a4,a5
  30:	4308                	lw	a0,0(a4)
  32:	00000437          	lui	s0,0x0
  36:	00078493          	mv	s1,a5
  3a:	00040413          	mv	s0,s0
  3e:	00000937          	lui	s2,0x0

00000042 <.L16>:
  42:	e919                	bnez	a0,58 <.L17>
  44:	40b2                	lw	ra,12(sp)
  46:	00042023          	sw	zero,0(s0) # 0 <TOUCH_Free_guide_glob>
  4a:	4422                	lw	s0,8(sp)
  4c:	0004a023          	sw	zero,0(s1)
  50:	4902                	lw	s2,0(sp)
  52:	4492                	lw	s1,4(sp)
  54:	0141                	add	sp,sp,16
  56:	8082                	ret

00000058 <.L17>:
  58:	455c                	lw	a5,12(a0)
  5a:	c01c                	sw	a5,0(s0)
  5c:	00092783          	lw	a5,0(s2) # 0 <TOUCH_Free_guide_glob>
  60:	0b07a783          	lw	a5,176(a5) # b0 <.L31+0x8>
  64:	9782                	jalr	a5
  66:	4008                	lw	a0,0(s0)
  68:	bfe9                	j	42 <.L16>

Disassembly of section .text.TOUCH_Init_glob:

00000000 <TOUCH_Init_glob>:
   0:	1141                	add	sp,sp,-16
   2:	c422                	sw	s0,8(sp)
   4:	00000437          	lui	s0,0x0
   8:	00040413          	mv	s0,s0
   c:	401c                	lw	a5,0(s0)
   e:	c606                	sw	ra,12(sp)
  10:	e79d                	bnez	a5,3e <.L22>
  12:	000007b7          	lui	a5,0x0
  16:	0007a783          	lw	a5,0(a5) # 0 <TOUCH_Init_glob>
  1a:	4585                	li	a1,1
  1c:	1a400513          	li	a0,420
  20:	1707a783          	lw	a5,368(a5)
  24:	9782                	jalr	a5
  26:	c008                	sw	a0,0(s0)
  28:	e901                	bnez	a0,38 <.L24>
  2a:	4422                	lw	s0,8(sp)
  2c:	40b2                	lw	ra,12(sp)
  2e:	0141                	add	sp,sp,16
  30:	00000317          	auipc	t1,0x0
  34:	00030067          	jr	t1 # 30 <TOUCH_Init_glob+0x30>

00000038 <.L24>:
  38:	577d                	li	a4,-1
  3a:	06e50b23          	sb	a4,118(a0)

0000003e <.L22>:
  3e:	40b2                	lw	ra,12(sp)
  40:	4422                	lw	s0,8(sp)
  42:	0141                	add	sp,sp,16
  44:	8082                	ret

Disassembly of section .text.TOUCH_Find_sync_ht20_end.constprop.0:

00000000 <TOUCH_Find_sync_ht20_end.constprop.0>:
   0:	000007b7          	lui	a5,0x0
   4:	0007a783          	lw	a5,0(a5) # 0 <TOUCH_Find_sync_ht20_end.constprop.0>
   8:	711d                	add	sp,sp,-96
   a:	cca2                	sw	s0,88(sp)
   c:	caa6                	sw	s1,84(sp)
   e:	47c0                	lw	s0,12(a5)
  10:	c6ce                	sw	s3,76(sp)
  12:	ce86                	sw	ra,92(sp)
  14:	c8ca                	sw	s2,80(sp)
  16:	c4d2                	sw	s4,72(sp)
  18:	c2d6                	sw	s5,68(sp)
  1a:	c0da                	sw	s6,64(sp)
  1c:	de5e                	sw	s7,60(sp)
  1e:	dc62                	sw	s8,56(sp)
  20:	000004b7          	lui	s1,0x0
  24:	00000097          	auipc	ra,0x0
  28:	000080e7          	jalr	ra # 24 <TOUCH_Find_sync_ht20_end.constprop.0+0x24>
  2c:	4981                	li	s3,0
  2e:	4781                	li	a5,0
  30:	00048493          	mv	s1,s1

00000034 <.L27>:
  34:	ec71                	bnez	s0,110 <.L30>
  36:	00000937          	lui	s2,0x0
  3a:	00090713          	mv	a4,s2
  3e:	01874683          	lbu	a3,24(a4)
  42:	4705                	li	a4,1
  44:	00090913          	mv	s2,s2
  48:	00000437          	lui	s0,0x0
  4c:	04e69e63          	bne	a3,a4,a8 <.L31>
  50:	00042703          	lw	a4,0(s0) # 0 <TOUCH_Find_sync_ht20_end.constprop.0>
  54:	ce3e                	sw	a5,28(sp)
  56:	cb29                	beqz	a4,a8 <.L31>
  58:	14c72483          	lw	s1,332(a4)
  5c:	c4b1                	beqz	s1,a8 <.L31>
  5e:	00000a37          	lui	s4,0x0
  62:	02814803          	lbu	a6,40(sp)
  66:	000a2583          	lw	a1,0(s4) # 0 <TOUCH_Find_sync_ht20_end.constprop.0>
  6a:	15472703          	lw	a4,340(a4)
  6e:	cc42                	sw	a6,24(sp)
  70:	ca2e                	sw	a1,20(sp)
  72:	9702                	jalr	a4
  74:	02d14703          	lbu	a4,45(sp)
  78:	02914883          	lbu	a7,41(sp)
  7c:	4862                	lw	a6,24(sp)
  7e:	c63a                	sw	a4,12(sp)
  80:	02c14703          	lbu	a4,44(sp)
  84:	47f2                	lw	a5,28(sp)
  86:	45d2                	lw	a1,20(sp)
  88:	c43a                	sw	a4,8(sp)
  8a:	02b14703          	lbu	a4,43(sp)
  8e:	00000637          	lui	a2,0x0
  92:	86aa                	mv	a3,a0
  94:	c23a                	sw	a4,4(sp)
  96:	02a14703          	lbu	a4,42(sp)
  9a:	00060613          	mv	a2,a2
  9e:	450d                	li	a0,3
  a0:	c03a                	sw	a4,0(sp)
  a2:	000a2703          	lw	a4,0(s4)
  a6:	9482                	jalr	s1

000000a8 <.L31>:
  a8:	4785                	li	a5,1
  aa:	00f90ca3          	sb	a5,25(s2) # 19 <TOUCH_Find_sync_ht20_end.constprop.0+0x19>
  ae:	00042783          	lw	a5,0(s0)
  b2:	00092a23          	sw	zero,20(s2)
  b6:	c795                	beqz	a5,e2 <.L32>
  b8:	14c7a483          	lw	s1,332(a5)
  bc:	c09d                	beqz	s1,e2 <.L32>
  be:	00000a37          	lui	s4,0x0
  c2:	000a2583          	lw	a1,0(s4) # 0 <TOUCH_Find_sync_ht20_end.constprop.0>
  c6:	1547a783          	lw	a5,340(a5)
  ca:	ca2e                	sw	a1,20(sp)
  cc:	9782                	jalr	a5
  ce:	000a2703          	lw	a4,0(s4)
  d2:	45d2                	lw	a1,20(sp)
  d4:	00000637          	lui	a2,0x0
  d8:	86aa                	mv	a3,a0
  da:	00060613          	mv	a2,a2
  de:	450d                	li	a0,3
  e0:	9482                	jalr	s1

000000e2 <.L32>:
  e2:	000004b7          	lui	s1,0x0
  e6:	00048793          	mv	a5,s1
  ea:	439c                	lw	a5,0(a5)
  ec:	4705                	li	a4,1
  ee:	00048493          	mv	s1,s1
  f2:	01378423          	sb	s3,8(a5)
  f6:	c398                	sw	a4,0(a5)
  f8:	00e78ba3          	sb	a4,23(a5)
  fc:	000007b7          	lui	a5,0x0
 100:	0007a783          	lw	a5,0(a5) # 0 <TOUCH_Find_sync_ht20_end.constprop.0>
 104:	0587a983          	lw	s3,88(a5)

00000108 <.L33>:
 108:	02099e63          	bnez	s3,144 <.L36>
 10c:	4a01                	li	s4,0
 10e:	a881                	j	15e <.L35>

00000110 <.L30>:
 110:	00640903          	lb	s2,6(s0)
 114:	0127c363          	blt	a5,s2,11a <.L28>
 118:	e785                	bnez	a5,140 <.L29>

0000011a <.L28>:
 11a:	4619                	li	a2,6
 11c:	85a2                	mv	a1,s0
 11e:	1028                	add	a0,sp,40
 120:	00000097          	auipc	ra,0x0
 124:	000080e7          	jalr	ra # 120 <.L28+0x6>
 128:	409c                	lw	a5,0(s1)
 12a:	00844703          	lbu	a4,8(s0)
 12e:	00744983          	lbu	s3,7(s0)
 132:	00e78e23          	sb	a4,28(a5)
 136:	00a45703          	lhu	a4,10(s0)
 13a:	00e79f23          	sh	a4,30(a5)
 13e:	87ca                	mv	a5,s2

00000140 <.L29>:
 140:	4440                	lw	s0,12(s0)
 142:	bdcd                	j	34 <.L27>

00000144 <.L36>:
 144:	4619                	li	a2,6
 146:	85ce                	mv	a1,s3
 148:	1028                	add	a0,sp,40
 14a:	00000097          	auipc	ra,0x0
 14e:	000080e7          	jalr	ra # 14a <.L36+0x6>
 152:	2a051e63          	bnez	a0,40e <.L34>
 156:	0549ca03          	lbu	s4,84(s3)
 15a:	02e9c983          	lbu	s3,46(s3)

0000015e <.L35>:
 15e:	00042783          	lw	a5,0(s0)
 162:	00000ab7          	lui	s5,0x0
 166:	000a8513          	mv	a0,s5
 16a:	0e47a783          	lw	a5,228(a5)
 16e:	00000bb7          	lui	s7,0x0
 172:	00000b37          	lui	s6,0x0
 176:	9782                	jalr	a5
 178:	00042783          	lw	a5,0(s0)
 17c:	000a8513          	mv	a0,s5
 180:	0e87a783          	lw	a5,232(a5)
 184:	9782                	jalr	a5
 186:	85ce                	mv	a1,s3
 188:	8552                	mv	a0,s4
 18a:	000b8023          	sb	zero,0(s7) # 0 <TOUCH_Find_sync_ht20_end.constprop.0>
 18e:	00000097          	auipc	ra,0x0
 192:	000080e7          	jalr	ra # 18e <.L35+0x30>
 196:	409c                	lw	a5,0(s1)
 198:	000b0513          	mv	a0,s6
 19c:	01478c23          	sb	s4,24(a5)
 1a0:	01378ca3          	sb	s3,25(a5)
 1a4:	00042783          	lw	a5,0(s0)
 1a8:	0e47a783          	lw	a5,228(a5)
 1ac:	9782                	jalr	a5
 1ae:	00042783          	lw	a5,0(s0)
 1b2:	000b0513          	mv	a0,s6
 1b6:	0e87a783          	lw	a5,232(a5)
 1ba:	9782                	jalr	a5
 1bc:	00042783          	lw	a5,0(s0)
 1c0:	000005b7          	lui	a1,0x0
 1c4:	000b0513          	mv	a0,s6
 1c8:	0ec7a783          	lw	a5,236(a5)
 1cc:	4601                	li	a2,0
 1ce:	00058593          	mv	a1,a1
 1d2:	9782                	jalr	a5
 1d4:	000007b7          	lui	a5,0x0
 1d8:	0007a703          	lw	a4,0(a5) # 0 <TOUCH_Find_sync_ht20_end.constprop.0>
 1dc:	3e800593          	li	a1,1000
 1e0:	00042783          	lw	a5,0(s0)
 1e4:	02e585b3          	mul	a1,a1,a4
 1e8:	4601                	li	a2,0
 1ea:	0e07a783          	lw	a5,224(a5)
 1ee:	000b0513          	mv	a0,s6
 1f2:	00000b37          	lui	s6,0x0
 1f6:	9782                	jalr	a5
 1f8:	00042783          	lw	a5,0(s0)
 1fc:	000b0513          	mv	a0,s6
 200:	0e47a783          	lw	a5,228(a5)
 204:	9782                	jalr	a5
 206:	00042783          	lw	a5,0(s0)
 20a:	000b0513          	mv	a0,s6
 20e:	0e87a783          	lw	a5,232(a5)
 212:	9782                	jalr	a5
 214:	00042783          	lw	a5,0(s0)
 218:	000005b7          	lui	a1,0x0
 21c:	4601                	li	a2,0
 21e:	0ec7a783          	lw	a5,236(a5)
 222:	00058593          	mv	a1,a1
 226:	000b0513          	mv	a0,s6
 22a:	9782                	jalr	a5
 22c:	01894703          	lbu	a4,24(s2)
 230:	000007b7          	lui	a5,0x0
 234:	00078023          	sb	zero,0(a5) # 0 <TOUCH_Find_sync_ht20_end.constprop.0>
 238:	4785                	li	a5,1
 23a:	02f71d63          	bne	a4,a5,274 <.L37>
 23e:	00042783          	lw	a5,0(s0)
 242:	cb8d                	beqz	a5,274 <.L37>
 244:	14c7ab03          	lw	s6,332(a5)
 248:	020b0663          	beqz	s6,274 <.L37>
 24c:	00000c37          	lui	s8,0x0
 250:	000c2583          	lw	a1,0(s8) # 0 <TOUCH_Find_sync_ht20_end.constprop.0>
 254:	1547a783          	lw	a5,340(a5)
 258:	ca2e                	sw	a1,20(sp)
 25a:	9782                	jalr	a5
 25c:	000c2703          	lw	a4,0(s8)
 260:	45d2                	lw	a1,20(sp)
 262:	00000637          	lui	a2,0x0
 266:	86aa                	mv	a3,a0
 268:	884e                	mv	a6,s3
 26a:	87d2                	mv	a5,s4
 26c:	00060613          	mv	a2,a2
 270:	450d                	li	a0,3
 272:	9b02                	jalr	s6

00000274 <.L37>:
 274:	4088                	lw	a0,0(s1)
 276:	4619                	li	a2,6
 278:	102c                	add	a1,sp,40
 27a:	0525                	add	a0,a0,9
 27c:	00000097          	auipc	ra,0x0
 280:	000080e7          	jalr	ra # 27c <.L37+0x8>
 284:	00042783          	lw	a5,0(s0)
 288:	c7b9                	beqz	a5,2d6 <.L38>
 28a:	14c7ab03          	lw	s6,332(a5)
 28e:	040b0463          	beqz	s6,2d6 <.L38>
 292:	00000c37          	lui	s8,0x0
 296:	000c2583          	lw	a1,0(s8) # 0 <TOUCH_Find_sync_ht20_end.constprop.0>
 29a:	1547a783          	lw	a5,340(a5)
 29e:	ca2e                	sw	a1,20(sp)
 2a0:	9782                	jalr	a5
 2a2:	4098                	lw	a4,0(s1)
 2a4:	45d2                	lw	a1,20(sp)
 2a6:	86aa                	mv	a3,a0
 2a8:	00e74603          	lbu	a2,14(a4)
 2ac:	00b74883          	lbu	a7,11(a4)
 2b0:	00a74803          	lbu	a6,10(a4)
 2b4:	00974783          	lbu	a5,9(a4)
 2b8:	c432                	sw	a2,8(sp)
 2ba:	00d74603          	lbu	a2,13(a4)
 2be:	450d                	li	a0,3
 2c0:	c232                	sw	a2,4(sp)
 2c2:	00c74703          	lbu	a4,12(a4)
 2c6:	00000637          	lui	a2,0x0
 2ca:	00060613          	mv	a2,a2
 2ce:	c03a                	sw	a4,0(sp)
 2d0:	000c2703          	lw	a4,0(s8)
 2d4:	9b02                	jalr	s6

000002d6 <.L38>:
 2d6:	4088                	lw	a0,0(s1)
 2d8:	000005b7          	lui	a1,0x0
 2dc:	4619                	li	a2,6
 2de:	00058593          	mv	a1,a1
 2e2:	053d                	add	a0,a0,15
 2e4:	00000097          	auipc	ra,0x0
 2e8:	000080e7          	jalr	ra # 2e4 <.L38+0xe>
 2ec:	01894703          	lbu	a4,24(s2)
 2f0:	4785                	li	a5,1
 2f2:	02f71e63          	bne	a4,a5,32e <.L39>
 2f6:	00042783          	lw	a5,0(s0)
 2fa:	cb95                	beqz	a5,32e <.L39>
 2fc:	14c7ab03          	lw	s6,332(a5)
 300:	020b0763          	beqz	s6,32e <.L39>
 304:	00000c37          	lui	s8,0x0
 308:	000c2583          	lw	a1,0(s8) # 0 <TOUCH_Find_sync_ht20_end.constprop.0>
 30c:	1547a783          	lw	a5,340(a5)
 310:	ca2e                	sw	a1,20(sp)
 312:	9782                	jalr	a5
 314:	409c                	lw	a5,0(s1)
 316:	000c2703          	lw	a4,0(s8)
 31a:	45d2                	lw	a1,20(sp)
 31c:	0087c783          	lbu	a5,8(a5)
 320:	00000637          	lui	a2,0x0
 324:	86aa                	mv	a3,a0
 326:	00060613          	mv	a2,a2
 32a:	450d                	li	a0,3
 32c:	9b02                	jalr	s6

0000032e <.L39>:
 32e:	4098                	lw	a4,0(s1)
 330:	00042783          	lw	a5,0(s0)
 334:	4354                	lw	a3,4(a4)
 336:	ead9                	bnez	a3,3cc <.L41>
 338:	01875683          	lhu	a3,24(a4)
 33c:	00d71d23          	sh	a3,26(a4)
 340:	cf85                	beqz	a5,378 <.L42>
 342:	14c7ab03          	lw	s6,332(a5)
 346:	020b0963          	beqz	s6,378 <.L42>
 34a:	00000c37          	lui	s8,0x0
 34e:	000c2583          	lw	a1,0(s8) # 0 <TOUCH_Find_sync_ht20_end.constprop.0>
 352:	1547a783          	lw	a5,340(a5)
 356:	ca2e                	sw	a1,20(sp)
 358:	9782                	jalr	a5
 35a:	409c                	lw	a5,0(s1)
 35c:	000c2703          	lw	a4,0(s8)
 360:	45d2                	lw	a1,20(sp)
 362:	0197c803          	lbu	a6,25(a5)
 366:	0187c783          	lbu	a5,24(a5)
 36a:	00000637          	lui	a2,0x0
 36e:	86aa                	mv	a3,a0
 370:	00060613          	mv	a2,a2
 374:	450d                	li	a0,3
 376:	9b02                	jalr	s6

00000378 <.L42>:
 378:	00042783          	lw	a5,0(s0)
 37c:	00000537          	lui	a0,0x0
 380:	00052503          	lw	a0,0(a0) # 0 <TOUCH_Find_sync_ht20_end.constprop.0>
 384:	0b47a783          	lw	a5,180(a5)
 388:	577d                	li	a4,-1
 38a:	4681                	li	a3,0
 38c:	4601                	li	a2,0
 38e:	4585                	li	a1,1
 390:	9782                	jalr	a5
 392:	01894703          	lbu	a4,24(s2)
 396:	4785                	li	a5,1
 398:	02f71a63          	bne	a4,a5,3cc <.L41>
 39c:	00042783          	lw	a5,0(s0)
 3a0:	c795                	beqz	a5,3cc <.L41>
 3a2:	14c7a483          	lw	s1,332(a5)
 3a6:	c09d                	beqz	s1,3cc <.L41>
 3a8:	00000937          	lui	s2,0x0
 3ac:	00092583          	lw	a1,0(s2) # 0 <TOUCH_Find_sync_ht20_end.constprop.0>
 3b0:	1547a783          	lw	a5,340(a5)
 3b4:	ca2e                	sw	a1,20(sp)
 3b6:	9782                	jalr	a5
 3b8:	00092703          	lw	a4,0(s2)
 3bc:	45d2                	lw	a1,20(sp)
 3be:	00000637          	lui	a2,0x0
 3c2:	86aa                	mv	a3,a0
 3c4:	00060613          	mv	a2,a2
 3c8:	450d                	li	a0,3
 3ca:	9482                	jalr	s1

000003cc <.L41>:
 3cc:	00042783          	lw	a5,0(s0)
 3d0:	000a8513          	mv	a0,s5
 3d4:	0e47a783          	lw	a5,228(a5)
 3d8:	9782                	jalr	a5
 3da:	00042783          	lw	a5,0(s0)
 3de:	000a8513          	mv	a0,s5
 3e2:	0e87a783          	lw	a5,232(a5)
 3e6:	9782                	jalr	a5
 3e8:	4466                	lw	s0,88(sp)
 3ea:	40f6                	lw	ra,92(sp)
 3ec:	44d6                	lw	s1,84(sp)
 3ee:	4946                	lw	s2,80(sp)
 3f0:	4a96                	lw	s5,68(sp)
 3f2:	4b06                	lw	s6,64(sp)
 3f4:	5c62                	lw	s8,56(sp)
 3f6:	000b8023          	sb	zero,0(s7)
 3fa:	85ce                	mv	a1,s3
 3fc:	5bf2                	lw	s7,60(sp)
 3fe:	49b6                	lw	s3,76(sp)
 400:	8552                	mv	a0,s4
 402:	4a26                	lw	s4,72(sp)
 404:	6125                	add	sp,sp,96
 406:	00000317          	auipc	t1,0x0
 40a:	00030067          	jr	t1 # 406 <.L41+0x3a>

0000040e <.L34>:
 40e:	0589a983          	lw	s3,88(s3)
 412:	b9dd                	j	108 <.L33>

Disassembly of section .text.TOUCH_Free_glob:

00000000 <TOUCH_Free_glob>:
   0:	1141                	add	sp,sp,-16
   2:	c422                	sw	s0,8(sp)
   4:	00000437          	lui	s0,0x0
   8:	00040413          	mv	s0,s0
   c:	4008                	lw	a0,0(s0)
   e:	c606                	sw	ra,12(sp)
  10:	c911                	beqz	a0,24 <.L87>
  12:	000007b7          	lui	a5,0x0
  16:	0007a783          	lw	a5,0(a5) # 0 <TOUCH_Free_glob>
  1a:	0b07a783          	lw	a5,176(a5)
  1e:	9782                	jalr	a5
  20:	00042023          	sw	zero,0(s0) # 0 <TOUCH_Free_glob>

00000024 <.L87>:
  24:	40b2                	lw	ra,12(sp)
  26:	4422                	lw	s0,8(sp)
  28:	0141                	add	sp,sp,16
  2a:	8082                	ret

Disassembly of section .text.TOUCH_Find_sync_ht20:

00000000 <TOUCH_Find_sync_ht20>:
   0:	000007b7          	lui	a5,0x0
   4:	0007a783          	lw	a5,0(a5) # 0 <TOUCH_Find_sync_ht20>
   8:	7159                	add	sp,sp,-112
   a:	cece                	sw	s3,92(sp)
   c:	cad6                	sw	s5,84(sp)
   e:	c6de                	sw	s7,76(sp)
  10:	000009b7          	lui	s3,0x0
  14:	03450a93          	add	s5,a0,52
  18:	00000bb7          	lui	s7,0x0
  1c:	d4a2                	sw	s0,104(sp)
  1e:	d2a6                	sw	s1,100(sp)
  20:	d686                	sw	ra,108(sp)
  22:	d0ca                	sw	s2,96(sp)
  24:	ccd2                	sw	s4,88(sp)
  26:	c8da                	sw	s6,80(sp)
  28:	c4e2                	sw	s8,72(sp)
  2a:	c2e6                	sw	s9,68(sp)
  2c:	c0ea                	sw	s10,64(sp)
  2e:	de6e                	sw	s11,60(sp)
  30:	4fa0                	lw	s0,88(a5)
  32:	84aa                	mv	s1,a0
  34:	00098793          	mv	a5,s3
  38:	460d                	li	a2,3
  3a:	000b8593          	mv	a1,s7
  3e:	8556                	mv	a0,s5
  40:	0017ca03          	lbu	s4,1(a5)
  44:	00000097          	auipc	ra,0x0
  48:	000080e7          	jalr	ra # 44 <TOUCH_Find_sync_ht20+0x44>
  4c:	00098993          	mv	s3,s3
  50:	cd09                	beqz	a0,6a <.L94>
  52:	00000937          	lui	s2,0x0
  56:	4619                	li	a2,6
  58:	00090593          	mv	a1,s2
  5c:	8556                	mv	a0,s5
  5e:	00000097          	auipc	ra,0x0
  62:	000080e7          	jalr	ra # 5e <TOUCH_Find_sync_ht20+0x5e>
  66:	3a051d63          	bnez	a0,420 <.L95>

0000006a <.L94>:
  6a:	00000ab7          	lui	s5,0x0
  6e:	000a8793          	mv	a5,s5
  72:	0007ac03          	lw	s8,0(a5)
  76:	000a8a93          	mv	s5,s5
  7a:	01bc4783          	lbu	a5,27(s8)
  7e:	1d479c63          	bne	a5,s4,256 <.L96>

00000082 <.L98>:
  82:	03a48b93          	add	s7,s1,58 # 3a <TOUCH_Find_sync_ht20+0x3a>

00000086 <.L97>:
  86:	36040c63          	beqz	s0,3fe <.L93>
  8a:	4619                	li	a2,6
  8c:	85a2                	mv	a1,s0
  8e:	855e                	mv	a0,s7
  90:	00000097          	auipc	ra,0x0
  94:	000080e7          	jalr	ra # 90 <.L97+0xa>
  98:	38051263          	bnez	a0,41c <.L99>
  9c:	02c4a903          	lw	s2,44(s1)
  a0:	28000793          	li	a5,640
  a4:	0464dc83          	lhu	s9,70(s1)
  a8:	0952                	sll	s2,s2,0x14
  aa:	01495913          	srl	s2,s2,0x14
  ae:	3527e863          	bltu	a5,s2,3fe <.L93>
  b2:	000007b7          	lui	a5,0x0
  b6:	0007d783          	lhu	a5,0(a5) # 0 <TOUCH_Find_sync_ht20>
  ba:	34f96263          	bltu	s2,a5,3fe <.L93>
  be:	02c45783          	lhu	a5,44(s0)
  c2:	004cdc93          	srl	s9,s9,0x4
  c6:	01979663          	bne	a5,s9,d2 <.L101>
  ca:	02045783          	lhu	a5,32(s0)
  ce:	33278863          	beq	a5,s2,3fe <.L93>

000000d2 <.L101>:
  d2:	02440b13          	add	s6,s0,36
  d6:	4619                	li	a2,6
  d8:	02640593          	add	a1,s0,38
  dc:	855a                	mv	a0,s6
  de:	00000097          	auipc	ra,0x0
  e2:	000080e7          	jalr	ra # de <.L101+0xc>
  e6:	85da                	mv	a1,s6
  e8:	03241523          	sh	s2,42(s0)
  ec:	03941623          	sh	s9,44(s0)
  f0:	1028                	add	a0,sp,40
  f2:	02a40313          	add	t1,s0,42
  f6:	4601                	li	a2,0
  f8:	4681                	li	a3,0
  fa:	4e19                	li	t3,6
  fc:	4e8d                	li	t4,3
  fe:	4809                	li	a6,2
 100:	58e9                	li	a7,-6

00000102 <.L116>:
 102:	0005d783          	lhu	a5,0(a1) # 0 <TOUCH_Find_sync_ht20>
 106:	40f907b3          	sub	a5,s2,a5
 10a:	01079713          	sll	a4,a5,0x10
 10e:	078d                	add	a5,a5,3
 110:	8741                	sra	a4,a4,0x10
 112:	07c2                	sll	a5,a5,0x10
 114:	00e51023          	sh	a4,0(a0)
 118:	83c1                	srl	a5,a5,0x10
 11a:	2cfe6e63          	bltu	t3,a5,3f6 <.L102>
 11e:	0605                	add	a2,a2,1 # 1 <TOUCH_Find_sync_ht20+0x1>
 120:	0ff67613          	zext.b	a2,a2
 124:	00e05563          	blez	a4,12e <.L103>
 128:	0685                	add	a3,a3,1
 12a:	0ff6f693          	zext.b	a3,a3

0000012e <.L103>:
 12e:	2dd61463          	bne	a2,t4,3f6 <.L102>
 132:	02815f03          	lhu	t5,40(sp)
 136:	02a15f83          	lhu	t6,42(sp)
 13a:	02c15703          	lhu	a4,44(sp)
 13e:	01ff07b3          	add	a5,t5,t6
 142:	03ff0f33          	mul	t5,t5,t6
 146:	97ba                	add	a5,a5,a4
 148:	07c2                	sll	a5,a5,0x10
 14a:	83c1                	srl	a5,a5,0x10
 14c:	9bed                	and	a5,a5,-5
 14e:	03e70733          	mul	a4,a4,t5
 152:	01071f13          	sll	t5,a4,0x10
 156:	0742                	sll	a4,a4,0x10
 158:	010f5f13          	srl	t5,t5,0x10
 15c:	8741                	sra	a4,a4,0x10
 15e:	01078663          	beq	a5,a6,16a <.L104>
 162:	07c2                	sll	a5,a5,0x10
 164:	87c1                	sra	a5,a5,0x10
 166:	29179863          	bne	a5,a7,3f6 <.L102>

0000016a <.L104>:
 16a:	ffbf7793          	and	a5,t5,-5
 16e:	01078563          	beq	a5,a6,178 <.L105>
 172:	9b6d                	and	a4,a4,-5
 174:	29171163          	bne	a4,a7,3f6 <.L102>

00000178 <.L105>:
 178:	008c5783          	lhu	a5,8(s8)
 17c:	00000737          	lui	a4,0x0
 180:	00075703          	lhu	a4,0(a4) # 0 <TOUCH_Find_sync_ht20>
 184:	0785                	add	a5,a5,1
 186:	07c2                	sll	a5,a5,0x10
 188:	87c1                	sra	a5,a5,0x10
 18a:	00fc1423          	sh	a5,8(s8)
 18e:	40e90733          	sub	a4,s2,a4
 192:	0786                	sll	a5,a5,0x1
 194:	97e2                	add	a5,a5,s8
 196:	8f15                	sub	a4,a4,a3
 198:	00e79423          	sh	a4,8(a5)
 19c:	008c1703          	lh	a4,8(s8)
 1a0:	4785                	li	a5,1
 1a2:	00f71e63          	bne	a4,a5,1be <.L106>
 1a6:	0004c783          	lbu	a5,0(s1)
 1aa:	4619                	li	a2,6
 1ac:	85de                	mv	a1,s7
 1ae:	00fc0823          	sb	a5,16(s8)
 1b2:	011c0513          	add	a0,s8,17
 1b6:	00000097          	auipc	ra,0x0
 1ba:	000080e7          	jalr	ra # 1b6 <.L105+0x3e>

000001be <.L106>:
 1be:	0189c703          	lbu	a4,24(s3) # 18 <TOUCH_Find_sync_ht20+0x18>
 1c2:	4785                	li	a5,1
 1c4:	04f71663          	bne	a4,a5,210 <.L107>
 1c8:	000007b7          	lui	a5,0x0
 1cc:	0007a783          	lw	a5,0(a5) # 0 <TOUCH_Find_sync_ht20>
 1d0:	c3a1                	beqz	a5,210 <.L107>
 1d2:	14c7a903          	lw	s2,332(a5)
 1d6:	02090d63          	beqz	s2,210 <.L107>
 1da:	00000bb7          	lui	s7,0x0
 1de:	000ba583          	lw	a1,0(s7) # 0 <TOUCH_Find_sync_ht20>
 1e2:	1547a783          	lw	a5,340(a5)
 1e6:	ce2e                	sw	a1,28(sp)
 1e8:	9782                	jalr	a5
 1ea:	000aa703          	lw	a4,0(s5) # 0 <TOUCH_Find_sync_ht20>
 1ee:	45f2                	lw	a1,28(sp)
 1f0:	86aa                	mv	a3,a0
 1f2:	00871783          	lh	a5,8(a4)
 1f6:	450d                	li	a0,3
 1f8:	00179613          	sll	a2,a5,0x1
 1fc:	9732                	add	a4,a4,a2
 1fe:	00871803          	lh	a6,8(a4)
 202:	000ba703          	lw	a4,0(s7)
 206:	00000637          	lui	a2,0x0
 20a:	00060613          	mv	a2,a2
 20e:	9902                	jalr	s2

00000210 <.L107>:
 210:	000aa783          	lw	a5,0(s5)
 214:	00879783          	lh	a5,8(a5)
 218:	1af05a63          	blez	a5,3cc <.L108>
 21c:	00000bb7          	lui	s7,0x0
 220:	000ba783          	lw	a5,0(s7) # 0 <TOUCH_Find_sync_ht20>
 224:	4585                	li	a1,1
 226:	4541                	li	a0,16
 228:	1707a783          	lw	a5,368(a5)
 22c:	9782                	jalr	a5
 22e:	892a                	mv	s2,a0
 230:	ed21                	bnez	a0,288 <.L109>
 232:	5426                	lw	s0,104(sp)
 234:	50b6                	lw	ra,108(sp)
 236:	5496                	lw	s1,100(sp)
 238:	5906                	lw	s2,96(sp)
 23a:	49f6                	lw	s3,92(sp)
 23c:	4a66                	lw	s4,88(sp)
 23e:	4ad6                	lw	s5,84(sp)
 240:	4b46                	lw	s6,80(sp)
 242:	4bb6                	lw	s7,76(sp)
 244:	4c26                	lw	s8,72(sp)
 246:	4c96                	lw	s9,68(sp)
 248:	4d06                	lw	s10,64(sp)
 24a:	5df2                	lw	s11,60(sp)
 24c:	6165                	add	sp,sp,112
 24e:	00000317          	auipc	t1,0x0
 252:	00030067          	jr	t1 # 24e <.L107+0x3e>

00000256 <.L96>:
 256:	01ac4703          	lbu	a4,26(s8)
 25a:	014c0da3          	sb	s4,27(s8)
 25e:	4785                	li	a5,1
 260:	e2f711e3          	bne	a4,a5,82 <.L98>

00000264 <.L112>:
 264:	5426                	lw	s0,104(sp)
 266:	50b6                	lw	ra,108(sp)
 268:	5496                	lw	s1,100(sp)
 26a:	5906                	lw	s2,96(sp)
 26c:	49f6                	lw	s3,92(sp)
 26e:	4a66                	lw	s4,88(sp)
 270:	4ad6                	lw	s5,84(sp)
 272:	4b46                	lw	s6,80(sp)
 274:	4bb6                	lw	s7,76(sp)
 276:	4c26                	lw	s8,72(sp)
 278:	4c96                	lw	s9,68(sp)
 27a:	4d06                	lw	s10,64(sp)
 27c:	5df2                	lw	s11,60(sp)
 27e:	6165                	add	sp,sp,112
 280:	00000317          	auipc	t1,0x0
 284:	00030067          	jr	t1 # 280 <.L112+0x1c>

00000288 <.L109>:
 288:	0304c703          	lbu	a4,48(s1)
 28c:	08800793          	li	a5,136
 290:	00f71d63          	bne	a4,a5,2aa <.L110>
 294:	4785                	li	a5,1
 296:	00f50423          	sb	a5,8(a0)
 29a:	0484d783          	lhu	a5,72(s1)
 29e:	00879713          	sll	a4,a5,0x8
 2a2:	83a1                	srl	a5,a5,0x8
 2a4:	8fd9                	or	a5,a5,a4
 2a6:	00f51523          	sh	a5,10(a0)

000002aa <.L110>:
 2aa:	000aa583          	lw	a1,0(s5)
 2ae:	4619                	li	a2,6
 2b0:	854a                	mv	a0,s2
 2b2:	05c5                	add	a1,a1,17
 2b4:	00000097          	auipc	ra,0x0
 2b8:	000080e7          	jalr	ra # 2b4 <.L110+0xa>
 2bc:	000aa703          	lw	a4,0(s5)
 2c0:	4621                	li	a2,8
 2c2:	4581                	li	a1,0
 2c4:	01074783          	lbu	a5,16(a4)
 2c8:	01a40513          	add	a0,s0,26
 2cc:	00f90323          	sb	a5,6(s2) # 6 <TOUCH_Find_sync_ht20+0x6>
 2d0:	00871783          	lh	a5,8(a4)
 2d4:	0786                	sll	a5,a5,0x1
 2d6:	97ba                	add	a5,a5,a4
 2d8:	0087d783          	lhu	a5,8(a5)
 2dc:	00092623          	sw	zero,12(s2)
 2e0:	00f903a3          	sb	a5,7(s2)
 2e4:	000007b7          	lui	a5,0x0
 2e8:	00078793          	mv	a5,a5
 2ec:	4394                	lw	a3,0(a5)
 2ee:	0127a023          	sw	s2,0(a5) # 0 <TOUCH_Find_sync_ht20>
 2f2:	0126a623          	sw	s2,12(a3)
 2f6:	00071423          	sh	zero,8(a4)
 2fa:	00000097          	auipc	ra,0x0
 2fe:	000080e7          	jalr	ra # 2fa <.L110+0x50>
 302:	0189c703          	lbu	a4,24(s3)
 306:	4785                	li	a5,1
 308:	04f71c63          	bne	a4,a5,360 <.L111>
 30c:	000ba783          	lw	a5,0(s7)
 310:	cba1                	beqz	a5,360 <.L111>
 312:	14c7a403          	lw	s0,332(a5)
 316:	c429                	beqz	s0,360 <.L111>
 318:	000004b7          	lui	s1,0x0
 31c:	0004a583          	lw	a1,0(s1) # 0 <TOUCH_Find_sync_ht20>
 320:	1547a783          	lw	a5,340(a5)
 324:	ce2e                	sw	a1,28(sp)
 326:	9782                	jalr	a5
 328:	00594703          	lbu	a4,5(s2)
 32c:	00194883          	lbu	a7,1(s2)
 330:	00094803          	lbu	a6,0(s2)
 334:	00690783          	lb	a5,6(s2)
 338:	c63a                	sw	a4,12(sp)
 33a:	00494703          	lbu	a4,4(s2)
 33e:	45f2                	lw	a1,28(sp)
 340:	00000637          	lui	a2,0x0
 344:	c43a                	sw	a4,8(sp)
 346:	00394703          	lbu	a4,3(s2)
 34a:	86aa                	mv	a3,a0
 34c:	00060613          	mv	a2,a2
 350:	c23a                	sw	a4,4(sp)
 352:	00294703          	lbu	a4,2(s2)
 356:	450d                	li	a0,3
 358:	c03a                	sw	a4,0(sp)
 35a:	0004a703          	lw	a4,0(s1)
 35e:	9402                	jalr	s0

00000360 <.L111>:
 360:	00690703          	lb	a4,6(s2)
 364:	fc500793          	li	a5,-59
 368:	eef75ee3          	bge	a4,a5,264 <.L112>
 36c:	01a9c703          	lbu	a4,26(s3)
 370:	4785                	li	a5,1
 372:	eef709e3          	beq	a4,a5,264 <.L112>
 376:	000aa703          	lw	a4,0(s5)
 37a:	01974683          	lbu	a3,25(a4)
 37e:	04f68263          	beq	a3,a5,3c2 <.L114>
 382:	01470c23          	sb	s4,24(a4)
 386:	00f70ca3          	sb	a5,25(a4)
 38a:	0189c703          	lbu	a4,24(s3)
 38e:	02f71a63          	bne	a4,a5,3c2 <.L114>
 392:	000ba783          	lw	a5,0(s7)
 396:	c795                	beqz	a5,3c2 <.L114>
 398:	14c7a403          	lw	s0,332(a5)
 39c:	c01d                	beqz	s0,3c2 <.L114>
 39e:	000004b7          	lui	s1,0x0
 3a2:	0004a583          	lw	a1,0(s1) # 0 <TOUCH_Find_sync_ht20>
 3a6:	1547a783          	lw	a5,340(a5)
 3aa:	ce2e                	sw	a1,28(sp)
 3ac:	9782                	jalr	a5
 3ae:	0004a703          	lw	a4,0(s1)
 3b2:	45f2                	lw	a1,28(sp)
 3b4:	00000637          	lui	a2,0x0
 3b8:	86aa                	mv	a3,a0
 3ba:	00060613          	mv	a2,a2
 3be:	450d                	li	a0,3
 3c0:	9402                	jalr	s0

000003c2 <.L114>:
 3c2:	4501                	li	a0,0
 3c4:	00000097          	auipc	ra,0x0
 3c8:	000080e7          	jalr	ra # 3c4 <.L114+0x2>

000003cc <.L108>:
 3cc:	4621                	li	a2,8
 3ce:	4581                	li	a1,0
 3d0:	855a                	mv	a0,s6

000003d2 <.L222>:
 3d2:	5426                	lw	s0,104(sp)
 3d4:	50b6                	lw	ra,108(sp)
 3d6:	5496                	lw	s1,100(sp)
 3d8:	5906                	lw	s2,96(sp)
 3da:	49f6                	lw	s3,92(sp)
 3dc:	4a66                	lw	s4,88(sp)
 3de:	4ad6                	lw	s5,84(sp)
 3e0:	4b46                	lw	s6,80(sp)
 3e2:	4bb6                	lw	s7,76(sp)
 3e4:	4c26                	lw	s8,72(sp)
 3e6:	4c96                	lw	s9,68(sp)
 3e8:	4d06                	lw	s10,64(sp)
 3ea:	5df2                	lw	s11,60(sp)
 3ec:	6165                	add	sp,sp,112
 3ee:	00000317          	auipc	t1,0x0
 3f2:	00030067          	jr	t1 # 3ee <.L222+0x1c>

000003f6 <.L102>:
 3f6:	0589                	add	a1,a1,2
 3f8:	0509                	add	a0,a0,2
 3fa:	d06594e3          	bne	a1,t1,102 <.L116>

000003fe <.L93>:
 3fe:	50b6                	lw	ra,108(sp)
 400:	5426                	lw	s0,104(sp)
 402:	5496                	lw	s1,100(sp)
 404:	5906                	lw	s2,96(sp)
 406:	49f6                	lw	s3,92(sp)
 408:	4a66                	lw	s4,88(sp)
 40a:	4ad6                	lw	s5,84(sp)
 40c:	4b46                	lw	s6,80(sp)
 40e:	4bb6                	lw	s7,76(sp)
 410:	4c26                	lw	s8,72(sp)
 412:	4c96                	lw	s9,68(sp)
 414:	4d06                	lw	s10,64(sp)
 416:	5df2                	lw	s11,60(sp)
 418:	6165                	add	sp,sp,112
 41a:	8082                	ret

0000041c <.L99>:
 41c:	4c20                	lw	s0,88(s0)
 41e:	b1a5                	j	86 <.L97>

00000420 <.L95>:
 420:	04048b13          	add	s6,s1,64
 424:	460d                	li	a2,3
 426:	000b8593          	mv	a1,s7
 42a:	855a                	mv	a0,s6
 42c:	00000097          	auipc	ra,0x0
 430:	000080e7          	jalr	ra # 42c <.L95+0xc>
 434:	c911                	beqz	a0,448 <.L118>
 436:	4619                	li	a2,6
 438:	00090593          	mv	a1,s2
 43c:	855a                	mv	a0,s6
 43e:	00000097          	auipc	ra,0x0
 442:	000080e7          	jalr	ra # 43e <.L95+0x1e>
 446:	fd45                	bnez	a0,3fe <.L93>

00000448 <.L118>:
 448:	00000c37          	lui	s8,0x0
 44c:	000c0793          	mv	a5,s8
 450:	0007ac83          	lw	s9,0(a5)
 454:	000c0c13          	mv	s8,s8
 458:	01ccc783          	lbu	a5,28(s9)
 45c:	01478463          	beq	a5,s4,464 <.L120>
 460:	014c8e23          	sb	s4,28(s9)

00000464 <.L120>:
 464:	dc49                	beqz	s0,3fe <.L93>
 466:	4619                	li	a2,6
 468:	85a2                	mv	a1,s0
 46a:	8556                	mv	a0,s5
 46c:	00000097          	auipc	ra,0x0
 470:	000080e7          	jalr	ra # 46c <.L120+0x8>
 474:	50051b63          	bnez	a0,98a <.L121>
 478:	02c4a903          	lw	s2,44(s1)
 47c:	28000793          	li	a5,640
 480:	0464da03          	lhu	s4,70(s1)
 484:	0952                	sll	s2,s2,0x14
 486:	01495913          	srl	s2,s2,0x14
 48a:	f727eae3          	bltu	a5,s2,3fe <.L93>
 48e:	000007b7          	lui	a5,0x0
 492:	0007d783          	lhu	a5,0(a5) # 0 <TOUCH_Find_sync_ht20>
 496:	f6f964e3          	bltu	s2,a5,3fe <.L93>
 49a:	02245783          	lhu	a5,34(s0)
 49e:	004a5a13          	srl	s4,s4,0x4
 4a2:	01479663          	bne	a5,s4,4ae <.L122>
 4a6:	02045783          	lhu	a5,32(s0)
 4aa:	f5278ae3          	beq	a5,s2,3fe <.L93>

000004ae <.L122>:
 4ae:	01a40b93          	add	s7,s0,26
 4b2:	4619                	li	a2,6
 4b4:	01c40593          	add	a1,s0,28
 4b8:	855e                	mv	a0,s7
 4ba:	00000097          	auipc	ra,0x0
 4be:	000080e7          	jalr	ra # 4ba <.L122+0xc>
 4c2:	85de                	mv	a1,s7
 4c4:	03241023          	sh	s2,32(s0)
 4c8:	03441123          	sh	s4,34(s0)
 4cc:	1028                	add	a0,sp,40
 4ce:	02040313          	add	t1,s0,32
 4d2:	4681                	li	a3,0
 4d4:	4601                	li	a2,0
 4d6:	4e19                	li	t3,6
 4d8:	4e8d                	li	t4,3
 4da:	4809                	li	a6,2
 4dc:	58e9                	li	a7,-6

000004de <.L142>:
 4de:	0005d783          	lhu	a5,0(a1)
 4e2:	40f907b3          	sub	a5,s2,a5
 4e6:	01079713          	sll	a4,a5,0x10
 4ea:	078d                	add	a5,a5,3
 4ec:	8741                	sra	a4,a4,0x10
 4ee:	07c2                	sll	a5,a5,0x10
 4f0:	00e51023          	sh	a4,0(a0)
 4f4:	83c1                	srl	a5,a5,0x10
 4f6:	48fe6563          	bltu	t3,a5,980 <.L123>
 4fa:	0605                	add	a2,a2,1 # 1 <TOUCH_Find_sync_ht20+0x1>
 4fc:	0ff67613          	zext.b	a2,a2
 500:	00e05563          	blez	a4,50a <.L124>
 504:	0685                	add	a3,a3,1
 506:	0ff6f693          	zext.b	a3,a3

0000050a <.L124>:
 50a:	47d61b63          	bne	a2,t4,980 <.L123>
 50e:	02815f03          	lhu	t5,40(sp)
 512:	02a15f83          	lhu	t6,42(sp)
 516:	02c15703          	lhu	a4,44(sp)
 51a:	01ff07b3          	add	a5,t5,t6
 51e:	03ff0f33          	mul	t5,t5,t6
 522:	97ba                	add	a5,a5,a4
 524:	07c2                	sll	a5,a5,0x10
 526:	83c1                	srl	a5,a5,0x10
 528:	9bed                	and	a5,a5,-5
 52a:	03e70733          	mul	a4,a4,t5
 52e:	01071f13          	sll	t5,a4,0x10
 532:	0742                	sll	a4,a4,0x10
 534:	010f5f13          	srl	t5,t5,0x10
 538:	8741                	sra	a4,a4,0x10
 53a:	01078663          	beq	a5,a6,546 <.L125>
 53e:	07c2                	sll	a5,a5,0x10
 540:	87c1                	sra	a5,a5,0x10
 542:	43179f63          	bne	a5,a7,980 <.L123>

00000546 <.L125>:
 546:	ffbf7793          	and	a5,t5,-5
 54a:	01078563          	beq	a5,a6,554 <.L126>
 54e:	9b6d                	and	a4,a4,-5
 550:	43171863          	bne	a4,a7,980 <.L123>

00000554 <.L126>:
 554:	000cd783          	lhu	a5,0(s9)
 558:	00000737          	lui	a4,0x0
 55c:	00075703          	lhu	a4,0(a4) # 0 <TOUCH_Find_sync_ht20>
 560:	0785                	add	a5,a5,1
 562:	07c2                	sll	a5,a5,0x10
 564:	87c1                	sra	a5,a5,0x10
 566:	00fc9023          	sh	a5,0(s9)
 56a:	40e90733          	sub	a4,s2,a4
 56e:	0786                	sll	a5,a5,0x1
 570:	97e6                	add	a5,a5,s9
 572:	8f15                	sub	a4,a4,a3
 574:	00e79023          	sh	a4,0(a5)
 578:	000c9783          	lh	a5,0(s9)
 57c:	3ef05663          	blez	a5,968 <.L127>
 580:	00000937          	lui	s2,0x0
 584:	00092783          	lw	a5,0(s2) # 0 <TOUCH_Find_sync_ht20>
 588:	00000cb7          	lui	s9,0x0
 58c:	000c8513          	mv	a0,s9
 590:	0e47a783          	lw	a5,228(a5)
 594:	00000d37          	lui	s10,0x0
 598:	00000a37          	lui	s4,0x0
 59c:	9782                	jalr	a5
 59e:	00092783          	lw	a5,0(s2)
 5a2:	000c8513          	mv	a0,s9
 5a6:	0e87a783          	lw	a5,232(a5)
 5aa:	9782                	jalr	a5
 5ac:	02e44583          	lbu	a1,46(s0)
 5b0:	05444503          	lbu	a0,84(s0)
 5b4:	000d0023          	sb	zero,0(s10) # 0 <TOUCH_Find_sync_ht20>
 5b8:	00000097          	auipc	ra,0x0
 5bc:	000080e7          	jalr	ra # 5b8 <.L126+0x64>
 5c0:	00092783          	lw	a5,0(s2)
 5c4:	000a0513          	mv	a0,s4
 5c8:	0e47a783          	lw	a5,228(a5)
 5cc:	9782                	jalr	a5
 5ce:	00092783          	lw	a5,0(s2)
 5d2:	000a0513          	mv	a0,s4
 5d6:	0e87a783          	lw	a5,232(a5)
 5da:	9782                	jalr	a5
 5dc:	00092783          	lw	a5,0(s2)
 5e0:	000005b7          	lui	a1,0x0
 5e4:	000a0513          	mv	a0,s4
 5e8:	0ec7a783          	lw	a5,236(a5)
 5ec:	4601                	li	a2,0
 5ee:	00058593          	mv	a1,a1
 5f2:	9782                	jalr	a5
 5f4:	000007b7          	lui	a5,0x0
 5f8:	0007a703          	lw	a4,0(a5) # 0 <TOUCH_Find_sync_ht20>
 5fc:	3e800593          	li	a1,1000
 600:	00092783          	lw	a5,0(s2)
 604:	02e585b3          	mul	a1,a1,a4
 608:	4601                	li	a2,0
 60a:	0e07a783          	lw	a5,224(a5)
 60e:	000a0513          	mv	a0,s4
 612:	00000a37          	lui	s4,0x0
 616:	9782                	jalr	a5
 618:	00092783          	lw	a5,0(s2)
 61c:	000a0513          	mv	a0,s4
 620:	0e47a783          	lw	a5,228(a5)
 624:	9782                	jalr	a5
 626:	00092783          	lw	a5,0(s2)
 62a:	000a0513          	mv	a0,s4
 62e:	0e87a783          	lw	a5,232(a5)
 632:	9782                	jalr	a5
 634:	00092783          	lw	a5,0(s2)
 638:	000005b7          	lui	a1,0x0
 63c:	4601                	li	a2,0
 63e:	0ec7a783          	lw	a5,236(a5)
 642:	00058593          	mv	a1,a1
 646:	000a0513          	mv	a0,s4
 64a:	9782                	jalr	a5
 64c:	000007b7          	lui	a5,0x0
 650:	00078023          	sb	zero,0(a5) # 0 <TOUCH_Find_sync_ht20>
 654:	00000097          	auipc	ra,0x0
 658:	000080e7          	jalr	ra # 654 <.L126+0x100>
 65c:	4785                	li	a5,1
 65e:	00f98ca3          	sb	a5,25(s3)
 662:	00092783          	lw	a5,0(s2)
 666:	0009aa23          	sw	zero,20(s3)
 66a:	c79d                	beqz	a5,698 <.L128>
 66c:	14c7aa03          	lw	s4,332(a5)
 670:	020a0463          	beqz	s4,698 <.L128>
 674:	00000db7          	lui	s11,0x0
 678:	000da583          	lw	a1,0(s11) # 0 <TOUCH_Find_sync_ht20>
 67c:	1547a783          	lw	a5,340(a5)
 680:	ce2e                	sw	a1,28(sp)
 682:	9782                	jalr	a5
 684:	000da703          	lw	a4,0(s11)
 688:	45f2                	lw	a1,28(sp)
 68a:	00000637          	lui	a2,0x0
 68e:	86aa                	mv	a3,a0
 690:	00060613          	mv	a2,a2
 694:	450d                	li	a0,3
 696:	9a02                	jalr	s4

00000698 <.L128>:
 698:	02045703          	lhu	a4,32(s0)
 69c:	23d00793          	li	a5,573
 6a0:	02e7eb63          	bltu	a5,a4,6d6 <.L129>
 6a4:	00092783          	lw	a5,0(s2)
 6a8:	c79d                	beqz	a5,6d6 <.L129>
 6aa:	14c7aa03          	lw	s4,332(a5)
 6ae:	020a0463          	beqz	s4,6d6 <.L129>
 6b2:	00000db7          	lui	s11,0x0
 6b6:	000da583          	lw	a1,0(s11) # 0 <TOUCH_Find_sync_ht20>
 6ba:	1547a783          	lw	a5,340(a5)
 6be:	ce2e                	sw	a1,28(sp)
 6c0:	9782                	jalr	a5
 6c2:	000da703          	lw	a4,0(s11)
 6c6:	45f2                	lw	a1,28(sp)
 6c8:	00000637          	lui	a2,0x0
 6cc:	86aa                	mv	a3,a0
 6ce:	00060613          	mv	a2,a2
 6d2:	450d                	li	a0,3
 6d4:	9a02                	jalr	s4

000006d6 <.L129>:
 6d6:	000c2683          	lw	a3,0(s8) # 0 <TOUCH_Find_sync_ht20>
 6da:	00000a37          	lui	s4,0x0
 6de:	000a0793          	mv	a5,s4
 6e2:	00069703          	lh	a4,0(a3)
 6e6:	439c                	lw	a5,0(a5)
 6e8:	4605                	li	a2,1
 6ea:	0706                	sll	a4,a4,0x1
 6ec:	9736                	add	a4,a4,a3
 6ee:	00075703          	lhu	a4,0(a4)
 6f2:	c390                	sw	a2,0(a5)
 6f4:	000a0a13          	mv	s4,s4
 6f8:	00e78423          	sb	a4,8(a5)
 6fc:	0304c583          	lbu	a1,48(s1)
 700:	08800713          	li	a4,136
 704:	00e59c63          	bne	a1,a4,71c <.L130>
 708:	00c78e23          	sb	a2,28(a5)
 70c:	0484d703          	lhu	a4,72(s1)
 710:	00871613          	sll	a2,a4,0x8
 714:	8321                	srl	a4,a4,0x8
 716:	8f51                	or	a4,a4,a2
 718:	00e79f23          	sh	a4,30(a5)

0000071c <.L130>:
 71c:	00078ba3          	sb	zero,23(a5)
 720:	00069023          	sh	zero,0(a3)
 724:	05444703          	lbu	a4,84(s0)
 728:	00e78c23          	sb	a4,24(a5)
 72c:	02e44703          	lbu	a4,46(s0)
 730:	00e78ca3          	sb	a4,25(a5)
 734:	0189c703          	lbu	a4,24(s3)
 738:	4785                	li	a5,1
 73a:	02f71f63          	bne	a4,a5,778 <.L131>
 73e:	00092783          	lw	a5,0(s2)
 742:	cb9d                	beqz	a5,778 <.L131>
 744:	14c7ac03          	lw	s8,332(a5)
 748:	020c0863          	beqz	s8,778 <.L131>
 74c:	00000db7          	lui	s11,0x0
 750:	000da583          	lw	a1,0(s11) # 0 <TOUCH_Find_sync_ht20>
 754:	1547a783          	lw	a5,340(a5)
 758:	ce2e                	sw	a1,28(sp)
 75a:	9782                	jalr	a5
 75c:	02e44803          	lbu	a6,46(s0)
 760:	05444783          	lbu	a5,84(s0)
 764:	000da703          	lw	a4,0(s11)
 768:	45f2                	lw	a1,28(sp)
 76a:	00000637          	lui	a2,0x0
 76e:	86aa                	mv	a3,a0
 770:	00060613          	mv	a2,a2
 774:	450d                	li	a0,3
 776:	9c02                	jalr	s8

00000778 <.L131>:
 778:	000a2783          	lw	a5,0(s4) # 0 <TOUCH_Find_sync_ht20>
 77c:	03a48493          	add	s1,s1,58
 780:	8c26                	mv	s8,s1
 782:	07a5                	add	a5,a5,9

00000784 <.L132>:
 784:	0004c703          	lbu	a4,0(s1)
 788:	0485                	add	s1,s1,1
 78a:	0785                	add	a5,a5,1
 78c:	fee78fa3          	sb	a4,-1(a5)
 790:	fe9b1ae3          	bne	s6,s1,784 <.L132>
 794:	00092783          	lw	a5,0(s2)
 798:	c7b9                	beqz	a5,7e6 <.L133>
 79a:	14c7a483          	lw	s1,332(a5)
 79e:	c4a1                	beqz	s1,7e6 <.L133>
 7a0:	00000b37          	lui	s6,0x0
 7a4:	000b2583          	lw	a1,0(s6) # 0 <TOUCH_Find_sync_ht20>
 7a8:	1547a783          	lw	a5,340(a5)
 7ac:	ce2e                	sw	a1,28(sp)
 7ae:	9782                	jalr	a5
 7b0:	000a2703          	lw	a4,0(s4)
 7b4:	45f2                	lw	a1,28(sp)
 7b6:	86aa                	mv	a3,a0
 7b8:	00e74603          	lbu	a2,14(a4)
 7bc:	00b74883          	lbu	a7,11(a4)
 7c0:	00a74803          	lbu	a6,10(a4)
 7c4:	00974783          	lbu	a5,9(a4)
 7c8:	c432                	sw	a2,8(sp)
 7ca:	00d74603          	lbu	a2,13(a4)
 7ce:	450d                	li	a0,3
 7d0:	c232                	sw	a2,4(sp)
 7d2:	00c74703          	lbu	a4,12(a4)
 7d6:	00000637          	lui	a2,0x0
 7da:	00060613          	mv	a2,a2
 7de:	c03a                	sw	a4,0(sp)
 7e0:	000b2703          	lw	a4,0(s6)
 7e4:	9482                	jalr	s1

000007e6 <.L133>:
 7e6:	000a2783          	lw	a5,0(s4)
 7ea:	07bd                	add	a5,a5,15

000007ec <.L134>:
 7ec:	000ac703          	lbu	a4,0(s5)
 7f0:	0a85                	add	s5,s5,1
 7f2:	0785                	add	a5,a5,1
 7f4:	fee78fa3          	sb	a4,-1(a5)
 7f8:	ff5c1ae3          	bne	s8,s5,7ec <.L134>
 7fc:	00092783          	lw	a5,0(s2)
 800:	c7b9                	beqz	a5,84e <.L135>
 802:	14c7a483          	lw	s1,332(a5)
 806:	c4a1                	beqz	s1,84e <.L135>
 808:	00000ab7          	lui	s5,0x0
 80c:	000aa583          	lw	a1,0(s5) # 0 <TOUCH_Find_sync_ht20>
 810:	1547a783          	lw	a5,340(a5)
 814:	ce2e                	sw	a1,28(sp)
 816:	9782                	jalr	a5
 818:	000a2703          	lw	a4,0(s4)
 81c:	45f2                	lw	a1,28(sp)
 81e:	86aa                	mv	a3,a0
 820:	01474603          	lbu	a2,20(a4)
 824:	01174883          	lbu	a7,17(a4)
 828:	01074803          	lbu	a6,16(a4)
 82c:	00f74783          	lbu	a5,15(a4)
 830:	c432                	sw	a2,8(sp)
 832:	01374603          	lbu	a2,19(a4)
 836:	450d                	li	a0,3
 838:	c232                	sw	a2,4(sp)
 83a:	01274703          	lbu	a4,18(a4)
 83e:	00000637          	lui	a2,0x0
 842:	00060613          	mv	a2,a2
 846:	c03a                	sw	a4,0(sp)
 848:	000aa703          	lw	a4,0(s5)
 84c:	9482                	jalr	s1

0000084e <.L135>:
 84e:	0189c703          	lbu	a4,24(s3)
 852:	4785                	li	a5,1
 854:	02f71e63          	bne	a4,a5,890 <.L136>
 858:	00092783          	lw	a5,0(s2)
 85c:	cb95                	beqz	a5,890 <.L136>
 85e:	14c7a483          	lw	s1,332(a5)
 862:	c49d                	beqz	s1,890 <.L136>
 864:	00000ab7          	lui	s5,0x0
 868:	000aa583          	lw	a1,0(s5) # 0 <TOUCH_Find_sync_ht20>
 86c:	1547a783          	lw	a5,340(a5)
 870:	ce2e                	sw	a1,28(sp)
 872:	9782                	jalr	a5
 874:	000a2783          	lw	a5,0(s4)
 878:	000aa703          	lw	a4,0(s5)
 87c:	45f2                	lw	a1,28(sp)
 87e:	0087c783          	lbu	a5,8(a5)
 882:	00000637          	lui	a2,0x0
 886:	86aa                	mv	a3,a0
 888:	00060613          	mv	a2,a2
 88c:	450d                	li	a0,3
 88e:	9482                	jalr	s1

00000890 <.L136>:
 890:	000a2783          	lw	a5,0(s4)
 894:	00092703          	lw	a4,0(s2)
 898:	43d4                	lw	a3,4(a5)
 89a:	eaf9                	bnez	a3,970 <.L137>
 89c:	0087c683          	lbu	a3,8(a5)
 8a0:	06d79a23          	sh	a3,116(a5)
 8a4:	0187d683          	lhu	a3,24(a5)
 8a8:	00d79d23          	sh	a3,26(a5)
 8ac:	cf05                	beqz	a4,8e4 <.L138>
 8ae:	14c72483          	lw	s1,332(a4)
 8b2:	c88d                	beqz	s1,8e4 <.L138>
 8b4:	00000ab7          	lui	s5,0x0
 8b8:	000aa583          	lw	a1,0(s5) # 0 <TOUCH_Find_sync_ht20>
 8bc:	15472783          	lw	a5,340(a4)
 8c0:	ce2e                	sw	a1,28(sp)
 8c2:	9782                	jalr	a5
 8c4:	000a2783          	lw	a5,0(s4)
 8c8:	000aa703          	lw	a4,0(s5)
 8cc:	45f2                	lw	a1,28(sp)
 8ce:	0197c803          	lbu	a6,25(a5)
 8d2:	0187c783          	lbu	a5,24(a5)
 8d6:	00000637          	lui	a2,0x0
 8da:	86aa                	mv	a3,a0
 8dc:	00060613          	mv	a2,a2
 8e0:	450d                	li	a0,3
 8e2:	9482                	jalr	s1

000008e4 <.L138>:
 8e4:	00092783          	lw	a5,0(s2)
 8e8:	00000537          	lui	a0,0x0
 8ec:	00052503          	lw	a0,0(a0) # 0 <TOUCH_Find_sync_ht20>
 8f0:	0b47a783          	lw	a5,180(a5)
 8f4:	577d                	li	a4,-1
 8f6:	4681                	li	a3,0
 8f8:	4601                	li	a2,0
 8fa:	4585                	li	a1,1
 8fc:	9782                	jalr	a5
 8fe:	0189c703          	lbu	a4,24(s3)
 902:	4785                	li	a5,1
 904:	02f71a63          	bne	a4,a5,938 <.L140>
 908:	00092783          	lw	a5,0(s2)
 90c:	c795                	beqz	a5,938 <.L140>
 90e:	14c7a483          	lw	s1,332(a5)
 912:	c09d                	beqz	s1,938 <.L140>
 914:	000009b7          	lui	s3,0x0
 918:	0009a583          	lw	a1,0(s3) # 0 <TOUCH_Find_sync_ht20>
 91c:	1547a783          	lw	a5,340(a5)
 920:	ce2e                	sw	a1,28(sp)
 922:	9782                	jalr	a5
 924:	0009a703          	lw	a4,0(s3)
 928:	45f2                	lw	a1,28(sp)
 92a:	00000637          	lui	a2,0x0
 92e:	86aa                	mv	a3,a0
 930:	00060613          	mv	a2,a2
 934:	450d                	li	a0,3
 936:	9482                	jalr	s1

00000938 <.L140>:
 938:	00092783          	lw	a5,0(s2)
 93c:	000c8513          	mv	a0,s9
 940:	0e47a783          	lw	a5,228(a5)
 944:	9782                	jalr	a5
 946:	00092783          	lw	a5,0(s2)
 94a:	000c8513          	mv	a0,s9
 94e:	0e87a783          	lw	a5,232(a5)
 952:	9782                	jalr	a5
 954:	02e44583          	lbu	a1,46(s0)
 958:	05444503          	lbu	a0,84(s0)
 95c:	000d0023          	sb	zero,0(s10)
 960:	00000097          	auipc	ra,0x0
 964:	000080e7          	jalr	ra # 960 <.L140+0x28>

00000968 <.L127>:
 968:	4621                	li	a2,8
 96a:	4581                	li	a1,0
 96c:	855e                	mv	a0,s7
 96e:	b495                	j	3d2 <.L222>

00000970 <.L137>:
 970:	4705                	li	a4,1
 972:	fce693e3          	bne	a3,a4,938 <.L140>
 976:	0087c703          	lbu	a4,8(a5)
 97a:	06e79a23          	sh	a4,116(a5)
 97e:	bf6d                	j	938 <.L140>

00000980 <.L123>:
 980:	0589                	add	a1,a1,2 # 2 <TOUCH_Find_sync_ht20+0x2>
 982:	0509                	add	a0,a0,2
 984:	b4659de3          	bne	a1,t1,4de <.L142>
 988:	bc9d                	j	3fe <.L93>

0000098a <.L121>:
 98a:	4c20                	lw	s0,88(s0)
 98c:	bce1                	j	464 <.L120>

Disassembly of section .text.TOUCH_Find_sync_ht40:

00000000 <TOUCH_Find_sync_ht40>:
   0:	715d                	add	sp,sp,-80
   2:	c0ca                	sw	s2,64(sp)
   4:	00000937          	lui	s2,0x0
   8:	c2a6                	sw	s1,68(sp)
   a:	dc52                	sw	s4,56(sp)
   c:	00090793          	mv	a5,s2
  10:	c686                	sw	ra,76(sp)
  12:	c4a2                	sw	s0,72(sp)
  14:	de4e                	sw	s3,60(sp)
  16:	da56                	sw	s5,52(sp)
  18:	d85a                	sw	s6,48(sp)
  1a:	d65e                	sw	s7,44(sp)
  1c:	d462                	sw	s8,40(sp)
  1e:	000004b7          	lui	s1,0x0
  22:	0017c983          	lbu	s3,1(a5)
  26:	00048793          	mv	a5,s1
  2a:	439c                	lw	a5,0(a5)
  2c:	8a2a                	mv	s4,a0
  2e:	00090913          	mv	s2,s2
  32:	01c7c703          	lbu	a4,28(a5)
  36:	00048493          	mv	s1,s1
  3a:	01370d63          	beq	a4,s3,54 <.L224>
  3e:	02078713          	add	a4,a5,32
  42:	05478693          	add	a3,a5,84

00000046 <.L225>:
  46:	00071023          	sh	zero,0(a4)
  4a:	0711                	add	a4,a4,4
  4c:	fed71de3          	bne	a4,a3,46 <.L225>
  50:	01378e23          	sb	s3,28(a5)

00000054 <.L224>:
  54:	02ca2703          	lw	a4,44(s4)
  58:	28000693          	li	a3,640
  5c:	0752                	sll	a4,a4,0x14
  5e:	8351                	srl	a4,a4,0x14
  60:	3ee6c463          	blt	a3,a4,448 <.L223>
  64:	000006b7          	lui	a3,0x0
  68:	0006d683          	lhu	a3,0(a3) # 0 <TOUCH_Find_sync_ht40>
  6c:	3cd74e63          	blt	a4,a3,448 <.L223>
  70:	02078693          	add	a3,a5,32
  74:	05478593          	add	a1,a5,84
  78:	8636                	mv	a2,a3

0000007a <.L227>:
  7a:	00061503          	lh	a0,0(a2) # 0 <TOUCH_Find_sync_ht40>
  7e:	3ca70563          	beq	a4,a0,448 <.L223>
  82:	0611                	add	a2,a2,4
  84:	fec59be3          	bne	a1,a2,7a <.L227>
  88:	88b6                	mv	a7,a3
  8a:	4601                	li	a2,0
  8c:	4801                	li	a6,0
  8e:	4f19                	li	t5,6
  90:	4f8d                	li	t6,3
  92:	4309                	li	t1,2
  94:	5e69                	li	t3,-6
  96:	4eb5                	li	t4,13

00000098 <.L251>:
  98:	0008d583          	lhu	a1,0(a7)
  9c:	40b705b3          	sub	a1,a4,a1
  a0:	05c2                	sll	a1,a1,0x10
  a2:	81c1                	srl	a1,a1,0x10
  a4:	00358513          	add	a0,a1,3
  a8:	0542                	sll	a0,a0,0x10
  aa:	8141                	srl	a0,a0,0x10
  ac:	3eaf6a63          	bltu	t5,a0,4a0 <.L228>
  b0:	0605                	add	a2,a2,1
  b2:	0ff67613          	zext.b	a2,a2
  b6:	0028d283          	lhu	t0,2(a7)
  ba:	00161513          	sll	a0,a2,0x1
  be:	0541                	add	a0,a0,16
  c0:	0800                	add	s0,sp,16
  c2:	9522                	add	a0,a0,s0
  c4:	fe551823          	sh	t0,-16(a0)
  c8:	feb51c23          	sh	a1,-8(a0)
  cc:	3df61a63          	bne	a2,t6,4a0 <.L228>
  d0:	01a11603          	lh	a2,26(sp)
  d4:	01c11383          	lh	t2,28(sp)
  d8:	01e11283          	lh	t0,30(sp)
  dc:	01061413          	sll	s0,a2,0x10
  e0:	01039a93          	sll	s5,t2,0x10
  e4:	8041                	srl	s0,s0,0x10
  e6:	010ada93          	srl	s5,s5,0x10
  ea:	015405b3          	add	a1,s0,s5
  ee:	03540433          	mul	s0,s0,s5
  f2:	01029513          	sll	a0,t0,0x10
  f6:	8141                	srl	a0,a0,0x10
  f8:	95aa                	add	a1,a1,a0
  fa:	05c2                	sll	a1,a1,0x10
  fc:	81c1                	srl	a1,a1,0x10
  fe:	99ed                	and	a1,a1,-5
 100:	02850533          	mul	a0,a0,s0
 104:	01051413          	sll	s0,a0,0x10
 108:	0542                	sll	a0,a0,0x10
 10a:	8041                	srl	s0,s0,0x10
 10c:	8541                	sra	a0,a0,0x10
 10e:	00658663          	beq	a1,t1,11a <.L229>
 112:	05c2                	sll	a1,a1,0x10
 114:	85c1                	sra	a1,a1,0x10
 116:	39c59463          	bne	a1,t3,49e <.L258>

0000011a <.L229>:
 11a:	ffb47593          	and	a1,s0,-5
 11e:	00658563          	beq	a1,t1,128 <.L230>
 122:	996d                	and	a0,a0,-5
 124:	37c51d63          	bne	a0,t3,49e <.L258>

00000128 <.L230>:
 128:	00c02633          	sgtz	a2,a2
 12c:	00705363          	blez	t2,132 <.L231>
 130:	0605                	add	a2,a2,1

00000132 <.L231>:
 132:	00505563          	blez	t0,13c <.L232>
 136:	0605                	add	a2,a2,1
 138:	0ff67613          	zext.b	a2,a2

0000013c <.L232>:
 13c:	000a0303          	lb	t1,0(s4)
 140:	0808                	add	a0,sp,16
 142:	01610893          	add	a7,sp,22
 146:	02800e13          	li	t3,40

0000014a <.L234>:
 14a:	00251583          	lh	a1,2(a0)
 14e:	406585b3          	sub	a1,a1,t1
 152:	05d1                	add	a1,a1,20
 154:	30be6663          	bltu	t3,a1,460 <.L259>
 158:	0509                	add	a0,a0,2
 15a:	fea898e3          	bne	a7,a0,14a <.L234>
 15e:	0547d683          	lhu	a3,84(a5)
 162:	000005b7          	lui	a1,0x0
 166:	0005d583          	lhu	a1,0(a1) # 0 <TOUCH_Find_sync_ht40>
 16a:	0685                	add	a3,a3,1
 16c:	06c2                	sll	a3,a3,0x10
 16e:	82c1                	srl	a3,a3,0x10
 170:	04d79a23          	sh	a3,84(a5)
 174:	02868693          	add	a3,a3,40
 178:	8f0d                	sub	a4,a4,a1
 17a:	0686                	sll	a3,a3,0x1
 17c:	8f11                	sub	a4,a4,a2
 17e:	96be                	add	a3,a3,a5
 180:	00e69223          	sh	a4,4(a3)
 184:	01411583          	lh	a1,20(sp)
 188:	01211703          	lh	a4,18(sp)
 18c:	0547d603          	lhu	a2,84(a5)
 190:	972e                	add	a4,a4,a1
 192:	01611583          	lh	a1,22(sp)
 196:	fff60693          	add	a3,a2,-1
 19a:	96be                	add	a3,a3,a5
 19c:	972e                	add	a4,a4,a1
 19e:	458d                	li	a1,3
 1a0:	02b74733          	div	a4,a4,a1
 1a4:	01368ea3          	sb	s3,29(a3)
 1a8:	04e68d23          	sb	a4,90(a3)
 1ac:	4705                	li	a4,1
 1ae:	26c77a63          	bgeu	a4,a2,422 <.L256>
 1b2:	0567d683          	lhu	a3,86(a5)
 1b6:	0587d703          	lhu	a4,88(a5)
 1ba:	00e68863          	beq	a3,a4,1ca <.L237>
 1be:	01d7c683          	lbu	a3,29(a5)
 1c2:	01e7c703          	lbu	a4,30(a5)
 1c6:	28e69f63          	bne	a3,a4,464 <.L238>

000001ca <.L237>:
 1ca:	00000437          	lui	s0,0x0
 1ce:	00042783          	lw	a5,0(s0) # 0 <TOUCH_Find_sync_ht40>
 1d2:	00000ab7          	lui	s5,0x0
 1d6:	000a8513          	mv	a0,s5
 1da:	0e47a783          	lw	a5,228(a5)
 1de:	00000b37          	lui	s6,0x0
 1e2:	9782                	jalr	a5
 1e4:	00042783          	lw	a5,0(s0)
 1e8:	000a8513          	mv	a0,s5
 1ec:	0e87a783          	lw	a5,232(a5)
 1f0:	9782                	jalr	a5
 1f2:	000b0023          	sb	zero,0(s6) # 0 <TOUCH_Find_sync_ht40>
 1f6:	00000097          	auipc	ra,0x0
 1fa:	000080e7          	jalr	ra # 1f6 <.L237+0x2c>
 1fe:	4785                	li	a5,1
 200:	00f90ca3          	sb	a5,25(s2) # 19 <TOUCH_Find_sync_ht40+0x19>
 204:	00042783          	lw	a5,0(s0)
 208:	00092a23          	sw	zero,20(s2)
 20c:	24079f63          	bnez	a5,46a <.L239>

00000210 <.L240>:
 210:	02ca2783          	lw	a5,44(s4)
 214:	23d00713          	li	a4,573
 218:	07d2                	sll	a5,a5,0x14
 21a:	83d1                	srl	a5,a5,0x14
 21c:	02f76b63          	bltu	a4,a5,252 <.L242>
 220:	00042783          	lw	a5,0(s0)
 224:	c79d                	beqz	a5,252 <.L242>
 226:	14c7aa03          	lw	s4,332(a5)
 22a:	020a0463          	beqz	s4,252 <.L242>
 22e:	00000bb7          	lui	s7,0x0
 232:	000ba583          	lw	a1,0(s7) # 0 <TOUCH_Find_sync_ht40>
 236:	1547a783          	lw	a5,340(a5)
 23a:	c62e                	sw	a1,12(sp)
 23c:	9782                	jalr	a5
 23e:	000ba703          	lw	a4,0(s7)
 242:	45b2                	lw	a1,12(sp)
 244:	00000637          	lui	a2,0x0
 248:	86aa                	mv	a3,a0
 24a:	00060613          	mv	a2,a2
 24e:	450d                	li	a0,3
 250:	9a02                	jalr	s4

00000252 <.L242>:
 252:	00000a37          	lui	s4,0x0
 256:	000a0793          	mv	a5,s4
 25a:	439c                	lw	a5,0(a5)
 25c:	4705                	li	a4,1
 25e:	000a0a13          	mv	s4,s4
 262:	c3d8                	sw	a4,4(a5)
 264:	4098                	lw	a4,0(s1)
 266:	05b70603          	lb	a2,91(a4)
 26a:	05a70683          	lb	a3,90(a4)
 26e:	96b2                	add	a3,a3,a2
 270:	4609                	li	a2,2
 272:	02c6c6b3          	div	a3,a3,a2
 276:	06d79923          	sh	a3,114(a5)
 27a:	05475683          	lhu	a3,84(a4)
 27e:	02868693          	add	a3,a3,40
 282:	0686                	sll	a3,a3,0x1
 284:	9736                	add	a4,a4,a3
 286:	00475703          	lhu	a4,4(a4)
 28a:	06e79a23          	sh	a4,116(a5)
 28e:	0187c703          	lbu	a4,24(a5)
 292:	20070363          	beqz	a4,498 <.L243>
 296:	00e78d23          	sb	a4,26(a5)
 29a:	0197c703          	lbu	a4,25(a5)

0000029e <.L244>:
 29e:	00e78da3          	sb	a4,27(a5)
 2a2:	00042783          	lw	a5,0(s0)
 2a6:	000009b7          	lui	s3,0x0
 2aa:	00098513          	mv	a0,s3
 2ae:	0e47a783          	lw	a5,228(a5)
 2b2:	9782                	jalr	a5
 2b4:	00042783          	lw	a5,0(s0)
 2b8:	00098513          	mv	a0,s3
 2bc:	0e87a783          	lw	a5,232(a5)
 2c0:	9782                	jalr	a5
 2c2:	00042783          	lw	a5,0(s0)
 2c6:	000005b7          	lui	a1,0x0
 2ca:	4601                	li	a2,0
 2cc:	0ec7a783          	lw	a5,236(a5)
 2d0:	00058593          	mv	a1,a1
 2d4:	00098513          	mv	a0,s3
 2d8:	9782                	jalr	a5
 2da:	000007b7          	lui	a5,0x0
 2de:	0007a703          	lw	a4,0(a5) # 0 <TOUCH_Find_sync_ht40>
 2e2:	3e800593          	li	a1,1000
 2e6:	00042783          	lw	a5,0(s0)
 2ea:	02e585b3          	mul	a1,a1,a4
 2ee:	4601                	li	a2,0
 2f0:	0e07a783          	lw	a5,224(a5)
 2f4:	00098513          	mv	a0,s3
 2f8:	9782                	jalr	a5
 2fa:	01894703          	lbu	a4,24(s2)
 2fe:	4785                	li	a5,1
 300:	08f71263          	bne	a4,a5,384 <.L246>
 304:	00042783          	lw	a5,0(s0)
 308:	cf8d                	beqz	a5,342 <.L247>
 30a:	14c7a903          	lw	s2,332(a5)
 30e:	02090a63          	beqz	s2,342 <.L247>
 312:	000009b7          	lui	s3,0x0
 316:	0009a583          	lw	a1,0(s3) # 0 <TOUCH_Find_sync_ht40>
 31a:	1547a783          	lw	a5,340(a5)
 31e:	c62e                	sw	a1,12(sp)
 320:	9782                	jalr	a5
 322:	000a2783          	lw	a5,0(s4) # 0 <TOUCH_Find_sync_ht40>
 326:	0009a703          	lw	a4,0(s3)
 32a:	45b2                	lw	a1,12(sp)
 32c:	01b7c803          	lbu	a6,27(a5)
 330:	01a7c783          	lbu	a5,26(a5)
 334:	00000637          	lui	a2,0x0
 338:	86aa                	mv	a3,a0
 33a:	00060613          	mv	a2,a2
 33e:	450d                	li	a0,3
 340:	9902                	jalr	s2

00000342 <.L247>:
 342:	00042783          	lw	a5,0(s0)
 346:	cf9d                	beqz	a5,384 <.L246>
 348:	14c7a903          	lw	s2,332(a5)
 34c:	02090c63          	beqz	s2,384 <.L246>
 350:	000009b7          	lui	s3,0x0
 354:	0009a583          	lw	a1,0(s3) # 0 <TOUCH_Find_sync_ht40>
 358:	1547a783          	lw	a5,340(a5)
 35c:	c62e                	sw	a1,12(sp)
 35e:	9782                	jalr	a5
 360:	000a2783          	lw	a5,0(s4)
 364:	0009a703          	lw	a4,0(s3)
 368:	45b2                	lw	a1,12(sp)
 36a:	0747d883          	lhu	a7,116(a5)
 36e:	01a7c803          	lbu	a6,26(a5)
 372:	07279783          	lh	a5,114(a5)
 376:	00000637          	lui	a2,0x0
 37a:	86aa                	mv	a3,a0
 37c:	00060613          	mv	a2,a2
 380:	450d                	li	a0,3
 382:	9902                	jalr	s2

00000384 <.L246>:
 384:	00042783          	lw	a5,0(s0)
 388:	cf8d                	beqz	a5,3c2 <.L249>
 38a:	14c7a903          	lw	s2,332(a5)
 38e:	02090a63          	beqz	s2,3c2 <.L249>
 392:	000009b7          	lui	s3,0x0
 396:	0009a583          	lw	a1,0(s3) # 0 <TOUCH_Find_sync_ht40>
 39a:	1547a783          	lw	a5,340(a5)
 39e:	c62e                	sw	a1,12(sp)
 3a0:	9782                	jalr	a5
 3a2:	000a2783          	lw	a5,0(s4)
 3a6:	0009a703          	lw	a4,0(s3)
 3aa:	45b2                	lw	a1,12(sp)
 3ac:	01b7c803          	lbu	a6,27(a5)
 3b0:	01a7c783          	lbu	a5,26(a5)
 3b4:	00000637          	lui	a2,0x0
 3b8:	86aa                	mv	a3,a0
 3ba:	00060613          	mv	a2,a2
 3be:	450d                	li	a0,3
 3c0:	9902                	jalr	s2

000003c2 <.L249>:
 3c2:	00042783          	lw	a5,0(s0)
 3c6:	00000537          	lui	a0,0x0
 3ca:	00052503          	lw	a0,0(a0) # 0 <TOUCH_Find_sync_ht40>
 3ce:	0b47a783          	lw	a5,180(a5)
 3d2:	577d                	li	a4,-1
 3d4:	4681                	li	a3,0
 3d6:	4601                	li	a2,0
 3d8:	4585                	li	a1,1
 3da:	9782                	jalr	a5
 3dc:	4088                	lw	a0,0(s1)
 3de:	4581                	li	a1,0
 3e0:	4619                	li	a2,6
 3e2:	05450513          	add	a0,a0,84
 3e6:	00000097          	auipc	ra,0x0
 3ea:	000080e7          	jalr	ra # 3e6 <.L249+0x24>
 3ee:	00042783          	lw	a5,0(s0)
 3f2:	000a8513          	mv	a0,s5
 3f6:	0e47a783          	lw	a5,228(a5)
 3fa:	9782                	jalr	a5
 3fc:	00042783          	lw	a5,0(s0)
 400:	000a8513          	mv	a0,s5
 404:	0e87a783          	lw	a5,232(a5)
 408:	9782                	jalr	a5
 40a:	000a2783          	lw	a5,0(s4)
 40e:	000b0023          	sb	zero,0(s6)
 412:	01b7c583          	lbu	a1,27(a5)
 416:	01a7c503          	lbu	a0,26(a5)
 41a:	00000097          	auipc	ra,0x0
 41e:	000080e7          	jalr	ra # 41a <.L249+0x58>

00000422 <.L256>:
 422:	4098                	lw	a4,0(s1)
 424:	02070793          	add	a5,a4,32
 428:	05470713          	add	a4,a4,84

0000042c <.L250>:
 42c:	00079023          	sh	zero,0(a5)
 430:	0791                	add	a5,a5,4
 432:	fef71de3          	bne	a4,a5,42c <.L250>
 436:	a809                	j	448 <.L223>

00000438 <.L236>:
 438:	0785                	add	a5,a5,1
 43a:	00069023          	sh	zero,0(a3)
 43e:	0ff7f793          	zext.b	a5,a5
 442:	0691                	add	a3,a3,4

00000444 <.L233>:
 444:	ff079ae3          	bne	a5,a6,438 <.L236>

00000448 <.L223>:
 448:	40b6                	lw	ra,76(sp)
 44a:	4426                	lw	s0,72(sp)
 44c:	4496                	lw	s1,68(sp)
 44e:	4906                	lw	s2,64(sp)
 450:	59f2                	lw	s3,60(sp)
 452:	5a62                	lw	s4,56(sp)
 454:	5ad2                	lw	s5,52(sp)
 456:	5b42                	lw	s6,48(sp)
 458:	5bb2                	lw	s7,44(sp)
 45a:	5c22                	lw	s8,40(sp)
 45c:	6161                	add	sp,sp,80
 45e:	8082                	ret

00000460 <.L259>:
 460:	4781                	li	a5,0
 462:	b7cd                	j	444 <.L233>

00000464 <.L238>:
 464:	04079a23          	sh	zero,84(a5)
 468:	b7c5                	j	448 <.L223>

0000046a <.L239>:
 46a:	14c7ab83          	lw	s7,332(a5)
 46e:	da0b81e3          	beqz	s7,210 <.L240>
 472:	00000c37          	lui	s8,0x0
 476:	000c2583          	lw	a1,0(s8) # 0 <TOUCH_Find_sync_ht40>
 47a:	1547a783          	lw	a5,340(a5)
 47e:	c62e                	sw	a1,12(sp)
 480:	9782                	jalr	a5
 482:	000c2703          	lw	a4,0(s8)
 486:	45b2                	lw	a1,12(sp)
 488:	00000637          	lui	a2,0x0
 48c:	86aa                	mv	a3,a0
 48e:	00060613          	mv	a2,a2
 492:	450d                	li	a0,3
 494:	9b82                	jalr	s7
 496:	bbad                	j	210 <.L240>

00000498 <.L243>:
 498:	01378d23          	sb	s3,26(a5)
 49c:	b509                	j	29e <.L244>

0000049e <.L258>:
 49e:	4609                	li	a2,2

000004a0 <.L228>:
 4a0:	0805                	add	a6,a6,1
 4a2:	0ff87813          	zext.b	a6,a6
 4a6:	0891                	add	a7,a7,4
 4a8:	bfd818e3          	bne	a6,t4,98 <.L251>
 4ac:	05078613          	add	a2,a5,80

000004b0 <.L252>:
 4b0:	0046d583          	lhu	a1,4(a3)
 4b4:	0691                	add	a3,a3,4
 4b6:	feb69e23          	sh	a1,-4(a3)
 4ba:	fed61be3          	bne	a2,a3,4b0 <.L252>
 4be:	02278693          	add	a3,a5,34
 4c2:	05278613          	add	a2,a5,82

000004c6 <.L253>:
 4c6:	0046d583          	lhu	a1,4(a3)
 4ca:	0691                	add	a3,a3,4
 4cc:	feb69e23          	sh	a1,-4(a3)
 4d0:	fed61be3          	bne	a2,a3,4c6 <.L253>
 4d4:	04e79823          	sh	a4,80(a5)
 4d8:	000a0703          	lb	a4,0(s4)
 4dc:	04e79923          	sh	a4,82(a5)
 4e0:	b7a5                	j	448 <.L223>

Disassembly of section .text.TOUCH_Deal_with:

00000000 <TOUCH_Deal_with>:
       0:	00050803          	lb	a6,0(a0)
       4:	fac00793          	li	a5,-84
       8:	00f85463          	bge	a6,a5,10 <TOUCH_Deal_with+0x10>
       c:	0010106f          	j	180c <.L698>
      10:	7115                	add	sp,sp,-224
      12:	c3d6                	sw	s5,196(sp)
      14:	cf86                	sw	ra,220(sp)
      16:	cda2                	sw	s0,216(sp)
      18:	cba6                	sw	s1,212(sp)
      1a:	c9ca                	sw	s2,208(sp)
      1c:	c7ce                	sw	s3,204(sp)
      1e:	c5d2                	sw	s4,200(sp)
      20:	c1da                	sw	s6,192(sp)
      22:	df5e                	sw	s7,188(sp)
      24:	dd62                	sw	s8,184(sp)
      26:	db66                	sw	s9,180(sp)
      28:	d96a                	sw	s10,176(sp)
      2a:	d76e                	sw	s11,172(sp)
      2c:	478d                	li	a5,3
      2e:	8aaa                	mv	s5,a0
      30:	3cf59fe3          	bne	a1,a5,c0e <.L298>
      34:	4158                	lw	a4,4(a0)
      36:	080007b7          	lui	a5,0x8000
      3a:	8ff9                	and	a5,a5,a4
      3c:	cf91                	beqz	a5,58 <.L299>
      3e:	5558                	lw	a4,44(a0)
      40:	6685                	lui	a3,0x1
      42:	16fd                	add	a3,a3,-1 # fff <.L425+0x63>
      44:	00d777b3          	and	a5,a4,a3
      48:	17f1                	add	a5,a5,-4 # 7fffffc <.L698+0x7ffe7f0>
      4a:	07c2                	sll	a5,a5,0x10
      4c:	83c1                	srl	a5,a5,0x10
      4e:	8ff5                	and	a5,a5,a3
      50:	76fd                	lui	a3,0xfffff
      52:	8f75                	and	a4,a4,a3
      54:	8f5d                	or	a4,a4,a5
      56:	d558                	sw	a4,44(a0)

00000058 <.L299>:
      58:	000004b7          	lui	s1,0x0
      5c:	00048793          	mv	a5,s1
      60:	439c                	lw	a5,0(a5)
      62:	4705                	li	a4,1
      64:	00048493          	mv	s1,s1
      68:	43d4                	lw	a3,4(a5)
      6a:	02e68963          	beq	a3,a4,9c <.L300>
      6e:	4709                	li	a4,2
      70:	38e68ce3          	beq	a3,a4,c08 <.L301>
      74:	eaf5                	bnez	a3,168 <.L296>
      76:	446e                	lw	s0,216(sp)
      78:	40fe                	lw	ra,220(sp)
      7a:	44de                	lw	s1,212(sp)
      7c:	494e                	lw	s2,208(sp)
      7e:	49be                	lw	s3,204(sp)
      80:	4a2e                	lw	s4,200(sp)
      82:	4b0e                	lw	s6,192(sp)
      84:	5bfa                	lw	s7,188(sp)
      86:	5c6a                	lw	s8,184(sp)
      88:	5cda                	lw	s9,180(sp)
      8a:	5d4a                	lw	s10,176(sp)
      8c:	5dba                	lw	s11,172(sp)
      8e:	8556                	mv	a0,s5
      90:	4a9e                	lw	s5,196(sp)
      92:	612d                	add	sp,sp,224
      94:	00000317          	auipc	t1,0x0
      98:	00030067          	jr	t1 # 94 <.L299+0x3c>

0000009c <.L300>:
      9c:	00000a37          	lui	s4,0x0
      a0:	000a2703          	lw	a4,0(s4) # 0 <TOUCH_Deal_with>
      a4:	0747d603          	lhu	a2,116(a5)
      a8:	05872903          	lw	s2,88(a4)
      ac:	fd800713          	li	a4,-40
      b0:	8f11                	sub	a4,a4,a2
      b2:	02caa603          	lw	a2,44(s5) # 2c <TOUCH_Deal_with+0x2c>
      b6:	0652                	sll	a2,a2,0x14
      b8:	8251                	srl	a2,a2,0x14
      ba:	9732                	add	a4,a4,a2
      bc:	0742                	sll	a4,a4,0x10
      be:	8341                	srl	a4,a4,0x10
      c0:	16800613          	li	a2,360
      c4:	0ae66263          	bltu	a2,a4,168 <.L296>
      c8:	0797c583          	lbu	a1,121(a5)
      cc:	01071613          	sll	a2,a4,0x10
      d0:	8641                	sra	a2,a2,0x10
      d2:	00d59863          	bne	a1,a3,e2 <.L304>
      d6:	0297c683          	lbu	a3,41(a5)
      da:	10068693          	add	a3,a3,256 # fffff100 <.L698+0xffffd8f4>
      de:	08e6c563          	blt	a3,a4,168 <.L296>

000000e2 <.L304>:
      e2:	1a27c703          	lbu	a4,418(a5)
      e6:	eb09                	bnez	a4,f8 <.L305>
      e8:	07279703          	lh	a4,114(a5)
      ec:	46f9                	li	a3,30
      ee:	40e80733          	sub	a4,a6,a4
      f2:	073d                	add	a4,a4,15
      f4:	06e6ea63          	bltu	a3,a4,168 <.L296>

000000f8 <.L305>:
      f8:	0ba79703          	lh	a4,186(a5)
      fc:	06c70663          	beq	a4,a2,168 <.L296>
     100:	0ac79d23          	sh	a2,186(a5)
     104:	0b079e23          	sh	a6,188(a5)
     108:	09e78713          	add	a4,a5,158
     10c:	0ba78693          	add	a3,a5,186

00000110 <.L306>:
     110:	00475603          	lhu	a2,4(a4)
     114:	0711                	add	a4,a4,4
     116:	fec71e23          	sh	a2,-4(a4)
     11a:	00275603          	lhu	a2,2(a4)
     11e:	fec71f23          	sh	a2,-2(a4)
     122:	fee697e3          	bne	a3,a4,110 <.L306>
     126:	0aa79703          	lh	a4,170(a5)
     12a:	0ff00793          	li	a5,255
     12e:	02e7dd63          	bge	a5,a4,168 <.L296>
     132:	4a89                	li	s5,2
     134:	0ff00c13          	li	s8,255
     138:	4c9d                	li	s9,7
     13a:	5d7d                	li	s10,-1

0000013c <.L308>:
     13c:	409c                	lw	a5,0(s1)
     13e:	024a8b93          	add	s7,s5,36
     142:	0b8a                	sll	s7,s7,0x2
     144:	97de                	add	a5,a5,s7
     146:	00e79783          	lh	a5,14(a5)
     14a:	00fc4f63          	blt	s8,a5,168 <.L296>
     14e:	4b11                	li	s6,4

00000150 <.L398>:
     150:	409c                	lw	a5,0(s1)
     152:	024b0713          	add	a4,s6,36
     156:	070a                	sll	a4,a4,0x2
     158:	973e                	add	a4,a4,a5
     15a:	00e71403          	lh	s0,14(a4)
     15e:	028c5463          	bge	s8,s0,186 <.L307>

00000162 <.L399>:
     162:	1afd                	add	s5,s5,-1
     164:	fdaa9ce3          	bne	s5,s10,13c <.L308>

00000168 <.L296>:
     168:	40fe                	lw	ra,220(sp)
     16a:	446e                	lw	s0,216(sp)
     16c:	44de                	lw	s1,212(sp)
     16e:	494e                	lw	s2,208(sp)
     170:	49be                	lw	s3,204(sp)
     172:	4a2e                	lw	s4,200(sp)
     174:	4a9e                	lw	s5,196(sp)
     176:	4b0e                	lw	s6,192(sp)
     178:	5bfa                	lw	s7,188(sp)
     17a:	5c6a                	lw	s8,184(sp)
     17c:	5cda                	lw	s9,180(sp)
     17e:	5d4a                	lw	s10,176(sp)
     180:	5dba                	lw	s11,172(sp)
     182:	612d                	add	sp,sp,224
     184:	8082                	ret

00000186 <.L307>:
     186:	0aa7d703          	lhu	a4,170(a5)
     18a:	97de                	add	a5,a5,s7
     18c:	4589                	li	a1,2
     18e:	02e104a3          	sb	a4,41(sp)
     192:	00e79983          	lh	s3,14(a5)
     196:	00f47713          	and	a4,s0,15
     19a:	8011                	srl	s0,s0,0x4
     19c:	01099793          	sll	a5,s3,0x10
     1a0:	83c1                	srl	a5,a5,0x10
     1a2:	0792                	sll	a5,a5,0x4
     1a4:	8fd9                	or	a5,a5,a4
     1a6:	1028                	add	a0,sp,40
     1a8:	883d                	and	s0,s0,15
     1aa:	0f09f993          	and	s3,s3,240
     1ae:	02f10423          	sb	a5,40(sp)
     1b2:	0089e9b3          	or	s3,s3,s0
     1b6:	00000097          	auipc	ra,0x0
     1ba:	000080e7          	jalr	ra # 1b6 <.L307+0x30>
     1be:	24a990e3          	bne	s3,a0,bfe <.L309>
     1c2:	000009b7          	lui	s3,0x0
     1c6:	00098793          	mv	a5,s3
     1ca:	0187c703          	lbu	a4,24(a5)
     1ce:	4785                	li	a5,1
     1d0:	00098993          	mv	s3,s3
     1d4:	04f71563          	bne	a4,a5,21e <.L310>
     1d8:	02914683          	lbu	a3,41(sp)
     1dc:	000007b7          	lui	a5,0x0
     1e0:	4721                	li	a4,8
     1e2:	0007a783          	lw	a5,0(a5) # 0 <TOUCH_Deal_with>
     1e6:	0ed76063          	bltu	a4,a3,2c6 <.L311>
     1ea:	cb95                	beqz	a5,21e <.L310>
     1ec:	14c7a403          	lw	s0,332(a5)
     1f0:	c41d                	beqz	s0,21e <.L310>
     1f2:	00000bb7          	lui	s7,0x0
     1f6:	000ba583          	lw	a1,0(s7) # 0 <TOUCH_Deal_with>
     1fa:	1547a783          	lw	a5,340(a5)
     1fe:	ce2e                	sw	a1,28(sp)
     200:	9782                	jalr	a5
     202:	02914803          	lbu	a6,41(sp)
     206:	02814783          	lbu	a5,40(sp)
     20a:	000ba703          	lw	a4,0(s7)
     20e:	00000637          	lui	a2,0x0
     212:	86aa                	mv	a3,a0
     214:	00060613          	mv	a2,a2

00000218 <.L701>:
     218:	45f2                	lw	a1,28(sp)
     21a:	450d                	li	a0,3
     21c:	9402                	jalr	s0

0000021e <.L310>:
     21e:	4080                	lw	s0,0(s1)
     220:	0a8a                	sll	s5,s5,0x2
     222:	0b0a                	sll	s6,s6,0x2
     224:	9aa2                	add	s5,s5,s0
     226:	9b22                	add	s6,s6,s0
     228:	0a0a9783          	lh	a5,160(s5)
     22c:	0a0b1703          	lh	a4,160(s6)
     230:	00000ab7          	lui	s5,0x0
     234:	000a8a93          	mv	s5,s5
     238:	97ba                	add	a5,a5,a4
     23a:	0ac41703          	lh	a4,172(s0)
     23e:	97ba                	add	a5,a5,a4
     240:	07241703          	lh	a4,114(s0)
     244:	97ba                	add	a5,a5,a4
     246:	4711                	li	a4,4
     248:	02e7c7b3          	div	a5,a5,a4
     24c:	07944703          	lbu	a4,121(s0)
     250:	06f41923          	sh	a5,114(s0)
     254:	02914783          	lbu	a5,41(sp)
     258:	3a071563          	bnez	a4,602 <.L313>
     25c:	efc9                	bnez	a5,2f6 <.L314>
     25e:	02814783          	lbu	a5,40(sp)
     262:	06f40c23          	sb	a5,120(s0)
     266:	4785                	li	a5,1
     268:	06f40d23          	sb	a5,122(s0)

0000026c <.L315>:
     26c:	07c45703          	lhu	a4,124(s0)
     270:	10100793          	li	a5,257
     274:	38f71763          	bne	a4,a5,602 <.L313>
     278:	5c38                	lw	a4,120(s0)
     27a:	77c1                	lui	a5,0xffff0
     27c:	8ff9                	and	a5,a5,a4
     27e:	01010737          	lui	a4,0x1010
     282:	38e79063          	bne	a5,a4,602 <.L313>
     286:	07844783          	lbu	a5,120(s0)
     28a:	05f00693          	li	a3,95
     28e:	ff678713          	add	a4,a5,-10 # fffefff6 <.L698+0xfffee7ea>
     292:	0ff77713          	zext.b	a4,a4
     296:	02e6e363          	bltu	a3,a4,2bc <.L319>
     29a:	000006b7          	lui	a3,0x0
     29e:	07744703          	lbu	a4,119(s0)
     2a2:	0006d683          	lhu	a3,0(a3) # 0 <TOUCH_Deal_with>
     2a6:	00e6eb63          	bltu	a3,a4,2bc <.L319>
     2aa:	40e786b3          	sub	a3,a5,a4
     2ae:	02900613          	li	a2,41
     2b2:	00d64563          	blt	a2,a3,2bc <.L319>
     2b6:	17dd                	add	a5,a5,-9
     2b8:	06f74d63          	blt	a4,a5,332 <.L320>

000002bc <.L319>:
     2bc:	06041d23          	sh	zero,122(s0)
     2c0:	06041e23          	sh	zero,124(s0)
     2c4:	b555                	j	168 <.L296>

000002c6 <.L311>:
     2c6:	dfa1                	beqz	a5,21e <.L310>
     2c8:	14c7a403          	lw	s0,332(a5)
     2cc:	d829                	beqz	s0,21e <.L310>
     2ce:	00000bb7          	lui	s7,0x0
     2d2:	000ba583          	lw	a1,0(s7) # 0 <TOUCH_Deal_with>
     2d6:	1547a783          	lw	a5,340(a5)
     2da:	ce2e                	sw	a1,28(sp)
     2dc:	9782                	jalr	a5
     2de:	00000637          	lui	a2,0x0
     2e2:	02914803          	lbu	a6,41(sp)
     2e6:	02814783          	lbu	a5,40(sp)
     2ea:	000ba703          	lw	a4,0(s7)
     2ee:	86aa                	mv	a3,a0
     2f0:	00060613          	mv	a2,a2
     2f4:	b715                	j	218 <.L701>

000002f6 <.L314>:
     2f6:	4705                	li	a4,1
     2f8:	00e79963          	bne	a5,a4,30a <.L316>
     2fc:	02814703          	lbu	a4,40(sp)
     300:	06f40da3          	sb	a5,123(s0)
     304:	06e40ba3          	sb	a4,119(s0)
     308:	b795                	j	26c <.L315>

0000030a <.L316>:
     30a:	4689                	li	a3,2
     30c:	00d79963          	bne	a5,a3,31e <.L317>
     310:	02814783          	lbu	a5,40(sp)
     314:	06e40e23          	sb	a4,124(s0)
     318:	02f40523          	sb	a5,42(s0)
     31c:	bf81                	j	26c <.L315>

0000031e <.L317>:
     31e:	468d                	li	a3,3
     320:	f4d796e3          	bne	a5,a3,26c <.L315>
     324:	02814783          	lbu	a5,40(sp)
     328:	06e40ea3          	sb	a4,125(s0)
     32c:	02f405a3          	sb	a5,43(s0)
     330:	bf35                	j	26c <.L315>

00000332 <.L320>:
     332:	8f99                	sub	a5,a5,a4
     334:	06f44703          	lbu	a4,111(s0)
     338:	0ff7fb13          	zext.b	s6,a5
     33c:	4785                	li	a5,1
     33e:	06f40ca3          	sb	a5,121(s0)
     342:	20f70a63          	beq	a4,a5,556 <.L692>
     346:	4c05                	li	s8,1
     348:	00000cb7          	lui	s9,0x0
     34c:	00000437          	lui	s0,0x0

00000350 <.L322>:
     350:	409c                	lw	a5,0(s1)
     352:	0c091463          	bnez	s2,41a <.L334>

00000356 <.L335>:
     356:	4098                	lw	a4,0(s1)
     358:	4785                	li	a5,1
     35a:	07074403          	lbu	s0,112(a4) # 1010070 <.L698+0x100e864>
     35e:	22f41a63          	bne	s0,a5,592 <.L336>
     362:	07774783          	lbu	a5,119(a4)
     366:	07a5                	add	a5,a5,9
     368:	0ff7f793          	zext.b	a5,a5

0000036c <.L337>:
     36c:	02f704a3          	sb	a5,41(a4)
     370:	28041463          	bnez	s0,5f8 <.L339>
     374:	000a2783          	lw	a5,0(s4)
     378:	4b01                	li	s6,0
     37a:	4a05                	li	s4,1
     37c:	0587a903          	lw	s2,88(a5)

00000380 <.L340>:
     380:	20091c63          	bnez	s2,598 <.L342>
     384:	4785                	li	a5,1
     386:	26f41963          	bne	s0,a5,5f8 <.L339>
     38a:	409c                	lw	a5,0(s1)
     38c:	01a7c703          	lbu	a4,26(a5)
     390:	01471663          	bne	a4,s4,39c <.L344>
     394:	01b7c703          	lbu	a4,27(a5)
     398:	27670063          	beq	a4,s6,5f8 <.L339>

0000039c <.L344>:
     39c:	240a0e63          	beqz	s4,5f8 <.L339>
     3a0:	0187c783          	lbu	a5,24(a5)
     3a4:	24079a63          	bnez	a5,5f8 <.L339>
     3a8:	85da                	mv	a1,s6
     3aa:	8552                	mv	a0,s4
     3ac:	00000097          	auipc	ra,0x0
     3b0:	000080e7          	jalr	ra # 3ac <.L344+0x10>
     3b4:	000aa703          	lw	a4,0(s5) # 0 <TOUCH_Deal_with>
     3b8:	4785                	li	a5,1
     3ba:	1af70123          	sb	a5,418(a4)
     3be:	0189c703          	lbu	a4,24(s3) # 18 <TOUCH_Deal_with+0x18>
     3c2:	24f71063          	bne	a4,a5,602 <.L313>
     3c6:	000007b7          	lui	a5,0x0
     3ca:	0007a783          	lw	a5,0(a5) # 0 <TOUCH_Deal_with>
     3ce:	1e079d63          	bnez	a5,5c8 <.L345>

000003d2 <.L348>:
     3d2:	00000437          	lui	s0,0x0
     3d6:	00042783          	lw	a5,0(s0) # 0 <TOUCH_Deal_with>
     3da:	2a079363          	bnez	a5,680 <.L346>

000003de <.L347>:
     3de:	00042783          	lw	a5,0(s0)
     3e2:	22078063          	beqz	a5,602 <.L313>
     3e6:	14c7a403          	lw	s0,332(a5)
     3ea:	20040c63          	beqz	s0,602 <.L313>
     3ee:	00000937          	lui	s2,0x0
     3f2:	00092583          	lw	a1,0(s2) # 0 <TOUCH_Deal_with>
     3f6:	1547a783          	lw	a5,340(a5)
     3fa:	ce2e                	sw	a1,28(sp)
     3fc:	9782                	jalr	a5
     3fe:	409c                	lw	a5,0(s1)
     400:	00092703          	lw	a4,0(s2)
     404:	45f2                	lw	a1,28(sp)
     406:	0707c783          	lbu	a5,112(a5)
     40a:	00000637          	lui	a2,0x0
     40e:	86aa                	mv	a3,a0
     410:	00060613          	mv	a2,a2
     414:	450d                	li	a0,3
     416:	9402                	jalr	s0
     418:	a2ed                	j	602 <.L313>

0000041a <.L334>:
     41a:	03390b93          	add	s7,s2,51
     41e:	855e                	mv	a0,s7
     420:	ce3e                	sw	a5,28(sp)
     422:	00000097          	auipc	ra,0x0
     426:	000080e7          	jalr	ra # 422 <.L334+0x8>
     42a:	47f2                	lw	a5,28(sp)
     42c:	0aab1e63          	bne	s6,a0,4e8 <.L325>
     430:	03394703          	lbu	a4,51(s2)
     434:	cb55                	beqz	a4,4e8 <.L325>
     436:	02a7cd03          	lbu	s10,42(a5)
     43a:	85da                	mv	a1,s6
     43c:	855e                	mv	a0,s7
     43e:	00000097          	auipc	ra,0x0
     442:	000080e7          	jalr	ra # 43e <.L334+0x24>
     446:	0aad1163          	bne	s10,a0,4e8 <.L325>
     44a:	409c                	lw	a5,0(s1)
     44c:	4599                	li	a1,6
     44e:	854a                	mv	a0,s2
     450:	02b7cd03          	lbu	s10,43(a5)
     454:	00000097          	auipc	ra,0x0
     458:	000080e7          	jalr	ra # 454 <.L334+0x3a>
     45c:	08ad1663          	bne	s10,a0,4e8 <.L325>
     460:	0004ad03          	lw	s10,0(s1) # 0 <TOUCH_Deal_with>
     464:	04ed0d93          	add	s11,s10,78
     468:	856e                	mv	a0,s11
     46a:	00000097          	auipc	ra,0x0
     46e:	000080e7          	jalr	ra # 46a <.L334+0x50>
     472:	862a                	mv	a2,a0
     474:	4581                	li	a1,0
     476:	856e                	mv	a0,s11
     478:	00000097          	auipc	ra,0x0
     47c:	000080e7          	jalr	ra # 478 <.L334+0x5e>
     480:	855e                	mv	a0,s7
     482:	00000097          	auipc	ra,0x0
     486:	000080e7          	jalr	ra # 482 <.L334+0x68>
     48a:	862a                	mv	a2,a0
     48c:	85de                	mv	a1,s7
     48e:	856e                	mv	a0,s11
     490:	00000097          	auipc	ra,0x0
     494:	000080e7          	jalr	ra # 490 <.L334+0x76>
     498:	4619                	li	a2,6
     49a:	85ca                	mv	a1,s2
     49c:	19cd0513          	add	a0,s10,412
     4a0:	00000097          	auipc	ra,0x0
     4a4:	000080e7          	jalr	ra # 4a0 <.L334+0x86>
     4a8:	05494503          	lbu	a0,84(s2)
     4ac:	01ad4703          	lbu	a4,26(s10)
     4b0:	06a70563          	beq	a4,a0,51a <.L327>
     4b4:	c13d                	beqz	a0,51a <.L327>
     4b6:	018d4783          	lbu	a5,24(s10)
     4ba:	e3a5                	bnez	a5,51a <.L327>
     4bc:	02e94583          	lbu	a1,46(s2)
     4c0:	00000097          	auipc	ra,0x0
     4c4:	000080e7          	jalr	ra # 4c0 <.L334+0xa6>
     4c8:	409c                	lw	a5,0(s1)
     4ca:	1b878123          	sb	s8,418(a5)
     4ce:	0189c783          	lbu	a5,24(s3)
     4d2:	01879863          	bne	a5,s8,4e2 <.L329>
     4d6:	000ca783          	lw	a5,0(s9) # 0 <TOUCH_Deal_with>
     4da:	eb91                	bnez	a5,4ee <.L330>

000004dc <.L333>:
     4dc:	000ca783          	lw	a5,0(s9)
     4e0:	e3b1                	bnez	a5,524 <.L331>

000004e2 <.L329>:
     4e2:	409c                	lw	a5,0(s1)
     4e4:	06078823          	sb	zero,112(a5)

000004e8 <.L325>:
     4e8:	05892903          	lw	s2,88(s2)
     4ec:	b595                	j	350 <.L322>

000004ee <.L330>:
     4ee:	14c7ab83          	lw	s7,332(a5)
     4f2:	fe0b85e3          	beqz	s7,4dc <.L333>
     4f6:	00042583          	lw	a1,0(s0)
     4fa:	1547a783          	lw	a5,340(a5)
     4fe:	ce2e                	sw	a1,28(sp)
     500:	9782                	jalr	a5
     502:	05494783          	lbu	a5,84(s2)
     506:	00042703          	lw	a4,0(s0)
     50a:	45f2                	lw	a1,28(sp)
     50c:	00000637          	lui	a2,0x0
     510:	86aa                	mv	a3,a0
     512:	00060613          	mv	a2,a2
     516:	450d                	li	a0,3
     518:	9b82                	jalr	s7

0000051a <.L327>:
     51a:	0189c783          	lbu	a5,24(s3)
     51e:	fd8792e3          	bne	a5,s8,4e2 <.L329>
     522:	bf6d                	j	4dc <.L333>

00000524 <.L331>:
     524:	14c7ab83          	lw	s7,332(a5)
     528:	fa0b8de3          	beqz	s7,4e2 <.L329>
     52c:	00042583          	lw	a1,0(s0)
     530:	1547a783          	lw	a5,340(a5)
     534:	ce2e                	sw	a1,28(sp)
     536:	9782                	jalr	a5
     538:	000aa783          	lw	a5,0(s5)
     53c:	00042703          	lw	a4,0(s0)
     540:	45f2                	lw	a1,28(sp)
     542:	00000637          	lui	a2,0x0
     546:	86aa                	mv	a3,a0
     548:	04e78793          	add	a5,a5,78
     54c:	00060613          	mv	a2,a2
     550:	450d                	li	a0,3
     552:	9b82                	jalr	s7
     554:	b779                	j	4e2 <.L329>

00000556 <.L692>:
     556:	02d40593          	add	a1,s0,45
     55a:	852e                	mv	a0,a1
     55c:	ce2e                	sw	a1,28(sp)
     55e:	00000097          	auipc	ra,0x0
     562:	000080e7          	jalr	ra # 55e <.L692+0x8>
     566:	45f2                	lw	a1,28(sp)
     568:	862a                	mv	a2,a0
     56a:	04e40513          	add	a0,s0,78
     56e:	00000097          	auipc	ra,0x0
     572:	000080e7          	jalr	ra # 56e <.L692+0x18>
     576:	4619                	li	a2,6
     578:	19640593          	add	a1,s0,406
     57c:	19c40513          	add	a0,s0,412
     580:	00000097          	auipc	ra,0x0
     584:	000080e7          	jalr	ra # 580 <.L692+0x2a>
     588:	06f44783          	lbu	a5,111(s0)
     58c:	06f40823          	sb	a5,112(s0)
     590:	b3d9                	j	356 <.L335>

00000592 <.L336>:
     592:	07874783          	lbu	a5,120(a4)
     596:	bbd9                	j	36c <.L337>

00000598 <.L342>:
     598:	03394783          	lbu	a5,51(s2)
     59c:	e39d                	bnez	a5,5c2 <.L341>
     59e:	409c                	lw	a5,0(s1)
     5a0:	4599                	li	a1,6
     5a2:	854a                	mv	a0,s2
     5a4:	02b7cb83          	lbu	s7,43(a5)
     5a8:	00000097          	auipc	ra,0x0
     5ac:	000080e7          	jalr	ra # 5a8 <.L342+0x10>
     5b0:	00ab9963          	bne	s7,a0,5c2 <.L341>
     5b4:	05494a03          	lbu	s4,84(s2)
     5b8:	02e94b03          	lbu	s6,46(s2)
     5bc:	0405                	add	s0,s0,1
     5be:	0ff47413          	zext.b	s0,s0

000005c2 <.L341>:
     5c2:	05892903          	lw	s2,88(s2)
     5c6:	bb6d                	j	380 <.L340>

000005c8 <.L345>:
     5c8:	14c7a403          	lw	s0,332(a5)
     5cc:	e00403e3          	beqz	s0,3d2 <.L348>
     5d0:	00000937          	lui	s2,0x0
     5d4:	00092583          	lw	a1,0(s2) # 0 <TOUCH_Deal_with>
     5d8:	1547a783          	lw	a5,340(a5)
     5dc:	ce2e                	sw	a1,28(sp)
     5de:	9782                	jalr	a5
     5e0:	00092703          	lw	a4,0(s2)
     5e4:	45f2                	lw	a1,28(sp)
     5e6:	00000637          	lui	a2,0x0
     5ea:	86aa                	mv	a3,a0
     5ec:	885a                	mv	a6,s6
     5ee:	87d2                	mv	a5,s4
     5f0:	00060613          	mv	a2,a2
     5f4:	450d                	li	a0,3
     5f6:	9402                	jalr	s0

000005f8 <.L339>:
     5f8:	0189c703          	lbu	a4,24(s3)
     5fc:	4785                	li	a5,1
     5fe:	dcf70ae3          	beq	a4,a5,3d2 <.L348>

00000602 <.L313>:
     602:	02914683          	lbu	a3,41(sp)
     606:	4098                	lw	a4,0(s1)
     608:	02814583          	lbu	a1,40(sp)
     60c:	00169793          	sll	a5,a3,0x1
     610:	97ba                	add	a5,a5,a4
     612:	0bf7c603          	lbu	a2,191(a5)
     616:	ca4d                	beqz	a2,6c8 <.L349>
     618:	0be7c683          	lbu	a3,190(a5)
     61c:	08b69e63          	bne	a3,a1,6b8 <.L350>
     620:	0605                	add	a2,a2,1 # 1 <TOUCH_Deal_with+0x1>
     622:	0ac78fa3          	sb	a2,191(a5)

00000626 <.L351>:
     626:	07974603          	lbu	a2,121(a4)
     62a:	4785                	li	a5,1
     62c:	b2f61ee3          	bne	a2,a5,168 <.L296>
     630:	02974583          	lbu	a1,41(a4)
     634:	0c770693          	add	a3,a4,199
     638:	4791                	li	a5,4
     63a:	4401                	li	s0,0

0000063c <.L353>:
     63c:	0ab7e063          	bltu	a5,a1,6dc <.L355>
     640:	b20414e3          	bnez	s0,168 <.L296>
     644:	07074683          	lbu	a3,112(a4)
     648:	02070623          	sb	zero,44(a4)
     64c:	4785                	li	a5,1
     64e:	07874603          	lbu	a2,120(a4)
     652:	08f68e63          	beq	a3,a5,6ee <.L356>
     656:	0be70793          	add	a5,a4,190
     65a:	4681                	li	a3,0
     65c:	4511                	li	a0,4

0000065e <.L357>:
     65e:	0ac68763          	beq	a3,a2,70c <.L367>
     662:	00a68a63          	beq	a3,a0,676 <.L365>
     666:	0007c583          	lbu	a1,0(a5)
     66a:	02c74803          	lbu	a6,44(a4)
     66e:	0105c5b3          	xor	a1,a1,a6
     672:	02b70623          	sb	a1,44(a4)

00000676 <.L365>:
     676:	0685                	add	a3,a3,1
     678:	0ff6f693          	zext.b	a3,a3
     67c:	0789                	add	a5,a5,2
     67e:	b7c5                	j	65e <.L357>

00000680 <.L346>:
     680:	14c7a903          	lw	s2,332(a5)
     684:	d4090de3          	beqz	s2,3de <.L347>
     688:	00000a37          	lui	s4,0x0
     68c:	000a2583          	lw	a1,0(s4) # 0 <TOUCH_Deal_with>
     690:	1547a783          	lw	a5,340(a5)
     694:	ce2e                	sw	a1,28(sp)
     696:	9782                	jalr	a5
     698:	409c                	lw	a5,0(s1)
     69a:	000a2703          	lw	a4,0(s4)
     69e:	45f2                	lw	a1,28(sp)
     6a0:	0777c803          	lbu	a6,119(a5)
     6a4:	0787c783          	lbu	a5,120(a5)
     6a8:	00000637          	lui	a2,0x0
     6ac:	86aa                	mv	a3,a0
     6ae:	00060613          	mv	a2,a2
     6b2:	450d                	li	a0,3
     6b4:	9902                	jalr	s2
     6b6:	b325                	j	3de <.L347>

000006b8 <.L350>:
     6b8:	4685                	li	a3,1
     6ba:	40d61be3          	bne	a2,a3,12d0 <.L443>
     6be:	0a078fa3          	sb	zero,191(a5)
     6c2:	0a078f23          	sb	zero,190(a5)
     6c6:	b785                	j	626 <.L351>

000006c8 <.L349>:
     6c8:	05868693          	add	a3,a3,88
     6cc:	0686                	sll	a3,a3,0x1
     6ce:	96ba                	add	a3,a3,a4
     6d0:	00b68723          	sb	a1,14(a3)
     6d4:	4685                	li	a3,1
     6d6:	0ad78fa3          	sb	a3,191(a5)
     6da:	b7b1                	j	626 <.L351>

000006dc <.L355>:
     6dc:	0006c503          	lbu	a0,0(a3)
     6e0:	e111                	bnez	a0,6e4 <.L354>
     6e2:	8432                	mv	s0,a2

000006e4 <.L354>:
     6e4:	0785                	add	a5,a5,1
     6e6:	0ff7f793          	zext.b	a5,a5
     6ea:	0689                	add	a3,a3,2
     6ec:	bf81                	j	63c <.L353>

000006ee <.L356>:
     6ee:	07774583          	lbu	a1,119(a4)
     6f2:	4681                	li	a3,0
     6f4:	4811                	li	a6,4
     6f6:	00858513          	add	a0,a1,8 # 8 <TOUCH_Deal_with+0x8>

000006fa <.L358>:
     6fa:	2ad55763          	bge	a0,a3,9a8 <.L360>
     6fe:	8e0d                	sub	a2,a2,a1
     700:	165d                	add	a2,a2,-9 # fffffff7 <.L698+0xffffe7eb>
     702:	4681                	li	a3,0

00000704 <.L361>:
     704:	02c74783          	lbu	a5,44(a4)
     708:	2cc6c263          	blt	a3,a2,9cc <.L362>

0000070c <.L367>:
     70c:	02c74683          	lbu	a3,44(a4)
     710:	0c674703          	lbu	a4,198(a4)
     714:	0189c783          	lbu	a5,24(s3)
     718:	2ce69563          	bne	a3,a4,9e2 <.L363>
     71c:	4705                	li	a4,1
     71e:	02e79263          	bne	a5,a4,742 <.L381>
     722:	000009b7          	lui	s3,0x0
     726:	4a21                	li	s4,8
     728:	00000937          	lui	s2,0x0
     72c:	00000b37          	lui	s6,0x0
     730:	00000bb7          	lui	s7,0x0

00000734 <.L376>:
     734:	409c                	lw	a5,0(s1)
     736:	0009a703          	lw	a4,0(s3) # 0 <TOUCH_Deal_with>
     73a:	0297c783          	lbu	a5,41(a5)
     73e:	3af46d63          	bltu	s0,a5,af8 <.L380>

00000742 <.L381>:
     742:	07400613          	li	a2,116
     746:	4581                	li	a1,0
     748:	1068                	add	a0,sp,44
     74a:	00000097          	auipc	ra,0x0
     74e:	000080e7          	jalr	ra # 74a <.L381+0x8>
     752:	00000937          	lui	s2,0x0
     756:	0d800613          	li	a2,216
     75a:	4581                	li	a1,0
     75c:	00090513          	mv	a0,s2
     760:	00000097          	auipc	ra,0x0
     764:	000080e7          	jalr	ra # 760 <.L381+0x1e>
     768:	4080                	lw	s0,0(s1)
     76a:	000007b7          	lui	a5,0x0
     76e:	0007d583          	lhu	a1,0(a5) # 0 <TOUCH_Deal_with>
     772:	07744603          	lbu	a2,119(s0)
     776:	000004b7          	lui	s1,0x0
     77a:	0004c803          	lbu	a6,0(s1) # 0 <TOUCH_Deal_with>
     77e:	00860513          	add	a0,a2,8
     782:	05a5                	add	a1,a1,9
     784:	47a5                	li	a5,9
     786:	00090893          	mv	a7,s2

0000078a <.L377>:
     78a:	3ef55b63          	bge	a0,a5,b80 <.L385>

0000078e <.L382>:
     78e:	07044703          	lbu	a4,112(s0)
     792:	4785                	li	a5,1
     794:	42f71163          	bne	a4,a5,bb6 <.L386>
     798:	04e40593          	add	a1,s0,78
     79c:	852e                	mv	a0,a1
     79e:	ce2e                	sw	a1,28(sp)
     7a0:	00000097          	auipc	ra,0x0
     7a4:	000080e7          	jalr	ra # 7a0 <.L382+0x12>
     7a8:	45f2                	lw	a1,28(sp)
     7aa:	862a                	mv	a2,a0
     7ac:	1068                	add	a0,sp,44
     7ae:	00000097          	auipc	ra,0x0
     7b2:	000080e7          	jalr	ra # 7ae <.L382+0x20>

000007b6 <.L390>:
     7b6:	0c844783          	lbu	a5,200(s0)
     7ba:	4705                	li	a4,1
     7bc:	18f40823          	sb	a5,400(s0)
     7c0:	0ca44783          	lbu	a5,202(s0)
     7c4:	18f408a3          	sb	a5,401(s0)
     7c8:	0cc44783          	lbu	a5,204(s0)
     7cc:	18f40923          	sb	a5,402(s0)
     7d0:	0ce44783          	lbu	a5,206(s0)
     7d4:	18f409a3          	sb	a5,403(s0)
     7d8:	07844783          	lbu	a5,120(s0)
     7dc:	18f40aa3          	sb	a5,405(s0)
     7e0:	07044783          	lbu	a5,112(s0)
     7e4:	40e79563          	bne	a5,a4,bee <.L694>
     7e8:	4619                	li	a2,6
     7ea:	19c40593          	add	a1,s0,412
     7ee:	08d10513          	add	a0,sp,141
     7f2:	08f10623          	sb	a5,140(sp)
     7f6:	00000097          	auipc	ra,0x0
     7fa:	000080e7          	jalr	ra # 7f6 <.L390+0x40>

000007fe <.L392>:
     7fe:	00000437          	lui	s0,0x0
     802:	00042783          	lw	a5,0(s0) # 0 <TOUCH_Deal_with>
     806:	cb85                	beqz	a5,836 <.L393>
     808:	14c7a983          	lw	s3,332(a5)
     80c:	02098563          	beqz	s3,836 <.L393>
     810:	00000a37          	lui	s4,0x0
     814:	000a2583          	lw	a1,0(s4) # 0 <TOUCH_Deal_with>
     818:	1547a783          	lw	a5,340(a5)
     81c:	ce2e                	sw	a1,28(sp)
     81e:	9782                	jalr	a5
     820:	000a2703          	lw	a4,0(s4)
     824:	45f2                	lw	a1,28(sp)
     826:	00000637          	lui	a2,0x0
     82a:	86aa                	mv	a3,a0
     82c:	00fc                	add	a5,sp,76
     82e:	00060613          	mv	a2,a2
     832:	450d                	li	a0,3
     834:	9982                	jalr	s3

00000836 <.L393>:
     836:	00042783          	lw	a5,0(s0)
     83a:	cb85                	beqz	a5,86a <.L394>
     83c:	14c7a983          	lw	s3,332(a5)
     840:	02098563          	beqz	s3,86a <.L394>
     844:	00000a37          	lui	s4,0x0
     848:	000a2583          	lw	a1,0(s4) # 0 <TOUCH_Deal_with>
     84c:	1547a783          	lw	a5,340(a5)
     850:	ce2e                	sw	a1,28(sp)
     852:	9782                	jalr	a5
     854:	000a2703          	lw	a4,0(s4)
     858:	45f2                	lw	a1,28(sp)
     85a:	00000637          	lui	a2,0x0
     85e:	86aa                	mv	a3,a0
     860:	107c                	add	a5,sp,44
     862:	00060613          	mv	a2,a2
     866:	450d                	li	a0,3
     868:	9982                	jalr	s3

0000086a <.L394>:
     86a:	08c14783          	lbu	a5,140(sp)
     86e:	cba9                	beqz	a5,8c0 <.L395>
     870:	00042783          	lw	a5,0(s0)
     874:	c7b1                	beqz	a5,8c0 <.L395>
     876:	14c7a983          	lw	s3,332(a5)
     87a:	04098363          	beqz	s3,8c0 <.L395>
     87e:	00000a37          	lui	s4,0x0
     882:	000a2583          	lw	a1,0(s4) # 0 <TOUCH_Deal_with>
     886:	1547a783          	lw	a5,340(a5)
     88a:	ce2e                	sw	a1,28(sp)
     88c:	9782                	jalr	a5
     88e:	09214783          	lbu	a5,146(sp)
     892:	08f14883          	lbu	a7,143(sp)
     896:	08e14803          	lbu	a6,142(sp)
     89a:	c43e                	sw	a5,8(sp)
     89c:	09114783          	lbu	a5,145(sp)
     8a0:	000a2703          	lw	a4,0(s4)
     8a4:	45f2                	lw	a1,28(sp)
     8a6:	c23e                	sw	a5,4(sp)
     8a8:	09014783          	lbu	a5,144(sp)
     8ac:	00000637          	lui	a2,0x0
     8b0:	86aa                	mv	a3,a0
     8b2:	c03e                	sw	a5,0(sp)
     8b4:	08d14783          	lbu	a5,141(sp)
     8b8:	00060613          	mv	a2,a2
     8bc:	450d                	li	a0,3
     8be:	9982                	jalr	s3

000008c0 <.L395>:
     8c0:	4501                	li	a0,0
     8c2:	00000097          	auipc	ra,0x0
     8c6:	000080e7          	jalr	ra # 8c2 <.L395+0x2>
     8ca:	c915                	beqz	a0,8fe <.L396>
     8cc:	00042783          	lw	a5,0(s0)
     8d0:	c79d                	beqz	a5,8fe <.L396>
     8d2:	14c7a983          	lw	s3,332(a5)
     8d6:	02098463          	beqz	s3,8fe <.L396>
     8da:	00000a37          	lui	s4,0x0
     8de:	000a2583          	lw	a1,0(s4) # 0 <TOUCH_Deal_with>
     8e2:	1547a783          	lw	a5,340(a5)
     8e6:	ce2e                	sw	a1,28(sp)
     8e8:	9782                	jalr	a5
     8ea:	000a2703          	lw	a4,0(s4)
     8ee:	45f2                	lw	a1,28(sp)
     8f0:	00000637          	lui	a2,0x0
     8f4:	86aa                	mv	a3,a0
     8f6:	00060613          	mv	a2,a2
     8fa:	4505                	li	a0,1
     8fc:	9982                	jalr	s3

000008fe <.L396>:
     8fe:	00042783          	lw	a5,0(s0)
     902:	00000a37          	lui	s4,0x0
     906:	000a0513          	mv	a0,s4
     90a:	0e47a783          	lw	a5,228(a5)
     90e:	000009b7          	lui	s3,0x0
     912:	9782                	jalr	a5
     914:	00042783          	lw	a5,0(s0)
     918:	00098513          	mv	a0,s3
     91c:	0e47a783          	lw	a5,228(a5)
     920:	9782                	jalr	a5
     922:	00042783          	lw	a5,0(s0)
     926:	000a0513          	mv	a0,s4
     92a:	0e87a783          	lw	a5,232(a5)
     92e:	9782                	jalr	a5
     930:	00042783          	lw	a5,0(s0)
     934:	00098513          	mv	a0,s3
     938:	0e87a783          	lw	a5,232(a5)
     93c:	9782                	jalr	a5
     93e:	000aa583          	lw	a1,0(s5)
     942:	4789                	li	a5,2
     944:	4611                	li	a2,4
     946:	c1dc                	sw	a5,4(a1)
     948:	cb02                	sw	zero,148(sp)
     94a:	1955c783          	lbu	a5,405(a1)
     94e:	09910513          	add	a0,sp,153
     952:	19058593          	add	a1,a1,400
     956:	08f10c23          	sb	a5,152(sp)
     95a:	00000097          	auipc	ra,0x0
     95e:	000080e7          	jalr	ra # 95a <.L396+0x5c>
     962:	02c14783          	lbu	a5,44(sp)
     966:	800781e3          	beqz	a5,168 <.L296>
     96a:	00042783          	lw	a5,0(s0)
     96e:	0b47a403          	lw	s0,180(a5)
     972:	000007b7          	lui	a5,0x0
     976:	0007a983          	lw	s3,0(a5) # 0 <TOUCH_Deal_with>
     97a:	0004c783          	lbu	a5,0(s1)
     97e:	26078b63          	beqz	a5,bf4 <.L397>
     982:	07400613          	li	a2,116
     986:	106c                	add	a1,sp,44
     988:	00090513          	mv	a0,s2
     98c:	00000097          	auipc	ra,0x0
     990:	000080e7          	jalr	ra # 98c <.L396+0x8e>
     994:	577d                	li	a4,-1
     996:	0d800693          	li	a3,216
     99a:	00090613          	mv	a2,s2

0000099e <.L709>:
     99e:	4589                	li	a1,2
     9a0:	854e                	mv	a0,s3

000009a2 <.L708>:
     9a2:	9402                	jalr	s0
     9a4:	fc4ff06f          	j	168 <.L296>

000009a8 <.L360>:
     9a8:	01068e63          	beq	a3,a6,9c4 <.L359>
     9ac:	05868793          	add	a5,a3,88
     9b0:	0786                	sll	a5,a5,0x1
     9b2:	97ba                	add	a5,a5,a4
     9b4:	00e7c783          	lbu	a5,14(a5)
     9b8:	02c74883          	lbu	a7,44(a4)
     9bc:	0117c7b3          	xor	a5,a5,a7
     9c0:	02f70623          	sb	a5,44(a4)

000009c4 <.L359>:
     9c4:	0685                	add	a3,a3,1
     9c6:	0ff6f693          	zext.b	a3,a3
     9ca:	bb05                	j	6fa <.L358>

000009cc <.L362>:
     9cc:	00d705b3          	add	a1,a4,a3
     9d0:	04e5c583          	lbu	a1,78(a1)
     9d4:	0685                	add	a3,a3,1
     9d6:	0ff6f693          	zext.b	a3,a3
     9da:	8fad                	xor	a5,a5,a1
     9dc:	02f70623          	sb	a5,44(a4)
     9e0:	b315                	j	704 <.L361>

000009e2 <.L363>:
     9e2:	4705                	li	a4,1
     9e4:	02e79c63          	bne	a5,a4,a1c <.L368>
     9e8:	000007b7          	lui	a5,0x0
     9ec:	0007a783          	lw	a5,0(a5) # 0 <TOUCH_Deal_with>
     9f0:	c795                	beqz	a5,a1c <.L368>
     9f2:	14c7a403          	lw	s0,332(a5)
     9f6:	c01d                	beqz	s0,a1c <.L368>
     9f8:	00000937          	lui	s2,0x0
     9fc:	00092583          	lw	a1,0(s2) # 0 <TOUCH_Deal_with>
     a00:	1547a783          	lw	a5,340(a5)
     a04:	ce2e                	sw	a1,28(sp)
     a06:	9782                	jalr	a5
     a08:	00092703          	lw	a4,0(s2)
     a0c:	45f2                	lw	a1,28(sp)
     a0e:	00000637          	lui	a2,0x0
     a12:	86aa                	mv	a3,a0
     a14:	00060613          	mv	a2,a2
     a18:	450d                	li	a0,3
     a1a:	9402                	jalr	s0

00000a1c <.L368>:
     a1c:	4080                	lw	s0,0(s1)
     a1e:	4785                	li	a5,1
     a20:	0bf44703          	lbu	a4,191(s0)
     a24:	02e7e363          	bltu	a5,a4,a4a <.L369>
     a28:	06040d23          	sb	zero,122(s0)
     a2c:	06040ca3          	sb	zero,121(s0)
     a30:	0a041f23          	sh	zero,190(s0)
     a34:	06040823          	sb	zero,112(s0)
     a38:	02100613          	li	a2,33
     a3c:	4581                	li	a1,0
     a3e:	04e40513          	add	a0,s0,78
     a42:	00000097          	auipc	ra,0x0
     a46:	000080e7          	jalr	ra # a42 <.L368+0x26>

00000a4a <.L369>:
     a4a:	0c144703          	lbu	a4,193(s0)
     a4e:	4785                	li	a5,1
     a50:	02e7e363          	bltu	a5,a4,a76 <.L370>
     a54:	06040da3          	sb	zero,123(s0)
     a58:	06040ca3          	sb	zero,121(s0)
     a5c:	0c041023          	sh	zero,192(s0)
     a60:	06040823          	sb	zero,112(s0)
     a64:	02100613          	li	a2,33
     a68:	4581                	li	a1,0
     a6a:	04e40513          	add	a0,s0,78
     a6e:	00000097          	auipc	ra,0x0
     a72:	000080e7          	jalr	ra # a6e <.L369+0x24>

00000a76 <.L370>:
     a76:	0c344703          	lbu	a4,195(s0)
     a7a:	4785                	li	a5,1
     a7c:	02e7e363          	bltu	a5,a4,aa2 <.L371>
     a80:	06040e23          	sb	zero,124(s0)
     a84:	06040ca3          	sb	zero,121(s0)
     a88:	0c041123          	sh	zero,194(s0)
     a8c:	06040823          	sb	zero,112(s0)
     a90:	02100613          	li	a2,33
     a94:	4581                	li	a1,0
     a96:	04e40513          	add	a0,s0,78
     a9a:	00000097          	auipc	ra,0x0
     a9e:	000080e7          	jalr	ra # a9a <.L370+0x24>

00000aa2 <.L371>:
     aa2:	0c544703          	lbu	a4,197(s0)
     aa6:	4785                	li	a5,1
     aa8:	02e7e363          	bltu	a5,a4,ace <.L372>
     aac:	06040ea3          	sb	zero,125(s0)
     ab0:	06040ca3          	sb	zero,121(s0)
     ab4:	0c041223          	sh	zero,196(s0)
     ab8:	06040823          	sb	zero,112(s0)
     abc:	02100613          	li	a2,33
     ac0:	4581                	li	a1,0
     ac2:	04e40513          	add	a0,s0,78
     ac6:	00000097          	auipc	ra,0x0
     aca:	000080e7          	jalr	ra # ac6 <.L371+0x24>

00000ace <.L372>:
     ace:	02944703          	lbu	a4,41(s0)
     ad2:	4791                	li	a5,4
     ad4:	0c740413          	add	s0,s0,199
     ad8:	4685                	li	a3,1

00000ada <.L373>:
     ada:	e8e7f763          	bgeu	a5,a4,168 <.L296>
     ade:	00044603          	lbu	a2,0(s0)
     ae2:	00c6e663          	bltu	a3,a2,aee <.L374>
     ae6:	fe040fa3          	sb	zero,-1(s0)
     aea:	00040023          	sb	zero,0(s0)

00000aee <.L374>:
     aee:	0785                	add	a5,a5,1
     af0:	0ff7f793          	zext.b	a5,a5
     af4:	0409                	add	s0,s0,2
     af6:	b7d5                	j	ada <.L373>

00000af8 <.L380>:
     af8:	048a6663          	bltu	s4,s0,b44 <.L378>
     afc:	c321                	beqz	a4,b3c <.L379>
     afe:	14c72c03          	lw	s8,332(a4)
     b02:	020c0d63          	beqz	s8,b3c <.L379>
     b06:	15472783          	lw	a5,340(a4)
     b0a:	00092583          	lw	a1,0(s2)
     b0e:	ce2e                	sw	a1,28(sp)
     b10:	9782                	jalr	a5
     b12:	409c                	lw	a5,0(s1)
     b14:	00141713          	sll	a4,s0,0x1
     b18:	05840613          	add	a2,s0,88
     b1c:	973e                	add	a4,a4,a5
     b1e:	0606                	sll	a2,a2,0x1
     b20:	0bf74883          	lbu	a7,191(a4)
     b24:	00092703          	lw	a4,0(s2)
     b28:	97b2                	add	a5,a5,a2
     b2a:	00e7c803          	lbu	a6,14(a5)
     b2e:	86aa                	mv	a3,a0
     b30:	87a2                	mv	a5,s0
     b32:	000b8613          	mv	a2,s7

00000b36 <.L702>:
     b36:	45f2                	lw	a1,28(sp)
     b38:	450d                	li	a0,3
     b3a:	9c02                	jalr	s8

00000b3c <.L379>:
     b3c:	0405                	add	s0,s0,1
     b3e:	0ff47413          	zext.b	s0,s0
     b42:	becd                	j	734 <.L376>

00000b44 <.L378>:
     b44:	df65                	beqz	a4,b3c <.L379>
     b46:	14c72c03          	lw	s8,332(a4)
     b4a:	fe0c09e3          	beqz	s8,b3c <.L379>
     b4e:	15472783          	lw	a5,340(a4)
     b52:	00092583          	lw	a1,0(s2)
     b56:	ce2e                	sw	a1,28(sp)
     b58:	9782                	jalr	a5
     b5a:	409c                	lw	a5,0(s1)
     b5c:	05840613          	add	a2,s0,88
     b60:	0606                	sll	a2,a2,0x1
     b62:	00141713          	sll	a4,s0,0x1
     b66:	973e                	add	a4,a4,a5
     b68:	97b2                	add	a5,a5,a2
     b6a:	0bf74883          	lbu	a7,191(a4)
     b6e:	00e7c803          	lbu	a6,14(a5)
     b72:	00092703          	lw	a4,0(s2)
     b76:	86aa                	mv	a3,a0
     b78:	87a2                	mv	a5,s0
     b7a:	000b0613          	mv	a2,s6
     b7e:	bf65                	j	b36 <.L702>

00000b80 <.L385>:
     b80:	c0f5c7e3          	blt	a1,a5,78e <.L382>
     b84:	05878693          	add	a3,a5,88
     b88:	0686                	sll	a3,a3,0x1
     b8a:	96a2                	add	a3,a3,s0
     b8c:	00e6c683          	lbu	a3,14(a3)
     b90:	ff778713          	add	a4,a5,-9
     b94:	00080963          	beqz	a6,ba6 <.L383>
     b98:	9746                	add	a4,a4,a7
     b9a:	06d70a23          	sb	a3,116(a4)

00000b9e <.L384>:
     b9e:	0785                	add	a5,a5,1
     ba0:	0ff7f793          	zext.b	a5,a5
     ba4:	b6dd                	j	78a <.L377>

00000ba6 <.L383>:
     ba6:	09070713          	add	a4,a4,144
     baa:	01010313          	add	t1,sp,16
     bae:	971a                	add	a4,a4,t1
     bb0:	fad70623          	sb	a3,-84(a4)
     bb4:	b7ed                	j	b9e <.L384>

00000bb6 <.L386>:
     bb6:	07844683          	lbu	a3,120(s0)
     bba:	00960793          	add	a5,a2,9 # 9 <TOUCH_Deal_with+0x9>
     bbe:	0ff7f793          	zext.b	a5,a5
     bc2:	02960593          	add	a1,a2,41

00000bc6 <.L389>:
     bc6:	0ff7f713          	zext.b	a4,a5
     bca:	bed776e3          	bgeu	a4,a3,7b6 <.L390>
     bce:	bef5c4e3          	blt	a1,a5,7b6 <.L390>
     bd2:	00179713          	sll	a4,a5,0x1
     bd6:	9722                	add	a4,a4,s0
     bd8:	0be74503          	lbu	a0,190(a4)
     bdc:	02c10813          	add	a6,sp,44
     be0:	40c78733          	sub	a4,a5,a2
     be4:	9742                	add	a4,a4,a6
     be6:	fea70ba3          	sb	a0,-9(a4)
     bea:	0785                	add	a5,a5,1
     bec:	bfe9                	j	bc6 <.L389>

00000bee <.L694>:
     bee:	08010623          	sb	zero,140(sp)
     bf2:	b131                	j	7fe <.L392>

00000bf4 <.L397>:
     bf4:	577d                	li	a4,-1
     bf6:	07400693          	li	a3,116
     bfa:	1070                	add	a2,sp,44
     bfc:	b34d                	j	99e <.L709>

00000bfe <.L309>:
     bfe:	0b05                	add	s6,s6,1 # 1 <TOUCH_Deal_with+0x1>
     c00:	d59b1863          	bne	s6,s9,150 <.L398>
     c04:	d5eff06f          	j	162 <.L399>

00000c08 <.L301>:
     c08:	c394                	sw	a3,0(a5)
     c0a:	d5eff06f          	j	168 <.L296>

00000c0e <.L298>:
     c0e:	4789                	li	a5,2
     c10:	d4f59c63          	bne	a1,a5,168 <.L296>
     c14:	00000937          	lui	s2,0x0
     c18:	00090793          	mv	a5,s2
     c1c:	4380                	lw	s0,0(a5)
     c1e:	00090913          	mv	s2,s2
     c22:	00042a03          	lw	s4,0(s0)
     c26:	020a1463          	bnez	s4,c4e <.L400>
     c2a:	446e                	lw	s0,216(sp)
     c2c:	40fe                	lw	ra,220(sp)
     c2e:	44de                	lw	s1,212(sp)
     c30:	494e                	lw	s2,208(sp)
     c32:	49be                	lw	s3,204(sp)
     c34:	4a2e                	lw	s4,200(sp)
     c36:	4a9e                	lw	s5,196(sp)
     c38:	4b0e                	lw	s6,192(sp)
     c3a:	5bfa                	lw	s7,188(sp)
     c3c:	5c6a                	lw	s8,184(sp)
     c3e:	5cda                	lw	s9,180(sp)
     c40:	5d4a                	lw	s10,176(sp)
     c42:	5dba                	lw	s11,172(sp)
     c44:	612d                	add	sp,sp,224
     c46:	00000317          	auipc	t1,0x0
     c4a:	00030067          	jr	t1 # c46 <.L298+0x38>

00000c4e <.L400>:
     c4e:	4619                	li	a2,6
     c50:	00940593          	add	a1,s0,9
     c54:	03a50513          	add	a0,a0,58
     c58:	00000097          	auipc	ra,0x0
     c5c:	000080e7          	jalr	ra # c58 <.L400+0xa>
     c60:	d0051463          	bnez	a0,168 <.L296>
     c64:	00f40993          	add	s3,s0,15
     c68:	00000cb7          	lui	s9,0x0
     c6c:	460d                	li	a2,3
     c6e:	000c8593          	mv	a1,s9
     c72:	854e                	mv	a0,s3
     c74:	00000097          	auipc	ra,0x0
     c78:	000080e7          	jalr	ra # c74 <.L400+0x26>
     c7c:	034a8493          	add	s1,s5,52
     c80:	460d                	li	a2,3
     c82:	e129                	bnez	a0,cc4 <.L401>
     c84:	000c8593          	mv	a1,s9
     c88:	8526                	mv	a0,s1
     c8a:	00000097          	auipc	ra,0x0
     c8e:	000080e7          	jalr	ra # c8a <.L400+0x3c>
     c92:	cd09                	beqz	a0,cac <.L402>
     c94:	000005b7          	lui	a1,0x0
     c98:	460d                	li	a2,3
     c9a:	00058593          	mv	a1,a1

00000c9e <.L703>:
     c9e:	8526                	mv	a0,s1
     ca0:	00000097          	auipc	ra,0x0
     ca4:	000080e7          	jalr	ra # ca0 <.L703+0x2>
     ca8:	cc051063          	bnez	a0,168 <.L296>

00000cac <.L402>:
     cac:	4785                	li	a5,1
     cae:	00fa0d63          	beq	s4,a5,cc8 <.L403>
     cb2:	4789                	li	a5,2
     cb4:	cafa1a63          	bne	s4,a5,168 <.L296>
     cb8:	01442223          	sw	s4,4(s0)
     cbc:	01442023          	sw	s4,0(s0)
     cc0:	ca8ff06f          	j	168 <.L296>

00000cc4 <.L401>:
     cc4:	85ce                	mv	a1,s3
     cc6:	bfe1                	j	c9e <.L703>

00000cc8 <.L403>:
     cc8:	000007b7          	lui	a5,0x0
     ccc:	0007a783          	lw	a5,0(a5) # 0 <TOUCH_Deal_with>
     cd0:	fd800993          	li	s3,-40
     cd4:	030ac683          	lbu	a3,48(s5)
     cd8:	4fa4                	lw	s1,88(a5)
     cda:	00844783          	lbu	a5,8(s0)
     cde:	046ad703          	lhu	a4,70(s5)
     ce2:	40f989b3          	sub	s3,s3,a5
     ce6:	02caa783          	lw	a5,44(s5)
     cea:	07d2                	sll	a5,a5,0x14
     cec:	83d1                	srl	a5,a5,0x14
     cee:	99be                	add	s3,s3,a5
     cf0:	09c2                	sll	s3,s3,0x10
     cf2:	08800793          	li	a5,136
     cf6:	0109d993          	srl	s3,s3,0x10
     cfa:	02f69263          	bne	a3,a5,d1e <.L406>
     cfe:	01c44783          	lbu	a5,28(s0)
     d02:	01479e63          	bne	a5,s4,d1e <.L406>
     d06:	048ad683          	lhu	a3,72(s5)
     d0a:	00869793          	sll	a5,a3,0x8
     d0e:	82a1                	srl	a3,a3,0x8
     d10:	8fd5                	or	a5,a5,a3
     d12:	01e45683          	lhu	a3,30(s0)
     d16:	07c2                	sll	a5,a5,0x10
     d18:	83c1                	srl	a5,a5,0x10
     d1a:	c4f69763          	bne	a3,a5,168 <.L296>

00000d1e <.L406>:
     d1e:	16800793          	li	a5,360
     d22:	c537e363          	bltu	a5,s3,168 <.L296>
     d26:	02645783          	lhu	a5,38(s0)
     d2a:	8311                	srl	a4,a4,0x4
     d2c:	00e78663          	beq	a5,a4,d38 <.L408>
     d30:	02445783          	lhu	a5,36(s0)
     d34:	00f99663          	bne	s3,a5,d40 <.L409>

00000d38 <.L408>:
     d38:	02e41323          	sh	a4,38(s0)
     d3c:	c2cff06f          	j	168 <.L296>

00000d40 <.L409>:
     d40:	02245a03          	lhu	s4,34(s0)
     d44:	02e41323          	sh	a4,38(s0)
     d48:	f0078713          	add	a4,a5,-256
     d4c:	0742                	sll	a4,a4,0x10
     d4e:	03441023          	sh	s4,32(s0)
     d52:	02f41123          	sh	a5,34(s0)
     d56:	03341223          	sh	s3,36(s0)
     d5a:	8341                	srl	a4,a4,0x10
     d5c:	06800693          	li	a3,104
     d60:	c0e6e463          	bltu	a3,a4,168 <.L296>
     d64:	07944683          	lbu	a3,121(s0)
     d68:	4705                	li	a4,1
     d6a:	00e69863          	bne	a3,a4,d7a <.L411>
     d6e:	02844703          	lbu	a4,40(s0)
     d72:	10070713          	add	a4,a4,256
     d76:	bef74963          	blt	a4,a5,168 <.L296>

00000d7a <.L411>:
     d7a:	00f9f713          	and	a4,s3,15
     d7e:	02f104a3          	sb	a5,41(sp)
     d82:	4049d993          	sra	s3,s3,0x4
     d86:	004a1793          	sll	a5,s4,0x4
     d8a:	8fd9                	or	a5,a5,a4
     d8c:	4589                	li	a1,2
     d8e:	1028                	add	a0,sp,40
     d90:	00f9f993          	and	s3,s3,15
     d94:	0f0a7a13          	and	s4,s4,240
     d98:	02f10423          	sb	a5,40(sp)
     d9c:	013a6a33          	or	s4,s4,s3
     da0:	00000097          	auipc	ra,0x0
     da4:	000080e7          	jalr	ra # da0 <.L411+0x26>
     da8:	bcaa1063          	bne	s4,a0,168 <.L296>
     dac:	02914703          	lbu	a4,41(sp)
     db0:	06800793          	li	a5,104
     db4:	bae7ea63          	bltu	a5,a4,168 <.L296>
     db8:	00000ab7          	lui	s5,0x0
     dbc:	000a8793          	mv	a5,s5
     dc0:	0187c683          	lbu	a3,24(a5)
     dc4:	4785                	li	a5,1
     dc6:	000a8a93          	mv	s5,s5
     dca:	00000437          	lui	s0,0x0
     dce:	04f69263          	bne	a3,a5,e12 <.L412>
     dd2:	46a1                	li	a3,8
     dd4:	00042783          	lw	a5,0(s0) # 0 <TOUCH_Deal_with>
     dd8:	10e6e663          	bltu	a3,a4,ee4 <.L413>
     ddc:	cb9d                	beqz	a5,e12 <.L412>
     dde:	14c7a983          	lw	s3,332(a5)
     de2:	02098863          	beqz	s3,e12 <.L412>
     de6:	00000a37          	lui	s4,0x0
     dea:	000a2583          	lw	a1,0(s4) # 0 <TOUCH_Deal_with>
     dee:	1547a783          	lw	a5,340(a5)
     df2:	ce2e                	sw	a1,28(sp)
     df4:	9782                	jalr	a5
     df6:	02914803          	lbu	a6,41(sp)
     dfa:	02814783          	lbu	a5,40(sp)
     dfe:	000a2703          	lw	a4,0(s4)
     e02:	00000637          	lui	a2,0x0
     e06:	86aa                	mv	a3,a0
     e08:	00060613          	mv	a2,a2

00000e0c <.L704>:
     e0c:	45f2                	lw	a1,28(sp)
     e0e:	450d                	li	a0,3
     e10:	9982                	jalr	s3

00000e12 <.L412>:
     e12:	000007b7          	lui	a5,0x0
     e16:	4985                	li	s3,1
     e18:	01378023          	sb	s3,0(a5) # 0 <TOUCH_Deal_with>
     e1c:	00042783          	lw	a5,0(s0)
     e20:	00000a37          	lui	s4,0x0
     e24:	000a0513          	mv	a0,s4
     e28:	0e47a783          	lw	a5,228(a5)
     e2c:	9782                	jalr	a5
     e2e:	00042783          	lw	a5,0(s0)
     e32:	000a0513          	mv	a0,s4
     e36:	0e87a783          	lw	a5,232(a5)
     e3a:	9782                	jalr	a5
     e3c:	00042783          	lw	a5,0(s0)
     e40:	000005b7          	lui	a1,0x0
     e44:	4601                	li	a2,0
     e46:	0ec7a783          	lw	a5,236(a5)
     e4a:	00058593          	mv	a1,a1
     e4e:	000a0513          	mv	a0,s4
     e52:	9782                	jalr	a5
     e54:	00042783          	lw	a5,0(s0)
     e58:	6585                	lui	a1,0x1
     e5a:	4601                	li	a2,0
     e5c:	0e07a783          	lw	a5,224(a5)
     e60:	bb858593          	add	a1,a1,-1096 # bb8 <.L386+0x2>
     e64:	000a0513          	mv	a0,s4
     e68:	9782                	jalr	a5
     e6a:	00092783          	lw	a5,0(s2) # 0 <TOUCH_Deal_with>
     e6e:	0797c703          	lbu	a4,121(a5)
     e72:	28071b63          	bnez	a4,1108 <.L415>
     e76:	02914703          	lbu	a4,41(sp)
     e7a:	ef51                	bnez	a4,f16 <.L416>
     e7c:	02814703          	lbu	a4,40(sp)
     e80:	07378d23          	sb	s3,122(a5)
     e84:	06e78c23          	sb	a4,120(a5)

00000e88 <.L417>:
     e88:	07c7d683          	lhu	a3,124(a5)
     e8c:	10100713          	li	a4,257
     e90:	26e69c63          	bne	a3,a4,1108 <.L415>
     e94:	5fb4                	lw	a3,120(a5)
     e96:	7741                	lui	a4,0xffff0
     e98:	8f75                	and	a4,a4,a3
     e9a:	010106b7          	lui	a3,0x1010
     e9e:	26d71563          	bne	a4,a3,1108 <.L415>
     ea2:	0787c983          	lbu	s3,120(a5)
     ea6:	05f00693          	li	a3,95
     eaa:	ff698713          	add	a4,s3,-10 # fffffff6 <.L698+0xffffe7ea>
     eae:	0ff77713          	zext.b	a4,a4
     eb2:	02e6e363          	bltu	a3,a4,ed8 <.L421>
     eb6:	000006b7          	lui	a3,0x0
     eba:	0777c703          	lbu	a4,119(a5)
     ebe:	0006d683          	lhu	a3,0(a3) # 0 <TOUCH_Deal_with>
     ec2:	00e6eb63          	bltu	a3,a4,ed8 <.L421>
     ec6:	40e986b3          	sub	a3,s3,a4
     eca:	02900613          	li	a2,41
     ece:	00d64563          	blt	a2,a3,ed8 <.L421>
     ed2:	19dd                	add	s3,s3,-9
     ed4:	07374e63          	blt	a4,s3,f50 <.L422>

00000ed8 <.L421>:
     ed8:	06079d23          	sh	zero,122(a5)
     edc:	06079e23          	sh	zero,124(a5)
     ee0:	a88ff06f          	j	168 <.L296>

00000ee4 <.L413>:
     ee4:	d79d                	beqz	a5,e12 <.L412>
     ee6:	14c7a983          	lw	s3,332(a5)
     eea:	f20984e3          	beqz	s3,e12 <.L412>
     eee:	00000a37          	lui	s4,0x0
     ef2:	000a2583          	lw	a1,0(s4) # 0 <TOUCH_Deal_with>
     ef6:	1547a783          	lw	a5,340(a5)
     efa:	ce2e                	sw	a1,28(sp)
     efc:	9782                	jalr	a5
     efe:	00000637          	lui	a2,0x0
     f02:	02914803          	lbu	a6,41(sp)
     f06:	02814783          	lbu	a5,40(sp)
     f0a:	000a2703          	lw	a4,0(s4)
     f0e:	86aa                	mv	a3,a0
     f10:	00060613          	mv	a2,a2
     f14:	bde5                	j	e0c <.L704>

00000f16 <.L416>:
     f16:	01371963          	bne	a4,s3,f28 <.L418>
     f1a:	02814683          	lbu	a3,40(sp)
     f1e:	06e78da3          	sb	a4,123(a5)
     f22:	06d78ba3          	sb	a3,119(a5)
     f26:	b78d                	j	e88 <.L417>

00000f28 <.L418>:
     f28:	4689                	li	a3,2
     f2a:	00d71963          	bne	a4,a3,f3c <.L419>
     f2e:	02814703          	lbu	a4,40(sp)
     f32:	07378e23          	sb	s3,124(a5)
     f36:	02e78523          	sb	a4,42(a5)
     f3a:	b7b9                	j	e88 <.L417>

00000f3c <.L419>:
     f3c:	468d                	li	a3,3
     f3e:	f4d715e3          	bne	a4,a3,e88 <.L417>
     f42:	02814703          	lbu	a4,40(sp)
     f46:	07378ea3          	sb	s3,125(a5)
     f4a:	02e785a3          	sb	a4,43(a5)
     f4e:	bf2d                	j	e88 <.L417>

00000f50 <.L422>:
     f50:	40e989b3          	sub	s3,s3,a4
     f54:	00000b37          	lui	s6,0x0
     f58:	4705                	li	a4,1
     f5a:	0ff9f993          	zext.b	s3,s3
     f5e:	06e78ca3          	sb	a4,121(a5)
     f62:	4c05                	li	s8,1
     f64:	000b0b13          	mv	s6,s6

00000f68 <.L423>:
     f68:	00092b83          	lw	s7,0(s2)
     f6c:	10048163          	beqz	s1,106e <.L431>
     f70:	460d                	li	a2,3
     f72:	000c8593          	mv	a1,s9
     f76:	8526                	mv	a0,s1
     f78:	00000097          	auipc	ra,0x0
     f7c:	000080e7          	jalr	ra # f78 <.L423+0x10>
     f80:	cd01                	beqz	a0,f98 <.L427>
     f82:	000007b7          	lui	a5,0x0
     f86:	4619                	li	a2,6
     f88:	00078593          	mv	a1,a5
     f8c:	8526                	mv	a0,s1
     f8e:	00000097          	auipc	ra,0x0
     f92:	000080e7          	jalr	ra # f8e <.L423+0x26>
     f96:	e119                	bnez	a0,f9c <.L425>

00000f98 <.L427>:
     f98:	4ca4                	lw	s1,88(s1)
     f9a:	b7f9                	j	f68 <.L423>

00000f9c <.L425>:
     f9c:	03348a13          	add	s4,s1,51
     fa0:	8552                	mv	a0,s4
     fa2:	00000097          	auipc	ra,0x0
     fa6:	000080e7          	jalr	ra # fa2 <.L425+0x6>
     faa:	fea997e3          	bne	s3,a0,f98 <.L427>
     fae:	02abcb83          	lbu	s7,42(s7) # 2a <TOUCH_Deal_with+0x2a>
     fb2:	85ce                	mv	a1,s3
     fb4:	8552                	mv	a0,s4
     fb6:	00000097          	auipc	ra,0x0
     fba:	000080e7          	jalr	ra # fb6 <.L425+0x1a>
     fbe:	fcab9de3          	bne	s7,a0,f98 <.L427>
     fc2:	00092b83          	lw	s7,0(s2)
     fc6:	017bc783          	lbu	a5,23(s7)
     fca:	1d878063          	beq	a5,s8,118a <.L428>
     fce:	4619                	li	a2,6
     fd0:	85a6                	mv	a1,s1
     fd2:	00fb8513          	add	a0,s7,15
     fd6:	00000097          	auipc	ra,0x0
     fda:	000080e7          	jalr	ra # fd6 <.L425+0x3a>
     fde:	fd4d                	bnez	a0,f98 <.L427>
     fe0:	02db8993          	add	s3,s7,45
     fe4:	854e                	mv	a0,s3
     fe6:	00000097          	auipc	ra,0x0
     fea:	000080e7          	jalr	ra # fe6 <.L425+0x4a>
     fee:	862a                	mv	a2,a0
     ff0:	4581                	li	a1,0
     ff2:	854e                	mv	a0,s3
     ff4:	00000097          	auipc	ra,0x0
     ff8:	000080e7          	jalr	ra # ff4 <.L425+0x58>
     ffc:	8552                	mv	a0,s4
     ffe:	00000097          	auipc	ra,0x0
    1002:	000080e7          	jalr	ra # ffe <.L425+0x62>
    1006:	862a                	mv	a2,a0
    1008:	85d2                	mv	a1,s4
    100a:	854e                	mv	a0,s3
    100c:	00000097          	auipc	ra,0x0
    1010:	000080e7          	jalr	ra # 100c <.L425+0x70>
    1014:	4619                	li	a2,6
    1016:	85a6                	mv	a1,s1
    1018:	196b8513          	add	a0,s7,406
    101c:	00000097          	auipc	ra,0x0
    1020:	000080e7          	jalr	ra # 101c <.L425+0x80>
    1024:	018ac783          	lbu	a5,24(s5) # 18 <TOUCH_Deal_with+0x18>
    1028:	03879e63          	bne	a5,s8,1064 <.L430>
    102c:	00042783          	lw	a5,0(s0)
    1030:	cb95                	beqz	a5,1064 <.L430>
    1032:	14c7a483          	lw	s1,332(a5) # 14c <.L308+0x10>
    1036:	c49d                	beqz	s1,1064 <.L430>
    1038:	000009b7          	lui	s3,0x0
    103c:	0009a583          	lw	a1,0(s3) # 0 <TOUCH_Deal_with>
    1040:	1547a783          	lw	a5,340(a5)
    1044:	ce2e                	sw	a1,28(sp)
    1046:	9782                	jalr	a5
    1048:	000b2783          	lw	a5,0(s6) # 0 <TOUCH_Deal_with>
    104c:	0009a703          	lw	a4,0(s3)
    1050:	45f2                	lw	a1,28(sp)
    1052:	00000637          	lui	a2,0x0
    1056:	86aa                	mv	a3,a0
    1058:	02d78793          	add	a5,a5,45
    105c:	00060613          	mv	a2,a2
    1060:	450d                	li	a0,3
    1062:	9482                	jalr	s1

00001064 <.L430>:
    1064:	00092783          	lw	a5,0(s2)

00001068 <.L705>:
    1068:	4705                	li	a4,1
    106a:	06e787a3          	sb	a4,111(a5)

0000106e <.L431>:
    106e:	00092703          	lw	a4,0(s2)
    1072:	4785                	li	a5,1
    1074:	06f74683          	lbu	a3,111(a4) # ffff006f <.L698+0xfffee863>
    1078:	24f69163          	bne	a3,a5,12ba <.L437>
    107c:	07774783          	lbu	a5,119(a4)
    1080:	07a5                	add	a5,a5,9
    1082:	0ff7f793          	zext.b	a5,a5

00001086 <.L438>:
    1086:	02f70423          	sb	a5,40(a4)
    108a:	018ac703          	lbu	a4,24(s5)
    108e:	4785                	li	a5,1
    1090:	06f71c63          	bne	a4,a5,1108 <.L415>
    1094:	00042783          	lw	a5,0(s0)
    1098:	cf85                	beqz	a5,10d0 <.L439>
    109a:	14c7a483          	lw	s1,332(a5)
    109e:	c88d                	beqz	s1,10d0 <.L439>
    10a0:	000009b7          	lui	s3,0x0
    10a4:	0009a583          	lw	a1,0(s3) # 0 <TOUCH_Deal_with>
    10a8:	1547a783          	lw	a5,340(a5)
    10ac:	ce2e                	sw	a1,28(sp)
    10ae:	9782                	jalr	a5
    10b0:	00092783          	lw	a5,0(s2)
    10b4:	0009a703          	lw	a4,0(s3)
    10b8:	45f2                	lw	a1,28(sp)
    10ba:	0777c803          	lbu	a6,119(a5)
    10be:	0787c783          	lbu	a5,120(a5)
    10c2:	00000637          	lui	a2,0x0
    10c6:	86aa                	mv	a3,a0
    10c8:	00060613          	mv	a2,a2
    10cc:	450d                	li	a0,3
    10ce:	9482                	jalr	s1

000010d0 <.L439>:
    10d0:	00042783          	lw	a5,0(s0)
    10d4:	cb95                	beqz	a5,1108 <.L415>
    10d6:	14c7a483          	lw	s1,332(a5)
    10da:	c49d                	beqz	s1,1108 <.L415>
    10dc:	000009b7          	lui	s3,0x0
    10e0:	0009a583          	lw	a1,0(s3) # 0 <TOUCH_Deal_with>
    10e4:	1547a783          	lw	a5,340(a5)
    10e8:	ce2e                	sw	a1,28(sp)
    10ea:	9782                	jalr	a5
    10ec:	00092783          	lw	a5,0(s2)
    10f0:	0009a703          	lw	a4,0(s3)
    10f4:	45f2                	lw	a1,28(sp)
    10f6:	06f7c783          	lbu	a5,111(a5)
    10fa:	00000637          	lui	a2,0x0
    10fe:	86aa                	mv	a3,a0
    1100:	00060613          	mv	a2,a2
    1104:	450d                	li	a0,3
    1106:	9482                	jalr	s1

00001108 <.L415>:
    1108:	02914683          	lbu	a3,41(sp)
    110c:	00092703          	lw	a4,0(s2)
    1110:	02814583          	lbu	a1,40(sp)
    1114:	00169793          	sll	a5,a3,0x1
    1118:	97ba                	add	a5,a5,a4
    111a:	0bf7c603          	lbu	a2,191(a5)
    111e:	1a060e63          	beqz	a2,12da <.L440>
    1122:	0be7c683          	lbu	a3,190(a5)
    1126:	18b69d63          	bne	a3,a1,12c0 <.L441>
    112a:	0605                	add	a2,a2,1 # 1 <TOUCH_Deal_with+0x1>
    112c:	0ac78fa3          	sb	a2,191(a5)

00001130 <.L442>:
    1130:	07974603          	lbu	a2,121(a4)
    1134:	4785                	li	a5,1
    1136:	82f61963          	bne	a2,a5,168 <.L296>
    113a:	02874583          	lbu	a1,40(a4)
    113e:	0c770793          	add	a5,a4,199
    1142:	4481                	li	s1,0
    1144:	4691                	li	a3,4

00001146 <.L444>:
    1146:	1ab6e463          	bltu	a3,a1,12ee <.L446>
    114a:	80049f63          	bnez	s1,168 <.L296>
    114e:	06f74683          	lbu	a3,111(a4)
    1152:	02070623          	sb	zero,44(a4)
    1156:	4785                	li	a5,1
    1158:	07874603          	lbu	a2,120(a4)
    115c:	1af68263          	beq	a3,a5,1300 <.L447>
    1160:	0be70793          	add	a5,a4,190
    1164:	4681                	li	a3,0
    1166:	4511                	li	a0,4

00001168 <.L448>:
    1168:	1ac68b63          	beq	a3,a2,131e <.L458>
    116c:	00a68a63          	beq	a3,a0,1180 <.L456>
    1170:	0007c583          	lbu	a1,0(a5)
    1174:	02c74803          	lbu	a6,44(a4)
    1178:	0105c5b3          	xor	a1,a1,a6
    117c:	02b70623          	sb	a1,44(a4)

00001180 <.L456>:
    1180:	0685                	add	a3,a3,1
    1182:	0ff6f693          	zext.b	a3,a3
    1186:	0789                	add	a5,a5,2
    1188:	b7c5                	j	1168 <.L448>

0000118a <.L428>:
    118a:	02bbcb83          	lbu	s7,43(s7)
    118e:	4599                	li	a1,6
    1190:	8526                	mv	a0,s1
    1192:	00000097          	auipc	ra,0x0
    1196:	000080e7          	jalr	ra # 1192 <.L428+0x8>
    119a:	deab9fe3          	bne	s7,a0,f98 <.L427>
    119e:	00092b83          	lw	s7,0(s2)
    11a2:	4619                	li	a2,6
    11a4:	85a6                	mv	a1,s1
    11a6:	009b8513          	add	a0,s7,9
    11aa:	00000097          	auipc	ra,0x0
    11ae:	000080e7          	jalr	ra # 11aa <.L428+0x20>
    11b2:	02db8d13          	add	s10,s7,45
    11b6:	ce2a                	sw	a0,28(sp)
    11b8:	856a                	mv	a0,s10
    11ba:	00000097          	auipc	ra,0x0
    11be:	000080e7          	jalr	ra # 11ba <.L428+0x30>
    11c2:	4772                	lw	a4,28(sp)
    11c4:	862a                	mv	a2,a0
    11c6:	018acd83          	lbu	s11,24(s5)
    11ca:	196b8b93          	add	s7,s7,406
    11ce:	4581                	li	a1,0
    11d0:	856a                	mv	a0,s10
    11d2:	eb2d                	bnez	a4,1244 <.L433>
    11d4:	00000097          	auipc	ra,0x0
    11d8:	000080e7          	jalr	ra # 11d4 <.L428+0x4a>
    11dc:	8552                	mv	a0,s4
    11de:	00000097          	auipc	ra,0x0
    11e2:	000080e7          	jalr	ra # 11de <.L428+0x54>
    11e6:	862a                	mv	a2,a0
    11e8:	85d2                	mv	a1,s4
    11ea:	856a                	mv	a0,s10
    11ec:	00000097          	auipc	ra,0x0
    11f0:	000080e7          	jalr	ra # 11ec <.L428+0x62>
    11f4:	4619                	li	a2,6
    11f6:	85a6                	mv	a1,s1
    11f8:	855e                	mv	a0,s7
    11fa:	00000097          	auipc	ra,0x0
    11fe:	000080e7          	jalr	ra # 11fa <.L428+0x70>
    1202:	038d9e63          	bne	s11,s8,123e <.L434>
    1206:	00042783          	lw	a5,0(s0)
    120a:	cb95                	beqz	a5,123e <.L434>
    120c:	14c7a483          	lw	s1,332(a5)
    1210:	c49d                	beqz	s1,123e <.L434>
    1212:	000009b7          	lui	s3,0x0
    1216:	0009a583          	lw	a1,0(s3) # 0 <TOUCH_Deal_with>
    121a:	1547a783          	lw	a5,340(a5)
    121e:	ce2e                	sw	a1,28(sp)
    1220:	9782                	jalr	a5
    1222:	000b2783          	lw	a5,0(s6)
    1226:	0009a703          	lw	a4,0(s3)
    122a:	45f2                	lw	a1,28(sp)
    122c:	00000637          	lui	a2,0x0
    1230:	86aa                	mv	a3,a0
    1232:	02d78793          	add	a5,a5,45
    1236:	00060613          	mv	a2,a2
    123a:	450d                	li	a0,3
    123c:	9482                	jalr	s1

0000123e <.L434>:
    123e:	000b2783          	lw	a5,0(s6)
    1242:	b51d                	j	1068 <.L705>

00001244 <.L433>:
    1244:	00000097          	auipc	ra,0x0
    1248:	000080e7          	jalr	ra # 1244 <.L433>
    124c:	8552                	mv	a0,s4
    124e:	00000097          	auipc	ra,0x0
    1252:	000080e7          	jalr	ra # 124e <.L433+0xa>
    1256:	862a                	mv	a2,a0
    1258:	85d2                	mv	a1,s4
    125a:	856a                	mv	a0,s10
    125c:	00000097          	auipc	ra,0x0
    1260:	000080e7          	jalr	ra # 125c <.L433+0x18>
    1264:	4619                	li	a2,6
    1266:	85a6                	mv	a1,s1
    1268:	855e                	mv	a0,s7
    126a:	00000097          	auipc	ra,0x0
    126e:	000080e7          	jalr	ra # 126a <.L433+0x26>
    1272:	038d9f63          	bne	s11,s8,12b0 <.L435>
    1276:	00042783          	lw	a5,0(s0)
    127a:	cb9d                	beqz	a5,12b0 <.L435>
    127c:	14c7aa03          	lw	s4,332(a5)
    1280:	020a0863          	beqz	s4,12b0 <.L435>
    1284:	00000bb7          	lui	s7,0x0
    1288:	000ba583          	lw	a1,0(s7) # 0 <TOUCH_Deal_with>
    128c:	1547a783          	lw	a5,340(a5)
    1290:	ce2e                	sw	a1,28(sp)
    1292:	9782                	jalr	a5
    1294:	000b2783          	lw	a5,0(s6)
    1298:	000ba703          	lw	a4,0(s7)
    129c:	45f2                	lw	a1,28(sp)
    129e:	00000637          	lui	a2,0x0
    12a2:	86aa                	mv	a3,a0
    12a4:	02d78793          	add	a5,a5,45
    12a8:	00060613          	mv	a2,a2
    12ac:	450d                	li	a0,3
    12ae:	9a02                	jalr	s4

000012b0 <.L435>:
    12b0:	000b2783          	lw	a5,0(s6)
    12b4:	060787a3          	sb	zero,111(a5)
    12b8:	b1c5                	j	f98 <.L427>

000012ba <.L437>:
    12ba:	07874783          	lbu	a5,120(a4)
    12be:	b3e1                	j	1086 <.L438>

000012c0 <.L441>:
    12c0:	4685                	li	a3,1
    12c2:	00d61763          	bne	a2,a3,12d0 <.L443>
    12c6:	0a078fa3          	sb	zero,191(a5)
    12ca:	0a078f23          	sb	zero,190(a5)
    12ce:	b58d                	j	1130 <.L442>

000012d0 <.L443>:
    12d0:	167d                	add	a2,a2,-1 # ffffffff <.L698+0xffffe7f3>
    12d2:	0ac78fa3          	sb	a2,191(a5)
    12d6:	e93fe06f          	j	168 <.L296>

000012da <.L440>:
    12da:	05868693          	add	a3,a3,88
    12de:	0686                	sll	a3,a3,0x1
    12e0:	96ba                	add	a3,a3,a4
    12e2:	00b68723          	sb	a1,14(a3)
    12e6:	4685                	li	a3,1
    12e8:	0ad78fa3          	sb	a3,191(a5)
    12ec:	b591                	j	1130 <.L442>

000012ee <.L446>:
    12ee:	0007c503          	lbu	a0,0(a5)
    12f2:	e111                	bnez	a0,12f6 <.L445>
    12f4:	84b2                	mv	s1,a2

000012f6 <.L445>:
    12f6:	0685                	add	a3,a3,1
    12f8:	0ff6f693          	zext.b	a3,a3
    12fc:	0789                	add	a5,a5,2
    12fe:	b5a1                	j	1146 <.L444>

00001300 <.L447>:
    1300:	07774503          	lbu	a0,119(a4)
    1304:	4681                	li	a3,0
    1306:	4891                	li	a7,4
    1308:	00850813          	add	a6,a0,8

0000130c <.L449>:
    130c:	2ad85363          	bge	a6,a3,15b2 <.L451>
    1310:	8e09                	sub	a2,a2,a0
    1312:	165d                	add	a2,a2,-9
    1314:	4681                	li	a3,0

00001316 <.L452>:
    1316:	02c74783          	lbu	a5,44(a4)
    131a:	2ac6cd63          	blt	a3,a2,15d4 <.L453>

0000131e <.L458>:
    131e:	02c74603          	lbu	a2,44(a4)
    1322:	0c674683          	lbu	a3,198(a4)
    1326:	018ac783          	lbu	a5,24(s5)
    132a:	2cd61063          	bne	a2,a3,15ea <.L454>
    132e:	02071323          	sh	zero,38(a4)
    1332:	4705                	li	a4,1
    1334:	02e79163          	bne	a5,a4,1356 <.L472>
    1338:	4a21                	li	s4,8
    133a:	000009b7          	lui	s3,0x0
    133e:	00000ab7          	lui	s5,0x0
    1342:	00000b37          	lui	s6,0x0

00001346 <.L467>:
    1346:	00092783          	lw	a5,0(s2)
    134a:	00042703          	lw	a4,0(s0)
    134e:	0287c783          	lbu	a5,40(a5)
    1352:	3af4e863          	bltu	s1,a5,1702 <.L471>

00001356 <.L472>:
    1356:	07400613          	li	a2,116
    135a:	4581                	li	a1,0
    135c:	1068                	add	a0,sp,44
    135e:	00000097          	auipc	ra,0x0
    1362:	000080e7          	jalr	ra # 135e <.L472+0x8>
    1366:	000009b7          	lui	s3,0x0
    136a:	0d800613          	li	a2,216
    136e:	4581                	li	a1,0
    1370:	00098513          	mv	a0,s3
    1374:	00000097          	auipc	ra,0x0
    1378:	000080e7          	jalr	ra # 1374 <.L472+0x1e>
    137c:	00092483          	lw	s1,0(s2)
    1380:	000007b7          	lui	a5,0x0
    1384:	0007d583          	lhu	a1,0(a5) # 0 <TOUCH_Deal_with>
    1388:	0774c603          	lbu	a2,119(s1)
    138c:	00000a37          	lui	s4,0x0
    1390:	000a4803          	lbu	a6,0(s4) # 0 <TOUCH_Deal_with>
    1394:	00860513          	add	a0,a2,8
    1398:	05a5                	add	a1,a1,9
    139a:	47a5                	li	a5,9
    139c:	00098893          	mv	a7,s3

000013a0 <.L468>:
    13a0:	3ef55763          	bge	a0,a5,178e <.L476>

000013a4 <.L473>:
    13a4:	06f4c703          	lbu	a4,111(s1)
    13a8:	4785                	li	a5,1
    13aa:	40f71d63          	bne	a4,a5,17c4 <.L477>
    13ae:	02d48593          	add	a1,s1,45
    13b2:	852e                	mv	a0,a1
    13b4:	ce2e                	sw	a1,28(sp)
    13b6:	00000097          	auipc	ra,0x0
    13ba:	000080e7          	jalr	ra # 13b6 <.L473+0x12>
    13be:	45f2                	lw	a1,28(sp)
    13c0:	862a                	mv	a2,a0
    13c2:	1068                	add	a0,sp,44
    13c4:	00000097          	auipc	ra,0x0
    13c8:	000080e7          	jalr	ra # 13c4 <.L473+0x20>

000013cc <.L481>:
    13cc:	0c84c783          	lbu	a5,200(s1)
    13d0:	4705                	li	a4,1
    13d2:	18f48823          	sb	a5,400(s1)
    13d6:	0ca4c783          	lbu	a5,202(s1)
    13da:	18f488a3          	sb	a5,401(s1)
    13de:	0cc4c783          	lbu	a5,204(s1)
    13e2:	18f48923          	sb	a5,402(s1)
    13e6:	0ce4c783          	lbu	a5,206(s1)
    13ea:	18f489a3          	sb	a5,403(s1)
    13ee:	0784c783          	lbu	a5,120(s1)
    13f2:	18f48aa3          	sb	a5,405(s1)
    13f6:	06f4c783          	lbu	a5,111(s1)
    13fa:	40e79163          	bne	a5,a4,17fc <.L696>
    13fe:	4619                	li	a2,6
    1400:	19648593          	add	a1,s1,406
    1404:	08d10513          	add	a0,sp,141
    1408:	08f10623          	sb	a5,140(sp)
    140c:	00000097          	auipc	ra,0x0
    1410:	000080e7          	jalr	ra # 140c <.L481+0x40>

00001414 <.L483>:
    1414:	00042783          	lw	a5,0(s0)
    1418:	c79d                	beqz	a5,1446 <.L484>
    141a:	14c7a483          	lw	s1,332(a5)
    141e:	c485                	beqz	s1,1446 <.L484>
    1420:	00000ab7          	lui	s5,0x0
    1424:	000aa583          	lw	a1,0(s5) # 0 <TOUCH_Deal_with>
    1428:	1547a783          	lw	a5,340(a5)
    142c:	ce2e                	sw	a1,28(sp)
    142e:	9782                	jalr	a5
    1430:	000aa703          	lw	a4,0(s5)
    1434:	45f2                	lw	a1,28(sp)
    1436:	00000637          	lui	a2,0x0
    143a:	86aa                	mv	a3,a0
    143c:	00fc                	add	a5,sp,76
    143e:	00060613          	mv	a2,a2
    1442:	450d                	li	a0,3
    1444:	9482                	jalr	s1

00001446 <.L484>:
    1446:	00042783          	lw	a5,0(s0)
    144a:	c79d                	beqz	a5,1478 <.L485>
    144c:	14c7a483          	lw	s1,332(a5)
    1450:	c485                	beqz	s1,1478 <.L485>
    1452:	00000ab7          	lui	s5,0x0
    1456:	000aa583          	lw	a1,0(s5) # 0 <TOUCH_Deal_with>
    145a:	1547a783          	lw	a5,340(a5)
    145e:	ce2e                	sw	a1,28(sp)
    1460:	9782                	jalr	a5
    1462:	000aa703          	lw	a4,0(s5)
    1466:	45f2                	lw	a1,28(sp)
    1468:	00000637          	lui	a2,0x0
    146c:	86aa                	mv	a3,a0
    146e:	107c                	add	a5,sp,44
    1470:	00060613          	mv	a2,a2
    1474:	450d                	li	a0,3
    1476:	9482                	jalr	s1

00001478 <.L485>:
    1478:	08c14783          	lbu	a5,140(sp)
    147c:	cba1                	beqz	a5,14cc <.L486>
    147e:	00042783          	lw	a5,0(s0)
    1482:	c7a9                	beqz	a5,14cc <.L486>
    1484:	14c7a483          	lw	s1,332(a5)
    1488:	c0b1                	beqz	s1,14cc <.L486>
    148a:	00000ab7          	lui	s5,0x0
    148e:	000aa583          	lw	a1,0(s5) # 0 <TOUCH_Deal_with>
    1492:	1547a783          	lw	a5,340(a5)
    1496:	ce2e                	sw	a1,28(sp)
    1498:	9782                	jalr	a5
    149a:	09214783          	lbu	a5,146(sp)
    149e:	08f14883          	lbu	a7,143(sp)
    14a2:	08e14803          	lbu	a6,142(sp)
    14a6:	c43e                	sw	a5,8(sp)
    14a8:	09114783          	lbu	a5,145(sp)
    14ac:	000aa703          	lw	a4,0(s5)
    14b0:	45f2                	lw	a1,28(sp)
    14b2:	c23e                	sw	a5,4(sp)
    14b4:	09014783          	lbu	a5,144(sp)
    14b8:	00000637          	lui	a2,0x0
    14bc:	86aa                	mv	a3,a0
    14be:	c03e                	sw	a5,0(sp)
    14c0:	08d14783          	lbu	a5,141(sp)
    14c4:	00060613          	mv	a2,a2
    14c8:	450d                	li	a0,3
    14ca:	9482                	jalr	s1

000014cc <.L486>:
    14cc:	4501                	li	a0,0
    14ce:	00000097          	auipc	ra,0x0
    14d2:	000080e7          	jalr	ra # 14ce <.L486+0x2>
    14d6:	c90d                	beqz	a0,1508 <.L487>
    14d8:	00042783          	lw	a5,0(s0)
    14dc:	c795                	beqz	a5,1508 <.L487>
    14de:	14c7a483          	lw	s1,332(a5)
    14e2:	c09d                	beqz	s1,1508 <.L487>
    14e4:	00000ab7          	lui	s5,0x0
    14e8:	000aa583          	lw	a1,0(s5) # 0 <TOUCH_Deal_with>
    14ec:	1547a783          	lw	a5,340(a5)
    14f0:	ce2e                	sw	a1,28(sp)
    14f2:	9782                	jalr	a5
    14f4:	000aa703          	lw	a4,0(s5)
    14f8:	45f2                	lw	a1,28(sp)
    14fa:	00000637          	lui	a2,0x0
    14fe:	86aa                	mv	a3,a0
    1500:	00060613          	mv	a2,a2
    1504:	4505                	li	a0,1
    1506:	9482                	jalr	s1

00001508 <.L487>:
    1508:	00042783          	lw	a5,0(s0)
    150c:	00000ab7          	lui	s5,0x0
    1510:	000a8513          	mv	a0,s5
    1514:	0e47a783          	lw	a5,228(a5)
    1518:	000004b7          	lui	s1,0x0
    151c:	9782                	jalr	a5
    151e:	00042783          	lw	a5,0(s0)
    1522:	00048513          	mv	a0,s1
    1526:	0e47a783          	lw	a5,228(a5)
    152a:	9782                	jalr	a5
    152c:	00042783          	lw	a5,0(s0)
    1530:	000a8513          	mv	a0,s5
    1534:	0e87a783          	lw	a5,232(a5)
    1538:	9782                	jalr	a5
    153a:	00042783          	lw	a5,0(s0)
    153e:	00048513          	mv	a0,s1
    1542:	0e87a783          	lw	a5,232(a5)
    1546:	9782                	jalr	a5
    1548:	00092583          	lw	a1,0(s2)
    154c:	4789                	li	a5,2
    154e:	4611                	li	a2,4
    1550:	c19c                	sw	a5,0(a1)
    1552:	cb02                	sw	zero,148(sp)
    1554:	1955c783          	lbu	a5,405(a1)
    1558:	09910513          	add	a0,sp,153
    155c:	19058593          	add	a1,a1,400
    1560:	08f10c23          	sb	a5,152(sp)
    1564:	00000097          	auipc	ra,0x0
    1568:	000080e7          	jalr	ra # 1564 <.L487+0x5c>
    156c:	02c14783          	lbu	a5,44(sp)
    1570:	e399                	bnez	a5,1576 <.L487+0x6e>
    1572:	bf7fe06f          	j	168 <.L296>
    1576:	00042783          	lw	a5,0(s0)
    157a:	0b47a403          	lw	s0,180(a5)
    157e:	000007b7          	lui	a5,0x0
    1582:	0007a483          	lw	s1,0(a5) # 0 <TOUCH_Deal_with>
    1586:	000a4783          	lbu	a5,0(s4)
    158a:	26078c63          	beqz	a5,1802 <.L488>
    158e:	07400613          	li	a2,116
    1592:	106c                	add	a1,sp,44
    1594:	00098513          	mv	a0,s3
    1598:	00000097          	auipc	ra,0x0
    159c:	000080e7          	jalr	ra # 1598 <.L487+0x90>
    15a0:	577d                	li	a4,-1
    15a2:	0d800693          	li	a3,216
    15a6:	00098613          	mv	a2,s3

000015aa <.L707>:
    15aa:	4589                	li	a1,2
    15ac:	8526                	mv	a0,s1
    15ae:	bf4ff06f          	j	9a2 <.L708>

000015b2 <.L451>:
    15b2:	01168d63          	beq	a3,a7,15cc <.L450>
    15b6:	05868593          	add	a1,a3,88
    15ba:	0586                	sll	a1,a1,0x1
    15bc:	95ba                	add	a1,a1,a4
    15be:	00e5c783          	lbu	a5,14(a1)
    15c2:	02c74583          	lbu	a1,44(a4)
    15c6:	8fad                	xor	a5,a5,a1
    15c8:	02f70623          	sb	a5,44(a4)

000015cc <.L450>:
    15cc:	0685                	add	a3,a3,1
    15ce:	0ff6f693          	zext.b	a3,a3
    15d2:	bb2d                	j	130c <.L449>

000015d4 <.L453>:
    15d4:	00d705b3          	add	a1,a4,a3
    15d8:	02d5c583          	lbu	a1,45(a1)
    15dc:	0685                	add	a3,a3,1
    15de:	0ff6f693          	zext.b	a3,a3
    15e2:	8fad                	xor	a5,a5,a1
    15e4:	02f70623          	sb	a5,44(a4)
    15e8:	b33d                	j	1316 <.L452>

000015ea <.L454>:
    15ea:	4705                	li	a4,1
    15ec:	02e79a63          	bne	a5,a4,1620 <.L459>
    15f0:	00042783          	lw	a5,0(s0)
    15f4:	c795                	beqz	a5,1620 <.L459>
    15f6:	14c7a403          	lw	s0,332(a5)
    15fa:	c01d                	beqz	s0,1620 <.L459>
    15fc:	000004b7          	lui	s1,0x0
    1600:	0004a583          	lw	a1,0(s1) # 0 <TOUCH_Deal_with>
    1604:	1547a783          	lw	a5,340(a5)
    1608:	ce2e                	sw	a1,28(sp)
    160a:	9782                	jalr	a5
    160c:	0004a703          	lw	a4,0(s1)
    1610:	45f2                	lw	a1,28(sp)
    1612:	00000637          	lui	a2,0x0
    1616:	86aa                	mv	a3,a0
    1618:	00060613          	mv	a2,a2
    161c:	450d                	li	a0,3
    161e:	9402                	jalr	s0

00001620 <.L459>:
    1620:	00092403          	lw	s0,0(s2)
    1624:	4785                	li	a5,1
    1626:	0bf44703          	lbu	a4,191(s0)
    162a:	02e7e363          	bltu	a5,a4,1650 <.L460>
    162e:	06040d23          	sb	zero,122(s0)
    1632:	06040ca3          	sb	zero,121(s0)
    1636:	0a041f23          	sh	zero,190(s0)
    163a:	060407a3          	sb	zero,111(s0)
    163e:	02100613          	li	a2,33
    1642:	4581                	li	a1,0
    1644:	02d40513          	add	a0,s0,45
    1648:	00000097          	auipc	ra,0x0
    164c:	000080e7          	jalr	ra # 1648 <.L459+0x28>

00001650 <.L460>:
    1650:	0c144703          	lbu	a4,193(s0)
    1654:	4785                	li	a5,1
    1656:	02e7e363          	bltu	a5,a4,167c <.L461>
    165a:	06040da3          	sb	zero,123(s0)
    165e:	06040ca3          	sb	zero,121(s0)
    1662:	0c041023          	sh	zero,192(s0)
    1666:	060407a3          	sb	zero,111(s0)
    166a:	02100613          	li	a2,33
    166e:	4581                	li	a1,0
    1670:	02d40513          	add	a0,s0,45
    1674:	00000097          	auipc	ra,0x0
    1678:	000080e7          	jalr	ra # 1674 <.L460+0x24>

0000167c <.L461>:
    167c:	0c344703          	lbu	a4,195(s0)
    1680:	4785                	li	a5,1
    1682:	02e7e363          	bltu	a5,a4,16a8 <.L462>
    1686:	06040e23          	sb	zero,124(s0)
    168a:	06040ca3          	sb	zero,121(s0)
    168e:	0c041123          	sh	zero,194(s0)
    1692:	060407a3          	sb	zero,111(s0)
    1696:	02100613          	li	a2,33
    169a:	4581                	li	a1,0
    169c:	02d40513          	add	a0,s0,45
    16a0:	00000097          	auipc	ra,0x0
    16a4:	000080e7          	jalr	ra # 16a0 <.L461+0x24>

000016a8 <.L462>:
    16a8:	0c544703          	lbu	a4,197(s0)
    16ac:	4785                	li	a5,1
    16ae:	02e7e363          	bltu	a5,a4,16d4 <.L463>
    16b2:	06040ea3          	sb	zero,125(s0)
    16b6:	06040ca3          	sb	zero,121(s0)
    16ba:	0c041223          	sh	zero,196(s0)
    16be:	060407a3          	sb	zero,111(s0)
    16c2:	02100613          	li	a2,33
    16c6:	4581                	li	a1,0
    16c8:	02d40513          	add	a0,s0,45
    16cc:	00000097          	auipc	ra,0x0
    16d0:	000080e7          	jalr	ra # 16cc <.L462+0x24>

000016d4 <.L463>:
    16d4:	02844703          	lbu	a4,40(s0)
    16d8:	4791                	li	a5,4
    16da:	0c740413          	add	s0,s0,199
    16de:	4685                	li	a3,1

000016e0 <.L464>:
    16e0:	00e7e463          	bltu	a5,a4,16e8 <.L464+0x8>
    16e4:	a85fe06f          	j	168 <.L296>
    16e8:	00044603          	lbu	a2,0(s0)
    16ec:	00c6e663          	bltu	a3,a2,16f8 <.L465>
    16f0:	fe040fa3          	sb	zero,-1(s0)
    16f4:	00040023          	sb	zero,0(s0)

000016f8 <.L465>:
    16f8:	0785                	add	a5,a5,1
    16fa:	0ff7f793          	zext.b	a5,a5
    16fe:	0409                	add	s0,s0,2
    1700:	b7c5                	j	16e0 <.L464>

00001702 <.L471>:
    1702:	049a6763          	bltu	s4,s1,1750 <.L469>
    1706:	c329                	beqz	a4,1748 <.L470>
    1708:	14c72b83          	lw	s7,332(a4)
    170c:	020b8e63          	beqz	s7,1748 <.L470>
    1710:	15472783          	lw	a5,340(a4)
    1714:	0009a583          	lw	a1,0(s3) # 0 <TOUCH_Deal_with>
    1718:	ce2e                	sw	a1,28(sp)
    171a:	9782                	jalr	a5
    171c:	00092783          	lw	a5,0(s2)
    1720:	00149713          	sll	a4,s1,0x1
    1724:	05848613          	add	a2,s1,88
    1728:	973e                	add	a4,a4,a5
    172a:	0606                	sll	a2,a2,0x1
    172c:	0bf74883          	lbu	a7,191(a4)
    1730:	0009a703          	lw	a4,0(s3)
    1734:	97b2                	add	a5,a5,a2
    1736:	00e7c803          	lbu	a6,14(a5)
    173a:	86aa                	mv	a3,a0
    173c:	87a6                	mv	a5,s1
    173e:	000b0613          	mv	a2,s6

00001742 <.L706>:
    1742:	45f2                	lw	a1,28(sp)
    1744:	450d                	li	a0,3
    1746:	9b82                	jalr	s7

00001748 <.L470>:
    1748:	0485                	add	s1,s1,1
    174a:	0ff4f493          	zext.b	s1,s1
    174e:	bee5                	j	1346 <.L467>

00001750 <.L469>:
    1750:	df65                	beqz	a4,1748 <.L470>
    1752:	14c72b83          	lw	s7,332(a4)
    1756:	fe0b89e3          	beqz	s7,1748 <.L470>
    175a:	15472783          	lw	a5,340(a4)
    175e:	0009a583          	lw	a1,0(s3)
    1762:	ce2e                	sw	a1,28(sp)
    1764:	9782                	jalr	a5
    1766:	00092783          	lw	a5,0(s2)
    176a:	05848613          	add	a2,s1,88
    176e:	0606                	sll	a2,a2,0x1
    1770:	00149713          	sll	a4,s1,0x1
    1774:	973e                	add	a4,a4,a5
    1776:	97b2                	add	a5,a5,a2
    1778:	0bf74883          	lbu	a7,191(a4)
    177c:	00e7c803          	lbu	a6,14(a5)
    1780:	0009a703          	lw	a4,0(s3)
    1784:	86aa                	mv	a3,a0
    1786:	87a6                	mv	a5,s1
    1788:	000a8613          	mv	a2,s5
    178c:	bf5d                	j	1742 <.L706>

0000178e <.L476>:
    178e:	c0f5cbe3          	blt	a1,a5,13a4 <.L473>
    1792:	05878693          	add	a3,a5,88
    1796:	0686                	sll	a3,a3,0x1
    1798:	96a6                	add	a3,a3,s1
    179a:	00e6c683          	lbu	a3,14(a3)
    179e:	ff778713          	add	a4,a5,-9
    17a2:	00080963          	beqz	a6,17b4 <.L474>
    17a6:	9746                	add	a4,a4,a7
    17a8:	06d70a23          	sb	a3,116(a4)

000017ac <.L475>:
    17ac:	0785                	add	a5,a5,1
    17ae:	0ff7f793          	zext.b	a5,a5
    17b2:	b6fd                	j	13a0 <.L468>

000017b4 <.L474>:
    17b4:	09070713          	add	a4,a4,144
    17b8:	01010313          	add	t1,sp,16
    17bc:	971a                	add	a4,a4,t1
    17be:	fad70623          	sb	a3,-84(a4)
    17c2:	b7ed                	j	17ac <.L475>

000017c4 <.L477>:
    17c4:	0784c683          	lbu	a3,120(s1)
    17c8:	00960793          	add	a5,a2,9 # 9 <TOUCH_Deal_with+0x9>
    17cc:	0ff7f793          	zext.b	a5,a5
    17d0:	02960593          	add	a1,a2,41

000017d4 <.L480>:
    17d4:	0ff7f713          	zext.b	a4,a5
    17d8:	bed77ae3          	bgeu	a4,a3,13cc <.L481>
    17dc:	bef5c8e3          	blt	a1,a5,13cc <.L481>
    17e0:	00179713          	sll	a4,a5,0x1
    17e4:	9726                	add	a4,a4,s1
    17e6:	0be74503          	lbu	a0,190(a4)
    17ea:	02c10813          	add	a6,sp,44
    17ee:	40c78733          	sub	a4,a5,a2
    17f2:	9742                	add	a4,a4,a6
    17f4:	fea70ba3          	sb	a0,-9(a4)
    17f8:	0785                	add	a5,a5,1
    17fa:	bfe9                	j	17d4 <.L480>

000017fc <.L696>:
    17fc:	08010623          	sb	zero,140(sp)
    1800:	b911                	j	1414 <.L483>

00001802 <.L488>:
    1802:	577d                	li	a4,-1
    1804:	07400693          	li	a3,116
    1808:	1070                	add	a2,sp,44
    180a:	b345                	j	15aa <.L707>

0000180c <.L698>:
    180c:	8082                	ret

sc_crypt.o:     file format elf32-littleriscv


Disassembly of section .text.sc_get_encrypt_type:

00000000 <sc_get_encrypt_type>:
   0:	4505                	li	a0,1
   2:	8082                	ret

Disassembly of section .text.sc_aes_crypt_init:

00000000 <sc_aes_crypt_init>:
   0:	00000537          	lui	a0,0x0
   4:	1141                	add	sp,sp,-16
   6:	02000613          	li	a2,32
   a:	4581                	li	a1,0
   c:	00050513          	mv	a0,a0
  10:	c606                	sw	ra,12(sp)
  12:	00000097          	auipc	ra,0x0
  16:	000080e7          	jalr	ra # 12 <sc_aes_crypt_init+0x12>
  1a:	40b2                	lw	ra,12(sp)
  1c:	4501                	li	a0,0
  1e:	0141                	add	sp,sp,16
  20:	8082                	ret

Disassembly of section .text.sc_set_key:

00000000 <sc_set_key>:
   0:	1101                	add	sp,sp,-32
   2:	ce06                	sw	ra,28(sp)
   4:	cc22                	sw	s0,24(sp)
   6:	ca26                	sw	s1,20(sp)
   8:	87ae                	mv	a5,a1
   a:	c501                	beqz	a0,12 <.L5>
   c:	4741                	li	a4,16
   e:	04e58563          	beq	a1,a4,58 <.L6>

00000012 <.L5>:
  12:	00000737          	lui	a4,0x0
  16:	00072703          	lw	a4,0(a4) # 0 <sc_set_key>
  1a:	c63e                	sw	a5,12(sp)
  1c:	557d                	li	a0,-1
  1e:	cb05                	beqz	a4,4e <.L4>
  20:	14c72403          	lw	s0,332(a4)
  24:	c40d                	beqz	s0,4e <.L4>
  26:	000004b7          	lui	s1,0x0
  2a:	0004a583          	lw	a1,0(s1) # 0 <sc_set_key>
  2e:	15472703          	lw	a4,340(a4)
  32:	c42e                	sw	a1,8(sp)
  34:	9702                	jalr	a4
  36:	47b2                	lw	a5,12(sp)
  38:	0004a703          	lw	a4,0(s1)
  3c:	45a2                	lw	a1,8(sp)
  3e:	00000637          	lui	a2,0x0
  42:	86aa                	mv	a3,a0
  44:	00060613          	mv	a2,a2
  48:	4505                	li	a0,1
  4a:	9402                	jalr	s0
  4c:	557d                	li	a0,-1

0000004e <.L4>:
  4e:	40f2                	lw	ra,28(sp)
  50:	4462                	lw	s0,24(sp)
  52:	44d2                	lw	s1,20(sp)
  54:	6105                	add	sp,sp,32
  56:	8082                	ret

00000058 <.L6>:
  58:	85aa                	mv	a1,a0
  5a:	00000537          	lui	a0,0x0
  5e:	4641                	li	a2,16
  60:	00050513          	mv	a0,a0
  64:	00000097          	auipc	ra,0x0
  68:	000080e7          	jalr	ra # 64 <.L6+0xc>
  6c:	4501                	li	a0,0
  6e:	b7c5                	j	4e <.L4>

Disassembly of section .text.sc_get_key:

00000000 <sc_get_key>:
   0:	862e                	mv	a2,a1
   2:	000005b7          	lui	a1,0x0
   6:	1141                	add	sp,sp,-16
   8:	00058593          	mv	a1,a1
   c:	c606                	sw	ra,12(sp)
   e:	00000097          	auipc	ra,0x0
  12:	000080e7          	jalr	ra # e <sc_get_key+0xe>
  16:	40b2                	lw	ra,12(sp)
  18:	4501                	li	a0,0
  1a:	0141                	add	sp,sp,16
  1c:	8082                	ret

sc_ht40.o:     file format elf32-littleriscv


Disassembly of section .text.ht40_init:

00000000 <ht40_init>:
   0:	000007b7          	lui	a5,0x0
   4:	00078023          	sb	zero,0(a5) # 0 <ht40_init>
   8:	000007b7          	lui	a5,0x0
   c:	00078023          	sb	zero,0(a5) # 0 <ht40_init>
  10:	000007b7          	lui	a5,0x0
  14:	00079023          	sh	zero,0(a5) # 0 <ht40_init>
  18:	000007b7          	lui	a5,0x0
  1c:	00079023          	sh	zero,0(a5) # 0 <ht40_init>
  20:	000007b7          	lui	a5,0x0
  24:	0007a023          	sw	zero,0(a5) # 0 <ht40_init>
  28:	000007b7          	lui	a5,0x0
  2c:	00078023          	sb	zero,0(a5) # 0 <ht40_init>
  30:	000007b7          	lui	a5,0x0
  34:	00078793          	mv	a5,a5
  38:	0007a023          	sw	zero,0(a5) # 0 <ht40_init>
  3c:	0007a223          	sw	zero,4(a5)
  40:	0007a423          	sw	zero,8(a5)
  44:	00079623          	sh	zero,12(a5)
  48:	00078723          	sb	zero,14(a5)
  4c:	000007b7          	lui	a5,0x0
  50:	00078793          	mv	a5,a5
  54:	00000537          	lui	a0,0x0
  58:	0007a023          	sw	zero,0(a5) # 0 <ht40_init>
  5c:	0007a223          	sw	zero,4(a5)
  60:	0007a423          	sw	zero,8(a5)
  64:	00079623          	sh	zero,12(a5)
  68:	00078723          	sb	zero,14(a5)
  6c:	04000613          	li	a2,64
  70:	4581                	li	a1,0
  72:	00050513          	mv	a0,a0
  76:	00000317          	auipc	t1,0x0
  7a:	00030067          	jr	t1 # 76 <ht40_init+0x76>

Disassembly of section .text.ht40_lock_channel:

00000000 <ht40_lock_channel>:
   0:	fff50793          	add	a5,a0,-1 # ffffffff <.L188+0xfffffa4d>
   4:	0ff7f793          	zext.b	a5,a5
   8:	4735                	li	a4,13
   a:	04f76a63          	bltu	a4,a5,5e <.L7>
   e:	000007b7          	lui	a5,0x0
  12:	00078613          	mv	a2,a5
  16:	962a                	add	a2,a2,a0
  18:	00064703          	lbu	a4,0(a2)
  1c:	00078693          	mv	a3,a5
  20:	000007b7          	lui	a5,0x0
  24:	00078793          	mv	a5,a5
  28:	e305                	bnez	a4,48 <.L4>
  2a:	4705                	li	a4,1
  2c:	97aa                	add	a5,a5,a0
  2e:	00e60023          	sb	a4,0(a2)
  32:	00b78023          	sb	a1,0(a5) # 0 <ht40_lock_channel>

00000036 <.L5>:
  36:	00a687b3          	add	a5,a3,a0
  3a:	0007c503          	lbu	a0,0(a5)
  3e:	00253513          	sltiu	a0,a0,2
  42:	00154513          	xor	a0,a0,1
  46:	8082                	ret

00000048 <.L4>:
  48:	97aa                	add	a5,a5,a0
  4a:	0007c783          	lbu	a5,0(a5)
  4e:	00b79663          	bne	a5,a1,5a <.L6>
  52:	0705                	add	a4,a4,1

00000054 <.L8>:
  54:	00e60023          	sb	a4,0(a2)
  58:	bff9                	j	36 <.L5>

0000005a <.L6>:
  5a:	177d                	add	a4,a4,-1
  5c:	bfe5                	j	54 <.L8>

0000005e <.L7>:
  5e:	4501                	li	a0,0
  60:	8082                	ret

Disassembly of section .text.ht40_scanning_sync_frame:

00000000 <ht40_scanning_sync_frame>:
   0:	711d                	add	sp,sp,-96
   2:	000007b7          	lui	a5,0x0
   6:	c6ce                	sw	s3,76(sp)
   8:	0007c983          	lbu	s3,0(a5) # 0 <ht40_scanning_sync_frame>
   c:	c2d6                	sw	s5,68(sp)
   e:	ce86                	sw	ra,92(sp)
  10:	cca2                	sw	s0,88(sp)
  12:	caa6                	sw	s1,84(sp)
  14:	c8ca                	sw	s2,80(sp)
  16:	c4d2                	sw	s4,72(sp)
  18:	c0da                	sw	s6,64(sp)
  1a:	de5e                	sw	s7,60(sp)
  1c:	dc62                	sw	s8,56(sp)
  1e:	da66                	sw	s9,52(sp)
  20:	d86a                	sw	s10,48(sp)
  22:	d66e                	sw	s11,44(sp)
  24:	c62e                	sw	a1,12(sp)
  26:	5afd                	li	s5,-1
  28:	26099263          	bnez	s3,28c <.L9>
  2c:	00000437          	lui	s0,0x0
  30:	00040793          	mv	a5,s0
  34:	0067c783          	lbu	a5,6(a5)
  38:	8c32                	mv	s8,a2
  3a:	00040413          	mv	s0,s0
  3e:	41a78793          	add	a5,a5,1050
  42:	5afd                	li	s5,-1
  44:	24c7e463          	bltu	a5,a2,28c <.L9>
  48:	00044783          	lbu	a5,0(s0) # 0 <ht40_scanning_sync_frame>
  4c:	08078793          	add	a5,a5,128
  50:	22c7fe63          	bgeu	a5,a2,28c <.L9>
  54:	000007b7          	lui	a5,0x0
  58:	0007d783          	lhu	a5,0(a5) # 0 <ht40_scanning_sync_frame>
  5c:	00000cb7          	lui	s9,0x0
  60:	8b2a                	mv	s6,a0
  62:	c83e                	sw	a5,16(sp)
  64:	000007b7          	lui	a5,0x0
  68:	00078793          	mv	a5,a5
  6c:	84b6                	mv	s1,a3
  6e:	c202                	sw	zero,4(sp)
  70:	c002                	sw	zero,0(sp)
  72:	4701                	li	a4,0
  74:	4b85                	li	s7,1
  76:	ca3e                	sw	a5,20(sp)
  78:	00000db7          	lui	s11,0x0
  7c:	000c8c93          	mv	s9,s9

00000080 <.L11>:
  80:	001b9793          	sll	a5,s7,0x1
  84:	005b9a13          	sll	s4,s7,0x5
  88:	c43e                	sw	a5,8(sp)
  8a:	0a61                	add	s4,s4,24
  8c:	490d                	li	s2,3
  8e:	00000d37          	lui	s10,0x0
  92:	a225                	j	1ba <.L20>

00000094 <.L17>:
  94:	0ff97793          	zext.b	a5,s2
  98:	c03e                	sw	a5,0(sp)
  9a:	0ffbf793          	zext.b	a5,s7
  9e:	c23e                	sw	a5,4(sp)
  a0:	8ad2                	mv	s5,s4
  a2:	ef75                	bnez	a4,19e <.L12>
  a4:	ec8d                	bnez	s1,de <.L13>
  a6:	000d2783          	lw	a5,0(s10) # 0 <ht40_scanning_sync_frame>
  aa:	cb85                	beqz	a5,da <.L14>
  ac:	14c7a483          	lw	s1,332(a5) # 14c <.L13+0x6e>
  b0:	c48d                	beqz	s1,da <.L14>
  b2:	000009b7          	lui	s3,0x0
  b6:	0009a583          	lw	a1,0(s3) # 0 <ht40_scanning_sync_frame>
  ba:	1547a783          	lw	a5,340(a5)
  be:	cc2e                	sw	a1,24(sp)
  c0:	9782                	jalr	a5
  c2:	001cc783          	lbu	a5,1(s9) # 1 <ht40_scanning_sync_frame+0x1>
  c6:	0009a703          	lw	a4,0(s3)
  ca:	45e2                	lw	a1,24(sp)
  cc:	00000637          	lui	a2,0x0
  d0:	86aa                	mv	a3,a0
  d2:	00060613          	mv	a2,a2
  d6:	450d                	li	a0,3
  d8:	9482                	jalr	s1

000000da <.L14>:
  da:	001cc483          	lbu	s1,1(s9)

000000de <.L13>:
  de:	85da                	mv	a1,s6
  e0:	8526                	mv	a0,s1
  e2:	00000097          	auipc	ra,0x0
  e6:	000080e7          	jalr	ra # e2 <.L13+0x4>
  ea:	0ff57993          	zext.b	s3,a0
  ee:	0a098863          	beqz	s3,19e <.L12>
  f2:	8626                	mv	a2,s1
  f4:	4585                	li	a1,1
  f6:	450d                	li	a0,3
  f8:	00000097          	auipc	ra,0x0
  fc:	000080e7          	jalr	ra # f8 <.L13+0x1a>
 100:	000da783          	lw	a5,0(s11) # 0 <ht40_scanning_sync_frame>
 104:	6705                	lui	a4,0x1
 106:	97ba                	add	a5,a5,a4
 108:	a2978b23          	sb	s1,-1482(a5)
 10c:	000007b7          	lui	a5,0x0
 110:	0007a783          	lw	a5,0(a5) # 0 <ht40_scanning_sync_frame>
 114:	4705                	li	a4,1
 116:	00e78023          	sb	a4,0(a5)
 11a:	000d2783          	lw	a5,0(s10)
 11e:	cf85                	beqz	a5,156 <.L15>
 120:	14c7a803          	lw	a6,332(a5)
 124:	ce42                	sw	a6,28(sp)
 126:	02080863          	beqz	a6,156 <.L15>
 12a:	00000737          	lui	a4,0x0
 12e:	00072583          	lw	a1,0(a4) # 0 <ht40_scanning_sync_frame>
 132:	1547a783          	lw	a5,340(a5)
 136:	cc2e                	sw	a1,24(sp)
 138:	9782                	jalr	a5
 13a:	00000737          	lui	a4,0x0
 13e:	00072703          	lw	a4,0(a4) # 0 <ht40_scanning_sync_frame>
 142:	45e2                	lw	a1,24(sp)
 144:	4872                	lw	a6,28(sp)
 146:	00000637          	lui	a2,0x0
 14a:	86aa                	mv	a3,a0
 14c:	87a6                	mv	a5,s1
 14e:	00060613          	mv	a2,a2
 152:	450d                	li	a0,3
 154:	9802                	jalr	a6

00000156 <.L15>:
 156:	000da783          	lw	a5,0(s11)
 15a:	6705                	lui	a4,0x1
 15c:	97ba                	add	a5,a5,a4
 15e:	a367c783          	lbu	a5,-1482(a5)
 162:	cf95                	beqz	a5,19e <.L12>
 164:	000d2783          	lw	a5,0(s10)
 168:	00000537          	lui	a0,0x0
 16c:	00050513          	mv	a0,a0
 170:	0e47a783          	lw	a5,228(a5)
 174:	9782                	jalr	a5
 176:	000007b7          	lui	a5,0x0
 17a:	00078023          	sb	zero,0(a5) # 0 <ht40_scanning_sync_frame>
 17e:	000da783          	lw	a5,0(s11)
 182:	6705                	lui	a4,0x1
 184:	4581                	li	a1,0
 186:	97ba                	add	a5,a5,a4
 188:	a367c503          	lbu	a0,-1482(a5)
 18c:	00000097          	auipc	ra,0x0
 190:	000080e7          	jalr	ra # 18c <.L15+0x36>
 194:	4501                	li	a0,0
 196:	00000097          	auipc	ra,0x0
 19a:	000080e7          	jalr	ra # 196 <.L15+0x40>

0000019e <.L12>:
 19e:	47d2                	lw	a5,20(sp)
 1a0:	01478733          	add	a4,a5,s4
 1a4:	00074783          	lbu	a5,0(a4) # 1000 <.L188+0xa4e>
 1a8:	0785                	add	a5,a5,1
 1aa:	00f70023          	sb	a5,0(a4)
 1ae:	4705                	li	a4,1

000001b0 <.L18>:
 1b0:	197d                	add	s2,s2,-1
 1b2:	57fd                	li	a5,-1
 1b4:	1a61                	add	s4,s4,-8
 1b6:	00f90e63          	beq	s2,a5,1d2 <.L16>

000001ba <.L20>:
 1ba:	00191793          	sll	a5,s2,0x1
 1be:	97a2                	add	a5,a5,s0
 1c0:	46c2                	lw	a3,16(sp)
 1c2:	0007c783          	lbu	a5,0(a5)
 1c6:	97b6                	add	a5,a5,a3
 1c8:	46a2                	lw	a3,8(sp)
 1ca:	97b6                	add	a5,a5,a3
 1cc:	ed8784e3          	beq	a5,s8,94 <.L17>
 1d0:	b7c5                	j	1b0 <.L18>

000001d2 <.L16>:
 1d2:	000b8463          	beqz	s7,1da <.L19>
 1d6:	4b81                	li	s7,0
 1d8:	b565                	j	80 <.L11>

000001da <.L19>:
 1da:	0a098963          	beqz	s3,28c <.L9>
 1de:	00c15783          	lhu	a5,12(sp)
 1e2:	000009b7          	lui	s3,0x0
 1e6:	00098993          	mv	s3,s3
 1ea:	00f78713          	add	a4,a5,15
 1ee:	0742                	sll	a4,a4,0x10
 1f0:	8741                	sra	a4,a4,0x10
 1f2:	0a075d63          	bgez	a4,2ac <.L21>
 1f6:	00e99023          	sh	a4,0(s3) # 0 <ht40_scanning_sync_frame>

000001fa <.L22>:
 1fa:	17c5                	add	a5,a5,-15
 1fc:	07c2                	sll	a5,a5,0x10
 1fe:	000004b7          	lui	s1,0x0
 202:	87c1                	sra	a5,a5,0x10
 204:	f8000713          	li	a4,-128
 208:	00048493          	mv	s1,s1
 20c:	0ae7c363          	blt	a5,a4,2b2 <.L23>
 210:	00f49023          	sh	a5,0(s1) # 0 <ht40_scanning_sync_frame>

00000214 <.L24>:
 214:	000007b7          	lui	a5,0x0
 218:	01678023          	sb	s6,0(a5) # 0 <ht40_scanning_sync_frame>
 21c:	000007b7          	lui	a5,0x0
 220:	0187c703          	lbu	a4,24(a5) # 18 <ht40_scanning_sync_frame+0x18>
 224:	4785                	li	a5,1
 226:	04f71263          	bne	a4,a5,26a <.L25>
 22a:	000007b7          	lui	a5,0x0
 22e:	0007a783          	lw	a5,0(a5) # 0 <ht40_scanning_sync_frame>
 232:	cf85                	beqz	a5,26a <.L25>
 234:	14c7a903          	lw	s2,332(a5)
 238:	02090963          	beqz	s2,26a <.L25>
 23c:	00000a37          	lui	s4,0x0
 240:	000a2583          	lw	a1,0(s4) # 0 <ht40_scanning_sync_frame>
 244:	1547a783          	lw	a5,340(a5)
 248:	c42e                	sw	a1,8(sp)
 24a:	9782                	jalr	a5
 24c:	00099883          	lh	a7,0(s3)
 250:	00049803          	lh	a6,0(s1)
 254:	000a2703          	lw	a4,0(s4)
 258:	45a2                	lw	a1,8(sp)
 25a:	00000637          	lui	a2,0x0
 25e:	86aa                	mv	a3,a0
 260:	87da                	mv	a5,s6
 262:	00060613          	mv	a2,a2
 266:	450d                	li	a0,3
 268:	9902                	jalr	s2

0000026a <.L25>:
 26a:	000007b7          	lui	a5,0x0
 26e:	0007a703          	lw	a4,0(a5) # 0 <ht40_scanning_sync_frame>
 272:	4782                	lw	a5,0(sp)
 274:	0786                	sll	a5,a5,0x1
 276:	943e                	add	s0,s0,a5
 278:	00044783          	lbu	a5,0(s0)
 27c:	00f70aa3          	sb	a5,21(a4)
 280:	4792                	lw	a5,4(sp)
 282:	00000737          	lui	a4,0x0
 286:	0786                	sll	a5,a5,0x1
 288:	00f70023          	sb	a5,0(a4) # 0 <ht40_scanning_sync_frame>

0000028c <.L9>:
 28c:	40f6                	lw	ra,92(sp)
 28e:	4466                	lw	s0,88(sp)
 290:	44d6                	lw	s1,84(sp)
 292:	4946                	lw	s2,80(sp)
 294:	49b6                	lw	s3,76(sp)
 296:	4a26                	lw	s4,72(sp)
 298:	4b06                	lw	s6,64(sp)
 29a:	5bf2                	lw	s7,60(sp)
 29c:	5c62                	lw	s8,56(sp)
 29e:	5cd2                	lw	s9,52(sp)
 2a0:	5d42                	lw	s10,48(sp)
 2a2:	5db2                	lw	s11,44(sp)
 2a4:	8556                	mv	a0,s5
 2a6:	4a96                	lw	s5,68(sp)
 2a8:	6125                	add	sp,sp,96
 2aa:	8082                	ret

000002ac <.L21>:
 2ac:	01299023          	sh	s2,0(s3)
 2b0:	b7a9                	j	1fa <.L22>

000002b2 <.L23>:
 2b2:	00e49023          	sh	a4,0(s1)
 2b6:	bfb9                	j	214 <.L24>

Disassembly of section .text.sc_ht40_get_qos_auth_group_info:

00000000 <sc_ht40_get_qos_auth_group_info>:
   0:	715d                	add	sp,sp,-80
   2:	de4e                	sw	s3,60(sp)
   4:	000009b7          	lui	s3,0x0
   8:	0009a783          	lw	a5,0(s3) # 0 <sc_ht40_get_qos_auth_group_info>
   c:	c686                	sw	ra,76(sp)
   e:	c4a2                	sw	s0,72(sp)
  10:	c2a6                	sw	s1,68(sp)
  12:	c0ca                	sw	s2,64(sp)
  14:	dc52                	sw	s4,56(sp)
  16:	da56                	sw	s5,52(sp)
  18:	d85a                	sw	s6,48(sp)
  1a:	d65e                	sw	s7,44(sp)
  1c:	d462                	sw	s8,40(sp)
  1e:	d266                	sw	s9,36(sp)
  20:	d06a                	sw	s10,32(sp)
  22:	0147c703          	lbu	a4,20(a5)
  26:	478d                	li	a5,3
  28:	1cf71763          	bne	a4,a5,1f6 <.L59>
  2c:	00000a37          	lui	s4,0x0
  30:	000a4783          	lbu	a5,0(s4) # 0 <sc_ht40_get_qos_auth_group_info>
  34:	000a0a13          	mv	s4,s4
  38:	1a079f63          	bnez	a5,1f6 <.L59>
  3c:	892a                	mv	s2,a0
  3e:	00000537          	lui	a0,0x0
  42:	8b2e                	mv	s6,a1
  44:	4691                	li	a3,4
  46:	4c01                	li	s8,0
  48:	4b81                	li	s7,0
  4a:	4481                	li	s1,0
  4c:	4401                	li	s0,0
  4e:	4881                	li	a7,0
  50:	00050513          	mv	a0,a0
  54:	5e71                	li	t3,-4

00000056 <.L61>:
  56:	00369813          	sll	a6,a3,0x3
  5a:	02080793          	add	a5,a6,32
  5e:	a03d                	j	8c <.L67>

00000060 <.L64>:
  60:	00e50333          	add	t1,a0,a4
  64:	00034303          	lbu	t1,0(t1)
  68:	00030d63          	beqz	t1,82 <.L62>
  6c:	961a                	add	a2,a2,t1
  6e:	00c8d463          	bge	a7,a2,76 <.L63>
  72:	843a                	mv	s0,a4
  74:	88b2                	mv	a7,a2

00000076 <.L63>:
  76:	0585                	add	a1,a1,1
  78:	0095c563          	blt	a1,s1,82 <.L62>
  7c:	8c26                	mv	s8,s1
  7e:	8bba                	mv	s7,a4
  80:	84ae                	mv	s1,a1

00000082 <.L62>:
  82:	0705                	add	a4,a4,1
  84:	fdd71ee3          	bne	a4,t4,60 <.L64>
  88:	00f80863          	beq	a6,a5,98 <.L65>

0000008c <.L67>:
  8c:	8ebe                	mv	t4,a5
  8e:	17e1                	add	a5,a5,-8
  90:	873e                	mv	a4,a5
  92:	4581                	li	a1,0
  94:	4601                	li	a2,0
  96:	b7e9                	j	60 <.L64>

00000098 <.L65>:
  98:	16f1                	add	a3,a3,-4
  9a:	fbc69ee3          	bne	a3,t3,56 <.L61>
  9e:	00000ab7          	lui	s5,0x0
  a2:	000a8793          	mv	a5,s5
  a6:	0187c703          	lbu	a4,24(a5)
  aa:	4785                	li	a5,1
  ac:	000a8a93          	mv	s5,s5
  b0:	04f71363          	bne	a4,a5,f6 <.L68>
  b4:	000007b7          	lui	a5,0x0
  b8:	0007a783          	lw	a5,0(a5) # 0 <sc_ht40_get_qos_auth_group_info>
  bc:	ce46                	sw	a7,28(sp)
  be:	cf85                	beqz	a5,f6 <.L68>
  c0:	14c7ac83          	lw	s9,332(a5)
  c4:	020c8963          	beqz	s9,f6 <.L68>
  c8:	00000d37          	lui	s10,0x0
  cc:	000d2583          	lw	a1,0(s10) # 0 <sc_ht40_get_qos_auth_group_info>
  d0:	1547a783          	lw	a5,340(a5)
  d4:	cc2e                	sw	a1,24(sp)
  d6:	9782                	jalr	a5
  d8:	48f2                	lw	a7,28(sp)
  da:	000d2703          	lw	a4,0(s10)
  de:	45e2                	lw	a1,24(sp)
  e0:	00000637          	lui	a2,0x0
  e4:	86aa                	mv	a3,a0
  e6:	c25e                	sw	s7,4(sp)
  e8:	c022                	sw	s0,0(sp)
  ea:	8862                	mv	a6,s8
  ec:	87a6                	mv	a5,s1
  ee:	00060613          	mv	a2,a2
  f2:	450d                	li	a0,3
  f4:	9c82                	jalr	s9

000000f6 <.L68>:
  f6:	109c5063          	bge	s8,s1,1f6 <.L59>
  fa:	0f741e63          	bne	s0,s7,1f6 <.L59>
  fe:	40545b93          	sra	s7,s0,0x5
 102:	001b9713          	sll	a4,s7,0x1
 106:	840d                	sra	s0,s0,0x3
 108:	0ff77713          	zext.b	a4,a4
 10c:	000007b7          	lui	a5,0x0
 110:	00347c13          	and	s8,s0,3
 114:	00e78023          	sb	a4,0(a5) # 0 <sc_ht40_get_qos_auth_group_info>
 118:	000007b7          	lui	a5,0x0
 11c:	001c1693          	sll	a3,s8,0x1
 120:	00078793          	mv	a5,a5
 124:	97b6                	add	a5,a5,a3
 126:	0007c483          	lbu	s1,0(a5) # 0 <sc_ht40_get_qos_auth_group_info>
 12a:	0009a783          	lw	a5,0(s3)
 12e:	8462                	mv	s0,s8
 130:	00978aa3          	sb	s1,21(a5)
 134:	94ba                	add	s1,s1,a4
 136:	409904b3          	sub	s1,s2,s1
 13a:	01049913          	sll	s2,s1,0x10
 13e:	01095913          	srl	s2,s2,0x10
 142:	854a                	mv	a0,s2
 144:	00000097          	auipc	ra,0x0
 148:	000080e7          	jalr	ra # 144 <.L68+0x4e>
 14c:	cd59                	beqz	a0,1ea <.L69>

0000014e <.L71>:
 14e:	854a                	mv	a0,s2
 150:	00000097          	auipc	ra,0x0
 154:	000080e7          	jalr	ra # 150 <.L71+0x2>
 158:	0009a783          	lw	a5,0(s3)
 15c:	03200713          	li	a4,50
 160:	892a                	mv	s2,a0
 162:	00e78da3          	sb	a4,27(a5)
 166:	00a78b23          	sb	a0,22(a5)
 16a:	00a78ba3          	sb	a0,23(a5)
 16e:	00000097          	auipc	ra,0x0
 172:	000080e7          	jalr	ra # 16e <.L71+0x20>
 176:	000007b7          	lui	a5,0x0
 17a:	00a7a023          	sw	a0,0(a5) # 0 <sc_ht40_get_qos_auth_group_info>
 17e:	4795                	li	a5,5
 180:	00fa0023          	sb	a5,0(s4)
 184:	0009a783          	lw	a5,0(s3)
 188:	6705                	lui	a4,0x1
 18a:	97ba                	add	a5,a5,a4
 18c:	018ac703          	lbu	a4,24(s5) # 18 <sc_ht40_get_qos_auth_group_info+0x18>
 190:	ae8786a3          	sb	s0,-1299(a5)
 194:	000007b7          	lui	a5,0x0
 198:	01678023          	sb	s6,0(a5) # 0 <sc_ht40_get_qos_auth_group_info>
 19c:	4785                	li	a5,1
 19e:	04f71c63          	bne	a4,a5,1f6 <.L59>
 1a2:	000007b7          	lui	a5,0x0
 1a6:	0007a783          	lw	a5,0(a5) # 0 <sc_ht40_get_qos_auth_group_info>
 1aa:	c7b1                	beqz	a5,1f6 <.L59>
 1ac:	14c7a403          	lw	s0,332(a5)
 1b0:	c039                	beqz	s0,1f6 <.L59>
 1b2:	00000a37          	lui	s4,0x0
 1b6:	000a2583          	lw	a1,0(s4) # 0 <sc_ht40_get_qos_auth_group_info>
 1ba:	1547a783          	lw	a5,340(a5)
 1be:	cc2e                	sw	a1,24(sp)
 1c0:	9782                	jalr	a5
 1c2:	0009a783          	lw	a5,0(s3)
 1c6:	000a2703          	lw	a4,0(s4)
 1ca:	45e2                	lw	a1,24(sp)
 1cc:	0157c783          	lbu	a5,21(a5)
 1d0:	00000637          	lui	a2,0x0
 1d4:	86aa                	mv	a3,a0
 1d6:	c23e                	sw	a5,4(sp)
 1d8:	c04a                	sw	s2,0(sp)
 1da:	88e2                	mv	a7,s8
 1dc:	885e                	mv	a6,s7
 1de:	87a6                	mv	a5,s1
 1e0:	00060613          	mv	a2,a2
 1e4:	450d                	li	a0,3
 1e6:	9402                	jalr	s0
 1e8:	a039                	j	1f6 <.L59>

000001ea <.L69>:
 1ea:	854a                	mv	a0,s2
 1ec:	00000097          	auipc	ra,0x0
 1f0:	000080e7          	jalr	ra # 1ec <.L69+0x2>
 1f4:	fd29                	bnez	a0,14e <.L71>

000001f6 <.L59>:
 1f6:	40b6                	lw	ra,76(sp)
 1f8:	4426                	lw	s0,72(sp)
 1fa:	4496                	lw	s1,68(sp)
 1fc:	4906                	lw	s2,64(sp)
 1fe:	59f2                	lw	s3,60(sp)
 200:	5a62                	lw	s4,56(sp)
 202:	5ad2                	lw	s5,52(sp)
 204:	5b42                	lw	s6,48(sp)
 206:	5bb2                	lw	s7,44(sp)
 208:	5c22                	lw	s8,40(sp)
 20a:	5c92                	lw	s9,36(sp)
 20c:	5d02                	lw	s10,32(sp)
 20e:	4501                	li	a0,0
 210:	6161                	add	sp,sp,80
 212:	8082                	ret

Disassembly of section .text.sc_recv_callback_ht40_ctrl:

00000000 <sc_recv_callback_ht40_ctrl>:
   0:	715d                	add	sp,sp,-80
   2:	c4a2                	sw	s0,72(sp)
   4:	c2a6                	sw	s1,68(sp)
   6:	de4e                	sw	s3,60(sp)
   8:	dc52                	sw	s4,56(sp)
   a:	da56                	sw	s5,52(sp)
   c:	d85a                	sw	s6,48(sp)
   e:	000009b7          	lui	s3,0x0
  12:	c686                	sw	ra,76(sp)
  14:	c0ca                	sw	s2,64(sp)
  16:	d65e                	sw	s7,44(sp)
  18:	d462                	sw	s8,40(sp)
  1a:	d266                	sw	s9,36(sp)
  1c:	8aaa                	mv	s5,a0
  1e:	842e                	mv	s0,a1
  20:	84b2                	mv	s1,a2
  22:	8b36                	mv	s6,a3
  24:	00000097          	auipc	ra,0x0
  28:	000080e7          	jalr	ra # 24 <sc_recv_callback_ht40_ctrl+0x24>
  2c:	00098793          	mv	a5,s3
  30:	4398                	lw	a4,0(a5)
  32:	8a2a                	mv	s4,a0
  34:	00098993          	mv	s3,s3
  38:	e725                	bnez	a4,a0 <.L90>
  3a:	43d8                	lw	a4,4(a5)
  3c:	4785                	li	a5,1
  3e:	06f70163          	beq	a4,a5,a0 <.L90>
  42:	00000737          	lui	a4,0x0
  46:	01874703          	lbu	a4,24(a4) # 18 <sc_recv_callback_ht40_ctrl+0x18>
  4a:	02f70063          	beq	a4,a5,6a <.L91>

0000004e <.L191>:
  4e:	4501                	li	a0,0

00000050 <.L89>:
  50:	40b6                	lw	ra,76(sp)
  52:	4426                	lw	s0,72(sp)
  54:	4496                	lw	s1,68(sp)
  56:	4906                	lw	s2,64(sp)
  58:	59f2                	lw	s3,60(sp)
  5a:	5a62                	lw	s4,56(sp)
  5c:	5ad2                	lw	s5,52(sp)
  5e:	5b42                	lw	s6,48(sp)
  60:	5bb2                	lw	s7,44(sp)
  62:	5c22                	lw	s8,40(sp)
  64:	5c92                	lw	s9,36(sp)
  66:	6161                	add	sp,sp,80
  68:	8082                	ret

0000006a <.L91>:
  6a:	000007b7          	lui	a5,0x0
  6e:	0007a783          	lw	a5,0(a5) # 0 <sc_recv_callback_ht40_ctrl>
  72:	dff1                	beqz	a5,4e <.L191>
  74:	14c7a403          	lw	s0,332(a5)
  78:	d879                	beqz	s0,4e <.L191>
  7a:	000004b7          	lui	s1,0x0
  7e:	0004a583          	lw	a1,0(s1) # 0 <sc_recv_callback_ht40_ctrl>
  82:	1547a783          	lw	a5,340(a5)
  86:	cc2e                	sw	a1,24(sp)
  88:	9782                	jalr	a5
  8a:	0004a703          	lw	a4,0(s1)
  8e:	45e2                	lw	a1,24(sp)
  90:	00000637          	lui	a2,0x0
  94:	86aa                	mv	a3,a0
  96:	00060613          	mv	a2,a2
  9a:	4509                	li	a0,2

0000009c <.L192>:
  9c:	9402                	jalr	s0
  9e:	bf45                	j	4e <.L191>

000000a0 <.L90>:
  a0:	47e1                	li	a5,24
  a2:	fa97f6e3          	bgeu	a5,s1,4e <.L191>
  a6:	14a1                	add	s1,s1,-24
  a8:	01049b93          	sll	s7,s1,0x10
  ac:	010bdb93          	srl	s7,s7,0x10
  b0:	86da                	mv	a3,s6
  b2:	865e                	mv	a2,s7
  b4:	85a2                	mv	a1,s0
  b6:	8556                	mv	a0,s5
  b8:	00000937          	lui	s2,0x0
  bc:	00000097          	auipc	ra,0x0
  c0:	000080e7          	jalr	ra # bc <.L90+0x1c>
  c4:	00090913          	mv	s2,s2
  c8:	0c054863          	bltz	a0,198 <.L94>
  cc:	85d6                	mv	a1,s5
  ce:	855e                	mv	a0,s7
  d0:	00000097          	auipc	ra,0x0
  d4:	000080e7          	jalr	ra # d0 <.L90+0x30>
  d8:	00094703          	lbu	a4,0(s2) # 0 <sc_recv_callback_ht40_ctrl>
  dc:	4795                	li	a5,5
  de:	4515                	li	a0,5
  e0:	f6f718e3          	bne	a4,a5,50 <.L89>
  e4:	000007b7          	lui	a5,0x0
  e8:	00078793          	mv	a5,a5
  ec:	470d                	li	a4,3
  ee:	cbd8                	sw	a4,20(a5)
  f0:	00000437          	lui	s0,0x0
  f4:	4705                	li	a4,1
  f6:	00e78ca3          	sb	a4,25(a5) # 19 <sc_recv_callback_ht40_ctrl+0x19>
  fa:	00042783          	lw	a5,0(s0) # 0 <sc_recv_callback_ht40_ctrl>
  fe:	c795                	beqz	a5,12a <.L95>
 100:	14c7a483          	lw	s1,332(a5)
 104:	c09d                	beqz	s1,12a <.L95>
 106:	00000937          	lui	s2,0x0
 10a:	00092583          	lw	a1,0(s2) # 0 <sc_recv_callback_ht40_ctrl>
 10e:	1547a783          	lw	a5,340(a5)
 112:	cc2e                	sw	a1,24(sp)
 114:	9782                	jalr	a5
 116:	00092703          	lw	a4,0(s2)
 11a:	45e2                	lw	a1,24(sp)
 11c:	00000637          	lui	a2,0x0
 120:	86aa                	mv	a3,a0
 122:	00060613          	mv	a2,a2
 126:	450d                	li	a0,3
 128:	9482                	jalr	s1

0000012a <.L95>:
 12a:	00042783          	lw	a5,0(s0)
 12e:	000004b7          	lui	s1,0x0
 132:	00048513          	mv	a0,s1
 136:	0e47a783          	lw	a5,228(a5)
 13a:	9782                	jalr	a5
 13c:	00042783          	lw	a5,0(s0)
 140:	000005b7          	lui	a1,0x0
 144:	4601                	li	a2,0
 146:	0ec7a783          	lw	a5,236(a5)
 14a:	00058593          	mv	a1,a1
 14e:	00048513          	mv	a0,s1
 152:	9782                	jalr	a5
 154:	000007b7          	lui	a5,0x0
 158:	0007c583          	lbu	a1,0(a5) # 0 <sc_recv_callback_ht40_ctrl>
 15c:	3e800713          	li	a4,1000
 160:	00042783          	lw	a5,0(s0)
 164:	02e585b3          	mul	a1,a1,a4
 168:	4601                	li	a2,0
 16a:	0e07a783          	lw	a5,224(a5)
 16e:	00048513          	mv	a0,s1
 172:	9782                	jalr	a5
 174:	00042783          	lw	a5,0(s0)
 178:	00000537          	lui	a0,0x0
 17c:	00052503          	lw	a0,0(a0) # 0 <sc_recv_callback_ht40_ctrl>
 180:	0b47a783          	lw	a5,180(a5)
 184:	577d                	li	a4,-1
 186:	4681                	li	a3,0
 188:	4601                	li	a2,0
 18a:	4585                	li	a1,1
 18c:	9782                	jalr	a5
 18e:	4785                	li	a5,1
 190:	00f9a223          	sw	a5,4(s3) # 4 <sc_recv_callback_ht40_ctrl+0x4>
 194:	4515                	li	a0,5
 196:	bd6d                	j	50 <.L89>

00000198 <.L94>:
 198:	00094703          	lbu	a4,0(s2)
 19c:	4795                	li	a5,5
 19e:	eaf718e3          	bne	a4,a5,4e <.L191>
 1a2:	00000737          	lui	a4,0x0
 1a6:	00071703          	lh	a4,0(a4) # 0 <sc_recv_callback_ht40_ctrl>
 1aa:	01041793          	sll	a5,s0,0x10
 1ae:	87c1                	sra	a5,a5,0x10
 1b0:	04874b63          	blt	a4,s0,206 <.L96>
 1b4:	00000737          	lui	a4,0x0
 1b8:	00071703          	lh	a4,0(a4) # 0 <sc_recv_callback_ht40_ctrl>
 1bc:	04e7c563          	blt	a5,a4,206 <.L96>
 1c0:	000007b7          	lui	a5,0x0
 1c4:	0187c703          	lbu	a4,24(a5) # 18 <sc_recv_callback_ht40_ctrl+0x18>
 1c8:	4785                	li	a5,1
 1ca:	e8f712e3          	bne	a4,a5,4e <.L191>
 1ce:	000007b7          	lui	a5,0x0
 1d2:	0007a783          	lw	a5,0(a5) # 0 <sc_recv_callback_ht40_ctrl>
 1d6:	e6078ce3          	beqz	a5,4e <.L191>
 1da:	14c7a403          	lw	s0,332(a5)
 1de:	e60408e3          	beqz	s0,4e <.L191>
 1e2:	000004b7          	lui	s1,0x0
 1e6:	0004a583          	lw	a1,0(s1) # 0 <sc_recv_callback_ht40_ctrl>
 1ea:	1547a783          	lw	a5,340(a5)
 1ee:	cc2e                	sw	a1,24(sp)
 1f0:	9782                	jalr	a5
 1f2:	0004a703          	lw	a4,0(s1)
 1f6:	00000637          	lui	a2,0x0
 1fa:	86aa                	mv	a3,a0
 1fc:	00060613          	mv	a2,a2

00000200 <.L193>:
 200:	45e2                	lw	a1,24(sp)
 202:	450d                	li	a0,3
 204:	bd61                	j	9c <.L192>

00000206 <.L96>:
 206:	00000437          	lui	s0,0x0
 20a:	00040413          	mv	s0,s0
 20e:	00044783          	lbu	a5,0(s0) # 0 <sc_recv_callback_ht40_ctrl>
 212:	05578963          	beq	a5,s5,264 <.L97>
 216:	000007b7          	lui	a5,0x0
 21a:	0187c703          	lbu	a4,24(a5) # 18 <sc_recv_callback_ht40_ctrl+0x18>
 21e:	4785                	li	a5,1
 220:	e2f717e3          	bne	a4,a5,4e <.L191>
 224:	000007b7          	lui	a5,0x0
 228:	0007a783          	lw	a5,0(a5) # 0 <sc_recv_callback_ht40_ctrl>
 22c:	e20781e3          	beqz	a5,4e <.L191>
 230:	14c7a483          	lw	s1,332(a5)
 234:	e0048de3          	beqz	s1,4e <.L191>
 238:	00000937          	lui	s2,0x0
 23c:	00092583          	lw	a1,0(s2) # 0 <sc_recv_callback_ht40_ctrl>
 240:	1547a783          	lw	a5,340(a5)
 244:	cc2e                	sw	a1,24(sp)
 246:	9782                	jalr	a5
 248:	00044803          	lbu	a6,0(s0)
 24c:	00092703          	lw	a4,0(s2)
 250:	45e2                	lw	a1,24(sp)
 252:	00000637          	lui	a2,0x0
 256:	86aa                	mv	a3,a0
 258:	87d6                	mv	a5,s5
 25a:	00060613          	mv	a2,a2
 25e:	450d                	li	a0,3
 260:	9482                	jalr	s1
 262:	b3f5                	j	4e <.L191>

00000264 <.L97>:
 264:	00000937          	lui	s2,0x0
 268:	00092783          	lw	a5,0(s2) # 0 <sc_recv_callback_ht40_ctrl>
 26c:	00000737          	lui	a4,0x0
 270:	00074703          	lbu	a4,0(a4) # 0 <sc_recv_callback_ht40_ctrl>
 274:	0157c783          	lbu	a5,21(a5)
 278:	97ba                	add	a5,a5,a4
 27a:	0577c363          	blt	a5,s7,2c0 <.L98>
 27e:	000007b7          	lui	a5,0x0
 282:	0187c703          	lbu	a4,24(a5) # 18 <sc_recv_callback_ht40_ctrl+0x18>
 286:	4785                	li	a5,1
 288:	dcf713e3          	bne	a4,a5,4e <.L191>
 28c:	000007b7          	lui	a5,0x0
 290:	0007a783          	lw	a5,0(a5) # 0 <sc_recv_callback_ht40_ctrl>
 294:	da078de3          	beqz	a5,4e <.L191>
 298:	14c7a403          	lw	s0,332(a5)
 29c:	da0409e3          	beqz	s0,4e <.L191>
 2a0:	000004b7          	lui	s1,0x0
 2a4:	0004a583          	lw	a1,0(s1) # 0 <sc_recv_callback_ht40_ctrl>
 2a8:	1547a783          	lw	a5,340(a5)
 2ac:	cc2e                	sw	a1,24(sp)
 2ae:	9782                	jalr	a5
 2b0:	00000637          	lui	a2,0x0
 2b4:	0004a703          	lw	a4,0(s1)
 2b8:	86aa                	mv	a3,a0
 2ba:	00060613          	mv	a2,a2
 2be:	b789                	j	200 <.L193>

000002c0 <.L98>:
 2c0:	8c9d                	sub	s1,s1,a5
 2c2:	04c2                	sll	s1,s1,0x10
 2c4:	80c1                	srl	s1,s1,0x10
 2c6:	8526                	mv	a0,s1
 2c8:	00000097          	auipc	ra,0x0
 2cc:	000080e7          	jalr	ra # 2c8 <.L98+0x8>
 2d0:	22050c63          	beqz	a0,508 <.L99>
 2d4:	8526                	mv	a0,s1
 2d6:	00000097          	auipc	ra,0x0
 2da:	000080e7          	jalr	ra # 2d6 <.L98+0x16>
 2de:	00000ab7          	lui	s5,0x0
 2e2:	000a8793          	mv	a5,s5
 2e6:	439c                	lw	a5,0(a5)
 2e8:	00092683          	lw	a3,0(s2)
 2ec:	19000713          	li	a4,400
 2f0:	40fa07b3          	sub	a5,s4,a5
 2f4:	0166c983          	lbu	s3,22(a3)
 2f8:	882a                	mv	a6,a0
 2fa:	000a8a93          	mv	s5,s5
 2fe:	d4f768e3          	bltu	a4,a5,4e <.L191>
 302:	0176c403          	lbu	s0,23(a3)
 306:	99aa                	add	s3,s3,a0
 308:	01099b93          	sll	s7,s3,0x10
 30c:	01041793          	sll	a5,s0,0x10
 310:	00000737          	lui	a4,0x0
 314:	010bdb93          	srl	s7,s7,0x10
 318:	01874703          	lbu	a4,24(a4) # 18 <sc_recv_callback_ht40_ctrl+0x18>
 31c:	83c1                	srl	a5,a5,0x10
 31e:	048bf763          	bgeu	s7,s0,36c <.L100>

00000322 <.L200>:
 322:	4785                	li	a5,1
 324:	d2f715e3          	bne	a4,a5,4e <.L191>
 328:	000007b7          	lui	a5,0x0
 32c:	0007a783          	lw	a5,0(a5) # 0 <sc_recv_callback_ht40_ctrl>
 330:	d0078fe3          	beqz	a5,4e <.L191>
 334:	14c7a403          	lw	s0,332(a5)
 338:	d0040be3          	beqz	s0,4e <.L191>
 33c:	000004b7          	lui	s1,0x0
 340:	0004a583          	lw	a1,0(s1) # 0 <sc_recv_callback_ht40_ctrl>
 344:	1547a783          	lw	a5,340(a5)
 348:	cc2e                	sw	a1,24(sp)
 34a:	9782                	jalr	a5
 34c:	00092783          	lw	a5,0(s2)
 350:	0004a703          	lw	a4,0(s1)
 354:	45e2                	lw	a1,24(sp)
 356:	0177c783          	lbu	a5,23(a5)
 35a:	00000637          	lui	a2,0x0
 35e:	86aa                	mv	a3,a0
 360:	885e                	mv	a6,s7
 362:	00060613          	mv	a2,a2
 366:	450d                	li	a0,3
 368:	9402                	jalr	s0
 36a:	b1d5                	j	4e <.L191>

0000036c <.L100>:
 36c:	07779b63          	bne	a5,s7,3e2 <.L101>
 370:	14040793          	add	a5,s0,320
 374:	078a                	sll	a5,a5,0x2
 376:	97b6                	add	a5,a5,a3
 378:	0087d783          	lhu	a5,8(a5)
 37c:	06978363          	beq	a5,s1,3e2 <.L101>
 380:	4785                	li	a5,1
 382:	04f71563          	bne	a4,a5,3cc <.L102>
 386:	000007b7          	lui	a5,0x0
 38a:	0007a783          	lw	a5,0(a5) # 0 <sc_recv_callback_ht40_ctrl>
 38e:	cf9d                	beqz	a5,3cc <.L102>
 390:	14c7a403          	lw	s0,332(a5)
 394:	cc05                	beqz	s0,3cc <.L102>
 396:	000009b7          	lui	s3,0x0
 39a:	0009a583          	lw	a1,0(s3) # 0 <sc_recv_callback_ht40_ctrl>
 39e:	1547a783          	lw	a5,340(a5)
 3a2:	cc2e                	sw	a1,24(sp)
 3a4:	9782                	jalr	a5
 3a6:	00092783          	lw	a5,0(s2)
 3aa:	140b8713          	add	a4,s7,320
 3ae:	070a                	sll	a4,a4,0x2
 3b0:	97ba                	add	a5,a5,a4
 3b2:	0087d783          	lhu	a5,8(a5)
 3b6:	0009a703          	lw	a4,0(s3)
 3ba:	45e2                	lw	a1,24(sp)
 3bc:	00000637          	lui	a2,0x0
 3c0:	86aa                	mv	a3,a0
 3c2:	8826                	mv	a6,s1
 3c4:	00060613          	mv	a2,a2
 3c8:	450d                	li	a0,3
 3ca:	9402                	jalr	s0

000003cc <.L102>:
 3cc:	00092783          	lw	a5,0(s2)
 3d0:	002b9813          	sll	a6,s7,0x2
 3d4:	983e                	add	a6,a6,a5
 3d6:	50a84783          	lbu	a5,1290(a6)
 3da:	17fd                	add	a5,a5,-1
 3dc:	50f80523          	sb	a5,1290(a6)
 3e0:	b1bd                	j	4e <.L191>

000003e2 <.L101>:
 3e2:	00440793          	add	a5,s0,4
 3e6:	f377cee3          	blt	a5,s7,322 <.L200>
 3ea:	01b6c783          	lbu	a5,27(a3)
 3ee:	0ff9f993          	zext.b	s3,s3
 3f2:	943e                	add	s0,s0,a5
 3f4:	0405                	add	s0,s0,1
 3f6:	41340433          	sub	s0,s0,s3
 3fa:	0ff47413          	zext.b	s0,s0
 3fe:	00868da3          	sb	s0,27(a3)
 402:	4785                	li	a5,1
 404:	04f71663          	bne	a4,a5,450 <.L104>
 408:	000007b7          	lui	a5,0x0
 40c:	0007a783          	lw	a5,0(a5) # 0 <sc_recv_callback_ht40_ctrl>
 410:	ce42                	sw	a6,28(sp)
 412:	cf9d                	beqz	a5,450 <.L104>
 414:	14c7ac03          	lw	s8,332(a5)
 418:	020c0c63          	beqz	s8,450 <.L104>
 41c:	00000cb7          	lui	s9,0x0
 420:	000ca583          	lw	a1,0(s9) # 0 <sc_recv_callback_ht40_ctrl>
 424:	1547a783          	lw	a5,340(a5)
 428:	cc2e                	sw	a1,24(sp)
 42a:	9782                	jalr	a5
 42c:	00092783          	lw	a5,0(s2)
 430:	4872                	lw	a6,28(sp)
 432:	000ca703          	lw	a4,0(s9)
 436:	0167c783          	lbu	a5,22(a5)
 43a:	45e2                	lw	a1,24(sp)
 43c:	00000637          	lui	a2,0x0
 440:	86aa                	mv	a3,a0
 442:	c026                	sw	s1,0(sp)
 444:	88a2                	mv	a7,s0
 446:	838d                	srl	a5,a5,0x3
 448:	00060613          	mv	a2,a2
 44c:	450d                	li	a0,3
 44e:	9c02                	jalr	s8

00000450 <.L104>:
 450:	00092503          	lw	a0,0(s2)
 454:	142b8c13          	add	s8,s7,322
 458:	0c0a                	sll	s8,s8,0x2
 45a:	8726                	mv	a4,s1
 45c:	4685                	li	a3,1
 45e:	4601                	li	a2,0
 460:	4581                	li	a1,0
 462:	9562                	add	a0,a0,s8
 464:	00000097          	auipc	ra,0x0
 468:	000080e7          	jalr	ra # 464 <.L104+0x14>
 46c:	00092783          	lw	a5,0(s2)
 470:	002b9813          	sll	a6,s7,0x2
 474:	983e                	add	a6,a6,a5
 476:	50a84703          	lbu	a4,1290(a6)
 47a:	06877a63          	bgeu	a4,s0,4ee <.L105>
 47e:	50880523          	sb	s0,1290(a6)
 482:	cd11                	beqz	a0,49e <.L107>
 484:	4705                	li	a4,1
 486:	00e78d23          	sb	a4,26(a5)
 48a:	4685                	li	a3,1
 48c:	8726                	mv	a4,s1
 48e:	4601                	li	a2,0
 490:	4581                	li	a1,0
 492:	01878533          	add	a0,a5,s8
 496:	00000097          	auipc	ra,0x0
 49a:	000080e7          	jalr	ra # 496 <.L104+0x46>

0000049e <.L107>:
 49e:	00092783          	lw	a5,0(s2)
 4a2:	0187c683          	lbu	a3,24(a5)
 4a6:	01378ba3          	sb	s3,23(a5)
 4aa:	8736                	mv	a4,a3
 4ac:	0136f363          	bgeu	a3,s3,4b2 <.L110>
 4b0:	874e                	mv	a4,s3

000004b2 <.L110>:
 4b2:	00e78c23          	sb	a4,24(a5)
 4b6:	01a7c783          	lbu	a5,26(a5)
 4ba:	c3b9                	beqz	a5,500 <.L111>
 4bc:	4505                	li	a0,1
 4be:	00000097          	auipc	ra,0x0
 4c2:	000080e7          	jalr	ra # 4be <.L110+0xc>
 4c6:	cd0d                	beqz	a0,500 <.L111>
 4c8:	00092783          	lw	a5,0(s2)
 4cc:	4505                	li	a0,1
 4ce:	00078d23          	sb	zero,26(a5)
 4d2:	00000097          	auipc	ra,0x0
 4d6:	000080e7          	jalr	ra # 4d2 <.L110+0x20>
 4da:	e11d                	bnez	a0,500 <.L111>
 4dc:	451d                	li	a0,7
 4de:	865a                	mv	a2,s6
 4e0:	4585                	li	a1,1
 4e2:	00000097          	auipc	ra,0x0
 4e6:	000080e7          	jalr	ra # 4e2 <.L110+0x30>
 4ea:	4519                	li	a0,6
 4ec:	b695                	j	50 <.L89>

000004ee <.L105>:
 4ee:	fa8718e3          	bne	a4,s0,49e <.L107>
 4f2:	e509                	bnez	a0,4fc <.L109>
 4f4:	0405                	add	s0,s0,1

000004f6 <.L190>:
 4f6:	50880523          	sb	s0,1290(a6)
 4fa:	b755                	j	49e <.L107>

000004fc <.L109>:
 4fc:	147d                	add	s0,s0,-1
 4fe:	bfe5                	j	4f6 <.L190>

00000500 <.L111>:
 500:	014aa023          	sw	s4,0(s5) # 0 <sc_recv_callback_ht40_ctrl>
 504:	4511                	li	a0,4
 506:	b6a9                	j	50 <.L89>

00000508 <.L99>:
 508:	8526                	mv	a0,s1
 50a:	00000097          	auipc	ra,0x0
 50e:	000080e7          	jalr	ra # 50a <.L99+0x2>
 512:	c949                	beqz	a0,5a4 <.L112>

00000514 <.L115>:
 514:	8526                	mv	a0,s1
 516:	00000097          	auipc	ra,0x0
 51a:	000080e7          	jalr	ra # 516 <.L115+0x2>
 51e:	87aa                	mv	a5,a0
 520:	e949                	bnez	a0,5b2 <.L188>

00000522 <.L113>:
 522:	00092683          	lw	a3,0(s2)
 526:	03200713          	li	a4,50
 52a:	00e68da3          	sb	a4,27(a3)
 52e:	0176c703          	lbu	a4,23(a3)
 532:	00f68b23          	sb	a5,22(a3)
 536:	00170613          	add	a2,a4,1
 53a:	00f61963          	bne	a2,a5,54c <.L116>
 53e:	070a                	sll	a4,a4,0x2
 540:	9736                	add	a4,a4,a3
 542:	50a74603          	lbu	a2,1290(a4)
 546:	0605                	add	a2,a2,1 # 1 <sc_recv_callback_ht40_ctrl+0x1>
 548:	50c70523          	sb	a2,1290(a4)

0000054c <.L116>:
 54c:	00000737          	lui	a4,0x0
 550:	00f68ba3          	sb	a5,23(a3)
 554:	01874683          	lbu	a3,24(a4) # 18 <sc_recv_callback_ht40_ctrl+0x18>
 558:	4705                	li	a4,1
 55a:	02e69f63          	bne	a3,a4,598 <.L117>
 55e:	00000737          	lui	a4,0x0
 562:	00072703          	lw	a4,0(a4) # 0 <sc_recv_callback_ht40_ctrl>
 566:	ce3e                	sw	a5,28(sp)
 568:	cb05                	beqz	a4,598 <.L117>
 56a:	14c72403          	lw	s0,332(a4)
 56e:	c40d                	beqz	s0,598 <.L117>
 570:	00000937          	lui	s2,0x0
 574:	00092583          	lw	a1,0(s2) # 0 <sc_recv_callback_ht40_ctrl>
 578:	15472703          	lw	a4,340(a4)
 57c:	cc2e                	sw	a1,24(sp)
 57e:	9702                	jalr	a4
 580:	47f2                	lw	a5,28(sp)
 582:	00092703          	lw	a4,0(s2)
 586:	45e2                	lw	a1,24(sp)
 588:	00000637          	lui	a2,0x0
 58c:	86aa                	mv	a3,a0
 58e:	8826                	mv	a6,s1
 590:	00060613          	mv	a2,a2
 594:	450d                	li	a0,3
 596:	9402                	jalr	s0

00000598 <.L117>:
 598:	000007b7          	lui	a5,0x0
 59c:	0147a023          	sw	s4,0(a5) # 0 <sc_recv_callback_ht40_ctrl>
 5a0:	450d                	li	a0,3
 5a2:	b47d                	j	50 <.L89>

000005a4 <.L112>:
 5a4:	8526                	mv	a0,s1
 5a6:	00000097          	auipc	ra,0x0
 5aa:	000080e7          	jalr	ra # 5a6 <.L112+0x2>
 5ae:	f13d                	bnez	a0,514 <.L115>
 5b0:	bc79                	j	4e <.L191>

000005b2 <.L188>:
 5b2:	00092703          	lw	a4,0(s2)
 5b6:	01674703          	lbu	a4,22(a4)
 5ba:	00870693          	add	a3,a4,8
 5be:	f6d502e3          	beq	a0,a3,522 <.L113>
 5c2:	a8a716e3          	bne	a4,a0,4e <.L191>
 5c6:	bfb1                	j	522 <.L113>

sc_airkiss.o:     file format elf32-littleriscv


Disassembly of section .text.KISS_Get_sequ_data:

00000000 <KISS_Get_sequ_data>:
   0:	7139                	add	sp,sp,-64
   2:	d84a                	sw	s2,48(sp)
   4:	02c52903          	lw	s2,44(a0)
   8:	dc22                	sw	s0,56(sp)
   a:	d64e                	sw	s3,44(sp)
   c:	d452                	sw	s4,40(sp)
   e:	de06                	sw	ra,60(sp)
  10:	da26                	sw	s1,52(sp)
  12:	d256                	sw	s5,36(sp)
  14:	0045c783          	lbu	a5,4(a1)
  18:	0952                	sll	s2,s2,0x14
  1a:	01495913          	srl	s2,s2,0x14
  1e:	03054703          	lbu	a4,48(a0)
  22:	40f90933          	sub	s2,s2,a5
  26:	0942                	sll	s2,s2,0x10
  28:	08800793          	li	a5,136
  2c:	0125da03          	lhu	s4,18(a1)
  30:	0585d983          	lhu	s3,88(a1)
  34:	04655483          	lhu	s1,70(a0)
  38:	842e                	mv	s0,a1
  3a:	01095913          	srl	s2,s2,0x10
  3e:	02f71363          	bne	a4,a5,64 <.L2>
  42:	0145c703          	lbu	a4,20(a1)
  46:	4785                	li	a5,1
  48:	00f71e63          	bne	a4,a5,64 <.L2>
  4c:	04855783          	lhu	a5,72(a0)
  50:	00879713          	sll	a4,a5,0x8
  54:	83a1                	srl	a5,a5,0x8
  56:	8f5d                	or	a4,a4,a5
  58:	0165d783          	lhu	a5,22(a1)
  5c:	0742                	sll	a4,a4,0x10
  5e:	8341                	srl	a4,a4,0x10
  60:	06e79863          	bne	a5,a4,d0 <.L1>

00000064 <.L2>:
  64:	fc090793          	add	a5,s2,-64
  68:	07c2                	sll	a5,a5,0x10
  6a:	83c1                	srl	a5,a5,0x10
  6c:	1bf00713          	li	a4,447
  70:	06f76063          	bltu	a4,a5,d0 <.L1>
  74:	02045703          	lhu	a4,32(s0)
  78:	4044d793          	sra	a5,s1,0x4
  7c:	8091                	srl	s1,s1,0x4
  7e:	00976563          	bltu	a4,s1,88 <.L4>

00000082 <.L143>:
  82:	02941023          	sh	s1,32(s0)
  86:	a0a9                	j	d0 <.L1>

00000088 <.L4>:
  88:	0705                	add	a4,a4,1
  8a:	0742                	sll	a4,a4,0x10
  8c:	8341                	srl	a4,a4,0x10
  8e:	0ba40513          	add	a0,s0,186
  92:	0c640a93          	add	s5,s0,198
  96:	4629                	li	a2,10
  98:	04e79563          	bne	a5,a4,e2 <.L6>
  9c:	0bc40593          	add	a1,s0,188
  a0:	00000097          	auipc	ra,0x0
  a4:	000080e7          	jalr	ra # a0 <.L4+0x18>
  a8:	4629                	li	a2,10
  aa:	0d241223          	sh	s2,196(s0)
  ae:	0c840593          	add	a1,s0,200
  b2:	8556                	mv	a0,s5
  b4:	00000097          	auipc	ra,0x0
  b8:	000080e7          	jalr	ra # b4 <.L4+0x2c>
  bc:	0c941823          	sh	s1,208(s0)
  c0:	02941023          	sh	s1,32(s0)
  c4:	0bc45483          	lhu	s1,188(s0)
  c8:	07f00713          	li	a4,127
  cc:	02976c63          	bltu	a4,s1,104 <.L7>

000000d0 <.L1>:
  d0:	50f2                	lw	ra,60(sp)
  d2:	5462                	lw	s0,56(sp)
  d4:	54d2                	lw	s1,52(sp)
  d6:	5942                	lw	s2,48(sp)
  d8:	59b2                	lw	s3,44(sp)
  da:	5a22                	lw	s4,40(sp)
  dc:	5a92                	lw	s5,36(sp)
  de:	6121                	add	sp,sp,64
  e0:	8082                	ret

000000e2 <.L6>:
  e2:	4581                	li	a1,0
  e4:	00000097          	auipc	ra,0x0
  e8:	000080e7          	jalr	ra # e4 <.L6+0x2>
  ec:	4629                	li	a2,10
  ee:	4581                	li	a1,0
  f0:	8556                	mv	a0,s5
  f2:	00000097          	auipc	ra,0x0
  f6:	000080e7          	jalr	ra # f2 <.L6+0x10>
  fa:	0d241223          	sh	s2,196(s0)
  fe:	0c941823          	sh	s1,208(s0)
 102:	b741                	j	82 <.L143>

00000104 <.L7>:
 104:	013a07b3          	add	a5,s4,s3
 108:	0ff7f793          	zext.b	a5,a5
 10c:	07f78793          	add	a5,a5,127
 110:	fc97c0e3          	blt	a5,s1,d0 <.L1>
 114:	0ba45783          	lhu	a5,186(s0)
 118:	f8078793          	add	a5,a5,-128
 11c:	07c2                	sll	a5,a5,0x10
 11e:	83c1                	srl	a5,a5,0x10
 120:	faf768e3          	bltu	a4,a5,d0 <.L1>
 124:	01e45783          	lhu	a5,30(s0)
 128:	07f4f713          	and	a4,s1,127
 12c:	84ba                	mv	s1,a4
 12e:	40e7d7b3          	sra	a5,a5,a4
 132:	8b85                	and	a5,a5,1
 134:	0d477963          	bgeu	a4,s4,206 <.L8>
 138:	dfc1                	beqz	a5,d0 <.L1>
 13a:	0be45783          	lhu	a5,190(s0)
 13e:	4595                	li	a1,5
 140:	0828                	add	a0,sp,24
 142:	00f10ca3          	sb	a5,25(sp)
 146:	0c045783          	lhu	a5,192(s0)
 14a:	00e10c23          	sb	a4,24(sp)
 14e:	01210e23          	sb	s2,28(sp)
 152:	00f10d23          	sb	a5,26(sp)
 156:	0c245783          	lhu	a5,194(s0)
 15a:	00f10da3          	sb	a5,27(sp)
 15e:	00000097          	auipc	ra,0x0
 162:	000080e7          	jalr	ra # 15e <.L7+0x5a>
 166:	0ba45783          	lhu	a5,186(s0)
 16a:	00000737          	lui	a4,0x0
 16e:	00070713          	mv	a4,a4
 172:	8fa9                	xor	a5,a5,a0
 174:	07f7f793          	and	a5,a5,127
 178:	01874703          	lbu	a4,24(a4) # 18 <KISS_Get_sequ_data+0x18>
 17c:	c789                	beqz	a5,186 <.L9>

0000017e <.L170>:
 17e:	4785                	li	a5,1
 180:	f4f718e3          	bne	a4,a5,d0 <.L1>
 184:	aa75                	j	340 <.L157>

00000186 <.L9>:
 186:	4785                	li	a5,1
 188:	02f71e63          	bne	a4,a5,1c4 <.L10>
 18c:	000007b7          	lui	a5,0x0
 190:	0007a783          	lw	a5,0(a5) # 0 <KISS_Get_sequ_data>
 194:	cb85                	beqz	a5,1c4 <.L10>
 196:	14c7a903          	lw	s2,332(a5)
 19a:	02090563          	beqz	s2,1c4 <.L10>
 19e:	000009b7          	lui	s3,0x0
 1a2:	0009a583          	lw	a1,0(s3) # 0 <KISS_Get_sequ_data>
 1a6:	1547a783          	lw	a5,340(a5)
 1aa:	c62e                	sw	a1,12(sp)
 1ac:	9782                	jalr	a5
 1ae:	0009a703          	lw	a4,0(s3)
 1b2:	45b2                	lw	a1,12(sp)
 1b4:	00000637          	lui	a2,0x0
 1b8:	86aa                	mv	a3,a0
 1ba:	87a6                	mv	a5,s1
 1bc:	00060613          	mv	a2,a2
 1c0:	450d                	li	a0,3
 1c2:	9902                	jalr	s2

000001c4 <.L10>:
 1c4:	01e45703          	lhu	a4,30(s0)
 1c8:	4785                	li	a5,1
 1ca:	009797b3          	sll	a5,a5,s1
 1ce:	fff7c793          	not	a5,a5
 1d2:	8ff9                	and	a5,a5,a4
 1d4:	0be45703          	lhu	a4,190(s0)
 1d8:	048a                	sll	s1,s1,0x2
 1da:	00f41f23          	sh	a5,30(s0)
 1de:	94a2                	add	s1,s1,s0
 1e0:	04e48d23          	sb	a4,90(s1)
 1e4:	0c045703          	lhu	a4,192(s0)
 1e8:	04e48da3          	sb	a4,91(s1)
 1ec:	0c245703          	lhu	a4,194(s0)
 1f0:	04e48e23          	sb	a4,92(s1)
 1f4:	0c445703          	lhu	a4,196(s0)
 1f8:	04e48ea3          	sb	a4,93(s1)
 1fc:	ec079ae3          	bnez	a5,d0 <.L1>

00000200 <.L16>:
 200:	4795                	li	a5,5
 202:	c01c                	sw	a5,0(s0)
 204:	b5f1                	j	d0 <.L1>

00000206 <.L8>:
 206:	ec0785e3          	beqz	a5,d0 <.L1>
 20a:	01c45483          	lhu	s1,28(s0)
 20e:	4789                	li	a5,2
 210:	08f48e63          	beq	s1,a5,2ac <.L11>
 214:	478d                	li	a5,3
 216:	16f48a63          	beq	s1,a5,38a <.L12>
 21a:	4785                	li	a5,1
 21c:	eaf49ae3          	bne	s1,a5,d0 <.L1>
 220:	0be45683          	lhu	a3,190(s0)
 224:	1006f793          	and	a5,a3,256
 228:	ea0784e3          	beqz	a5,d0 <.L1>
 22c:	0ca45783          	lhu	a5,202(s0)
 230:	0c845603          	lhu	a2,200(s0)
 234:	fff78593          	add	a1,a5,-1
 238:	e8c59ce3          	bne	a1,a2,d0 <.L1>
 23c:	0c645603          	lhu	a2,198(s0)
 240:	17f9                	add	a5,a5,-2
 242:	e8c797e3          	bne	a5,a2,d0 <.L1>
 246:	04444783          	lbu	a5,68(s0)
 24a:	000009b7          	lui	s3,0x0
 24e:	00098993          	mv	s3,s3
 252:	04979763          	bne	a5,s1,2a0 <.L13>
 256:	01a45783          	lhu	a5,26(s0)
 25a:	8389                	srl	a5,a5,0x2
 25c:	1efa7363          	bgeu	s4,a5,442 <.L21>
 260:	0c045783          	lhu	a5,192(s0)
 264:	00e10c23          	sb	a4,24(sp)
 268:	00d10ca3          	sb	a3,25(sp)
 26c:	00f10d23          	sb	a5,26(sp)
 270:	0c245783          	lhu	a5,194(s0)
 274:	01210e23          	sb	s2,28(sp)
 278:	4595                	li	a1,5
 27a:	00f10da3          	sb	a5,27(sp)

0000027e <.L175>:
 27e:	0828                	add	a0,sp,24
 280:	00000097          	auipc	ra,0x0
 284:	000080e7          	jalr	ra # 280 <.L175+0x2>
 288:	0ba45783          	lhu	a5,186(s0)
 28c:	8fa9                	xor	a5,a5,a0
 28e:	07f7f793          	and	a5,a5,127
 292:	1a078863          	beqz	a5,442 <.L21>
 296:	0189c783          	lbu	a5,24(s3) # 18 <KISS_Get_sequ_data+0x18>
 29a:	e2979be3          	bne	a5,s1,d0 <.L1>
 29e:	a04d                	j	340 <.L157>

000002a0 <.L13>:
 2a0:	00e10c23          	sb	a4,24(sp)
 2a4:	00d10ca3          	sb	a3,25(sp)
 2a8:	4589                	li	a1,2
 2aa:	bfd1                	j	27e <.L175>

000002ac <.L11>:
 2ac:	0be45603          	lhu	a2,190(s0)
 2b0:	10067793          	and	a5,a2,256
 2b4:	e0078ee3          	beqz	a5,d0 <.L1>
 2b8:	0c045683          	lhu	a3,192(s0)
 2bc:	1006f793          	and	a5,a3,256
 2c0:	e00788e3          	beqz	a5,d0 <.L1>
 2c4:	0cc45783          	lhu	a5,204(s0)
 2c8:	0ca45583          	lhu	a1,202(s0)
 2cc:	fff78513          	add	a0,a5,-1
 2d0:	e0b510e3          	bne	a0,a1,d0 <.L1>
 2d4:	0c845503          	lhu	a0,200(s0)
 2d8:	ffe78593          	add	a1,a5,-2
 2dc:	dea59ae3          	bne	a1,a0,d0 <.L1>
 2e0:	0c645583          	lhu	a1,198(s0)
 2e4:	17f5                	add	a5,a5,-3
 2e6:	deb795e3          	bne	a5,a1,d0 <.L1>
 2ea:	04444a83          	lbu	s5,68(s0)
 2ee:	000009b7          	lui	s3,0x0
 2f2:	4485                	li	s1,1
 2f4:	00098993          	mv	s3,s3
 2f8:	089a9163          	bne	s5,s1,37a <.L17>
 2fc:	01a45783          	lhu	a5,26(s0)
 300:	8389                	srl	a5,a5,0x2
 302:	14fa7063          	bgeu	s4,a5,442 <.L21>
 306:	0c245783          	lhu	a5,194(s0)
 30a:	4595                	li	a1,5
 30c:	0828                	add	a0,sp,24
 30e:	00f10da3          	sb	a5,27(sp)
 312:	00e10c23          	sb	a4,24(sp)
 316:	00c10ca3          	sb	a2,25(sp)
 31a:	00d10d23          	sb	a3,26(sp)
 31e:	01210e23          	sb	s2,28(sp)
 322:	00000097          	auipc	ra,0x0
 326:	000080e7          	jalr	ra # 322 <.L11+0x76>
 32a:	0ba45783          	lhu	a5,186(s0)
 32e:	8fa9                	xor	a5,a5,a0
 330:	07f7f793          	and	a5,a5,127
 334:	10078763          	beqz	a5,442 <.L21>
 338:	0189c783          	lbu	a5,24(s3) # 18 <KISS_Get_sequ_data+0x18>
 33c:	d9579ae3          	bne	a5,s5,d0 <.L1>

00000340 <.L157>:
 340:	000007b7          	lui	a5,0x0
 344:	0007a783          	lw	a5,0(a5) # 0 <KISS_Get_sequ_data>
 348:	d80784e3          	beqz	a5,d0 <.L1>
 34c:	14c7a403          	lw	s0,332(a5)
 350:	d80400e3          	beqz	s0,d0 <.L1>
 354:	000004b7          	lui	s1,0x0
 358:	0004a583          	lw	a1,0(s1) # 0 <KISS_Get_sequ_data>
 35c:	1547a783          	lw	a5,340(a5)
 360:	c62e                	sw	a1,12(sp)
 362:	9782                	jalr	a5
 364:	0004a703          	lw	a4,0(s1)
 368:	45b2                	lw	a1,12(sp)
 36a:	00000637          	lui	a2,0x0
 36e:	86aa                	mv	a3,a0
 370:	00060613          	mv	a2,a2
 374:	450d                	li	a0,3
 376:	9402                	jalr	s0
 378:	bba1                	j	d0 <.L1>

0000037a <.L17>:
 37a:	00e10c23          	sb	a4,24(sp)
 37e:	00c10ca3          	sb	a2,25(sp)
 382:	00d10d23          	sb	a3,26(sp)
 386:	458d                	li	a1,3
 388:	bddd                	j	27e <.L175>

0000038a <.L12>:
 38a:	0be45583          	lhu	a1,190(s0)
 38e:	1005f793          	and	a5,a1,256
 392:	d2078fe3          	beqz	a5,d0 <.L1>
 396:	0c045603          	lhu	a2,192(s0)
 39a:	10067793          	and	a5,a2,256
 39e:	d20789e3          	beqz	a5,d0 <.L1>
 3a2:	0c245683          	lhu	a3,194(s0)
 3a6:	1006f793          	and	a5,a3,256
 3aa:	d20783e3          	beqz	a5,d0 <.L1>
 3ae:	0ce45783          	lhu	a5,206(s0)
 3b2:	0cc45503          	lhu	a0,204(s0)
 3b6:	fff78813          	add	a6,a5,-1
 3ba:	d0a81be3          	bne	a6,a0,d0 <.L1>
 3be:	0ca45803          	lhu	a6,202(s0)
 3c2:	ffe78513          	add	a0,a5,-2
 3c6:	d10515e3          	bne	a0,a6,d0 <.L1>
 3ca:	0c845803          	lhu	a6,200(s0)
 3ce:	ffd78513          	add	a0,a5,-3
 3d2:	cf051fe3          	bne	a0,a6,d0 <.L1>
 3d6:	0c645503          	lhu	a0,198(s0)
 3da:	17f1                	add	a5,a5,-4
 3dc:	cea79ae3          	bne	a5,a0,d0 <.L1>
 3e0:	04444783          	lbu	a5,68(s0)
 3e4:	000009b7          	lui	s3,0x0
 3e8:	4485                	li	s1,1
 3ea:	00098993          	mv	s3,s3
 3ee:	04979063          	bne	a5,s1,42e <.L20>
 3f2:	01a45783          	lhu	a5,26(s0)
 3f6:	8389                	srl	a5,a5,0x2
 3f8:	04fa7563          	bgeu	s4,a5,442 <.L21>
 3fc:	00b10ca3          	sb	a1,25(sp)
 400:	0828                	add	a0,sp,24
 402:	4595                	li	a1,5
 404:	00e10c23          	sb	a4,24(sp)
 408:	00c10d23          	sb	a2,26(sp)
 40c:	00d10da3          	sb	a3,27(sp)
 410:	01210e23          	sb	s2,28(sp)
 414:	00000097          	auipc	ra,0x0
 418:	000080e7          	jalr	ra # 414 <.L12+0x8a>
 41c:	0ba45783          	lhu	a5,186(s0)
 420:	8fa9                	xor	a5,a5,a0
 422:	07f7f793          	and	a5,a5,127
 426:	cf91                	beqz	a5,442 <.L21>
 428:	0189c703          	lbu	a4,24(s3) # 18 <KISS_Get_sequ_data+0x18>
 42c:	bb89                	j	17e <.L170>

0000042e <.L20>:
 42e:	00b10ca3          	sb	a1,25(sp)
 432:	00e10c23          	sb	a4,24(sp)
 436:	00c10d23          	sb	a2,26(sp)
 43a:	00d10da3          	sb	a3,27(sp)
 43e:	4591                	li	a1,4
 440:	bd3d                	j	27e <.L175>

00000442 <.L21>:
 442:	0bc45483          	lhu	s1,188(s0)
 446:	0189c703          	lbu	a4,24(s3)
 44a:	4785                	li	a5,1
 44c:	07f4f493          	and	s1,s1,127
 450:	02f71e63          	bne	a4,a5,48c <.L22>
 454:	000007b7          	lui	a5,0x0
 458:	0007a783          	lw	a5,0(a5) # 0 <KISS_Get_sequ_data>
 45c:	cb85                	beqz	a5,48c <.L22>
 45e:	14c7a903          	lw	s2,332(a5)
 462:	02090563          	beqz	s2,48c <.L22>
 466:	000009b7          	lui	s3,0x0
 46a:	0009a583          	lw	a1,0(s3) # 0 <KISS_Get_sequ_data>
 46e:	1547a783          	lw	a5,340(a5)
 472:	c62e                	sw	a1,12(sp)
 474:	9782                	jalr	a5
 476:	0009a703          	lw	a4,0(s3)
 47a:	45b2                	lw	a1,12(sp)
 47c:	00000637          	lui	a2,0x0
 480:	86aa                	mv	a3,a0
 482:	87a6                	mv	a5,s1
 484:	00060613          	mv	a2,a2
 488:	450d                	li	a0,3
 48a:	9902                	jalr	s2

0000048c <.L22>:
 48c:	01e45783          	lhu	a5,30(s0)
 490:	4705                	li	a4,1
 492:	00971733          	sll	a4,a4,s1
 496:	0be45683          	lhu	a3,190(s0)
 49a:	fff74713          	not	a4,a4
 49e:	8f7d                	and	a4,a4,a5
 4a0:	00249793          	sll	a5,s1,0x2
 4a4:	00e41f23          	sh	a4,30(s0)
 4a8:	97a2                	add	a5,a5,s0
 4aa:	04d78d23          	sb	a3,90(a5)
 4ae:	0c045683          	lhu	a3,192(s0)
 4b2:	04d78da3          	sb	a3,91(a5)
 4b6:	0c245683          	lhu	a3,194(s0)
 4ba:	04d78e23          	sb	a3,92(a5)
 4be:	0c445683          	lhu	a3,196(s0)
 4c2:	04d78ea3          	sb	a3,93(a5)
 4c6:	d2070de3          	beqz	a4,200 <.L16>
 4ca:	b119                	j	d0 <.L1>

Disassembly of section .text.KISS_Init_guide_glob:

00000000 <KISS_Init_guide_glob>:
   0:	1101                	add	sp,sp,-32
   2:	cc22                	sw	s0,24(sp)
   4:	00000437          	lui	s0,0x0
   8:	00040713          	mv	a4,s0
   c:	4318                	lw	a4,0(a4)
   e:	000007b7          	lui	a5,0x0
  12:	ce06                	sw	ra,28(sp)
  14:	ca26                	sw	s1,20(sp)
  16:	c84a                	sw	s2,16(sp)
  18:	0007a783          	lw	a5,0(a5) # 0 <KISS_Init_guide_glob>
  1c:	00040413          	mv	s0,s0
  20:	e705                	bnez	a4,48 <.L179>
  22:	1707a783          	lw	a5,368(a5)
  26:	4585                	li	a1,1
  28:	02200513          	li	a0,34
  2c:	9782                	jalr	a5
  2e:	c008                	sw	a0,0(s0)

00000030 <.L180>:
  30:	401c                	lw	a5,0(s0)
  32:	e3b1                	bnez	a5,76 <.L178>
  34:	4462                	lw	s0,24(sp)
  36:	40f2                	lw	ra,28(sp)
  38:	44d2                	lw	s1,20(sp)
  3a:	4942                	lw	s2,16(sp)
  3c:	4501                	li	a0,0
  3e:	6105                	add	sp,sp,32
  40:	00000317          	auipc	t1,0x0
  44:	00030067          	jr	t1 # 40 <.L180+0x10>

00000048 <.L179>:
  48:	c79d                	beqz	a5,76 <.L178>
  4a:	14c7a483          	lw	s1,332(a5)
  4e:	c485                	beqz	s1,76 <.L178>
  50:	00000937          	lui	s2,0x0
  54:	00092583          	lw	a1,0(s2) # 0 <KISS_Init_guide_glob>
  58:	1547a783          	lw	a5,340(a5)
  5c:	c62e                	sw	a1,12(sp)
  5e:	9782                	jalr	a5
  60:	00092703          	lw	a4,0(s2)
  64:	45b2                	lw	a1,12(sp)
  66:	00000637          	lui	a2,0x0
  6a:	86aa                	mv	a3,a0
  6c:	00060613          	mv	a2,a2
  70:	4505                	li	a0,1
  72:	9482                	jalr	s1
  74:	bf75                	j	30 <.L180>

00000076 <.L178>:
  76:	40f2                	lw	ra,28(sp)
  78:	4462                	lw	s0,24(sp)
  7a:	44d2                	lw	s1,20(sp)
  7c:	4942                	lw	s2,16(sp)
  7e:	6105                	add	sp,sp,32
  80:	8082                	ret

Disassembly of section .text.KISS_Free_guide_glob:

00000000 <KISS_Free_guide_glob>:
   0:	1141                	add	sp,sp,-16
   2:	c422                	sw	s0,8(sp)
   4:	00000437          	lui	s0,0x0
   8:	00040413          	mv	s0,s0
   c:	4008                	lw	a0,0(s0)
   e:	c606                	sw	ra,12(sp)
  10:	c911                	beqz	a0,24 <.L188>
  12:	000007b7          	lui	a5,0x0
  16:	0007a783          	lw	a5,0(a5) # 0 <KISS_Free_guide_glob>
  1a:	0b07a783          	lw	a5,176(a5)
  1e:	9782                	jalr	a5
  20:	00042023          	sw	zero,0(s0) # 0 <KISS_Free_guide_glob>

00000024 <.L188>:
  24:	40b2                	lw	ra,12(sp)
  26:	4422                	lw	s0,8(sp)
  28:	0141                	add	sp,sp,16
  2a:	8082                	ret

Disassembly of section .text.KISS_Init_Glob_Trans:

00000000 <KISS_Init_Glob_Trans>:
   0:	7179                	add	sp,sp,-48
   2:	d422                	sw	s0,40(sp)
   4:	00000437          	lui	s0,0x0
   8:	00040713          	mv	a4,s0
   c:	4318                	lw	a4,0(a4)
   e:	d226                	sw	s1,36(sp)
  10:	d606                	sw	ra,44(sp)
  12:	000004b7          	lui	s1,0x0
  16:	d04a                	sw	s2,32(sp)
  18:	ce4e                	sw	s3,28(sp)
  1a:	0004a783          	lw	a5,0(s1) # 0 <KISS_Init_Glob_Trans>
  1e:	00040413          	mv	s0,s0
  22:	ef29                	bnez	a4,7c <.L195>
  24:	1707a783          	lw	a5,368(a5)
  28:	4585                	li	a1,1
  2a:	0d400513          	li	a0,212
  2e:	9782                	jalr	a5
  30:	c008                	sw	a0,0(s0)

00000032 <.L196>:
  32:	401c                	lw	a5,0(s0)
  34:	efa5                	bnez	a5,ac <.L194>
  36:	0004a783          	lw	a5,0(s1)
  3a:	c795                	beqz	a5,66 <.L200>
  3c:	14c7a403          	lw	s0,332(a5)
  40:	c01d                	beqz	s0,66 <.L200>
  42:	000004b7          	lui	s1,0x0
  46:	0004a583          	lw	a1,0(s1) # 0 <KISS_Init_Glob_Trans>
  4a:	1547a783          	lw	a5,340(a5)
  4e:	c62e                	sw	a1,12(sp)
  50:	9782                	jalr	a5
  52:	0004a703          	lw	a4,0(s1)
  56:	45b2                	lw	a1,12(sp)
  58:	00000637          	lui	a2,0x0
  5c:	86aa                	mv	a3,a0
  5e:	00060613          	mv	a2,a2
  62:	4505                	li	a0,1
  64:	9402                	jalr	s0

00000066 <.L200>:
  66:	5422                	lw	s0,40(sp)
  68:	50b2                	lw	ra,44(sp)
  6a:	5492                	lw	s1,36(sp)
  6c:	5902                	lw	s2,32(sp)
  6e:	49f2                	lw	s3,28(sp)
  70:	4501                	li	a0,0
  72:	6145                	add	sp,sp,48
  74:	00000317          	auipc	t1,0x0
  78:	00030067          	jr	t1 # 74 <.L200+0xe>

0000007c <.L195>:
  7c:	cb85                	beqz	a5,ac <.L194>
  7e:	14c7a903          	lw	s2,332(a5)
  82:	02090563          	beqz	s2,ac <.L194>
  86:	000009b7          	lui	s3,0x0
  8a:	0009a583          	lw	a1,0(s3) # 0 <KISS_Init_Glob_Trans>
  8e:	1547a783          	lw	a5,340(a5)
  92:	c62e                	sw	a1,12(sp)
  94:	9782                	jalr	a5
  96:	0009a703          	lw	a4,0(s3)
  9a:	45b2                	lw	a1,12(sp)
  9c:	00000637          	lui	a2,0x0
  a0:	86aa                	mv	a3,a0
  a2:	00060613          	mv	a2,a2
  a6:	4505                	li	a0,1
  a8:	9902                	jalr	s2
  aa:	b761                	j	32 <.L196>

000000ac <.L194>:
  ac:	50b2                	lw	ra,44(sp)
  ae:	5422                	lw	s0,40(sp)
  b0:	5492                	lw	s1,36(sp)
  b2:	5902                	lw	s2,32(sp)
  b4:	49f2                	lw	s3,28(sp)
  b6:	6145                	add	sp,sp,48
  b8:	8082                	ret

Disassembly of section .text.KISS_Init_Glob_Diret:

00000000 <KISS_Init_Glob_Diret>:
   0:	7179                	add	sp,sp,-48
   2:	d422                	sw	s0,40(sp)
   4:	00000437          	lui	s0,0x0
   8:	00040713          	mv	a4,s0
   c:	4318                	lw	a4,0(a4)
   e:	d226                	sw	s1,36(sp)
  10:	d606                	sw	ra,44(sp)
  12:	000004b7          	lui	s1,0x0
  16:	d04a                	sw	s2,32(sp)
  18:	ce4e                	sw	s3,28(sp)
  1a:	0004a783          	lw	a5,0(s1) # 0 <KISS_Init_Glob_Diret>
  1e:	00040413          	mv	s0,s0
  22:	ef29                	bnez	a4,7c <.L212>
  24:	1707a783          	lw	a5,368(a5)
  28:	4585                	li	a1,1
  2a:	0d400513          	li	a0,212
  2e:	9782                	jalr	a5
  30:	c008                	sw	a0,0(s0)

00000032 <.L213>:
  32:	401c                	lw	a5,0(s0)
  34:	efa5                	bnez	a5,ac <.L211>
  36:	0004a783          	lw	a5,0(s1)
  3a:	c795                	beqz	a5,66 <.L217>
  3c:	14c7a403          	lw	s0,332(a5)
  40:	c01d                	beqz	s0,66 <.L217>
  42:	000004b7          	lui	s1,0x0
  46:	0004a583          	lw	a1,0(s1) # 0 <KISS_Init_Glob_Diret>
  4a:	1547a783          	lw	a5,340(a5)
  4e:	c62e                	sw	a1,12(sp)
  50:	9782                	jalr	a5
  52:	0004a703          	lw	a4,0(s1)
  56:	45b2                	lw	a1,12(sp)
  58:	00000637          	lui	a2,0x0
  5c:	86aa                	mv	a3,a0
  5e:	00060613          	mv	a2,a2
  62:	4505                	li	a0,1
  64:	9402                	jalr	s0

00000066 <.L217>:
  66:	5422                	lw	s0,40(sp)
  68:	50b2                	lw	ra,44(sp)
  6a:	5492                	lw	s1,36(sp)
  6c:	5902                	lw	s2,32(sp)
  6e:	49f2                	lw	s3,28(sp)
  70:	4501                	li	a0,0
  72:	6145                	add	sp,sp,48
  74:	00000317          	auipc	t1,0x0
  78:	00030067          	jr	t1 # 74 <.L217+0xe>

0000007c <.L212>:
  7c:	cb85                	beqz	a5,ac <.L211>
  7e:	14c7a903          	lw	s2,332(a5)
  82:	02090563          	beqz	s2,ac <.L211>
  86:	000009b7          	lui	s3,0x0
  8a:	0009a583          	lw	a1,0(s3) # 0 <KISS_Init_Glob_Diret>
  8e:	1547a783          	lw	a5,340(a5)
  92:	c62e                	sw	a1,12(sp)
  94:	9782                	jalr	a5
  96:	0009a703          	lw	a4,0(s3)
  9a:	45b2                	lw	a1,12(sp)
  9c:	00000637          	lui	a2,0x0
  a0:	86aa                	mv	a3,a0
  a2:	00060613          	mv	a2,a2
  a6:	4505                	li	a0,1
  a8:	9902                	jalr	s2
  aa:	b761                	j	32 <.L213>

000000ac <.L211>:
  ac:	50b2                	lw	ra,44(sp)
  ae:	5422                	lw	s0,40(sp)
  b0:	5492                	lw	s1,36(sp)
  b2:	5902                	lw	s2,32(sp)
  b4:	49f2                	lw	s3,28(sp)
  b6:	6145                	add	sp,sp,48
  b8:	8082                	ret

Disassembly of section .text.KISS_Free_Glob_Trans:

00000000 <KISS_Free_Glob_Trans>:
   0:	1141                	add	sp,sp,-16
   2:	c422                	sw	s0,8(sp)
   4:	00000437          	lui	s0,0x0
   8:	00040413          	mv	s0,s0
   c:	4008                	lw	a0,0(s0)
   e:	c606                	sw	ra,12(sp)
  10:	c911                	beqz	a0,24 <.L228>
  12:	000007b7          	lui	a5,0x0
  16:	0007a783          	lw	a5,0(a5) # 0 <KISS_Free_Glob_Trans>
  1a:	0b07a783          	lw	a5,176(a5)
  1e:	9782                	jalr	a5
  20:	00042023          	sw	zero,0(s0) # 0 <KISS_Free_Glob_Trans>

00000024 <.L228>:
  24:	40b2                	lw	ra,12(sp)
  26:	4422                	lw	s0,8(sp)
  28:	0141                	add	sp,sp,16
  2a:	8082                	ret

Disassembly of section .text.KISS_Free_Glob_Diret:

00000000 <KISS_Free_Glob_Diret>:
   0:	1141                	add	sp,sp,-16
   2:	c422                	sw	s0,8(sp)
   4:	00000437          	lui	s0,0x0
   8:	00040413          	mv	s0,s0
   c:	4008                	lw	a0,0(s0)
   e:	c606                	sw	ra,12(sp)
  10:	c911                	beqz	a0,24 <.L234>
  12:	000007b7          	lui	a5,0x0
  16:	0007a783          	lw	a5,0(a5) # 0 <KISS_Free_Glob_Diret>
  1a:	0b07a783          	lw	a5,176(a5)
  1e:	9782                	jalr	a5
  20:	00042023          	sw	zero,0(s0) # 0 <KISS_Free_Glob_Diret>

00000024 <.L234>:
  24:	40b2                	lw	ra,12(sp)
  26:	4422                	lw	s0,8(sp)
  28:	0141                	add	sp,sp,16
  2a:	8082                	ret

Disassembly of section .text.KISS_Find_channel_end:

00000000 <KISS_Find_channel_end>:
   0:	715d                	add	sp,sp,-80
   2:	dc52                	sw	s4,56(sp)
   4:	00000a37          	lui	s4,0x0
   8:	000a0793          	mv	a5,s4
   c:	c4a2                	sw	s0,72(sp)
   e:	4380                	lw	s0,0(a5)
  10:	c0ca                	sw	s2,64(sp)
  12:	de4e                	sw	s3,60(sp)
  14:	c686                	sw	ra,76(sp)
  16:	c2a6                	sw	s1,68(sp)
  18:	da56                	sw	s5,52(sp)
  1a:	4619                	li	a2,6
  1c:	01140593          	add	a1,s0,17
  20:	1028                	add	a0,sp,40
  22:	00000937          	lui	s2,0x0
  26:	01040a83          	lb	s5,16(s0)
  2a:	00000097          	auipc	ra,0x0
  2e:	000080e7          	jalr	ra # 2a <KISS_Find_channel_end+0x2a>
  32:	00090793          	mv	a5,s2
  36:	0187c703          	lbu	a4,24(a5)
  3a:	4785                	li	a5,1
  3c:	01744983          	lbu	s3,23(s0)
  40:	000a0a13          	mv	s4,s4
  44:	00090913          	mv	s2,s2
  48:	04f71d63          	bne	a4,a5,a2 <.L241>
  4c:	000007b7          	lui	a5,0x0
  50:	0007a703          	lw	a4,0(a5) # 0 <KISS_Find_channel_end>
  54:	c739                	beqz	a4,a2 <.L241>
  56:	14c72403          	lw	s0,332(a4)
  5a:	c421                	beqz	s0,a2 <.L241>
  5c:	000004b7          	lui	s1,0x0
  60:	0004a583          	lw	a1,0(s1) # 0 <KISS_Find_channel_end>
  64:	15472783          	lw	a5,340(a4)
  68:	ce2e                	sw	a1,28(sp)
  6a:	9782                	jalr	a5
  6c:	02d14783          	lbu	a5,45(sp)
  70:	02914883          	lbu	a7,41(sp)
  74:	02814803          	lbu	a6,40(sp)
  78:	c63e                	sw	a5,12(sp)
  7a:	02c14783          	lbu	a5,44(sp)
  7e:	0004a703          	lw	a4,0(s1)
  82:	45f2                	lw	a1,28(sp)
  84:	c43e                	sw	a5,8(sp)
  86:	02b14783          	lbu	a5,43(sp)
  8a:	00000637          	lui	a2,0x0
  8e:	86aa                	mv	a3,a0
  90:	c23e                	sw	a5,4(sp)
  92:	02a14783          	lbu	a5,42(sp)
  96:	00060613          	mv	a2,a2
  9a:	450d                	li	a0,3
  9c:	c03e                	sw	a5,0(sp)
  9e:	87d6                	mv	a5,s5
  a0:	9402                	jalr	s0

000000a2 <.L241>:
  a2:	00000097          	auipc	ra,0x0
  a6:	000080e7          	jalr	ra # a2 <.L241>
  aa:	000007b7          	lui	a5,0x0
  ae:	0007a483          	lw	s1,0(a5) # 0 <KISS_Find_channel_end>
  b2:	000a2783          	lw	a5,0(s4) # 0 <KISS_Find_channel_end>
  b6:	4405                	li	s0,1
  b8:	00848c23          	sb	s0,24(s1)
  bc:	01348223          	sb	s3,4(s1)
  c0:	00079423          	sh	zero,8(a5)
  c4:	02878023          	sb	s0,32(a5)
  c8:	4619                	li	a2,6
  ca:	102c                	add	a1,sp,40
  cc:	00548513          	add	a0,s1,5
  d0:	00000097          	auipc	ra,0x0
  d4:	000080e7          	jalr	ra # d0 <.L241+0x2e>
  d8:	000005b7          	lui	a1,0x0
  dc:	4619                	li	a2,6
  de:	00058593          	mv	a1,a1
  e2:	00b48513          	add	a0,s1,11
  e6:	00000097          	auipc	ra,0x0
  ea:	000080e7          	jalr	ra # e6 <.L241+0x44>
  ee:	c080                	sw	s0,0(s1)
  f0:	01994783          	lbu	a5,25(s2) # 19 <KISS_Find_channel_end+0x19>
  f4:	cfa9                	beqz	a5,14e <.L242>
  f6:	0785                	add	a5,a5,1
  f8:	00f90ca3          	sb	a5,25(s2)
  fc:	01894783          	lbu	a5,24(s2)
 100:	26879c63          	bne	a5,s0,378 <.L240>
 104:	000007b7          	lui	a5,0x0
 108:	0007a783          	lw	a5,0(a5) # 0 <KISS_Find_channel_end>
 10c:	26078663          	beqz	a5,378 <.L240>
 110:	14c7a403          	lw	s0,332(a5)
 114:	26040263          	beqz	s0,378 <.L240>
 118:	000004b7          	lui	s1,0x0
 11c:	0004a583          	lw	a1,0(s1) # 0 <KISS_Find_channel_end>
 120:	1547a783          	lw	a5,340(a5)
 124:	ce2e                	sw	a1,28(sp)
 126:	9782                	jalr	a5
 128:	87a2                	mv	a5,s0
 12a:	4426                	lw	s0,72(sp)
 12c:	0004a703          	lw	a4,0(s1)
 130:	45f2                	lw	a1,28(sp)
 132:	40b6                	lw	ra,76(sp)
 134:	4496                	lw	s1,68(sp)
 136:	4906                	lw	s2,64(sp)
 138:	59f2                	lw	s3,60(sp)
 13a:	5a62                	lw	s4,56(sp)
 13c:	5ad2                	lw	s5,52(sp)
 13e:	00000637          	lui	a2,0x0
 142:	86aa                	mv	a3,a0
 144:	00060613          	mv	a2,a2
 148:	450d                	li	a0,3
 14a:	6161                	add	sp,sp,80
 14c:	8782                	jr	a5

0000014e <.L242>:
 14e:	00892a23          	sw	s0,20(s2)
 152:	00890ca3          	sb	s0,25(s2)
 156:	00000437          	lui	s0,0x0
 15a:	00042783          	lw	a5,0(s0) # 0 <KISS_Find_channel_end>
 15e:	c79d                	beqz	a5,18c <.L245>
 160:	14c7a983          	lw	s3,332(a5)
 164:	02098463          	beqz	s3,18c <.L245>
 168:	00000ab7          	lui	s5,0x0
 16c:	000aa583          	lw	a1,0(s5) # 0 <KISS_Find_channel_end>
 170:	1547a783          	lw	a5,340(a5)
 174:	ce2e                	sw	a1,28(sp)
 176:	9782                	jalr	a5
 178:	000aa703          	lw	a4,0(s5)
 17c:	45f2                	lw	a1,28(sp)
 17e:	00000637          	lui	a2,0x0
 182:	86aa                	mv	a3,a0
 184:	00060613          	mv	a2,a2
 188:	450d                	li	a0,3
 18a:	9982                	jalr	s3

0000018c <.L245>:
 18c:	00042783          	lw	a5,0(s0)
 190:	c7b1                	beqz	a5,1dc <.L246>
 192:	14c7a983          	lw	s3,332(a5)
 196:	04098363          	beqz	s3,1dc <.L246>
 19a:	00000ab7          	lui	s5,0x0
 19e:	000aa583          	lw	a1,0(s5) # 0 <KISS_Find_channel_end>
 1a2:	1547a783          	lw	a5,340(a5)
 1a6:	ce2e                	sw	a1,28(sp)
 1a8:	9782                	jalr	a5
 1aa:	00a4c703          	lbu	a4,10(s1)
 1ae:	0074c883          	lbu	a7,7(s1)
 1b2:	0064c803          	lbu	a6,6(s1)
 1b6:	0054c783          	lbu	a5,5(s1)
 1ba:	c43a                	sw	a4,8(sp)
 1bc:	0094c703          	lbu	a4,9(s1)
 1c0:	45f2                	lw	a1,28(sp)
 1c2:	00000637          	lui	a2,0x0
 1c6:	c23a                	sw	a4,4(sp)
 1c8:	0084c703          	lbu	a4,8(s1)
 1cc:	86aa                	mv	a3,a0
 1ce:	00060613          	mv	a2,a2
 1d2:	c03a                	sw	a4,0(sp)
 1d4:	000aa703          	lw	a4,0(s5)
 1d8:	450d                	li	a0,3
 1da:	9982                	jalr	s3

000001dc <.L246>:
 1dc:	01894703          	lbu	a4,24(s2)
 1e0:	4785                	li	a5,1
 1e2:	02f71d63          	bne	a4,a5,21c <.L247>
 1e6:	00042783          	lw	a5,0(s0)
 1ea:	cb8d                	beqz	a5,21c <.L247>
 1ec:	14c7a983          	lw	s3,332(a5)
 1f0:	02098663          	beqz	s3,21c <.L247>
 1f4:	00000ab7          	lui	s5,0x0
 1f8:	000aa583          	lw	a1,0(s5) # 0 <KISS_Find_channel_end>
 1fc:	1547a783          	lw	a5,340(a5)
 200:	ce2e                	sw	a1,28(sp)
 202:	9782                	jalr	a5
 204:	0044c783          	lbu	a5,4(s1)
 208:	000aa703          	lw	a4,0(s5)
 20c:	45f2                	lw	a1,28(sp)
 20e:	00000637          	lui	a2,0x0
 212:	86aa                	mv	a3,a0
 214:	00060613          	mv	a2,a2
 218:	450d                	li	a0,3
 21a:	9982                	jalr	s3

0000021c <.L247>:
 21c:	000007b7          	lui	a5,0x0
 220:	0007a783          	lw	a5,0(a5) # 0 <KISS_Find_channel_end>
 224:	4fa4                	lw	s1,88(a5)

00000226 <.L248>:
 226:	c085                	beqz	s1,246 <.L250>
 228:	4619                	li	a2,6
 22a:	85a6                	mv	a1,s1
 22c:	1028                	add	a0,sp,40
 22e:	00000097          	auipc	ra,0x0
 232:	000080e7          	jalr	ra # 22e <.L248+0x8>
 236:	12051f63          	bnez	a0,374 <.L249>
 23a:	0544c983          	lbu	s3,84(s1)
 23e:	02e4c483          	lbu	s1,46(s1)
 242:	00099863          	bnez	s3,252 <.L251>

00000246 <.L250>:
 246:	000a2783          	lw	a5,0(s4)
 24a:	0187c983          	lbu	s3,24(a5)
 24e:	0197c483          	lbu	s1,25(a5)

00000252 <.L251>:
 252:	00042783          	lw	a5,0(s0)
 256:	00000a37          	lui	s4,0x0
 25a:	000a0513          	mv	a0,s4
 25e:	0e47a783          	lw	a5,228(a5)
 262:	9782                	jalr	a5
 264:	00042783          	lw	a5,0(s0)
 268:	000a0513          	mv	a0,s4
 26c:	00000a37          	lui	s4,0x0
 270:	0e87a783          	lw	a5,232(a5)
 274:	9782                	jalr	a5
 276:	85a6                	mv	a1,s1
 278:	000007b7          	lui	a5,0x0
 27c:	854e                	mv	a0,s3
 27e:	00078023          	sb	zero,0(a5) # 0 <KISS_Find_channel_end>
 282:	00000097          	auipc	ra,0x0
 286:	000080e7          	jalr	ra # 282 <.L251+0x30>
 28a:	00042783          	lw	a5,0(s0)
 28e:	000a0513          	mv	a0,s4
 292:	0e47a783          	lw	a5,228(a5)
 296:	9782                	jalr	a5
 298:	00042783          	lw	a5,0(s0)
 29c:	000a0513          	mv	a0,s4
 2a0:	0e87a783          	lw	a5,232(a5)
 2a4:	9782                	jalr	a5
 2a6:	00042783          	lw	a5,0(s0)
 2aa:	000005b7          	lui	a1,0x0
 2ae:	4601                	li	a2,0
 2b0:	0ec7a783          	lw	a5,236(a5)
 2b4:	00058593          	mv	a1,a1
 2b8:	000a0513          	mv	a0,s4
 2bc:	9782                	jalr	a5
 2be:	00042783          	lw	a5,0(s0)
 2c2:	65a1                	lui	a1,0x8
 2c4:	4601                	li	a2,0
 2c6:	0e07a783          	lw	a5,224(a5)
 2ca:	91858593          	add	a1,a1,-1768 # 7918 <.L433+0x70d2>
 2ce:	000a0513          	mv	a0,s4
 2d2:	9782                	jalr	a5
 2d4:	01894703          	lbu	a4,24(s2)
 2d8:	4785                	li	a5,1
 2da:	02f71d63          	bne	a4,a5,314 <.L253>
 2de:	00042783          	lw	a5,0(s0)
 2e2:	cb8d                	beqz	a5,314 <.L253>
 2e4:	14c7a903          	lw	s2,332(a5)
 2e8:	02090663          	beqz	s2,314 <.L253>
 2ec:	00000a37          	lui	s4,0x0
 2f0:	000a2583          	lw	a1,0(s4) # 0 <KISS_Find_channel_end>
 2f4:	1547a783          	lw	a5,340(a5)
 2f8:	ce2e                	sw	a1,28(sp)
 2fa:	9782                	jalr	a5
 2fc:	000a2703          	lw	a4,0(s4)
 300:	45f2                	lw	a1,28(sp)
 302:	00000637          	lui	a2,0x0
 306:	86aa                	mv	a3,a0
 308:	8826                	mv	a6,s1
 30a:	87ce                	mv	a5,s3
 30c:	00060613          	mv	a2,a2
 310:	450d                	li	a0,3
 312:	9902                	jalr	s2

00000314 <.L253>:
 314:	00042783          	lw	a5,0(s0)
 318:	cb8d                	beqz	a5,34a <.L254>
 31a:	14c7a903          	lw	s2,332(a5)
 31e:	02090663          	beqz	s2,34a <.L254>
 322:	00000a37          	lui	s4,0x0
 326:	000a2583          	lw	a1,0(s4) # 0 <KISS_Find_channel_end>
 32a:	1547a783          	lw	a5,340(a5)
 32e:	ce2e                	sw	a1,28(sp)
 330:	9782                	jalr	a5
 332:	000a2703          	lw	a4,0(s4)
 336:	45f2                	lw	a1,28(sp)
 338:	00000637          	lui	a2,0x0
 33c:	86aa                	mv	a3,a0
 33e:	8826                	mv	a6,s1
 340:	87ce                	mv	a5,s3
 342:	00060613          	mv	a2,a2
 346:	450d                	li	a0,3
 348:	9902                	jalr	s2

0000034a <.L254>:
 34a:	00042783          	lw	a5,0(s0)
 34e:	00000537          	lui	a0,0x0
 352:	4426                	lw	s0,72(sp)
 354:	40b6                	lw	ra,76(sp)
 356:	4496                	lw	s1,68(sp)
 358:	4906                	lw	s2,64(sp)
 35a:	59f2                	lw	s3,60(sp)
 35c:	5a62                	lw	s4,56(sp)
 35e:	5ad2                	lw	s5,52(sp)
 360:	0b47a783          	lw	a5,180(a5)
 364:	00052503          	lw	a0,0(a0) # 0 <KISS_Find_channel_end>
 368:	577d                	li	a4,-1
 36a:	4681                	li	a3,0
 36c:	4601                	li	a2,0
 36e:	4585                	li	a1,1
 370:	6161                	add	sp,sp,80
 372:	8782                	jr	a5

00000374 <.L249>:
 374:	4ca4                	lw	s1,88(s1)
 376:	bd45                	j	226 <.L248>

00000378 <.L240>:
 378:	40b6                	lw	ra,76(sp)
 37a:	4426                	lw	s0,72(sp)
 37c:	4496                	lw	s1,68(sp)
 37e:	4906                	lw	s2,64(sp)
 380:	59f2                	lw	s3,60(sp)
 382:	5a62                	lw	s4,56(sp)
 384:	5ad2                	lw	s5,52(sp)
 386:	6161                	add	sp,sp,80
 388:	8082                	ret

Disassembly of section .text.KISS_Find_channel_trans:

00000000 <KISS_Find_channel_trans>:
   0:	000007b7          	lui	a5,0x0
   4:	0007a783          	lw	a5,0(a5) # 0 <KISS_Find_channel_trans>
   8:	711d                	add	sp,sp,-96
   a:	c4d2                	sw	s4,72(sp)
   c:	00000a37          	lui	s4,0x0
  10:	cca2                	sw	s0,88(sp)
  12:	caa6                	sw	s1,84(sp)
  14:	c8ca                	sw	s2,80(sp)
  16:	c2d6                	sw	s5,68(sp)
  18:	ce86                	sw	ra,92(sp)
  1a:	c6ce                	sw	s3,76(sp)
  1c:	c0da                	sw	s6,64(sp)
  1e:	de5e                	sw	s7,60(sp)
  20:	dc62                	sw	s8,56(sp)
  22:	da66                	sw	s9,52(sp)
  24:	00000ab7          	lui	s5,0x0
  28:	0587a903          	lw	s2,88(a5)
  2c:	000a0793          	mv	a5,s4
  30:	0017cb03          	lbu	s6,1(a5)
  34:	000a8793          	mv	a5,s5
  38:	4380                	lw	s0,0(a5)
  3a:	84aa                	mv	s1,a0
  3c:	000a0a13          	mv	s4,s4
  40:	01e44783          	lbu	a5,30(s0)
  44:	000a8a93          	mv	s5,s5
  48:	27679963          	bne	a5,s6,2ba <.L302>

0000004c <.L304>:
  4c:	03a48c13          	add	s8,s1,58

00000050 <.L303>:
  50:	36090a63          	beqz	s2,3c4 <.L301>
  54:	4619                	li	a2,6
  56:	85ca                	mv	a1,s2
  58:	8562                	mv	a0,s8
  5a:	00000097          	auipc	ra,0x0
  5e:	000080e7          	jalr	ra # 5a <.L303+0xa>
  62:	36051e63          	bnez	a0,3de <.L305>
  66:	02c4a983          	lw	s3,44(s1)
  6a:	03d00713          	li	a4,61
  6e:	0464dc83          	lhu	s9,70(s1)
  72:	09d2                	sll	s3,s3,0x14
  74:	0149d993          	srl	s3,s3,0x14
  78:	fc098793          	add	a5,s3,-64
  7c:	07c2                	sll	a5,a5,0x10
  7e:	83c1                	srl	a5,a5,0x10
  80:	34f76263          	bltu	a4,a5,3c4 <.L301>
  84:	01895783          	lhu	a5,24(s2)
  88:	004cdc93          	srl	s9,s9,0x4
  8c:	33978c63          	beq	a5,s9,3c4 <.L301>
  90:	01090b93          	add	s7,s2,16
  94:	4619                	li	a2,6
  96:	01290593          	add	a1,s2,18
  9a:	855e                	mv	a0,s7
  9c:	00000097          	auipc	ra,0x0
  a0:	000080e7          	jalr	ra # 9c <.L303+0x4c>
  a4:	85de                	mv	a1,s7
  a6:	01391b23          	sh	s3,22(s2)
  aa:	01991c23          	sh	s9,24(s2)
  ae:	1028                	add	a0,sp,40
  b0:	01690313          	add	t1,s2,22
  b4:	4601                	li	a2,0
  b6:	4681                	li	a3,0
  b8:	4e19                	li	t3,6
  ba:	4e8d                	li	t4,3
  bc:	4809                	li	a6,2
  be:	58e9                	li	a7,-6

000000c0 <.L323>:
  c0:	0005d783          	lhu	a5,0(a1)
  c4:	40f987b3          	sub	a5,s3,a5
  c8:	01079713          	sll	a4,a5,0x10
  cc:	078d                	add	a5,a5,3
  ce:	8741                	sra	a4,a4,0x10
  d0:	07c2                	sll	a5,a5,0x10
  d2:	00e51023          	sh	a4,0(a0)
  d6:	83c1                	srl	a5,a5,0x10
  d8:	2efe6263          	bltu	t3,a5,3bc <.L307>
  dc:	0685                	add	a3,a3,1
  de:	0ff6f693          	zext.b	a3,a3
  e2:	00e05563          	blez	a4,ec <.L308>
  e6:	0605                	add	a2,a2,1 # 1 <KISS_Find_channel_trans+0x1>
  e8:	0ff67613          	zext.b	a2,a2

000000ec <.L308>:
  ec:	2dd69863          	bne	a3,t4,3bc <.L307>
  f0:	02815f03          	lhu	t5,40(sp)
  f4:	02a15f83          	lhu	t6,42(sp)
  f8:	02c15703          	lhu	a4,44(sp)
  fc:	01ff07b3          	add	a5,t5,t6
 100:	03ff0f33          	mul	t5,t5,t6
 104:	97ba                	add	a5,a5,a4
 106:	07c2                	sll	a5,a5,0x10
 108:	83c1                	srl	a5,a5,0x10
 10a:	9bed                	and	a5,a5,-5
 10c:	03e70733          	mul	a4,a4,t5
 110:	01071f13          	sll	t5,a4,0x10
 114:	0742                	sll	a4,a4,0x10
 116:	010f5f13          	srl	t5,t5,0x10
 11a:	8741                	sra	a4,a4,0x10
 11c:	01078663          	beq	a5,a6,128 <.L309>
 120:	07c2                	sll	a5,a5,0x10
 122:	87c1                	sra	a5,a5,0x10
 124:	29179c63          	bne	a5,a7,3bc <.L307>

00000128 <.L309>:
 128:	ffbf7793          	and	a5,t5,-5
 12c:	01078563          	beq	a5,a6,136 <.L310>
 130:	9b6d                	and	a4,a4,-5
 132:	29171563          	bne	a4,a7,3bc <.L307>

00000136 <.L310>:
 136:	00845783          	lhu	a5,8(s0)
 13a:	19fd                	add	s3,s3,-1
 13c:	40c989b3          	sub	s3,s3,a2
 140:	0785                	add	a5,a5,1
 142:	07c2                	sll	a5,a5,0x10
 144:	87c1                	sra	a5,a5,0x10
 146:	00f41423          	sh	a5,8(s0)
 14a:	0786                	sll	a5,a5,0x1
 14c:	97a2                	add	a5,a5,s0
 14e:	01379423          	sh	s3,8(a5)
 152:	00841983          	lh	s3,8(s0)
 156:	13305f63          	blez	s3,294 <.L312>
 15a:	01140c93          	add	s9,s0,17
 15e:	4619                	li	a2,6
 160:	85e2                	mv	a1,s8
 162:	8566                	mv	a0,s9
 164:	00000097          	auipc	ra,0x0
 168:	000080e7          	jalr	ra # 164 <.L310+0x2e>
 16c:	01040703          	lb	a4,16(s0)
 170:	00048783          	lb	a5,0(s1)
 174:	16050b63          	beqz	a0,2ea <.L313>
 178:	00f74363          	blt	a4,a5,17e <.L314>
 17c:	e715                	bnez	a4,1a8 <.L315>

0000017e <.L314>:
 17e:	4619                	li	a2,6
 180:	85e2                	mv	a1,s8
 182:	8566                	mv	a0,s9
 184:	00000097          	auipc	ra,0x0
 188:	000080e7          	jalr	ra # 184 <.L314+0x6>
 18c:	0004c783          	lbu	a5,0(s1)
 190:	0986                	sll	s3,s3,0x1
 192:	99a2                	add	s3,s3,s0
 194:	00f40823          	sb	a5,16(s0)
 198:	0089d783          	lhu	a5,8(s3)
 19c:	01640c23          	sb	s6,24(s0)
 1a0:	00040ca3          	sb	zero,25(s0)
 1a4:	00f40ba3          	sb	a5,23(s0)

000001a8 <.L315>:
 1a8:	018a4703          	lbu	a4,24(s4) # 18 <KISS_Find_channel_trans+0x18>
 1ac:	4785                	li	a5,1
 1ae:	06f71063          	bne	a4,a5,20e <.L317>
 1b2:	000007b7          	lui	a5,0x0
 1b6:	0007a783          	lw	a5,0(a5) # 0 <KISS_Find_channel_trans>
 1ba:	cbb1                	beqz	a5,20e <.L317>
 1bc:	14c7a403          	lw	s0,332(a5)
 1c0:	c439                	beqz	s0,20e <.L317>
 1c2:	000009b7          	lui	s3,0x0
 1c6:	0009a583          	lw	a1,0(s3) # 0 <KISS_Find_channel_trans>
 1ca:	1547a783          	lw	a5,340(a5)
 1ce:	ce2e                	sw	a1,28(sp)
 1d0:	9782                	jalr	a5
 1d2:	000aa703          	lw	a4,0(s5) # 0 <KISS_Find_channel_trans>
 1d6:	45f2                	lw	a1,28(sp)
 1d8:	86aa                	mv	a3,a0
 1da:	01070603          	lb	a2,16(a4)
 1de:	01374883          	lbu	a7,19(a4)
 1e2:	01274803          	lbu	a6,18(a4)
 1e6:	01174783          	lbu	a5,17(a4)
 1ea:	c632                	sw	a2,12(sp)
 1ec:	01674603          	lbu	a2,22(a4)
 1f0:	450d                	li	a0,3
 1f2:	c432                	sw	a2,8(sp)
 1f4:	01574603          	lbu	a2,21(a4)
 1f8:	c232                	sw	a2,4(sp)
 1fa:	01474703          	lbu	a4,20(a4)
 1fe:	00000637          	lui	a2,0x0
 202:	00060613          	mv	a2,a2
 206:	c03a                	sw	a4,0(sp)
 208:	0009a703          	lw	a4,0(s3)
 20c:	9402                	jalr	s0

0000020e <.L317>:
 20e:	000aa783          	lw	a5,0(s5)
 212:	00079423          	sh	zero,8(a5)
 216:	00091323          	sh	zero,6(s2)
 21a:	00092423          	sw	zero,8(s2)
 21e:	01078703          	lb	a4,16(a5)
 222:	fc500793          	li	a5,-59
 226:	0af75163          	bge	a4,a5,2c8 <.L321>
 22a:	01aa4783          	lbu	a5,26(s4)
 22e:	4405                	li	s0,1
 230:	08878c63          	beq	a5,s0,2c8 <.L321>
 234:	019a4783          	lbu	a5,25(s4)
 238:	ebc1                	bnez	a5,2c8 <.L321>
 23a:	4501                	li	a0,0
 23c:	00000097          	auipc	ra,0x0
 240:	000080e7          	jalr	ra # 23c <.L317+0x2e>
 244:	000aa783          	lw	a5,0(s5)
 248:	01c7c703          	lbu	a4,28(a5)
 24c:	04870463          	beq	a4,s0,294 <.L312>
 250:	00878e23          	sb	s0,28(a5)
 254:	01678d23          	sb	s6,26(a5)
 258:	018a4783          	lbu	a5,24(s4)
 25c:	02879c63          	bne	a5,s0,294 <.L312>
 260:	000007b7          	lui	a5,0x0
 264:	0007a783          	lw	a5,0(a5) # 0 <KISS_Find_channel_trans>
 268:	c795                	beqz	a5,294 <.L312>
 26a:	14c7a403          	lw	s0,332(a5)
 26e:	c01d                	beqz	s0,294 <.L312>
 270:	000004b7          	lui	s1,0x0
 274:	0004a583          	lw	a1,0(s1) # 0 <KISS_Find_channel_trans>
 278:	1547a783          	lw	a5,340(a5)
 27c:	ce2e                	sw	a1,28(sp)
 27e:	9782                	jalr	a5
 280:	0004a703          	lw	a4,0(s1)
 284:	45f2                	lw	a1,28(sp)
 286:	00000637          	lui	a2,0x0
 28a:	86aa                	mv	a3,a0
 28c:	00060613          	mv	a2,a2
 290:	450d                	li	a0,3
 292:	9402                	jalr	s0

00000294 <.L312>:
 294:	4466                	lw	s0,88(sp)
 296:	40f6                	lw	ra,92(sp)
 298:	44d6                	lw	s1,84(sp)
 29a:	4946                	lw	s2,80(sp)
 29c:	49b6                	lw	s3,76(sp)
 29e:	4a26                	lw	s4,72(sp)
 2a0:	4a96                	lw	s5,68(sp)
 2a2:	4b06                	lw	s6,64(sp)
 2a4:	5c62                	lw	s8,56(sp)
 2a6:	5cd2                	lw	s9,52(sp)
 2a8:	855e                	mv	a0,s7
 2aa:	5bf2                	lw	s7,60(sp)
 2ac:	4621                	li	a2,8
 2ae:	4581                	li	a1,0
 2b0:	6125                	add	sp,sp,96
 2b2:	00000317          	auipc	t1,0x0
 2b6:	00030067          	jr	t1 # 2b2 <.L312+0x1e>

000002ba <.L302>:
 2ba:	01d44703          	lbu	a4,29(s0)
 2be:	01640f23          	sb	s6,30(s0)
 2c2:	4785                	li	a5,1
 2c4:	d8f714e3          	bne	a4,a5,4c <.L304>

000002c8 <.L321>:
 2c8:	4466                	lw	s0,88(sp)
 2ca:	40f6                	lw	ra,92(sp)
 2cc:	4946                	lw	s2,80(sp)
 2ce:	49b6                	lw	s3,76(sp)
 2d0:	4a26                	lw	s4,72(sp)
 2d2:	4a96                	lw	s5,68(sp)
 2d4:	4b06                	lw	s6,64(sp)
 2d6:	5bf2                	lw	s7,60(sp)
 2d8:	5c62                	lw	s8,56(sp)
 2da:	5cd2                	lw	s9,52(sp)
 2dc:	8526                	mv	a0,s1
 2de:	44d6                	lw	s1,84(sp)
 2e0:	6125                	add	sp,sp,96
 2e2:	00000317          	auipc	t1,0x0
 2e6:	00030067          	jr	t1 # 2e2 <.L321+0x1a>

000002ea <.L313>:
 2ea:	00f75e63          	bge	a4,a5,306 <.L319>
 2ee:	0986                	sll	s3,s3,0x1
 2f0:	00f40823          	sb	a5,16(s0)
 2f4:	99a2                	add	s3,s3,s0
 2f6:	0089d783          	lhu	a5,8(s3)
 2fa:	01640c23          	sb	s6,24(s0)
 2fe:	00040ca3          	sb	zero,25(s0)
 302:	00f40ba3          	sb	a5,23(s0)

00000306 <.L319>:
 306:	018a4703          	lbu	a4,24(s4)
 30a:	4785                	li	a5,1
 30c:	f0f711e3          	bne	a4,a5,20e <.L317>
 310:	00000437          	lui	s0,0x0
 314:	00042783          	lw	a5,0(s0) # 0 <KISS_Find_channel_trans>
 318:	cba1                	beqz	a5,368 <.L320>
 31a:	14c7a983          	lw	s3,332(a5)
 31e:	04098563          	beqz	s3,368 <.L320>
 322:	00000c37          	lui	s8,0x0
 326:	000c2583          	lw	a1,0(s8) # 0 <KISS_Find_channel_trans>
 32a:	1547a783          	lw	a5,340(a5)
 32e:	ce2e                	sw	a1,28(sp)
 330:	9782                	jalr	a5
 332:	000aa703          	lw	a4,0(s5)
 336:	45f2                	lw	a1,28(sp)
 338:	86aa                	mv	a3,a0
 33a:	01674603          	lbu	a2,22(a4)
 33e:	01374883          	lbu	a7,19(a4)
 342:	01274803          	lbu	a6,18(a4)
 346:	01174783          	lbu	a5,17(a4)
 34a:	c432                	sw	a2,8(sp)
 34c:	01574603          	lbu	a2,21(a4)
 350:	450d                	li	a0,3
 352:	c232                	sw	a2,4(sp)
 354:	01474703          	lbu	a4,20(a4)
 358:	00000637          	lui	a2,0x0
 35c:	00060613          	mv	a2,a2
 360:	c03a                	sw	a4,0(sp)
 362:	000c2703          	lw	a4,0(s8)
 366:	9982                	jalr	s3

00000368 <.L320>:
 368:	00042783          	lw	a5,0(s0)
 36c:	ea0781e3          	beqz	a5,20e <.L317>
 370:	14c7a403          	lw	s0,332(a5)
 374:	e8040de3          	beqz	s0,20e <.L317>
 378:	000009b7          	lui	s3,0x0
 37c:	0009a583          	lw	a1,0(s3) # 0 <KISS_Find_channel_trans>
 380:	1547a783          	lw	a5,340(a5)
 384:	ce2e                	sw	a1,28(sp)
 386:	9782                	jalr	a5
 388:	03f4c783          	lbu	a5,63(s1)
 38c:	0009a703          	lw	a4,0(s3)
 390:	45f2                	lw	a1,28(sp)
 392:	c43e                	sw	a5,8(sp)
 394:	03e4c783          	lbu	a5,62(s1)
 398:	00000637          	lui	a2,0x0
 39c:	86aa                	mv	a3,a0
 39e:	c23e                	sw	a5,4(sp)
 3a0:	03d4c783          	lbu	a5,61(s1)
 3a4:	00060613          	mv	a2,a2
 3a8:	450d                	li	a0,3
 3aa:	c03e                	sw	a5,0(sp)
 3ac:	03c4c883          	lbu	a7,60(s1)
 3b0:	03b4c803          	lbu	a6,59(s1)
 3b4:	03a4c783          	lbu	a5,58(s1)
 3b8:	9402                	jalr	s0
 3ba:	bd91                	j	20e <.L317>

000003bc <.L307>:
 3bc:	0589                	add	a1,a1,2
 3be:	0509                	add	a0,a0,2
 3c0:	d06590e3          	bne	a1,t1,c0 <.L323>

000003c4 <.L301>:
 3c4:	40f6                	lw	ra,92(sp)
 3c6:	4466                	lw	s0,88(sp)
 3c8:	44d6                	lw	s1,84(sp)
 3ca:	4946                	lw	s2,80(sp)
 3cc:	49b6                	lw	s3,76(sp)
 3ce:	4a26                	lw	s4,72(sp)
 3d0:	4a96                	lw	s5,68(sp)
 3d2:	4b06                	lw	s6,64(sp)
 3d4:	5bf2                	lw	s7,60(sp)
 3d6:	5c62                	lw	s8,56(sp)
 3d8:	5cd2                	lw	s9,52(sp)
 3da:	6125                	add	sp,sp,96
 3dc:	8082                	ret

000003de <.L305>:
 3de:	05892903          	lw	s2,88(s2)
 3e2:	b1bd                	j	50 <.L303>

Disassembly of section .text.KISS_Find_channel_direct:

00000000 <KISS_Find_channel_direct>:
   0:	000007b7          	lui	a5,0x0
   4:	0007a783          	lw	a5,0(a5) # 0 <KISS_Find_channel_direct>
   8:	711d                	add	sp,sp,-96
   a:	caa6                	sw	s1,84(sp)
   c:	4fa4                	lw	s1,88(a5)
   e:	c8ca                	sw	s2,80(sp)
  10:	c6ce                	sw	s3,76(sp)
  12:	ce86                	sw	ra,92(sp)
  14:	cca2                	sw	s0,88(sp)
  16:	c4d2                	sw	s4,72(sp)
  18:	c2d6                	sw	s5,68(sp)
  1a:	c0da                	sw	s6,64(sp)
  1c:	de5e                	sw	s7,60(sp)
  1e:	89aa                	mv	s3,a0
  20:	03450913          	add	s2,a0,52

00000024 <.L353>:
  24:	4c048163          	beqz	s1,4e6 <.L352>
  28:	4619                	li	a2,6
  2a:	85a6                	mv	a1,s1
  2c:	854a                	mv	a0,s2
  2e:	00000097          	auipc	ra,0x0
  32:	000080e7          	jalr	ra # 2e <.L353+0xa>
  36:	4c051363          	bnez	a0,4fc <.L354>
  3a:	02c9a403          	lw	s0,44(s3)
  3e:	03d00713          	li	a4,61
  42:	0469da83          	lhu	s5,70(s3)
  46:	0452                	sll	s0,s0,0x14
  48:	8051                	srl	s0,s0,0x14
  4a:	fc040793          	add	a5,s0,-64
  4e:	07c2                	sll	a5,a5,0x10
  50:	83c1                	srl	a5,a5,0x10
  52:	48f76a63          	bltu	a4,a5,4e6 <.L352>
  56:	00e4d783          	lhu	a5,14(s1)
  5a:	004ada93          	srl	s5,s5,0x4
  5e:	49578463          	beq	a5,s5,4e6 <.L352>
  62:	00648a13          	add	s4,s1,6
  66:	4619                	li	a2,6
  68:	00848593          	add	a1,s1,8
  6c:	8552                	mv	a0,s4
  6e:	00000097          	auipc	ra,0x0
  72:	000080e7          	jalr	ra # 6e <.L353+0x4a>
  76:	85d2                	mv	a1,s4
  78:	00849623          	sh	s0,12(s1)
  7c:	01549723          	sh	s5,14(s1)
  80:	1028                	add	a0,sp,40
  82:	00c48313          	add	t1,s1,12
  86:	4601                	li	a2,0
  88:	4681                	li	a3,0
  8a:	4e19                	li	t3,6
  8c:	4e8d                	li	t4,3
  8e:	4809                	li	a6,2
  90:	58e9                	li	a7,-6

00000092 <.L376>:
  92:	0005d783          	lhu	a5,0(a1)
  96:	40f407b3          	sub	a5,s0,a5
  9a:	01079713          	sll	a4,a5,0x10
  9e:	078d                	add	a5,a5,3
  a0:	8741                	sra	a4,a4,0x10
  a2:	07c2                	sll	a5,a5,0x10
  a4:	00e51023          	sh	a4,0(a0)
  a8:	83c1                	srl	a5,a5,0x10
  aa:	42fe6a63          	bltu	t3,a5,4de <.L356>
  ae:	0685                	add	a3,a3,1
  b0:	0ff6f693          	zext.b	a3,a3
  b4:	00e05563          	blez	a4,be <.L357>
  b8:	0605                	add	a2,a2,1 # 1 <KISS_Find_channel_direct+0x1>
  ba:	0ff67613          	zext.b	a2,a2

000000be <.L357>:
  be:	43d69063          	bne	a3,t4,4de <.L356>
  c2:	02815f03          	lhu	t5,40(sp)
  c6:	02a15f83          	lhu	t6,42(sp)
  ca:	02c15703          	lhu	a4,44(sp)
  ce:	01ff07b3          	add	a5,t5,t6
  d2:	03ff0f33          	mul	t5,t5,t6
  d6:	97ba                	add	a5,a5,a4
  d8:	07c2                	sll	a5,a5,0x10
  da:	83c1                	srl	a5,a5,0x10
  dc:	9bed                	and	a5,a5,-5
  de:	03e70733          	mul	a4,a4,t5
  e2:	01071f13          	sll	t5,a4,0x10
  e6:	0742                	sll	a4,a4,0x10
  e8:	010f5f13          	srl	t5,t5,0x10
  ec:	8741                	sra	a4,a4,0x10
  ee:	01078663          	beq	a5,a6,fa <.L358>
  f2:	07c2                	sll	a5,a5,0x10
  f4:	87c1                	sra	a5,a5,0x10
  f6:	3f179463          	bne	a5,a7,4de <.L356>

000000fa <.L358>:
  fa:	ffbf7793          	and	a5,t5,-5
  fe:	01078563          	beq	a5,a6,108 <.L359>
 102:	9b6d                	and	a4,a4,-5
 104:	3d171d63          	bne	a4,a7,4de <.L356>

00000108 <.L359>:
 108:	000006b7          	lui	a3,0x0
 10c:	00068793          	mv	a5,a3
 110:	4398                	lw	a4,0(a5)
 112:	147d                	add	s0,s0,-1
 114:	8c11                	sub	s0,s0,a2
 116:	00075783          	lhu	a5,0(a4)
 11a:	00068b93          	mv	s7,a3
 11e:	0785                	add	a5,a5,1
 120:	07c2                	sll	a5,a5,0x10
 122:	87c1                	sra	a5,a5,0x10
 124:	00f71023          	sh	a5,0(a4)
 128:	0786                	sll	a5,a5,0x1
 12a:	97ba                	add	a5,a5,a4
 12c:	00879023          	sh	s0,0(a5)
 130:	00071783          	lh	a5,0(a4)
 134:	30f05d63          	blez	a5,44e <.L360>
 138:	00000097          	auipc	ra,0x0
 13c:	000080e7          	jalr	ra # 138 <.L359+0x30>
 140:	000007b7          	lui	a5,0x0
 144:	0007a403          	lw	s0,0(a5) # 0 <KISS_Find_channel_direct>
 148:	ec05                	bnez	s0,180 <.L361>
 14a:	000007b7          	lui	a5,0x0
 14e:	0007a783          	lw	a5,0(a5) # 0 <KISS_Find_channel_direct>
 152:	c79d                	beqz	a5,180 <.L361>
 154:	14c7aa83          	lw	s5,332(a5)
 158:	020a8463          	beqz	s5,180 <.L361>
 15c:	00000b37          	lui	s6,0x0
 160:	000b2583          	lw	a1,0(s6) # 0 <KISS_Find_channel_direct>
 164:	1547a783          	lw	a5,340(a5)
 168:	ce2e                	sw	a1,28(sp)
 16a:	9782                	jalr	a5
 16c:	000b2703          	lw	a4,0(s6)
 170:	45f2                	lw	a1,28(sp)
 172:	00000637          	lui	a2,0x0
 176:	86aa                	mv	a3,a0
 178:	00060613          	mv	a2,a2
 17c:	4505                	li	a0,1
 17e:	9a82                	jalr	s5

00000180 <.L361>:
 180:	000ba703          	lw	a4,0(s7)
 184:	00040c23          	sb	zero,24(s0)
 188:	00071783          	lh	a5,0(a4)
 18c:	0786                	sll	a5,a5,0x1
 18e:	97ba                	add	a5,a5,a4
 190:	0007d783          	lhu	a5,0(a5)
 194:	00f40223          	sb	a5,4(s0)
 198:	4785                	li	a5,1
 19a:	00071023          	sh	zero,0(a4)
 19e:	00f70fa3          	sb	a5,31(a4)
 1a2:	0309c683          	lbu	a3,48(s3)
 1a6:	08800713          	li	a4,136
 1aa:	00e69c63          	bne	a3,a4,1c2 <.L362>
 1ae:	00f40a23          	sb	a5,20(s0)
 1b2:	0489d783          	lhu	a5,72(s3)
 1b6:	00879713          	sll	a4,a5,0x8
 1ba:	83a1                	srl	a5,a5,0x8
 1bc:	8fd9                	or	a5,a5,a4
 1be:	00f41b23          	sh	a5,22(s0)

000001c2 <.L362>:
 1c2:	03a98593          	add	a1,s3,58
 1c6:	4619                	li	a2,6
 1c8:	00540513          	add	a0,s0,5
 1cc:	00000097          	auipc	ra,0x0
 1d0:	000080e7          	jalr	ra # 1cc <.L362+0xa>
 1d4:	4619                	li	a2,6
 1d6:	85ca                	mv	a1,s2
 1d8:	00b40513          	add	a0,s0,11
 1dc:	00000097          	auipc	ra,0x0
 1e0:	000080e7          	jalr	ra # 1dc <.L362+0x1a>
 1e4:	000009b7          	lui	s3,0x0
 1e8:	4b05                	li	s6,1
 1ea:	00098793          	mv	a5,s3
 1ee:	01642023          	sw	s6,0(s0)
 1f2:	0197c783          	lbu	a5,25(a5)
 1f6:	00098993          	mv	s3,s3
 1fa:	c7c1                	beqz	a5,282 <.L363>
 1fc:	0785                	add	a5,a5,1
 1fe:	00f98ca3          	sb	a5,25(s3) # 19 <KISS_Find_channel_direct+0x19>
 202:	0544c503          	lbu	a0,84(s1)
 206:	0019c783          	lbu	a5,1(s3)
 20a:	02e4c583          	lbu	a1,46(s1)
 20e:	00a79663          	bne	a5,a0,21a <.L364>
 212:	0029c783          	lbu	a5,2(s3)
 216:	00b78663          	beq	a5,a1,222 <.L365>

0000021a <.L364>:
 21a:	00000097          	auipc	ra,0x0
 21e:	000080e7          	jalr	ra # 21a <.L364>

00000222 <.L365>:
 222:	0189c703          	lbu	a4,24(s3)
 226:	4785                	li	a5,1
 228:	2af71f63          	bne	a4,a5,4e6 <.L352>
 22c:	000007b7          	lui	a5,0x0
 230:	0007a783          	lw	a5,0(a5) # 0 <KISS_Find_channel_direct>
 234:	2a078963          	beqz	a5,4e6 <.L352>
 238:	14c7a403          	lw	s0,332(a5)
 23c:	2a040563          	beqz	s0,4e6 <.L352>
 240:	00000937          	lui	s2,0x0
 244:	00092583          	lw	a1,0(s2) # 0 <KISS_Find_channel_direct>
 248:	1547a783          	lw	a5,340(a5)
 24c:	ce2e                	sw	a1,28(sp)
 24e:	9782                	jalr	a5
 250:	88a2                	mv	a7,s0
 252:	4466                	lw	s0,88(sp)
 254:	02e4c803          	lbu	a6,46(s1)
 258:	0544c783          	lbu	a5,84(s1)
 25c:	00092703          	lw	a4,0(s2)
 260:	45f2                	lw	a1,28(sp)
 262:	40f6                	lw	ra,92(sp)
 264:	44d6                	lw	s1,84(sp)
 266:	4946                	lw	s2,80(sp)
 268:	49b6                	lw	s3,76(sp)
 26a:	4a26                	lw	s4,72(sp)
 26c:	4a96                	lw	s5,68(sp)
 26e:	4b06                	lw	s6,64(sp)
 270:	5bf2                	lw	s7,60(sp)
 272:	00000637          	lui	a2,0x0
 276:	86aa                	mv	a3,a0
 278:	00060613          	mv	a2,a2
 27c:	450d                	li	a0,3
 27e:	6125                	add	sp,sp,96
 280:	8882                	jr	a7

00000282 <.L363>:
 282:	00000937          	lui	s2,0x0
 286:	00092783          	lw	a5,0(s2) # 0 <KISS_Find_channel_direct>
 28a:	00000ab7          	lui	s5,0x0
 28e:	000a8513          	mv	a0,s5
 292:	0e47a783          	lw	a5,228(a5)
 296:	9782                	jalr	a5
 298:	00092783          	lw	a5,0(s2)
 29c:	000a8513          	mv	a0,s5
 2a0:	00000ab7          	lui	s5,0x0
 2a4:	0e87a783          	lw	a5,232(a5)
 2a8:	9782                	jalr	a5
 2aa:	02e4c583          	lbu	a1,46(s1)
 2ae:	0544c503          	lbu	a0,84(s1)
 2b2:	000007b7          	lui	a5,0x0
 2b6:	00078023          	sb	zero,0(a5) # 0 <KISS_Find_channel_direct>
 2ba:	00000097          	auipc	ra,0x0
 2be:	000080e7          	jalr	ra # 2ba <.L363+0x38>
 2c2:	00092783          	lw	a5,0(s2)
 2c6:	000a8513          	mv	a0,s5
 2ca:	0e47a783          	lw	a5,228(a5)
 2ce:	9782                	jalr	a5
 2d0:	00092783          	lw	a5,0(s2)
 2d4:	000a8513          	mv	a0,s5
 2d8:	0e87a783          	lw	a5,232(a5)
 2dc:	9782                	jalr	a5
 2de:	00092783          	lw	a5,0(s2)
 2e2:	000005b7          	lui	a1,0x0
 2e6:	4601                	li	a2,0
 2e8:	0ec7a783          	lw	a5,236(a5)
 2ec:	00058593          	mv	a1,a1
 2f0:	000a8513          	mv	a0,s5
 2f4:	9782                	jalr	a5
 2f6:	00092783          	lw	a5,0(s2)
 2fa:	65a1                	lui	a1,0x8
 2fc:	4601                	li	a2,0
 2fe:	0e07a783          	lw	a5,224(a5)
 302:	91858593          	add	a1,a1,-1768 # 7918 <.L433+0x70d2>
 306:	000a8513          	mv	a0,s5
 30a:	9782                	jalr	a5
 30c:	00092783          	lw	a5,0(s2)
 310:	0169aa23          	sw	s6,20(s3)
 314:	01698ca3          	sb	s6,25(s3)
 318:	c79d                	beqz	a5,346 <.L366>
 31a:	14c7aa83          	lw	s5,332(a5)
 31e:	020a8463          	beqz	s5,346 <.L366>
 322:	00000b37          	lui	s6,0x0
 326:	000b2583          	lw	a1,0(s6) # 0 <KISS_Find_channel_direct>
 32a:	1547a783          	lw	a5,340(a5)
 32e:	ce2e                	sw	a1,28(sp)
 330:	9782                	jalr	a5
 332:	000b2703          	lw	a4,0(s6)
 336:	45f2                	lw	a1,28(sp)
 338:	00000637          	lui	a2,0x0
 33c:	86aa                	mv	a3,a0
 33e:	00060613          	mv	a2,a2
 342:	450d                	li	a0,3
 344:	9a82                	jalr	s5

00000346 <.L366>:
 346:	00092783          	lw	a5,0(s2)
 34a:	c7b1                	beqz	a5,396 <.L367>
 34c:	14c7aa83          	lw	s5,332(a5)
 350:	040a8363          	beqz	s5,396 <.L367>
 354:	00000b37          	lui	s6,0x0
 358:	000b2583          	lw	a1,0(s6) # 0 <KISS_Find_channel_direct>
 35c:	1547a783          	lw	a5,340(a5)
 360:	ce2e                	sw	a1,28(sp)
 362:	9782                	jalr	a5
 364:	00a44703          	lbu	a4,10(s0)
 368:	00744883          	lbu	a7,7(s0)
 36c:	00644803          	lbu	a6,6(s0)
 370:	00544783          	lbu	a5,5(s0)
 374:	c43a                	sw	a4,8(sp)
 376:	00944703          	lbu	a4,9(s0)
 37a:	45f2                	lw	a1,28(sp)
 37c:	00000637          	lui	a2,0x0
 380:	c23a                	sw	a4,4(sp)
 382:	00844703          	lbu	a4,8(s0)
 386:	86aa                	mv	a3,a0
 388:	00060613          	mv	a2,a2
 38c:	c03a                	sw	a4,0(sp)
 38e:	000b2703          	lw	a4,0(s6)
 392:	450d                	li	a0,3
 394:	9a82                	jalr	s5

00000396 <.L367>:
 396:	00092783          	lw	a5,0(s2)
 39a:	c7b1                	beqz	a5,3e6 <.L368>
 39c:	14c7aa83          	lw	s5,332(a5)
 3a0:	040a8363          	beqz	s5,3e6 <.L368>
 3a4:	00000b37          	lui	s6,0x0
 3a8:	000b2583          	lw	a1,0(s6) # 0 <KISS_Find_channel_direct>
 3ac:	1547a783          	lw	a5,340(a5)
 3b0:	ce2e                	sw	a1,28(sp)
 3b2:	9782                	jalr	a5
 3b4:	01044703          	lbu	a4,16(s0)
 3b8:	00d44883          	lbu	a7,13(s0)
 3bc:	00c44803          	lbu	a6,12(s0)
 3c0:	00b44783          	lbu	a5,11(s0)
 3c4:	c43a                	sw	a4,8(sp)
 3c6:	00f44703          	lbu	a4,15(s0)
 3ca:	45f2                	lw	a1,28(sp)
 3cc:	00000637          	lui	a2,0x0
 3d0:	c23a                	sw	a4,4(sp)
 3d2:	00e44703          	lbu	a4,14(s0)
 3d6:	86aa                	mv	a3,a0
 3d8:	00060613          	mv	a2,a2
 3dc:	c03a                	sw	a4,0(sp)
 3de:	000b2703          	lw	a4,0(s6)
 3e2:	450d                	li	a0,3
 3e4:	9a82                	jalr	s5

000003e6 <.L368>:
 3e6:	0189ca83          	lbu	s5,24(s3)
 3ea:	4705                	li	a4,1
 3ec:	00092783          	lw	a5,0(s2)
 3f0:	00ea9663          	bne	s5,a4,3fc <.L370>
 3f4:	efb5                	bnez	a5,470 <.L371>

000003f6 <.L374>:
 3f6:	00092783          	lw	a5,0(s2)
 3fa:	ebc5                	bnez	a5,4aa <.L372>

000003fc <.L370>:
 3fc:	00092783          	lw	a5,0(s2)
 400:	cb95                	beqz	a5,434 <.L375>
 402:	14c7a403          	lw	s0,332(a5)
 406:	c41d                	beqz	s0,434 <.L375>
 408:	000009b7          	lui	s3,0x0
 40c:	0009a583          	lw	a1,0(s3) # 0 <KISS_Find_channel_direct>
 410:	1547a783          	lw	a5,340(a5)
 414:	ce2e                	sw	a1,28(sp)
 416:	9782                	jalr	a5
 418:	02e4c803          	lbu	a6,46(s1)
 41c:	0544c783          	lbu	a5,84(s1)
 420:	0009a703          	lw	a4,0(s3)
 424:	45f2                	lw	a1,28(sp)
 426:	00000637          	lui	a2,0x0
 42a:	86aa                	mv	a3,a0
 42c:	00060613          	mv	a2,a2
 430:	450d                	li	a0,3
 432:	9402                	jalr	s0

00000434 <.L375>:
 434:	00092783          	lw	a5,0(s2)
 438:	00000537          	lui	a0,0x0
 43c:	00052503          	lw	a0,0(a0) # 0 <KISS_Find_channel_direct>
 440:	0b47a783          	lw	a5,180(a5)
 444:	577d                	li	a4,-1
 446:	4681                	li	a3,0
 448:	4601                	li	a2,0
 44a:	4585                	li	a1,1
 44c:	9782                	jalr	a5

0000044e <.L360>:
 44e:	4466                	lw	s0,88(sp)
 450:	40f6                	lw	ra,92(sp)
 452:	44d6                	lw	s1,84(sp)
 454:	4946                	lw	s2,80(sp)
 456:	49b6                	lw	s3,76(sp)
 458:	4a96                	lw	s5,68(sp)
 45a:	4b06                	lw	s6,64(sp)
 45c:	5bf2                	lw	s7,60(sp)
 45e:	8552                	mv	a0,s4
 460:	4a26                	lw	s4,72(sp)
 462:	4621                	li	a2,8
 464:	4581                	li	a1,0
 466:	6125                	add	sp,sp,96
 468:	00000317          	auipc	t1,0x0
 46c:	00030067          	jr	t1 # 468 <.L360+0x1a>

00000470 <.L371>:
 470:	14c7ab03          	lw	s6,332(a5)
 474:	f80b01e3          	beqz	s6,3f6 <.L374>
 478:	00000bb7          	lui	s7,0x0
 47c:	000ba583          	lw	a1,0(s7) # 0 <KISS_Find_channel_direct>
 480:	1547a783          	lw	a5,340(a5)
 484:	ce2e                	sw	a1,28(sp)
 486:	9782                	jalr	a5
 488:	00444783          	lbu	a5,4(s0)
 48c:	000ba703          	lw	a4,0(s7)
 490:	45f2                	lw	a1,28(sp)
 492:	00000637          	lui	a2,0x0
 496:	86aa                	mv	a3,a0
 498:	00060613          	mv	a2,a2
 49c:	450d                	li	a0,3
 49e:	9b02                	jalr	s6
 4a0:	0189c783          	lbu	a5,24(s3)
 4a4:	f55789e3          	beq	a5,s5,3f6 <.L374>
 4a8:	bf91                	j	3fc <.L370>

000004aa <.L372>:
 4aa:	14c7a403          	lw	s0,332(a5)
 4ae:	d439                	beqz	s0,3fc <.L370>
 4b0:	000009b7          	lui	s3,0x0
 4b4:	0009a583          	lw	a1,0(s3) # 0 <KISS_Find_channel_direct>
 4b8:	1547a783          	lw	a5,340(a5)
 4bc:	ce2e                	sw	a1,28(sp)
 4be:	9782                	jalr	a5
 4c0:	02e4c803          	lbu	a6,46(s1)
 4c4:	0544c783          	lbu	a5,84(s1)
 4c8:	0009a703          	lw	a4,0(s3)
 4cc:	45f2                	lw	a1,28(sp)
 4ce:	00000637          	lui	a2,0x0
 4d2:	86aa                	mv	a3,a0
 4d4:	00060613          	mv	a2,a2
 4d8:	450d                	li	a0,3
 4da:	9402                	jalr	s0
 4dc:	b705                	j	3fc <.L370>

000004de <.L356>:
 4de:	0589                	add	a1,a1,2
 4e0:	0509                	add	a0,a0,2
 4e2:	ba6598e3          	bne	a1,t1,92 <.L376>

000004e6 <.L352>:
 4e6:	40f6                	lw	ra,92(sp)
 4e8:	4466                	lw	s0,88(sp)
 4ea:	44d6                	lw	s1,84(sp)
 4ec:	4946                	lw	s2,80(sp)
 4ee:	49b6                	lw	s3,76(sp)
 4f0:	4a26                	lw	s4,72(sp)
 4f2:	4a96                	lw	s5,68(sp)
 4f4:	4b06                	lw	s6,64(sp)
 4f6:	5bf2                	lw	s7,60(sp)
 4f8:	6125                	add	sp,sp,96
 4fa:	8082                	ret

000004fc <.L354>:
 4fc:	4ca4                	lw	s1,88(s1)
 4fe:	b61d                	j	24 <.L353>

Disassembly of section .text.KISS_Find_channel:

00000000 <KISS_Find_channel>:
   0:	1141                	add	sp,sp,-16
   2:	c226                	sw	s1,4(sp)
   4:	000004b7          	lui	s1,0x0
   8:	c422                	sw	s0,8(sp)
   a:	4619                	li	a2,6
   c:	842a                	mv	s0,a0
   e:	00048593          	mv	a1,s1
  12:	03450513          	add	a0,a0,52
  16:	c606                	sw	ra,12(sp)
  18:	00000097          	auipc	ra,0x0
  1c:	000080e7          	jalr	ra # 18 <KISS_Find_channel+0x18>
  20:	e911                	bnez	a0,34 <.L424>
  22:	8522                	mv	a0,s0
  24:	4422                	lw	s0,8(sp)
  26:	40b2                	lw	ra,12(sp)
  28:	4492                	lw	s1,4(sp)
  2a:	0141                	add	sp,sp,16
  2c:	00000317          	auipc	t1,0x0
  30:	00030067          	jr	t1 # 2c <KISS_Find_channel+0x2c>

00000034 <.L424>:
  34:	4619                	li	a2,6
  36:	00048593          	mv	a1,s1
  3a:	04040513          	add	a0,s0,64
  3e:	00000097          	auipc	ra,0x0
  42:	000080e7          	jalr	ra # 3e <.L424+0xa>
  46:	e911                	bnez	a0,5a <.L423>
  48:	8522                	mv	a0,s0
  4a:	4422                	lw	s0,8(sp)
  4c:	40b2                	lw	ra,12(sp)
  4e:	4492                	lw	s1,4(sp)
  50:	0141                	add	sp,sp,16
  52:	00000317          	auipc	t1,0x0
  56:	00030067          	jr	t1 # 52 <.L424+0x1e>

0000005a <.L423>:
  5a:	40b2                	lw	ra,12(sp)
  5c:	4422                	lw	s0,8(sp)
  5e:	4492                	lw	s1,4(sp)
  60:	0141                	add	sp,sp,16
  62:	8082                	ret

Disassembly of section .text.KISS_Deal_with_ht20:

00000000 <KISS_Deal_with_ht20>:
   0:	e589                	bnez	a1,a <.L428>
   2:	00000317          	auipc	t1,0x0
   6:	00030067          	jr	t1 # 2 <KISS_Deal_with_ht20+0x2>

0000000a <.L428>:
   a:	7155                	add	sp,sp,-208
   c:	dd52                	sw	s4,184(sp)
   e:	00558a13          	add	s4,a1,5
  12:	c5a2                	sw	s0,200(sp)
  14:	c3a6                	sw	s1,196(sp)
  16:	842e                	mv	s0,a1
  18:	84aa                	mv	s1,a0
  1a:	4619                	li	a2,6
  1c:	85d2                	mv	a1,s4
  1e:	03a50513          	add	a0,a0,58
  22:	c786                	sw	ra,204(sp)
  24:	c1ca                	sw	s2,192(sp)
  26:	df4e                	sw	s3,188(sp)
  28:	db56                	sw	s5,180(sp)
  2a:	d95a                	sw	s6,176(sp)
  2c:	d75e                	sw	s7,172(sp)
  2e:	d562                	sw	s8,168(sp)
  30:	d366                	sw	s9,164(sp)
  32:	d16a                	sw	s10,160(sp)
  34:	cf6e                	sw	s11,156(sp)
  36:	00000097          	auipc	ra,0x0
  3a:	000080e7          	jalr	ra # 36 <.L428+0x2c>
  3e:	e90d                	bnez	a0,70 <.L427>
  40:	00b40913          	add	s2,s0,11
  44:	4619                	li	a2,6
  46:	85ca                	mv	a1,s2
  48:	03448513          	add	a0,s1,52 # 34 <.L428+0x2a>
  4c:	00000097          	auipc	ra,0x0
  50:	000080e7          	jalr	ra # 4c <.L428+0x42>
  54:	89aa                	mv	s3,a0
  56:	ed09                	bnez	a0,70 <.L427>
  58:	4018                	lw	a4,0(s0)
  5a:	4791                	li	a5,4
  5c:	02e7e963          	bltu	a5,a4,8e <.L432>
  60:	4789                	li	a5,2
  62:	7ee7e263          	bltu	a5,a4,846 <.L433>
  66:	4605                	li	a2,1
  68:	1ec70163          	beq	a4,a2,24a <.L434>
  6c:	3ef70463          	beq	a4,a5,454 <.L435>

00000070 <.L427>:
  70:	40be                	lw	ra,204(sp)
  72:	442e                	lw	s0,200(sp)
  74:	449e                	lw	s1,196(sp)
  76:	490e                	lw	s2,192(sp)
  78:	59fa                	lw	s3,188(sp)
  7a:	5a6a                	lw	s4,184(sp)
  7c:	5ada                	lw	s5,180(sp)
  7e:	5b4a                	lw	s6,176(sp)
  80:	5bba                	lw	s7,172(sp)
  82:	5c2a                	lw	s8,168(sp)
  84:	5c9a                	lw	s9,164(sp)
  86:	5d0a                	lw	s10,160(sp)
  88:	4dfa                	lw	s11,156(sp)
  8a:	6169                	add	sp,sp,208
  8c:	8082                	ret

0000008e <.L432>:
  8e:	4795                	li	a5,5
  90:	fef710e3          	bne	a4,a5,70 <.L427>
  94:	04444703          	lbu	a4,68(s0)
  98:	4785                	li	a5,1
  9a:	01a45983          	lhu	s3,26(s0)
  9e:	05a40493          	add	s1,s0,90
  a2:	02f71563          	bne	a4,a5,cc <.L480>
  a6:	02340593          	add	a1,s0,35
  aa:	852e                	mv	a0,a1
  ac:	c62e                	sw	a1,12(sp)
  ae:	00000097          	auipc	ra,0x0
  b2:	000080e7          	jalr	ra # ae <.L432+0x20>
  b6:	04e45783          	lhu	a5,78(s0)
  ba:	45b2                	lw	a1,12(sp)
  bc:	862a                	mv	a2,a0
  be:	0785                	add	a5,a5,1
  c0:	00f48533          	add	a0,s1,a5
  c4:	00000097          	auipc	ra,0x0
  c8:	000080e7          	jalr	ra # c4 <.L432+0x36>

000000cc <.L480>:
  cc:	07400613          	li	a2,116
  d0:	4581                	li	a1,0
  d2:	0868                	add	a0,sp,28
  d4:	00000097          	auipc	ra,0x0
  d8:	000080e7          	jalr	ra # d4 <.L480+0x8>
  dc:	04e45603          	lhu	a2,78(s0)
  e0:	85a6                	mv	a1,s1
  e2:	1868                	add	a0,sp,60
  e4:	00000097          	auipc	ra,0x0
  e8:	000080e7          	jalr	ra # e4 <.L480+0x18>
  ec:	000004b7          	lui	s1,0x0
  f0:	0004a783          	lw	a5,0(s1) # 0 <KISS_Deal_with_ht20>
  f4:	cb85                	beqz	a5,124 <.L481>
  f6:	14c7aa03          	lw	s4,332(a5)
  fa:	020a0563          	beqz	s4,124 <.L481>
  fe:	00000ab7          	lui	s5,0x0
 102:	000aa583          	lw	a1,0(s5) # 0 <KISS_Deal_with_ht20>
 106:	1547a783          	lw	a5,340(a5)
 10a:	c62e                	sw	a1,12(sp)
 10c:	9782                	jalr	a5
 10e:	000aa703          	lw	a4,0(s5)
 112:	45b2                	lw	a1,12(sp)
 114:	00000637          	lui	a2,0x0
 118:	86aa                	mv	a3,a0
 11a:	187c                	add	a5,sp,60
 11c:	00060613          	mv	a2,a2
 120:	450d                	li	a0,3
 122:	9a02                	jalr	s4

00000124 <.L481>:
 124:	04e45783          	lhu	a5,78(s0)
 128:	0878                	add	a4,sp,28
 12a:	4601                	li	a2,0
 12c:	00178593          	add	a1,a5,1
 130:	05c2                	sll	a1,a1,0x10
 132:	81c1                	srl	a1,a1,0x10
 134:	40f58533          	sub	a0,a1,a5
 138:	157d                	add	a0,a0,-1
 13a:	953a                	add	a0,a0,a4
 13c:	00b9e763          	bltu	s3,a1,14a <.L483>
 140:	fff98613          	add	a2,s3,-1
 144:	8e1d                	sub	a2,a2,a5
 146:	0642                	sll	a2,a2,0x10
 148:	8241                	srl	a2,a2,0x10

0000014a <.L483>:
 14a:	05a58593          	add	a1,a1,90
 14e:	95a2                	add	a1,a1,s0
 150:	00000097          	auipc	ra,0x0
 154:	000080e7          	jalr	ra # 150 <.L483+0x6>
 158:	0004a783          	lw	a5,0(s1)
 15c:	cb85                	beqz	a5,18c <.L484>
 15e:	14c7a983          	lw	s3,332(a5)
 162:	02098563          	beqz	s3,18c <.L484>
 166:	00000a37          	lui	s4,0x0
 16a:	000a2583          	lw	a1,0(s4) # 0 <KISS_Deal_with_ht20>
 16e:	1547a783          	lw	a5,340(a5)
 172:	c62e                	sw	a1,12(sp)
 174:	9782                	jalr	a5
 176:	000a2703          	lw	a4,0(s4)
 17a:	45b2                	lw	a1,12(sp)
 17c:	00000637          	lui	a2,0x0
 180:	86aa                	mv	a3,a0
 182:	087c                	add	a5,sp,28
 184:	00060613          	mv	a2,a2
 188:	450d                	li	a0,3
 18a:	9982                	jalr	s3

0000018c <.L484>:
 18c:	01844783          	lbu	a5,24(s0)
 190:	4705                	li	a4,1
 192:	02e78063          	beq	a5,a4,1b2 <.L485>
 196:	04444783          	lbu	a5,68(s0)
 19a:	00e79c63          	bne	a5,a4,1b2 <.L485>
 19e:	4619                	li	a2,6
 1a0:	85ca                	mv	a1,s2
 1a2:	07d10513          	add	a0,sp,125
 1a6:	06f10e23          	sb	a5,124(sp)
 1aa:	00000097          	auipc	ra,0x0
 1ae:	000080e7          	jalr	ra # 1aa <.L484+0x1e>

000001b2 <.L485>:
 1b2:	04e45783          	lhu	a5,78(s0)
 1b6:	4501                	li	a0,0
 1b8:	97a2                	add	a5,a5,s0
 1ba:	05a7c783          	lbu	a5,90(a5)
 1be:	08f10423          	sb	a5,136(sp)
 1c2:	4785                	li	a5,1
 1c4:	c33e                	sw	a5,132(sp)
 1c6:	4799                	li	a5,6
 1c8:	c01c                	sw	a5,0(s0)
 1ca:	00000097          	auipc	ra,0x0
 1ce:	000080e7          	jalr	ra # 1ca <.L485+0x18>
 1d2:	c90d                	beqz	a0,204 <.L486>
 1d4:	0004a783          	lw	a5,0(s1)
 1d8:	c795                	beqz	a5,204 <.L486>
 1da:	14c7a403          	lw	s0,332(a5)
 1de:	c01d                	beqz	s0,204 <.L486>
 1e0:	00000937          	lui	s2,0x0
 1e4:	00092583          	lw	a1,0(s2) # 0 <KISS_Deal_with_ht20>
 1e8:	1547a783          	lw	a5,340(a5)
 1ec:	c62e                	sw	a1,12(sp)
 1ee:	9782                	jalr	a5
 1f0:	00092703          	lw	a4,0(s2)
 1f4:	45b2                	lw	a1,12(sp)
 1f6:	00000637          	lui	a2,0x0
 1fa:	86aa                	mv	a3,a0
 1fc:	00060613          	mv	a2,a2
 200:	4505                	li	a0,1
 202:	9402                	jalr	s0

00000204 <.L486>:
 204:	0004a783          	lw	a5,0(s1)
 208:	00000437          	lui	s0,0x0
 20c:	00040513          	mv	a0,s0
 210:	0e47a783          	lw	a5,228(a5)
 214:	9782                	jalr	a5
 216:	0004a783          	lw	a5,0(s1)
 21a:	00040513          	mv	a0,s0
 21e:	0e87a783          	lw	a5,232(a5)
 222:	9782                	jalr	a5
 224:	01c14783          	lbu	a5,28(sp)
 228:	e40784e3          	beqz	a5,70 <.L427>
 22c:	0004a783          	lw	a5,0(s1)
 230:	00000537          	lui	a0,0x0
 234:	00052503          	lw	a0,0(a0) # 0 <KISS_Deal_with_ht20>
 238:	0b47a783          	lw	a5,180(a5)
 23c:	577d                	li	a4,-1
 23e:	07400693          	li	a3,116
 242:	0870                	add	a2,sp,28
 244:	4589                	li	a1,2
 246:	9782                	jalr	a5
 248:	b525                	j	70 <.L427>

0000024a <.L434>:
 24a:	54dc                	lw	a5,44(s1)
 24c:	00444683          	lbu	a3,4(s0) # 4 <KISS_Deal_with_ht20+0x4>
 250:	0304c583          	lbu	a1,48(s1)
 254:	07d2                	sll	a5,a5,0x14
 256:	83d1                	srl	a5,a5,0x14
 258:	8f95                	sub	a5,a5,a3
 25a:	07c2                	sll	a5,a5,0x10
 25c:	08800693          	li	a3,136
 260:	0464d603          	lhu	a2,70(s1)
 264:	83c1                	srl	a5,a5,0x10
 266:	02d59263          	bne	a1,a3,28a <.L437>
 26a:	01444683          	lbu	a3,20(s0)
 26e:	00e69e63          	bne	a3,a4,28a <.L437>
 272:	0484d683          	lhu	a3,72(s1)
 276:	00869713          	sll	a4,a3,0x8
 27a:	82a1                	srl	a3,a3,0x8
 27c:	8f55                	or	a4,a4,a3
 27e:	01645683          	lhu	a3,22(s0)
 282:	0742                	sll	a4,a4,0x10
 284:	8341                	srl	a4,a4,0x10
 286:	dee695e3          	bne	a3,a4,70 <.L427>

0000028a <.L437>:
 28a:	03f00713          	li	a4,63
 28e:	def761e3          	bltu	a4,a5,70 <.L427>
 292:	02045703          	lhu	a4,32(s0)
 296:	40465693          	sra	a3,a2,0x4
 29a:	8211                	srl	a2,a2,0x4
 29c:	00c76563          	bltu	a4,a2,2a6 <.L438>

000002a0 <.L576>:
 2a0:	02c41023          	sh	a2,32(s0)
 2a4:	b3f1                	j	70 <.L427>

000002a6 <.L438>:
 2a6:	0705                	add	a4,a4,1
 2a8:	08e69363          	bne	a3,a4,32e <.L439>
 2ac:	04a45583          	lhu	a1,74(s0)
 2b0:	04845703          	lhu	a4,72(s0)
 2b4:	04c45683          	lhu	a3,76(s0)
 2b8:	02c41023          	sh	a2,32(s0)
 2bc:	04e41323          	sh	a4,70(s0)
 2c0:	04b41423          	sh	a1,72(s0)
 2c4:	04d41523          	sh	a3,74(s0)
 2c8:	04f41623          	sh	a5,76(s0)
 2cc:	0f05f513          	and	a0,a1,240
 2d0:	4641                	li	a2,16
 2d2:	d8c51fe3          	bne	a0,a2,70 <.L427>
 2d6:	0f077613          	and	a2,a4,240
 2da:	d8061be3          	bnez	a2,70 <.L427>
 2de:	0f06f613          	and	a2,a3,240
 2e2:	02000513          	li	a0,32
 2e6:	d8a615e3          	bne	a2,a0,70 <.L427>
 2ea:	0f07f613          	and	a2,a5,240
 2ee:	03000513          	li	a0,48
 2f2:	d6a61fe3          	bne	a2,a0,70 <.L427>
 2f6:	d6070de3          	beqz	a4,70 <.L427>
 2fa:	0712                	sll	a4,a4,0x4
 2fc:	0ff77713          	zext.b	a4,a4
 300:	89bd                	and	a1,a1,15
 302:	00b76533          	or	a0,a4,a1
 306:	07f00613          	li	a2,127
 30a:	872a                	mv	a4,a0
 30c:	02a64863          	blt	a2,a0,33c <.L441>

00000310 <.L574>:
 310:	00e41d23          	sh	a4,26(s0)
 314:	01a45483          	lhu	s1,26(s0)
 318:	06100713          	li	a4,97
 31c:	02977363          	bgeu	a4,s1,342 <.L443>
 320:	04041323          	sh	zero,70(s0)
 324:	04042423          	sw	zero,72(s0)
 328:	04041623          	sh	zero,76(s0)
 32c:	b391                	j	70 <.L427>

0000032e <.L439>:
 32e:	04041323          	sh	zero,70(s0)
 332:	04042423          	sw	zero,72(s0)
 336:	04f41623          	sh	a5,76(s0)
 33a:	b79d                	j	2a0 <.L576>

0000033c <.L441>:
 33c:	f8050713          	add	a4,a0,-128
 340:	bfc1                	j	310 <.L574>

00000342 <.L443>:
 342:	8bbd                	and	a5,a5,15
 344:	0692                	sll	a3,a3,0x4
 346:	8edd                	or	a3,a3,a5
 348:	02d40123          	sb	a3,34(s0)
 34c:	0034f793          	and	a5,s1,3
 350:	8089                	srl	s1,s1,0x2
 352:	ebf9                	bnez	a5,428 <.L444>
 354:	04041c23          	sh	zero,88(s0)
 358:	00941923          	sh	s1,18(s0)

0000035c <.L445>:
 35c:	000007b7          	lui	a5,0x0
 360:	00078713          	mv	a4,a5
 364:	01874683          	lbu	a3,24(a4)
 368:	4705                	li	a4,1
 36a:	00078913          	mv	s2,a5
 36e:	02e69f63          	bne	a3,a4,3ac <.L446>
 372:	000007b7          	lui	a5,0x0
 376:	0007a783          	lw	a5,0(a5) # 0 <KISS_Deal_with_ht20>
 37a:	cb8d                	beqz	a5,3ac <.L446>
 37c:	14c7aa03          	lw	s4,332(a5)
 380:	020a0663          	beqz	s4,3ac <.L446>
 384:	00000ab7          	lui	s5,0x0
 388:	000aa583          	lw	a1,0(s5) # 0 <KISS_Deal_with_ht20>
 38c:	1547a783          	lw	a5,340(a5)
 390:	c62e                	sw	a1,12(sp)
 392:	9782                	jalr	a5
 394:	01c45783          	lhu	a5,28(s0)
 398:	000aa703          	lw	a4,0(s5)
 39c:	45b2                	lw	a1,12(sp)
 39e:	00000637          	lui	a2,0x0
 3a2:	86aa                	mv	a3,a0
 3a4:	00060613          	mv	a2,a2
 3a8:	450d                	li	a0,3
 3aa:	9a02                	jalr	s4

000003ac <.L446>:
 3ac:	4705                	li	a4,1

000003ae <.L447>:
 3ae:	0899ca63          	blt	s3,s1,442 <.L448>
 3b2:	01894703          	lbu	a4,24(s2)
 3b6:	4785                	li	a5,1
 3b8:	02f71e63          	bne	a4,a5,3f4 <.L449>
 3bc:	000007b7          	lui	a5,0x0
 3c0:	0007a783          	lw	a5,0(a5) # 0 <KISS_Deal_with_ht20>
 3c4:	cb85                	beqz	a5,3f4 <.L449>
 3c6:	14c7a483          	lw	s1,332(a5)
 3ca:	c48d                	beqz	s1,3f4 <.L449>
 3cc:	00000937          	lui	s2,0x0
 3d0:	00092583          	lw	a1,0(s2) # 0 <KISS_Deal_with_ht20>
 3d4:	1547a783          	lw	a5,340(a5)
 3d8:	c62e                	sw	a1,12(sp)
 3da:	9782                	jalr	a5
 3dc:	01a45783          	lhu	a5,26(s0)
 3e0:	00092703          	lw	a4,0(s2)
 3e4:	45b2                	lw	a1,12(sp)
 3e6:	00000637          	lui	a2,0x0
 3ea:	86aa                	mv	a3,a0
 3ec:	00060613          	mv	a2,a2
 3f0:	450d                	li	a0,3
 3f2:	9482                	jalr	s1

000003f4 <.L449>:
 3f4:	4789                	li	a5,2
 3f6:	c01c                	sw	a5,0(s0)
 3f8:	02041023          	sh	zero,32(s0)
 3fc:	04640513          	add	a0,s0,70
 400:	442e                	lw	s0,200(sp)
 402:	40be                	lw	ra,204(sp)
 404:	449e                	lw	s1,196(sp)
 406:	490e                	lw	s2,192(sp)
 408:	59fa                	lw	s3,188(sp)
 40a:	5a6a                	lw	s4,184(sp)
 40c:	5ada                	lw	s5,180(sp)
 40e:	5b4a                	lw	s6,176(sp)
 410:	5bba                	lw	s7,172(sp)
 412:	5c2a                	lw	s8,168(sp)
 414:	5c9a                	lw	s9,164(sp)
 416:	5d0a                	lw	s10,160(sp)
 418:	4dfa                	lw	s11,156(sp)
 41a:	4621                	li	a2,8
 41c:	4581                	li	a1,0
 41e:	6169                	add	sp,sp,208
 420:	00000317          	auipc	t1,0x0
 424:	00030067          	jr	t1 # 420 <.L449+0x2c>

00000428 <.L444>:
 428:	00148713          	add	a4,s1,1
 42c:	00941923          	sh	s1,18(s0)
 430:	00f41e23          	sh	a5,28(s0)
 434:	01071493          	sll	s1,a4,0x10
 438:	4785                	li	a5,1
 43a:	04f41c23          	sh	a5,88(s0)
 43e:	80c1                	srl	s1,s1,0x10
 440:	bf31                	j	35c <.L445>

00000442 <.L448>:
 442:	01e45783          	lhu	a5,30(s0)
 446:	013716b3          	sll	a3,a4,s3
 44a:	0985                	add	s3,s3,1
 44c:	8fd5                	or	a5,a5,a3
 44e:	00f41f23          	sh	a5,30(s0)
 452:	bfb1                	j	3ae <.L447>

00000454 <.L435>:
 454:	000007b7          	lui	a5,0x0
 458:	0007a783          	lw	a5,0(a5) # 0 <KISS_Deal_with_ht20>
 45c:	00444703          	lbu	a4,4(s0)
 460:	0304c583          	lbu	a1,48(s1)
 464:	0587a983          	lw	s3,88(a5)
 468:	54dc                	lw	a5,44(s1)
 46a:	0464d683          	lhu	a3,70(s1)
 46e:	07d2                	sll	a5,a5,0x14
 470:	83d1                	srl	a5,a5,0x14
 472:	8f99                	sub	a5,a5,a4
 474:	07c2                	sll	a5,a5,0x10
 476:	08800713          	li	a4,136
 47a:	83c1                	srl	a5,a5,0x10
 47c:	02e59263          	bne	a1,a4,4a0 <.L450>
 480:	01444703          	lbu	a4,20(s0)
 484:	00c71e63          	bne	a4,a2,4a0 <.L450>
 488:	0484d603          	lhu	a2,72(s1)
 48c:	00861713          	sll	a4,a2,0x8
 490:	8221                	srl	a2,a2,0x8
 492:	8f51                	or	a4,a4,a2
 494:	01645603          	lhu	a2,22(s0)
 498:	0742                	sll	a4,a4,0x10
 49a:	8341                	srl	a4,a4,0x10
 49c:	bce61ae3          	bne	a2,a4,70 <.L427>

000004a0 <.L450>:
 4a0:	fc078713          	add	a4,a5,-64
 4a4:	0742                	sll	a4,a4,0x10
 4a6:	8341                	srl	a4,a4,0x10
 4a8:	03f00613          	li	a2,63
 4ac:	bce662e3          	bltu	a2,a4,70 <.L427>
 4b0:	02045503          	lhu	a0,32(s0)
 4b4:	4046d813          	sra	a6,a3,0x4
 4b8:	8291                	srl	a3,a3,0x4
 4ba:	00d56563          	bltu	a0,a3,4c4 <.L451>
 4be:	02d41023          	sh	a3,32(s0)
 4c2:	b67d                	j	70 <.L427>

000004c4 <.L451>:
 4c4:	05245703          	lhu	a4,82(s0)
 4c8:	05445603          	lhu	a2,84(s0)
 4cc:	05645583          	lhu	a1,86(s0)
 4d0:	0505                	add	a0,a0,1
 4d2:	04e41823          	sh	a4,80(s0)
 4d6:	04c41923          	sh	a2,82(s0)
 4da:	04b41a23          	sh	a1,84(s0)
 4de:	04f41b23          	sh	a5,86(s0)
 4e2:	02d41023          	sh	a3,32(s0)
 4e6:	b8a815e3          	bne	a6,a0,70 <.L427>
 4ea:	0f067693          	and	a3,a2,240
 4ee:	05000513          	li	a0,80
 4f2:	b6a69fe3          	bne	a3,a0,70 <.L427>
 4f6:	0f077493          	and	s1,a4,240
 4fa:	04000693          	li	a3,64
 4fe:	b6d499e3          	bne	s1,a3,70 <.L427>
 502:	0f05f593          	and	a1,a1,240
 506:	06000693          	li	a3,96
 50a:	b6d593e3          	bne	a1,a3,70 <.L427>
 50e:	0f07f793          	and	a5,a5,240
 512:	07000693          	li	a3,112
 516:	b4d79de3          	bne	a5,a3,70 <.L427>
 51a:	8b3d                	and	a4,a4,15
 51c:	8a3d                	and	a2,a2,15
 51e:	0712                	sll	a4,a4,0x4
 520:	9732                	add	a4,a4,a2
 522:	04e41723          	sh	a4,78(s0)
 526:	4585                	li	a1,1
 528:	04e40513          	add	a0,s0,78
 52c:	00000097          	auipc	ra,0x0
 530:	000080e7          	jalr	ra # 52c <.L451+0x68>
 534:	05445783          	lhu	a5,84(s0)
 538:	05645703          	lhu	a4,86(s0)
 53c:	0792                	sll	a5,a5,0x4
 53e:	0ff7f793          	zext.b	a5,a5
 542:	8b3d                	and	a4,a4,15
 544:	97ba                	add	a5,a5,a4
 546:	b2f515e3          	bne	a0,a5,70 <.L427>
 54a:	04e45783          	lhu	a5,78(s0)
 54e:	00f4f763          	bgeu	s1,a5,55c <.L454>

00000552 <.L577>:
 552:	04042823          	sw	zero,80(s0)
 556:	04042a23          	sw	zero,84(s0)
 55a:	be19                	j	70 <.L427>

0000055c <.L454>:
 55c:	01a45703          	lhu	a4,26(s0)
 560:	02100693          	li	a3,33
 564:	40f70633          	sub	a2,a4,a5
 568:	00c6d963          	bge	a3,a2,57a <.L455>
 56c:	4785                	li	a5,1
 56e:	04042823          	sw	zero,80(s0)
 572:	04042a23          	sw	zero,84(s0)
 576:	c01c                	sw	a5,0(s0)
 578:	bce5                	j	70 <.L427>

0000057a <.L455>:
 57a:	aee7fbe3          	bgeu	a5,a4,70 <.L427>
 57e:	00000ab7          	lui	s5,0x0
 582:	177d                	add	a4,a4,-1
 584:	8f1d                	sub	a4,a4,a5
 586:	000a8793          	mv	a5,s5
 58a:	0ff77493          	zext.b	s1,a4
 58e:	0187c703          	lbu	a4,24(a5)
 592:	4785                	li	a5,1
 594:	000a8a93          	mv	s5,s5
 598:	02f71e63          	bne	a4,a5,5d4 <.L456>
 59c:	000007b7          	lui	a5,0x0
 5a0:	0007a783          	lw	a5,0(a5) # 0 <KISS_Deal_with_ht20>
 5a4:	cb85                	beqz	a5,5d4 <.L456>
 5a6:	14c7ab03          	lw	s6,332(a5)
 5aa:	020b0563          	beqz	s6,5d4 <.L456>
 5ae:	00000bb7          	lui	s7,0x0
 5b2:	000ba583          	lw	a1,0(s7) # 0 <KISS_Deal_with_ht20>
 5b6:	1547a783          	lw	a5,340(a5)
 5ba:	c62e                	sw	a1,12(sp)
 5bc:	9782                	jalr	a5
 5be:	000ba703          	lw	a4,0(s7)
 5c2:	45b2                	lw	a1,12(sp)
 5c4:	00000637          	lui	a2,0x0
 5c8:	86aa                	mv	a3,a0
 5ca:	87a6                	mv	a5,s1
 5cc:	00060613          	mv	a2,a2
 5d0:	450d                	li	a0,3
 5d2:	9b02                	jalr	s6

000005d4 <.L456>:
 5d4:	02340b13          	add	s6,s0,35
 5d8:	4b85                	li	s7,1
 5da:	00000cb7          	lui	s9,0x0
 5de:	00000c37          	lui	s8,0x0
 5e2:	00000d37          	lui	s10,0x0

000005e6 <.L457>:
 5e6:	0c098b63          	beqz	s3,6bc <.L465>
 5ea:	03398d93          	add	s11,s3,51
 5ee:	856e                	mv	a0,s11
 5f0:	00000097          	auipc	ra,0x0
 5f4:	000080e7          	jalr	ra # 5f0 <.L457+0xa>
 5f8:	1ea49a63          	bne	s1,a0,7ec <.L459>
 5fc:	02244783          	lbu	a5,34(s0)
 600:	85a6                	mv	a1,s1
 602:	856e                	mv	a0,s11
 604:	c63e                	sw	a5,12(sp)
 606:	00000097          	auipc	ra,0x0
 60a:	000080e7          	jalr	ra # 606 <.L457+0x20>
 60e:	47b2                	lw	a5,12(sp)
 610:	1ca79e63          	bne	a5,a0,7ec <.L459>
 614:	856e                	mv	a0,s11
 616:	00000097          	auipc	ra,0x0
 61a:	000080e7          	jalr	ra # 616 <.L457+0x30>
 61e:	862a                	mv	a2,a0
 620:	85ee                	mv	a1,s11
 622:	855a                	mv	a0,s6
 624:	00000097          	auipc	ra,0x0
 628:	000080e7          	jalr	ra # 624 <.L457+0x3e>
 62c:	c90d                	beqz	a0,65e <.L461>
 62e:	855a                	mv	a0,s6
 630:	00000097          	auipc	ra,0x0
 634:	000080e7          	jalr	ra # 630 <.L457+0x4a>
 638:	862a                	mv	a2,a0
 63a:	4581                	li	a1,0
 63c:	855a                	mv	a0,s6
 63e:	00000097          	auipc	ra,0x0
 642:	000080e7          	jalr	ra # 63e <.L457+0x58>
 646:	856e                	mv	a0,s11
 648:	00000097          	auipc	ra,0x0
 64c:	000080e7          	jalr	ra # 648 <.L457+0x62>
 650:	862a                	mv	a2,a0
 652:	85ee                	mv	a1,s11
 654:	855a                	mv	a0,s6
 656:	00000097          	auipc	ra,0x0
 65a:	000080e7          	jalr	ra # 656 <.L457+0x70>

0000065e <.L461>:
 65e:	01844783          	lbu	a5,24(s0)
 662:	12079a63          	bnez	a5,796 <.L462>
 666:	4619                	li	a2,6
 668:	85ce                	mv	a1,s3
 66a:	854a                	mv	a0,s2
 66c:	00000097          	auipc	ra,0x0
 670:	000080e7          	jalr	ra # 66c <.L461+0xe>
 674:	14051063          	bnez	a0,7b4 <.L463>
 678:	018ac703          	lbu	a4,24(s5) # 18 <.L428+0xe>
 67c:	4785                	li	a5,1
 67e:	02f71c63          	bne	a4,a5,6b6 <.L464>

00000682 <.L581>:
 682:	000007b7          	lui	a5,0x0
 686:	0007a783          	lw	a5,0(a5) # 0 <KISS_Deal_with_ht20>
 68a:	c795                	beqz	a5,6b6 <.L464>
 68c:	14c7a483          	lw	s1,332(a5)
 690:	c09d                	beqz	s1,6b6 <.L464>
 692:	00000937          	lui	s2,0x0
 696:	00092583          	lw	a1,0(s2) # 0 <KISS_Deal_with_ht20>
 69a:	1547a783          	lw	a5,340(a5)
 69e:	c62e                	sw	a1,12(sp)
 6a0:	9782                	jalr	a5
 6a2:	00092703          	lw	a4,0(s2)
 6a6:	45b2                	lw	a1,12(sp)
 6a8:	00000637          	lui	a2,0x0
 6ac:	86aa                	mv	a3,a0
 6ae:	00060613          	mv	a2,a2
 6b2:	450d                	li	a0,3
 6b4:	9482                	jalr	s1

000006b6 <.L464>:
 6b6:	4785                	li	a5,1
 6b8:	04f40223          	sb	a5,68(s0)

000006bc <.L465>:
 6bc:	018ac703          	lbu	a4,24(s5)
 6c0:	4785                	li	a5,1
 6c2:	02f71e63          	bne	a4,a5,6fe <.L468>
 6c6:	000007b7          	lui	a5,0x0
 6ca:	0007a783          	lw	a5,0(a5) # 0 <KISS_Deal_with_ht20>
 6ce:	cb85                	beqz	a5,6fe <.L468>
 6d0:	14c7a483          	lw	s1,332(a5)
 6d4:	c48d                	beqz	s1,6fe <.L468>
 6d6:	00000937          	lui	s2,0x0
 6da:	00092583          	lw	a1,0(s2) # 0 <KISS_Deal_with_ht20>
 6de:	1547a783          	lw	a5,340(a5)
 6e2:	c62e                	sw	a1,12(sp)
 6e4:	9782                	jalr	a5
 6e6:	04444783          	lbu	a5,68(s0)
 6ea:	00092703          	lw	a4,0(s2)
 6ee:	45b2                	lw	a1,12(sp)
 6f0:	00000637          	lui	a2,0x0
 6f4:	86aa                	mv	a3,a0
 6f6:	00060613          	mv	a2,a2
 6fa:	450d                	li	a0,3
 6fc:	9482                	jalr	s1

000006fe <.L468>:
 6fe:	04444703          	lbu	a4,68(s0)
 702:	4785                	li	a5,1
 704:	0ef70763          	beq	a4,a5,7f2 <.L469>

00000708 <.L476>:
 708:	018ac703          	lbu	a4,24(s5)
 70c:	4785                	li	a5,1
 70e:	06f71b63          	bne	a4,a5,784 <.L477>
 712:	000004b7          	lui	s1,0x0
 716:	0004a783          	lw	a5,0(s1) # 0 <KISS_Deal_with_ht20>
 71a:	cb9d                	beqz	a5,750 <.L478>
 71c:	14c7a903          	lw	s2,332(a5)
 720:	02090863          	beqz	s2,750 <.L478>
 724:	000009b7          	lui	s3,0x0
 728:	0009a583          	lw	a1,0(s3) # 0 <KISS_Deal_with_ht20>
 72c:	1547a783          	lw	a5,340(a5)
 730:	c62e                	sw	a1,12(sp)
 732:	9782                	jalr	a5
 734:	01c45803          	lhu	a6,28(s0)
 738:	01245783          	lhu	a5,18(s0)
 73c:	0009a703          	lw	a4,0(s3)
 740:	45b2                	lw	a1,12(sp)
 742:	00000637          	lui	a2,0x0
 746:	86aa                	mv	a3,a0
 748:	00060613          	mv	a2,a2
 74c:	450d                	li	a0,3
 74e:	9902                	jalr	s2

00000750 <.L478>:
 750:	0004a783          	lw	a5,0(s1)
 754:	cb85                	beqz	a5,784 <.L477>
 756:	14c7a483          	lw	s1,332(a5)
 75a:	c48d                	beqz	s1,784 <.L477>
 75c:	00000937          	lui	s2,0x0
 760:	00092583          	lw	a1,0(s2) # 0 <KISS_Deal_with_ht20>
 764:	1547a783          	lw	a5,340(a5)
 768:	c62e                	sw	a1,12(sp)
 76a:	9782                	jalr	a5
 76c:	04e45783          	lhu	a5,78(s0)
 770:	00092703          	lw	a4,0(s2)
 774:	45b2                	lw	a1,12(sp)
 776:	00000637          	lui	a2,0x0
 77a:	86aa                	mv	a3,a0
 77c:	00060613          	mv	a2,a2
 780:	450d                	li	a0,3
 782:	9482                	jalr	s1

00000784 <.L477>:
 784:	01245783          	lhu	a5,18(s0)
 788:	02041023          	sh	zero,32(s0)
 78c:	0017b793          	seqz	a5,a5
 790:	078d                	add	a5,a5,3
 792:	c01c                	sw	a5,0(s0)
 794:	bb7d                	j	552 <.L577>

00000796 <.L462>:
 796:	01779f63          	bne	a5,s7,7b4 <.L463>
 79a:	4619                	li	a2,6
 79c:	85ce                	mv	a1,s3
 79e:	8552                	mv	a0,s4
 7a0:	00000097          	auipc	ra,0x0
 7a4:	000080e7          	jalr	ra # 7a0 <.L462+0xa>
 7a8:	e511                	bnez	a0,7b4 <.L463>
 7aa:	018ac783          	lbu	a5,24(s5)
 7ae:	f17794e3          	bne	a5,s7,6b6 <.L464>
 7b2:	bdc1                	j	682 <.L581>

000007b4 <.L463>:
 7b4:	018ac783          	lbu	a5,24(s5)
 7b8:	03779863          	bne	a5,s7,7e8 <.L466>
 7bc:	000ca783          	lw	a5,0(s9) # 0 <KISS_Deal_with_ht20>
 7c0:	c785                	beqz	a5,7e8 <.L466>
 7c2:	14c7ad83          	lw	s11,332(a5)
 7c6:	020d8163          	beqz	s11,7e8 <.L466>
 7ca:	000c2583          	lw	a1,0(s8) # 0 <KISS_Deal_with_ht20>
 7ce:	1547a783          	lw	a5,340(a5)
 7d2:	c62e                	sw	a1,12(sp)
 7d4:	9782                	jalr	a5
 7d6:	000c2703          	lw	a4,0(s8)
 7da:	45b2                	lw	a1,12(sp)
 7dc:	86aa                	mv	a3,a0
 7de:	87da                	mv	a5,s6
 7e0:	000d0613          	mv	a2,s10
 7e4:	450d                	li	a0,3
 7e6:	9d82                	jalr	s11

000007e8 <.L466>:
 7e8:	04040223          	sb	zero,68(s0)

000007ec <.L459>:
 7ec:	0589a983          	lw	s3,88(s3)
 7f0:	bbdd                	j	5e6 <.L457>

000007f2 <.L469>:
 7f2:	04e45783          	lhu	a5,78(s0)
 7f6:	0785                	add	a5,a5,1
 7f8:	0027d693          	srl	a3,a5,0x2
 7fc:	8b8d                	and	a5,a5,3
 7fe:	ef99                	bnez	a5,81c <.L472>
 800:	04041c23          	sh	zero,88(s0)
 804:	00041e23          	sh	zero,28(s0)
 808:	00d41923          	sh	a3,18(s0)

0000080c <.L473>:
 80c:	4701                	li	a4,0
 80e:	4781                	li	a5,0
 810:	4605                	li	a2,1

00000812 <.L474>:
 812:	02d7e163          	bltu	a5,a3,834 <.L475>
 816:	00e41f23          	sh	a4,30(s0)
 81a:	b5fd                	j	708 <.L476>

0000081c <.L472>:
 81c:	00168613          	add	a2,a3,1 # 1 <KISS_Deal_with_ht20+0x1>
 820:	00d41923          	sh	a3,18(s0)
 824:	01061693          	sll	a3,a2,0x10
 828:	00f41e23          	sh	a5,28(s0)
 82c:	04e41c23          	sh	a4,88(s0)
 830:	82c1                	srl	a3,a3,0x10
 832:	bfe9                	j	80c <.L473>

00000834 <.L475>:
 834:	00f615b3          	sll	a1,a2,a5
 838:	8f4d                	or	a4,a4,a1
 83a:	0742                	sll	a4,a4,0x10
 83c:	0785                	add	a5,a5,1
 83e:	8341                	srl	a4,a4,0x10
 840:	0ff7f793          	zext.b	a5,a5
 844:	b7f9                	j	812 <.L474>

00000846 <.L433>:
 846:	85a2                	mv	a1,s0
 848:	442e                	lw	s0,200(sp)
 84a:	40be                	lw	ra,204(sp)
 84c:	490e                	lw	s2,192(sp)
 84e:	59fa                	lw	s3,188(sp)
 850:	5a6a                	lw	s4,184(sp)
 852:	5ada                	lw	s5,180(sp)
 854:	5b4a                	lw	s6,176(sp)
 856:	5bba                	lw	s7,172(sp)
 858:	5c2a                	lw	s8,168(sp)
 85a:	5c9a                	lw	s9,164(sp)
 85c:	5d0a                	lw	s10,160(sp)
 85e:	4dfa                	lw	s11,156(sp)
 860:	8526                	mv	a0,s1
 862:	449e                	lw	s1,196(sp)
 864:	6169                	add	sp,sp,208
 866:	00000317          	auipc	t1,0x0
 86a:	00030067          	jr	t1 # 866 <.L433+0x20>

Disassembly of section .text.KISS_Deal_with:

00000000 <KISS_Deal_with>:
   0:	00050703          	lb	a4,0(a0)
   4:	fac00793          	li	a5,-84
   8:	04f74663          	blt	a4,a5,54 <.L582>
   c:	4789                	li	a5,2
   e:	04f59363          	bne	a1,a5,54 <.L582>
  12:	1141                	add	sp,sp,-16
  14:	000005b7          	lui	a1,0x0
  18:	c422                	sw	s0,8(sp)
  1a:	4619                	li	a2,6
  1c:	842a                	mv	s0,a0
  1e:	00058593          	mv	a1,a1
  22:	03450513          	add	a0,a0,52
  26:	c606                	sw	ra,12(sp)
  28:	00000097          	auipc	ra,0x0
  2c:	000080e7          	jalr	ra # 28 <KISS_Deal_with+0x28>
  30:	ed09                	bnez	a0,4a <.L584>
  32:	000007b7          	lui	a5,0x0
  36:	0007a583          	lw	a1,0(a5) # 0 <KISS_Deal_with>

0000003a <.L588>:
  3a:	8522                	mv	a0,s0
  3c:	4422                	lw	s0,8(sp)
  3e:	40b2                	lw	ra,12(sp)
  40:	0141                	add	sp,sp,16
  42:	00000317          	auipc	t1,0x0
  46:	00030067          	jr	t1 # 42 <.L588+0x8>

0000004a <.L584>:
  4a:	000007b7          	lui	a5,0x0
  4e:	0007a583          	lw	a1,0(a5) # 0 <KISS_Deal_with>
  52:	b7e5                	j	3a <.L588>

00000054 <.L582>:
  54:	8082                	ret

sc_ieee80211.o:     file format elf32-littleriscv


Disassembly of section .text.sc_get_apinfo:

00000000 <sc_get_apinfo>:
   0:	000007b7          	lui	a5,0x0
   4:	0007a783          	lw	a5,0(a5) # 0 <sc_get_apinfo>
   8:	1141                	add	sp,sp,-16
   a:	c422                	sw	s0,8(sp)
   c:	4fa0                	lw	s0,88(a5)
   e:	c226                	sw	s1,4(sp)
  10:	c606                	sw	ra,12(sp)
  12:	84aa                	mv	s1,a0

00000014 <.L2>:
  14:	e419                	bnez	s0,22 <.L4>

00000016 <.L1>:
  16:	40b2                	lw	ra,12(sp)
  18:	8522                	mv	a0,s0
  1a:	4422                	lw	s0,8(sp)
  1c:	4492                	lw	s1,4(sp)
  1e:	0141                	add	sp,sp,16
  20:	8082                	ret

00000022 <.L4>:
  22:	4619                	li	a2,6
  24:	85a2                	mv	a1,s0
  26:	8526                	mv	a0,s1
  28:	00000097          	auipc	ra,0x0
  2c:	000080e7          	jalr	ra # 28 <.L4+0x6>
  30:	d17d                	beqz	a0,16 <.L1>
  32:	4c20                	lw	s0,88(s0)
  34:	b7c5                	j	14 <.L2>

Disassembly of section .text.sc_cmp_bssid_crc:

00000000 <sc_cmp_bssid_crc>:
   0:	000007b7          	lui	a5,0x0
   4:	0007a783          	lw	a5,0(a5) # 0 <sc_cmp_bssid_crc>
   8:	7179                	add	sp,sp,-48
   a:	d422                	sw	s0,40(sp)
   c:	4fa0                	lw	s0,88(a5)
   e:	000007b7          	lui	a5,0x0
  12:	0007c783          	lbu	a5,0(a5) # 0 <sc_cmp_bssid_crc>
  16:	d226                	sw	s1,36(sp)
  18:	d606                	sw	ra,44(sp)
  1a:	d04a                	sw	s2,32(sp)
  1c:	ce4e                	sw	s3,28(sp)
  1e:	cc52                	sw	s4,24(sp)
  20:	ca56                	sw	s5,20(sp)
  22:	c85a                	sw	s6,16(sp)
  24:	84aa                	mv	s1,a0
  26:	10079863          	bnez	a5,136 <.L10>
  2a:	000009b7          	lui	s3,0x0
  2e:	00000937          	lui	s2,0x0
  32:	00098993          	mv	s3,s3
  36:	6a05                	lui	s4,0x1
  38:	4a91                	li	s5,4
  3a:	4b0d                	li	s6,3

0000003c <.L11>:
  3c:	e019                	bnez	s0,42 <.L17>

0000003e <.L19>:
  3e:	4401                	li	s0,0
  40:	a81d                	j	76 <.L9>

00000042 <.L17>:
  42:	0049a703          	lw	a4,4(s3) # 4 <sc_cmp_bssid_crc+0x4>
  46:	00092783          	lw	a5,0(s2) # 0 <sc_cmp_bssid_crc>
  4a:	e329                	bnez	a4,8c <.L12>
  4c:	97d2                	add	a5,a5,s4
  4e:	05444683          	lbu	a3,84(s0)
  52:	a367c703          	lbu	a4,-1482(a5)
  56:	0ce69563          	bne	a3,a4,120 <.L13>
  5a:	03144703          	lbu	a4,49(s0)
  5e:	aed7c783          	lbu	a5,-1299(a5)
  62:	0af71f63          	bne	a4,a5,120 <.L13>
  66:	4599                	li	a1,6
  68:	8522                	mv	a0,s0
  6a:	00000097          	auipc	ra,0x0
  6e:	000080e7          	jalr	ra # 6a <.L17+0x28>
  72:	0a951763          	bne	a0,s1,120 <.L13>

00000076 <.L9>:
  76:	50b2                	lw	ra,44(sp)
  78:	8522                	mv	a0,s0
  7a:	5422                	lw	s0,40(sp)
  7c:	5492                	lw	s1,36(sp)
  7e:	5902                	lw	s2,32(sp)
  80:	49f2                	lw	s3,28(sp)
  82:	4a62                	lw	s4,24(sp)
  84:	4ad2                	lw	s5,20(sp)
  86:	4b42                	lw	s6,16(sp)
  88:	6145                	add	sp,sp,48
  8a:	8082                	ret

0000008c <.L12>:
  8c:	97d2                	add	a5,a5,s4
  8e:	03144703          	lbu	a4,49(s0)
  92:	aed7c783          	lbu	a5,-1299(a5)
  96:	00f70663          	beq	a4,a5,a2 <.L15>
  9a:	09571363          	bne	a4,s5,120 <.L13>
  9e:	09679163          	bne	a5,s6,120 <.L13>

000000a2 <.L15>:
  a2:	4599                	li	a1,6
  a4:	8522                	mv	a0,s0
  a6:	00000097          	auipc	ra,0x0
  aa:	000080e7          	jalr	ra # a6 <.L15+0x4>
  ae:	06951963          	bne	a0,s1,120 <.L13>
  b2:	00092783          	lw	a5,0(s2)
  b6:	6a05                	lui	s4,0x1
  b8:	05444703          	lbu	a4,84(s0)
  bc:	97d2                	add	a5,a5,s4
  be:	a367c683          	lbu	a3,-1482(a5)
  c2:	fae68ae3          	beq	a3,a4,76 <.L9>
  c6:	a2e78b23          	sb	a4,-1482(a5)
  ca:	000007b7          	lui	a5,0x0
  ce:	0007a783          	lw	a5,0(a5) # 0 <sc_cmp_bssid_crc>
  d2:	cb9d                	beqz	a5,108 <.L16>
  d4:	14c7a483          	lw	s1,332(a5)
  d8:	c885                	beqz	s1,108 <.L16>
  da:	000009b7          	lui	s3,0x0
  de:	0009a583          	lw	a1,0(s3) # 0 <sc_cmp_bssid_crc>
  e2:	1547a783          	lw	a5,340(a5)
  e6:	c62e                	sw	a1,12(sp)
  e8:	9782                	jalr	a5
  ea:	00092783          	lw	a5,0(s2)
  ee:	0009a703          	lw	a4,0(s3)
  f2:	45b2                	lw	a1,12(sp)
  f4:	97d2                	add	a5,a5,s4
  f6:	a367c783          	lbu	a5,-1482(a5)
  fa:	00000637          	lui	a2,0x0
  fe:	86aa                	mv	a3,a0
 100:	00060613          	mv	a2,a2
 104:	450d                	li	a0,3
 106:	9482                	jalr	s1

00000108 <.L16>:
 108:	00092783          	lw	a5,0(s2)
 10c:	6705                	lui	a4,0x1
 10e:	4581                	li	a1,0
 110:	97ba                	add	a5,a5,a4
 112:	a367c503          	lbu	a0,-1482(a5)
 116:	00000097          	auipc	ra,0x0
 11a:	000080e7          	jalr	ra # 116 <.L16+0xe>
 11e:	bfa1                	j	76 <.L9>

00000120 <.L13>:
 120:	4c20                	lw	s0,88(s0)
 122:	bf29                	j	3c <.L11>

00000124 <.L18>:
 124:	4599                	li	a1,6
 126:	8522                	mv	a0,s0
 128:	00000097          	auipc	ra,0x0
 12c:	000080e7          	jalr	ra # 128 <.L18+0x4>
 130:	f49503e3          	beq	a0,s1,76 <.L9>
 134:	4c20                	lw	s0,88(s0)

00000136 <.L10>:
 136:	f47d                	bnez	s0,124 <.L18>
 138:	b719                	j	3e <.L19>

Disassembly of section .text.sc_get_apinfo_by_ssid:

00000000 <sc_get_apinfo_by_ssid>:
   0:	000007b7          	lui	a5,0x0
   4:	0007a783          	lw	a5,0(a5) # 0 <sc_get_apinfo_by_ssid>
   8:	1141                	add	sp,sp,-16
   a:	c422                	sw	s0,8(sp)
   c:	4fa0                	lw	s0,88(a5)
   e:	c226                	sw	s1,4(sp)
  10:	c606                	sw	ra,12(sp)
  12:	84aa                	mv	s1,a0

00000014 <.L29>:
  14:	e419                	bnez	s0,22 <.L31>

00000016 <.L28>:
  16:	40b2                	lw	ra,12(sp)
  18:	8522                	mv	a0,s0
  1a:	4422                	lw	s0,8(sp)
  1c:	4492                	lw	s1,4(sp)
  1e:	0141                	add	sp,sp,16
  20:	8082                	ret

00000022 <.L31>:
  22:	85a6                	mv	a1,s1
  24:	03340513          	add	a0,s0,51
  28:	00000097          	auipc	ra,0x0
  2c:	000080e7          	jalr	ra # 28 <.L31+0x6>
  30:	d17d                	beqz	a0,16 <.L28>
  32:	4c20                	lw	s0,88(s0)
  34:	b7c5                	j	14 <.L29>

Disassembly of section .text.sc_ieee80211_aplist_process:

00000000 <sc_ieee80211_aplist_process>:
   0:	4501                	li	a0,0
   2:	8082                	ret

Disassembly of section .text.sc_ieee80211_data_extract:

00000000 <sc_ieee80211_data_extract>:
   0:	00b04f63          	bgtz	a1,1e <.L38>
   4:	4501                	li	a0,0
   6:	8082                	ret

00000008 <.L40>:
   8:	4501                	li	a0,0

0000000a <.L37>:
   a:	50b2                	lw	ra,44(sp)
   c:	5422                	lw	s0,40(sp)
   e:	5492                	lw	s1,36(sp)
  10:	5902                	lw	s2,32(sp)
  12:	49f2                	lw	s3,28(sp)
  14:	4a62                	lw	s4,24(sp)
  16:	4ad2                	lw	s5,20(sp)
  18:	4b42                	lw	s6,16(sp)
  1a:	6145                	add	sp,sp,48
  1c:	8082                	ret

0000001e <.L38>:
  1e:	7179                	add	sp,sp,-48
  20:	d422                	sw	s0,40(sp)
  22:	d606                	sw	ra,44(sp)
  24:	d226                	sw	s1,36(sp)
  26:	d04a                	sw	s2,32(sp)
  28:	ce4e                	sw	s3,28(sp)
  2a:	cc52                	sw	s4,24(sp)
  2c:	ca56                	sw	s5,20(sp)
  2e:	c85a                	sw	s6,16(sp)
  30:	842a                	mv	s0,a0
  32:	d979                	beqz	a0,8 <.L40>
  34:	01754983          	lbu	s3,23(a0)
  38:	01654783          	lbu	a5,22(a0)
  3c:	00154a03          	lbu	s4,1(a0)
  40:	09a2                	sll	s3,s3,0x8
  42:	00f9e9b3          	or	s3,s3,a5
  46:	003a7a93          	and	s5,s4,3
  4a:	4785                	li	a5,1
  4c:	8b2e                	mv	s6,a1
  4e:	8936                	mv	s2,a3
  50:	0511                	add	a0,a0,4
  52:	00fa9463          	bne	s5,a5,5a <.L42>
  56:	01040513          	add	a0,s0,16

0000005a <.L42>:
  5a:	000005b7          	lui	a1,0x0
  5e:	4619                	li	a2,6
  60:	00058593          	mv	a1,a1
  64:	00000097          	auipc	ra,0x0
  68:	000080e7          	jalr	ra # 64 <.L42+0xa>
  6c:	fd51                	bnez	a0,8 <.L40>
  6e:	4785                	li	a5,1
  70:	00440513          	add	a0,s0,4
  74:	00fa8963          	beq	s5,a5,86 <.L44>
  78:	4789                	li	a5,2
  7a:	01040513          	add	a0,s0,16
  7e:	00fa9463          	bne	s5,a5,86 <.L44>
  82:	00a40513          	add	a0,s0,10

00000086 <.L44>:
  86:	00044783          	lbu	a5,0(s0)
  8a:	46a1                	li	a3,8
  8c:	00c7f713          	and	a4,a5,12
  90:	12d71e63          	bne	a4,a3,1cc <.L46>
  94:	470d                	li	a4,3
  96:	44e1                	li	s1,24
  98:	00ea9363          	bne	s5,a4,9e <.L47>
  9c:	44f9                	li	s1,30

0000009e <.L47>:
  9e:	08c7f793          	and	a5,a5,140
  a2:	08800713          	li	a4,136
  a6:	00e79863          	bne	a5,a4,b6 <.L48>
  aa:	0a62                	sll	s4,s4,0x18
  ac:	418a5a13          	sra	s4,s4,0x18
  b0:	100a4c63          	bltz	s4,1c8 <.L49>
  b4:	0489                	add	s1,s1,2

000000b6 <.L48>:
  b6:	f49b49e3          	blt	s6,s1,8 <.L40>
  ba:	4049d993          	sra	s3,s3,0x4
  be:	409b05b3          	sub	a1,s6,s1
  c2:	01391223          	sh	s3,4(s2)
  c6:	00b91123          	sh	a1,2(s2)
  ca:	00144a03          	lbu	s4,1(s0)
  ce:	003a7993          	and	s3,s4,3
  d2:	19fd                	add	s3,s3,-1
  d4:	0019b993          	seqz	s3,s3
  d8:	00000097          	auipc	ra,0x0
  dc:	000080e7          	jalr	ra # d8 <.L48+0x22>
  e0:	d505                	beqz	a0,8 <.L40>
  e2:	954e                	add	a0,a0,s3
  e4:	03054983          	lbu	s3,48(a0)
  e8:	47b1                	li	a5,12
  ea:	06f99d63          	bne	s3,a5,164 <.L50>
  ee:	040a7a13          	and	s4,s4,64
  f2:	0e0a0a63          	beqz	s4,1e6 <.L64>
  f6:	94a2                	add	s1,s1,s0
  f8:	0034c783          	lbu	a5,3(s1)
  fc:	03f7f713          	and	a4,a5,63
 100:	c76d                	beqz	a4,1ea <.L65>
 102:	0207f713          	and	a4,a5,32
 106:	c70d                	beqz	a4,130 <.L51>
 108:	0004c703          	lbu	a4,0(s1)
 10c:	0014c603          	lbu	a2,1(s1)
 110:	46b1                	li	a3,12
 112:	07f77713          	and	a4,a4,127
 116:	02076713          	or	a4,a4,32
 11a:	00e61363          	bne	a2,a4,120 <.L52>
 11e:	468d                	li	a3,3

00000120 <.L52>:
 120:	0024c703          	lbu	a4,2(s1)
 124:	8bbd                	and	a5,a5,15
 126:	8fd9                	or	a5,a5,a4
 128:	c3f9                	beqz	a5,1ee <.L67>
 12a:	47b1                	li	a5,12
 12c:	0cf69363          	bne	a3,a5,1f2 <.L68>

00000130 <.L51>:
 130:	000007b7          	lui	a5,0x0
 134:	0007a783          	lw	a5,0(a5) # 0 <sc_ieee80211_data_extract>
 138:	c795                	beqz	a5,164 <.L50>
 13a:	14c7a483          	lw	s1,332(a5)
 13e:	c09d                	beqz	s1,164 <.L50>
 140:	00000a37          	lui	s4,0x0
 144:	000a2583          	lw	a1,0(s4) # 0 <sc_ieee80211_data_extract>
 148:	1547a783          	lw	a5,340(a5)
 14c:	c62e                	sw	a1,12(sp)
 14e:	9782                	jalr	a5
 150:	000a2703          	lw	a4,0(s4)
 154:	45b2                	lw	a1,12(sp)
 156:	00000637          	lui	a2,0x0
 15a:	86aa                	mv	a3,a0
 15c:	00060613          	mv	a2,a2
 160:	4505                	li	a0,1
 162:	9482                	jalr	s1

00000164 <.L50>:
 164:	01390023          	sb	s3,0(s2)
 168:	00144783          	lbu	a5,1(s0)
 16c:	470d                	li	a4,3
 16e:	8b8d                	and	a5,a5,3
 170:	08e79363          	bne	a5,a4,1f6 <.L53>
 174:	01840713          	add	a4,s0,24

00000178 <.L54>:
 178:	00e92423          	sw	a4,8(s2)
 17c:	00144783          	lbu	a5,1(s0)
 180:	4685                	li	a3,1
 182:	00440713          	add	a4,s0,4
 186:	8b8d                	and	a5,a5,3
 188:	00d79463          	bne	a5,a3,190 <.L57>
 18c:	01040713          	add	a4,s0,16

00000190 <.L57>:
 190:	00e92623          	sw	a4,12(s2)
 194:	00144783          	lbu	a5,1(s0)
 198:	4705                	li	a4,1
 19a:	8b8d                	and	a5,a5,3
 19c:	06e79563          	bne	a5,a4,206 <.L58>
 1a0:	00440713          	add	a4,s0,4

000001a4 <.L59>:
 1a4:	00e92823          	sw	a4,16(s2)
 1a8:	00144783          	lbu	a5,1(s0)
 1ac:	4505                	li	a0,1
 1ae:	8b8d                	and	a5,a5,3
 1b0:	17fd                	add	a5,a5,-1
 1b2:	0017b793          	seqz	a5,a5
 1b6:	00f90a23          	sb	a5,20(s2)
 1ba:	00144783          	lbu	a5,1(s0)
 1be:	838d                	srl	a5,a5,0x3
 1c0:	8b85                	and	a5,a5,1
 1c2:	00f90b23          	sb	a5,22(s2)
 1c6:	b591                	j	a <.L37>

000001c8 <.L49>:
 1c8:	0499                	add	s1,s1,6
 1ca:	b5f5                	j	b6 <.L48>

000001cc <.L46>:
 1cc:	4691                	li	a3,4
 1ce:	44e1                	li	s1,24
 1d0:	eed713e3          	bne	a4,a3,b6 <.L48>
 1d4:	0e07f793          	and	a5,a5,224
 1d8:	0c000713          	li	a4,192
 1dc:	44a9                	li	s1,10
 1de:	ece78ce3          	beq	a5,a4,b6 <.L48>
 1e2:	44c1                	li	s1,16
 1e4:	bdc9                	j	b6 <.L48>

000001e6 <.L64>:
 1e6:	4981                	li	s3,0
 1e8:	bfb5                	j	164 <.L50>

000001ea <.L65>:
 1ea:	4985                	li	s3,1
 1ec:	bfa5                	j	164 <.L50>

000001ee <.L67>:
 1ee:	4991                	li	s3,4
 1f0:	bf95                	j	164 <.L50>

000001f2 <.L68>:
 1f2:	89b6                	mv	s3,a3
 1f4:	bf85                	j	164 <.L50>

000001f6 <.L53>:
 1f6:	4689                	li	a3,2
 1f8:	00a40713          	add	a4,s0,10
 1fc:	f6d79ee3          	bne	a5,a3,178 <.L54>
 200:	01040713          	add	a4,s0,16
 204:	bf95                	j	178 <.L54>

00000206 <.L58>:
 206:	4689                	li	a3,2
 208:	01040713          	add	a4,s0,16
 20c:	f8d79ce3          	bne	a5,a3,1a4 <.L59>
 210:	00a40713          	add	a4,s0,10
 214:	bf41                	j	1a4 <.L59>

sc_esptouch_v2.o:     file format elf32-littleriscv


Disassembly of section .text.sc_decode_data.part.0:

00000000 <sc_decode_data.part.0>:
   0:	13800713          	li	a4,312
   4:	02e50533          	mul	a0,a0,a4
   8:	00359793          	sll	a5,a1,0x3
   c:	00359313          	sll	t1,a1,0x3
  10:	17e5                	add	a5,a5,-7
  12:	00000e37          	lui	t3,0x0
  16:	0ff37313          	zext.b	t1,t1
  1a:	0ff7f793          	zext.b	a5,a5
  1e:	4801                	li	a6,0
  20:	000e0e13          	mv	t3,t3
  24:	ffa60e93          	add	t4,a2,-6

00000028 <.L2>:
  28:	0ff7f893          	zext.b	a7,a5
  2c:	01137463          	bgeu	t1,a7,34 <.L8>
  30:	4505                	li	a0,1
  32:	8082                	ret

00000034 <.L8>:
  34:	000e2703          	lw	a4,0(t3) # 0 <sc_decode_data.part.0>
  38:	00f505b3          	add	a1,a0,a5
  3c:	058a                	sll	a1,a1,0x2
  3e:	972e                	add	a4,a4,a1
  40:	02a74583          	lbu	a1,42(a4)
  44:	c9b1                	beqz	a1,98 <.L9>
  46:	02875703          	lhu	a4,40(a4)
  4a:	c299                	beqz	a3,50 <.L4>
  4c:	0468f163          	bgeu	a7,t1,8e <.L5>

00000050 <.L4>:
  50:	00f508b3          	add	a7,a0,a5
  54:	08a1                	add	a7,a7,8
  56:	85b2                	mv	a1,a2
  58:	088a                	sll	a7,a7,0x2

0000005a <.L6>:
  5a:	000e2703          	lw	a4,0(t3)
  5e:	40b60f33          	sub	t5,a2,a1
  62:	15fd                	add	a1,a1,-1
  64:	9746                	add	a4,a4,a7
  66:	00875703          	lhu	a4,8(a4)
  6a:	41e75733          	sra	a4,a4,t5
  6e:	0065cf03          	lbu	t5,6(a1)
  72:	8b05                	and	a4,a4,1
  74:	01071733          	sll	a4,a4,a6
  78:	01e76733          	or	a4,a4,t5
  7c:	00e58323          	sb	a4,6(a1)
  80:	fcbe9de3          	bne	t4,a1,5a <.L6>
  84:	0805                	add	a6,a6,1
  86:	0ff87813          	zext.b	a6,a6

0000008a <.L7>:
  8a:	0785                	add	a5,a5,1
  8c:	bf71                	j	28 <.L2>

0000008e <.L5>:
  8e:	03f77713          	and	a4,a4,63
  92:	00e60323          	sb	a4,6(a2)
  96:	bfd5                	j	8a <.L7>

00000098 <.L9>:
  98:	4501                	li	a0,0
  9a:	8082                	ret

Disassembly of section .text.sc_uptime_ms:

00000000 <sc_uptime_ms>:
   0:	000007b7          	lui	a5,0x0
   4:	0007a783          	lw	a5,0(a5) # 0 <sc_uptime_ms>
   8:	1141                	add	sp,sp,-16
   a:	c606                	sw	ra,12(sp)
   c:	1087a783          	lw	a5,264(a5)
  10:	9782                	jalr	a5
  12:	3e800613          	li	a2,1000
  16:	4681                	li	a3,0
  18:	00000097          	auipc	ra,0x0
  1c:	000080e7          	jalr	ra # 18 <sc_uptime_ms+0x18>
  20:	40b2                	lw	ra,12(sp)
  22:	0141                	add	sp,sp,16
  24:	8082                	ret

Disassembly of section .text.sc_os_get_time_ms:

00000000 <sc_os_get_time_ms>:
   0:	1141                	add	sp,sp,-16
   2:	c422                	sw	s0,8(sp)
   4:	00000437          	lui	s0,0x0
   8:	00040793          	mv	a5,s0
   c:	439c                	lw	a5,0(a5)
   e:	c606                	sw	ra,12(sp)
  10:	00040413          	mv	s0,s0
  14:	eb81                	bnez	a5,24 <.L17>
  16:	00000097          	auipc	ra,0x0
  1a:	000080e7          	jalr	ra # 16 <sc_os_get_time_ms+0x16>
  1e:	67c1                	lui	a5,0x10
  20:	97aa                	add	a5,a5,a0
  22:	c01c                	sw	a5,0(s0)

00000024 <.L17>:
  24:	00000097          	auipc	ra,0x0
  28:	000080e7          	jalr	ra # 24 <.L17>
  2c:	401c                	lw	a5,0(s0)
  2e:	40b2                	lw	ra,12(sp)
  30:	4422                	lw	s0,8(sp)
  32:	8d1d                	sub	a0,a0,a5
  34:	0141                	add	sp,sp,16
  36:	8082                	ret

Disassembly of section .text.sc_get_status:

00000000 <sc_get_status>:
   0:	000007b7          	lui	a5,0x0
   4:	00078793          	mv	a5,a5
   8:	0117c683          	lbu	a3,17(a5) # 11 <sc_get_status+0x11>
   c:	4705                	li	a4,1
   e:	4501                	li	a0,0
  10:	00e69863          	bne	a3,a4,20 <.L19>
  14:	0127c783          	lbu	a5,18(a5)
  18:	4505                	li	a0,1
  1a:	00a79363          	bne	a5,a0,20 <.L19>
  1e:	4511                	li	a0,4

00000020 <.L19>:
  20:	8082                	ret

Disassembly of section .text.sc_set_state:

00000000 <sc_set_state>:
   0:	4751                	li	a4,20
   2:	02e585b3          	mul	a1,a1,a4
   6:	000007b7          	lui	a5,0x0
   a:	0007a783          	lw	a5,0(a5) # 0 <sc_set_state>
   e:	97ae                	add	a5,a5,a1
  10:	00a78023          	sb	a0,0(a5)
  14:	8082                	ret

Disassembly of section .text.sc_set_dst_chan:

00000000 <sc_set_dst_chan>:
   0:	8082                	ret

Disassembly of section .text.sc_recv_callback_wps:

00000000 <sc_recv_callback_wps>:
   0:	4501                	li	a0,0
   2:	8082                	ret

Disassembly of section .text.sc_recv_callback_action:

00000000 <sc_recv_callback_action>:
   0:	4501                	li	a0,0
   2:	8082                	ret

Disassembly of section .text.sc_zero_ssid:

00000000 <sc_zero_ssid>:
   0:	4781                	li	a5,0
   2:	02100713          	li	a4,33

00000006 <.L29>:
   6:	00f506b3          	add	a3,a0,a5
   a:	0006c683          	lbu	a3,0(a3)
   e:	e691                	bnez	a3,1a <.L30>
  10:	0785                	add	a5,a5,1
  12:	fee79ae3          	bne	a5,a4,6 <.L29>
  16:	4505                	li	a0,1
  18:	8082                	ret

0000001a <.L30>:
  1a:	4501                	li	a0,0
  1c:	8082                	ret

Disassembly of section .text.sc_start_frame:

00000000 <sc_start_frame>:
   0:	41800793          	li	a5,1048
   4:	06f50a63          	beq	a0,a5,78 <.L36>
   8:	000007b7          	lui	a5,0x0
   c:	0007a783          	lw	a5,0(a5) # 0 <sc_start_frame>
  10:	6705                	lui	a4,0x1
  12:	85aa                	mv	a1,a0
  14:	97ba                	add	a5,a5,a4
  16:	a377c503          	lbu	a0,-1481(a5)
  1a:	c519                	beqz	a0,28 <.L34>
  1c:	42f50513          	add	a0,a0,1071
  20:	8d0d                	sub	a0,a0,a1
  22:	00153513          	seqz	a0,a0
  26:	8082                	ret

00000028 <.L34>:
  28:	bcf58713          	add	a4,a1,-1073
  2c:	0742                	sll	a4,a4,0x10
  2e:	8341                	srl	a4,a4,0x10
  30:	02500693          	li	a3,37
  34:	04e6e463          	bltu	a3,a4,7c <.L38>
  38:	a397c703          	lbu	a4,-1479(a5)
  3c:	cb11                	beqz	a4,50 <.L35>
  3e:	830d                	srl	a4,a4,0x3
  40:	bd158593          	add	a1,a1,-1071
  44:	8d99                	sub	a1,a1,a4
  46:	a2e78ba3          	sb	a4,-1481(a5)
  4a:	0015b513          	seqz	a0,a1
  4e:	8082                	ret

00000050 <.L35>:
  50:	1141                	add	sp,sp,-16
  52:	fd158593          	add	a1,a1,-47
  56:	c606                	sw	ra,12(sp)
  58:	0ff5f593          	zext.b	a1,a1
  5c:	00000537          	lui	a0,0x0
  60:	a2b78ba3          	sb	a1,-1481(a5)
  64:	00050513          	mv	a0,a0
  68:	00000097          	auipc	ra,0x0
  6c:	000080e7          	jalr	ra # 68 <.L35+0x18>
  70:	40b2                	lw	ra,12(sp)
  72:	4505                	li	a0,1
  74:	0141                	add	sp,sp,16
  76:	8082                	ret

00000078 <.L36>:
  78:	4505                	li	a0,1
  7a:	8082                	ret

0000007c <.L38>:
  7c:	8082                	ret

Disassembly of section .text.sc_group_frame:

00000000 <sc_group_frame>:
   0:	f8050513          	add	a0,a0,-128 # ffffff80 <.L437+0xfffff0f8>
   4:	02853513          	sltiu	a0,a0,40
   8:	8082                	ret

Disassembly of section .text.sc_get_group_index:

00000000 <sc_get_group_index>:
   0:	1141                	add	sp,sp,-16
   2:	c422                	sw	s0,8(sp)
   4:	c606                	sw	ra,12(sp)
   6:	842a                	mv	s0,a0
   8:	00000097          	auipc	ra,0x0
   c:	000080e7          	jalr	ra # 8 <sc_get_group_index+0x8>
  10:	e911                	bnez	a0,24 <.L43>
  12:	f8140513          	add	a0,s0,-127 # ffffff81 <.L437+0xfffff0f9>
  16:	050e                	sll	a0,a0,0x3
  18:	0ff57513          	zext.b	a0,a0

0000001c <.L42>:
  1c:	40b2                	lw	ra,12(sp)
  1e:	4422                	lw	s0,8(sp)
  20:	0141                	add	sp,sp,16
  22:	8082                	ret

00000024 <.L43>:
  24:	4501                	li	a0,0
  26:	bfdd                	j	1c <.L42>

Disassembly of section .text.sc_data_frame:

00000000 <sc_data_frame>:
   0:	8119                	srl	a0,a0,0x6
   2:	0ff57793          	zext.b	a5,a0
   6:	8905                	and	a0,a0,1
   8:	c119                	beqz	a0,e <.L46>
   a:	0107b513          	sltiu	a0,a5,16

0000000e <.L46>:
   e:	8082                	ret

Disassembly of section .text.sc_get_data_index:

00000000 <sc_get_data_index>:
   0:	811d                	srl	a0,a0,0x7
   2:	893d                	and	a0,a0,15
   4:	0505                	add	a0,a0,1
   6:	8082                	ret

Disassembly of section .text.sc_pkg_cmp:

00000000 <sc_pkg_cmp>:
   0:	00055503          	lhu	a0,0(a0)
   4:	8d19                	sub	a0,a0,a4
   6:	00a03533          	snez	a0,a0
   a:	8082                	ret

Disassembly of section .text.sc_pkg_save:

00000000 <sc_pkg_save>:
   0:	00e51023          	sh	a4,0(a0)
   4:	4501                	li	a0,0
   6:	8082                	ret

Disassembly of section .text.sc_decode_data:

00000000 <sc_decode_data>:
   0:	c591                	beqz	a1,c <.L54>
   2:	c609                	beqz	a2,c <.L54>
   4:	00000317          	auipc	t1,0x0
   8:	00030067          	jr	t1 # 4 <sc_decode_data+0x4>

0000000c <.L54>:
   c:	4501                	li	a0,0
   e:	8082                	ret

Disassembly of section .text.sc_dec_to_bin:

00000000 <sc_dec_to_bin>:
   0:	c525                	beqz	a0,68 <.L70>
   2:	1101                	add	sp,sp,-32
   4:	cc22                	sw	s0,24(sp)
   6:	842a                	mv	s0,a0
   8:	8105                	srl	a0,a0,0x1
   a:	ce06                	sw	ra,28(sp)
   c:	ca26                	sw	s1,20(sp)
   e:	c84a                	sw	s2,16(sp)
  10:	00000097          	auipc	ra,0x0
  14:	000080e7          	jalr	ra # 10 <sc_dec_to_bin+0x10>
  18:	000007b7          	lui	a5,0x0
  1c:	0007a783          	lw	a5,0(a5) # 0 <sc_dec_to_bin>
  20:	cf95                	beqz	a5,5c <.L59>
  22:	14c7a483          	lw	s1,332(a5)
  26:	c89d                	beqz	s1,5c <.L59>
  28:	00000937          	lui	s2,0x0
  2c:	00092583          	lw	a1,0(s2) # 0 <sc_dec_to_bin>
  30:	1547a783          	lw	a5,340(a5)
  34:	c62e                	sw	a1,12(sp)
  36:	9782                	jalr	a5
  38:	00147793          	and	a5,s0,1
  3c:	4462                	lw	s0,24(sp)
  3e:	00092703          	lw	a4,0(s2)
  42:	45b2                	lw	a1,12(sp)
  44:	40f2                	lw	ra,28(sp)
  46:	4942                	lw	s2,16(sp)
  48:	8826                	mv	a6,s1
  4a:	44d2                	lw	s1,20(sp)
  4c:	00000637          	lui	a2,0x0
  50:	86aa                	mv	a3,a0
  52:	00060613          	mv	a2,a2
  56:	450d                	li	a0,3
  58:	6105                	add	sp,sp,32
  5a:	8802                	jr	a6

0000005c <.L59>:
  5c:	40f2                	lw	ra,28(sp)
  5e:	4462                	lw	s0,24(sp)
  60:	44d2                	lw	s1,20(sp)
  62:	4942                	lw	s2,16(sp)
  64:	6105                	add	sp,sp,32
  66:	8082                	ret

00000068 <.L70>:
  68:	8082                	ret

Disassembly of section .text.sc_get_encode_len:

00000000 <sc_get_encode_len>:
   0:	000007b7          	lui	a5,0x0
   4:	0007a683          	lw	a3,0(a5) # 0 <sc_get_encode_len>
   8:	6785                	lui	a5,0x1
   a:	97b6                	add	a5,a5,a3
   c:	a397c503          	lbu	a0,-1479(a5) # a39 <.L395+0x1>
  10:	c501                	beqz	a0,18 <.L74>

00000012 <.L90>:
  12:	0542                	sll	a0,a0,0x10
  14:	8141                	srl	a0,a0,0x10
  16:	8082                	ret

00000018 <.L74>:
  18:	a387c703          	lbu	a4,-1480(a5)
  1c:	c75d                	beqz	a4,ca <.L76>
  1e:	af47c703          	lbu	a4,-1292(a5)
  22:	e351                	bnez	a4,a6 <.L77>
  24:	a3c7c583          	lbu	a1,-1476(a5)
  28:	a427c603          	lbu	a2,-1470(a5)
  2c:	a3b7c703          	lbu	a4,-1477(a5)
  30:	c1b1                	beqz	a1,74 <.L78>
  32:	0711                	add	a4,a4,4 # 1004 <.L437+0x17c>
  34:	4595                	li	a1,5
  36:	02b74733          	div	a4,a4,a1
  3a:	a417c783          	lbu	a5,-1471(a5)
  3e:	0ff77513          	zext.b	a0,a4
  42:	c231                	beqz	a2,86 <.L79>
  44:	0791                	add	a5,a5,4
  46:	02b7c7b3          	div	a5,a5,a1

0000004a <.L92>:
  4a:	953e                	add	a0,a0,a5

0000004c <.L91>:
  4c:	050e                	sll	a0,a0,0x3

0000004e <.L88>:
  4e:	0ff57513          	zext.b	a0,a0

00000052 <.L80>:
  52:	6785                	lui	a5,0x1
  54:	96be                	add	a3,a3,a5
  56:	a406c703          	lbu	a4,-1472(a3)
  5a:	a3f6c783          	lbu	a5,-1473(a3)
  5e:	0521                	add	a0,a0,8
  60:	c335                	beqz	a4,c4 <.L83>
  62:	0791                	add	a5,a5,4 # 1004 <.L437+0x17c>
  64:	4715                	li	a4,5

00000066 <.L89>:
  66:	02e7c7b3          	div	a5,a5,a4
  6a:	078e                	sll	a5,a5,0x3
  6c:	0ff7f793          	zext.b	a5,a5
  70:	953e                	add	a0,a0,a5
  72:	b745                	j	12 <.L90>

00000074 <.L78>:
  74:	ee11                	bnez	a2,90 <.L81>
  76:	a417c503          	lbu	a0,-1471(a5)
  7a:	4799                	li	a5,6
  7c:	953a                	add	a0,a0,a4
  7e:	0515                	add	a0,a0,5
  80:	02f54533          	div	a0,a0,a5
  84:	b7e1                	j	4c <.L91>

00000086 <.L79>:
  86:	0795                	add	a5,a5,5
  88:	4719                	li	a4,6
  8a:	02e7c7b3          	div	a5,a5,a4
  8e:	bf75                	j	4a <.L92>

00000090 <.L81>:
  90:	00570513          	add	a0,a4,5
  94:	4799                	li	a5,6
  96:	02f54533          	div	a0,a0,a5
  9a:	0711                	add	a4,a4,4
  9c:	4795                	li	a5,5
  9e:	02f74733          	div	a4,a4,a5
  a2:	953a                	add	a0,a0,a4
  a4:	b765                	j	4c <.L91>

000000a6 <.L77>:
  a6:	a3d7c503          	lbu	a0,-1475(a5)
  aa:	4795                	li	a5,5
  ac:	0511                	add	a0,a0,4
  ae:	02f54533          	div	a0,a0,a5
  b2:	4789                	li	a5,2
  b4:	050e                	sll	a0,a0,0x3
  b6:	0ff57513          	zext.b	a0,a0
  ba:	f8f71ce3          	bne	a4,a5,52 <.L80>
  be:	02050513          	add	a0,a0,32
  c2:	b771                	j	4e <.L88>

000000c4 <.L83>:
  c4:	0795                	add	a5,a5,5
  c6:	4719                	li	a4,6
  c8:	bf79                	j	66 <.L89>

000000ca <.L76>:
  ca:	a377c703          	lbu	a4,-1481(a5)
  ce:	4501                	li	a0,0
  d0:	c709                	beqz	a4,da <.L75>
  d2:	00371513          	sll	a0,a4,0x3
  d6:	a2a78ca3          	sb	a0,-1479(a5)

000000da <.L75>:
  da:	8082                	ret

Disassembly of section .text.sc_get_data_len:

00000000 <sc_get_data_len>:
   0:	1141                	add	sp,sp,-16
   2:	c606                	sw	ra,12(sp)
   4:	00000097          	auipc	ra,0x0
   8:	000080e7          	jalr	ra # 4 <sc_get_data_len+0x4>
   c:	87aa                	mv	a5,a0
   e:	4521                	li	a0,8
  10:	cb81                	beqz	a5,20 <.L93>
  12:	13700713          	li	a4,311
  16:	00f77463          	bgeu	a4,a5,1e <.L95>
  1a:	12f00793          	li	a5,303

0000001e <.L95>:
  1e:	853e                	mv	a0,a5

00000020 <.L93>:
  20:	40b2                	lw	ra,12(sp)
  22:	0141                	add	sp,sp,16
  24:	8082                	ret

Disassembly of section .text.sc_recv_completed:

00000000 <sc_recv_completed>:
   0:	711d                	add	sp,sp,-96
   2:	000005b7          	lui	a1,0x0
   6:	c8ca                	sw	s2,80(sp)
   8:	461d                	li	a2,7
   a:	892a                	mv	s2,a0
   c:	00058593          	mv	a1,a1
  10:	1028                	add	a0,sp,40
  12:	cca2                	sw	s0,88(sp)
  14:	ce86                	sw	ra,92(sp)
  16:	00000437          	lui	s0,0x0
  1a:	caa6                	sw	s1,84(sp)
  1c:	c6ce                	sw	s3,76(sp)
  1e:	c4d2                	sw	s4,72(sp)
  20:	c2d6                	sw	s5,68(sp)
  22:	c0da                	sw	s6,64(sp)
  24:	de5e                	sw	s7,60(sp)
  26:	dc62                	sw	s8,56(sp)
  28:	00000097          	auipc	ra,0x0
  2c:	000080e7          	jalr	ra # 28 <sc_recv_completed+0x28>
  30:	00040793          	mv	a5,s0
  34:	439c                	lw	a5,0(a5)
  36:	6705                	lui	a4,0x1
  38:	00040413          	mv	s0,s0
  3c:	973e                	add	a4,a4,a5
  3e:	a3874703          	lbu	a4,-1480(a4) # a38 <.L148+0x4>
  42:	52071b63          	bnez	a4,578 <.L103>
  46:	4e000493          	li	s1,1248
  4a:	029904b3          	mul	s1,s2,s1
  4e:	4705                	li	a4,1
  50:	46a5                	li	a3,9
  52:	97a6                	add	a5,a5,s1

00000054 <.L106>:
  54:	02e7c603          	lbu	a2,46(a5)
  58:	ee19                	bnez	a2,76 <.L104>

0000005a <.L310>:
  5a:	4981                	li	s3,0

0000005c <.L101>:
  5c:	40f6                	lw	ra,92(sp)
  5e:	4466                	lw	s0,88(sp)
  60:	44d6                	lw	s1,84(sp)
  62:	4946                	lw	s2,80(sp)
  64:	4a26                	lw	s4,72(sp)
  66:	4a96                	lw	s5,68(sp)
  68:	4b06                	lw	s6,64(sp)
  6a:	5bf2                	lw	s7,60(sp)
  6c:	5c62                	lw	s8,56(sp)
  6e:	854e                	mv	a0,s3
  70:	49b6                	lw	s3,76(sp)
  72:	6125                	add	sp,sp,96
  74:	8082                	ret

00000076 <.L104>:
  76:	0705                	add	a4,a4,1
  78:	0791                	add	a5,a5,4
  7a:	fcd71de3          	bne	a4,a3,54 <.L106>
  7e:	4681                	li	a3,0
  80:	1030                	add	a2,sp,40
  82:	4585                	li	a1,1
  84:	854a                	mv	a0,s2
  86:	00000097          	auipc	ra,0x0
  8a:	000080e7          	jalr	ra # 86 <.L104+0x10>
  8e:	d571                	beqz	a0,5a <.L310>
  90:	4008                	lw	a0,0(s0)
  92:	6a85                	lui	s5,0x1
  94:	aeea8b93          	add	s7,s5,-1298 # aee <.L160+0x2e>
  98:	000005b7          	lui	a1,0x0
  9c:	4619                	li	a2,6
  9e:	00058593          	mv	a1,a1
  a2:	955e                	add	a0,a0,s7
  a4:	00000097          	auipc	ra,0x0
  a8:	000080e7          	jalr	ra # a4 <.L104+0x2e>
  ac:	89aa                	mv	s3,a0
  ae:	60050c63          	beqz	a0,6c6 <.L108>
  b2:	000009b7          	lui	s3,0x0
  b6:	00098793          	mv	a5,s3
  ba:	0187c703          	lbu	a4,24(a5)
  be:	4785                	li	a5,1
  c0:	00098993          	mv	s3,s3
  c4:	04f71e63          	bne	a4,a5,120 <.L109>
  c8:	000007b7          	lui	a5,0x0
  cc:	0007a783          	lw	a5,0(a5) # 0 <sc_recv_completed>
  d0:	cba1                	beqz	a5,120 <.L109>
  d2:	14c7aa03          	lw	s4,332(a5)
  d6:	040a0563          	beqz	s4,120 <.L109>
  da:	00000b37          	lui	s6,0x0
  de:	000b2583          	lw	a1,0(s6) # 0 <sc_recv_completed>
  e2:	1547a783          	lw	a5,340(a5)
  e6:	cc2e                	sw	a1,24(sp)
  e8:	9782                	jalr	a5
  ea:	4018                	lw	a4,0(s0)
  ec:	45e2                	lw	a1,24(sp)
  ee:	86aa                	mv	a3,a0
  f0:	9756                	add	a4,a4,s5
  f2:	af374603          	lbu	a2,-1293(a4)
  f6:	af074883          	lbu	a7,-1296(a4)
  fa:	aef74803          	lbu	a6,-1297(a4)
  fe:	aee74783          	lbu	a5,-1298(a4)
 102:	c432                	sw	a2,8(sp)
 104:	af274603          	lbu	a2,-1294(a4)
 108:	450d                	li	a0,3
 10a:	c232                	sw	a2,4(sp)
 10c:	af174703          	lbu	a4,-1295(a4)
 110:	00000637          	lui	a2,0x0
 114:	00060613          	mv	a2,a2
 118:	c03a                	sw	a4,0(sp)
 11a:	000b2703          	lw	a4,0(s6)
 11e:	9a02                	jalr	s4

00000120 <.L109>:
 120:	4008                	lw	a0,0(s0)
 122:	6a85                	lui	s5,0x1
 124:	aeea8793          	add	a5,s5,-1298 # aee <.L160+0x2e>
 128:	953e                	add	a0,a0,a5
 12a:	4599                	li	a1,6
 12c:	00000097          	auipc	ra,0x0
 130:	000080e7          	jalr	ra # 12c <.L109+0xc>
 134:	8a2a                	mv	s4,a0
 136:	4595                	li	a1,5
 138:	1028                	add	a0,sp,40
 13a:	00000097          	auipc	ra,0x0
 13e:	000080e7          	jalr	ra # 13a <.L109+0x1a>
 142:	02d14783          	lbu	a5,45(sp)
 146:	ce2a                	sw	a0,28(sp)
 148:	0aa78f63          	beq	a5,a0,206 <.L110>
 14c:	00000937          	lui	s2,0x0
 150:	00092783          	lw	a5,0(s2) # 0 <sc_recv_completed>
 154:	cb95                	beqz	a5,188 <.L111>
 156:	14c7aa03          	lw	s4,332(a5)
 15a:	020a0763          	beqz	s4,188 <.L111>
 15e:	00000ab7          	lui	s5,0x0
 162:	000aa583          	lw	a1,0(s5) # 0 <sc_recv_completed>
 166:	1547a783          	lw	a5,340(a5)
 16a:	cc2e                	sw	a1,24(sp)
 16c:	9782                	jalr	a5
 16e:	4872                	lw	a6,28(sp)
 170:	02d14783          	lbu	a5,45(sp)
 174:	000aa703          	lw	a4,0(s5)
 178:	45e2                	lw	a1,24(sp)
 17a:	00000637          	lui	a2,0x0
 17e:	86aa                	mv	a3,a0
 180:	00060613          	mv	a2,a2
 184:	450d                	li	a0,3
 186:	9a02                	jalr	s4

00000188 <.L111>:
 188:	401c                	lw	a5,0(s0)
 18a:	4705                	li	a4,1
 18c:	4625                	li	a2,9
 18e:	97a6                	add	a5,a5,s1

00000190 <.L112>:
 190:	02e7c683          	lbu	a3,46(a5)
 194:	0705                	add	a4,a4,1
 196:	0791                	add	a5,a5,4
 198:	8285                	srl	a3,a3,0x1
 19a:	02d78523          	sb	a3,42(a5)
 19e:	fec719e3          	bne	a4,a2,190 <.L112>
 1a2:	0189c703          	lbu	a4,24(s3) # 18 <sc_recv_completed+0x18>
 1a6:	4785                	li	a5,1
 1a8:	eaf719e3          	bne	a4,a5,5a <.L310>
 1ac:	00092783          	lw	a5,0(s2)
 1b0:	ea0785e3          	beqz	a5,5a <.L310>
 1b4:	14c7a403          	lw	s0,332(a5)
 1b8:	ea0401e3          	beqz	s0,5a <.L310>
 1bc:	000004b7          	lui	s1,0x0
 1c0:	0004a583          	lw	a1,0(s1) # 0 <sc_recv_completed>
 1c4:	1547a783          	lw	a5,340(a5)
 1c8:	cc2e                	sw	a1,24(sp)
 1ca:	9782                	jalr	a5
 1cc:	02e14783          	lbu	a5,46(sp)
 1d0:	02a14883          	lbu	a7,42(sp)
 1d4:	02914803          	lbu	a6,41(sp)
 1d8:	c63e                	sw	a5,12(sp)
 1da:	02d14783          	lbu	a5,45(sp)
 1de:	0004a703          	lw	a4,0(s1)
 1e2:	45e2                	lw	a1,24(sp)
 1e4:	c43e                	sw	a5,8(sp)
 1e6:	02c14783          	lbu	a5,44(sp)
 1ea:	00000637          	lui	a2,0x0
 1ee:	86aa                	mv	a3,a0
 1f0:	c23e                	sw	a5,4(sp)
 1f2:	02b14783          	lbu	a5,43(sp)
 1f6:	00060613          	mv	a2,a2
 1fa:	450d                	li	a0,3
 1fc:	c03e                	sw	a5,0(sp)
 1fe:	02814783          	lbu	a5,40(sp)
 202:	9402                	jalr	s0
 204:	bd99                	j	5a <.L310>

00000206 <.L110>:
 206:	02b14b83          	lbu	s7,43(sp)
 20a:	4008                	lw	a0,0(s0)
 20c:	0b4b8363          	beq	s7,s4,2b2 <.L114>
 210:	a8ba8a93          	add	s5,s5,-1397
 214:	02100613          	li	a2,33
 218:	4581                	li	a1,0
 21a:	9556                	add	a0,a0,s5
 21c:	00000097          	auipc	ra,0x0
 220:	000080e7          	jalr	ra # 21c <.L110+0x16>
 224:	000007b7          	lui	a5,0x0
 228:	4b05                	li	s6,1
 22a:	855e                	mv	a0,s7
 22c:	01678023          	sb	s6,0(a5) # 0 <sc_recv_completed>
 230:	00000097          	auipc	ra,0x0
 234:	000080e7          	jalr	ra # 230 <.L110+0x2a>
 238:	8a2a                	mv	s4,a0
 23a:	cd25                	beqz	a0,2b2 <.L114>
 23c:	4008                	lw	a0,0(s0)
 23e:	02100613          	li	a2,33
 242:	033a0593          	add	a1,s4,51
 246:	9556                	add	a0,a0,s5
 248:	00000097          	auipc	ra,0x0
 24c:	000080e7          	jalr	ra # 248 <.L110+0x42>
 250:	0189c783          	lbu	a5,24(s3)
 254:	05679f63          	bne	a5,s6,2b2 <.L114>
 258:	000007b7          	lui	a5,0x0
 25c:	0007a783          	lw	a5,0(a5) # 0 <sc_recv_completed>
 260:	cba9                	beqz	a5,2b2 <.L114>
 262:	14c7ab03          	lw	s6,332(a5)
 266:	040b0663          	beqz	s6,2b2 <.L114>
 26a:	00000bb7          	lui	s7,0x0
 26e:	000ba583          	lw	a1,0(s7) # 0 <sc_recv_completed>
 272:	1547a783          	lw	a5,340(a5)
 276:	cc2e                	sw	a1,24(sp)
 278:	9782                	jalr	a5
 27a:	005a4703          	lbu	a4,5(s4)
 27e:	401c                	lw	a5,0(s0)
 280:	001a4883          	lbu	a7,1(s4)
 284:	000a4803          	lbu	a6,0(s4)
 288:	c63a                	sw	a4,12(sp)
 28a:	004a4703          	lbu	a4,4(s4)
 28e:	45e2                	lw	a1,24(sp)
 290:	00000637          	lui	a2,0x0
 294:	c43a                	sw	a4,8(sp)
 296:	003a4703          	lbu	a4,3(s4)
 29a:	86aa                	mv	a3,a0
 29c:	97d6                	add	a5,a5,s5
 29e:	c23a                	sw	a4,4(sp)
 2a0:	002a4703          	lbu	a4,2(s4)
 2a4:	00060613          	mv	a2,a2
 2a8:	450d                	li	a0,3
 2aa:	c03a                	sw	a4,0(sp)
 2ac:	000ba703          	lw	a4,0(s7)
 2b0:	9b02                	jalr	s6

000002b2 <.L114>:
 2b2:	02814783          	lbu	a5,40(sp)
 2b6:	400c                	lw	a1,0(s0)
 2b8:	6a05                	lui	s4,0x1
 2ba:	07f7f713          	and	a4,a5,127
 2be:	014586b3          	add	a3,a1,s4
 2c2:	839d                	srl	a5,a5,0x7
 2c4:	a4f68023          	sb	a5,-1472(a3)
 2c8:	02914783          	lbu	a5,41(sp)
 2cc:	a2e68fa3          	sb	a4,-1473(a3)
 2d0:	4805                	li	a6,1
 2d2:	07f7f613          	and	a2,a5,127
 2d6:	839d                	srl	a5,a5,0x7
 2d8:	a2f68e23          	sb	a5,-1476(a3)
 2dc:	02a14783          	lbu	a5,42(sp)
 2e0:	a2c68da3          	sb	a2,-1477(a3)
 2e4:	07f7f513          	and	a0,a5,127
 2e8:	839d                	srl	a5,a5,0x7
 2ea:	a4f68123          	sb	a5,-1470(a3)
 2ee:	02b14783          	lbu	a5,43(sp)
 2f2:	a4a680a3          	sb	a0,-1471(a3)
 2f6:	a4f681a3          	sb	a5,-1469(a3)
 2fa:	02c14783          	lbu	a5,44(sp)
 2fe:	a2f68d23          	sb	a5,-1478(a3)
 302:	8785                	sra	a5,a5,0x1
 304:	8b8d                	and	a5,a5,3
 306:	aef68a23          	sb	a5,-1292(a3)
 30a:	0d079a63          	bne	a5,a6,3de <.L116>
 30e:	9732                	add	a4,a4,a2

00000310 <.L308>:
 310:	972a                	add	a4,a4,a0
 312:	a2e68c23          	sb	a4,-1480(a3)

00000316 <.L117>:
 316:	962a                	add	a2,a2,a0
 318:	6a05                	lui	s4,0x1
 31a:	0641                	add	a2,a2,16 # 10 <sc_recv_completed+0x10>
 31c:	0189c703          	lbu	a4,24(s3)
 320:	95d2                	add	a1,a1,s4
 322:	1f067613          	and	a2,a2,496
 326:	a2c58ea3          	sb	a2,-1475(a1) # fffffa3d <.L437+0xffffebb5>
 32a:	4785                	li	a5,1
 32c:	04f71163          	bne	a4,a5,36e <.L121>
 330:	000007b7          	lui	a5,0x0
 334:	0007a783          	lw	a5,0(a5) # 0 <sc_recv_completed>
 338:	cb9d                	beqz	a5,36e <.L121>
 33a:	14c7aa83          	lw	s5,332(a5)
 33e:	020a8863          	beqz	s5,36e <.L121>
 342:	00000b37          	lui	s6,0x0
 346:	000b2583          	lw	a1,0(s6) # 0 <sc_recv_completed>
 34a:	1547a783          	lw	a5,340(a5)
 34e:	cc2e                	sw	a1,24(sp)
 350:	9782                	jalr	a5
 352:	401c                	lw	a5,0(s0)
 354:	000b2703          	lw	a4,0(s6)
 358:	45e2                	lw	a1,24(sp)
 35a:	97d2                	add	a5,a5,s4
 35c:	a3d7c783          	lbu	a5,-1475(a5)
 360:	00000637          	lui	a2,0x0
 364:	86aa                	mv	a3,a0
 366:	00060613          	mv	a2,a2
 36a:	450d                	li	a0,3
 36c:	9a82                	jalr	s5

0000036e <.L121>:
 36e:	401c                	lw	a5,0(s0)
 370:	6a05                	lui	s4,0x1
 372:	477d                	li	a4,31
 374:	97d2                	add	a5,a5,s4
 376:	a3f7c783          	lbu	a5,-1473(a5)
 37a:	17fd                	add	a5,a5,-1
 37c:	0ff7f793          	zext.b	a5,a5
 380:	0cf77163          	bgeu	a4,a5,442 <.L122>
 384:	000007b7          	lui	a5,0x0
 388:	0007a783          	lw	a5,0(a5) # 0 <sc_recv_completed>
 38c:	cb9d                	beqz	a5,3c2 <.L123>
 38e:	14c7a903          	lw	s2,332(a5)
 392:	02090863          	beqz	s2,3c2 <.L123>
 396:	000009b7          	lui	s3,0x0
 39a:	0009a583          	lw	a1,0(s3) # 0 <sc_recv_completed>
 39e:	1547a783          	lw	a5,340(a5)
 3a2:	cc2e                	sw	a1,24(sp)
 3a4:	9782                	jalr	a5
 3a6:	401c                	lw	a5,0(s0)
 3a8:	0009a703          	lw	a4,0(s3)
 3ac:	45e2                	lw	a1,24(sp)
 3ae:	97d2                	add	a5,a5,s4
 3b0:	a3f7c783          	lbu	a5,-1473(a5)
 3b4:	00000637          	lui	a2,0x0
 3b8:	86aa                	mv	a3,a0
 3ba:	00060613          	mv	a2,a2
 3be:	450d                	li	a0,3
 3c0:	9902                	jalr	s2

000003c2 <.L123>:
 3c2:	401c                	lw	a5,0(s0)
 3c4:	4705                	li	a4,1
 3c6:	4625                	li	a2,9
 3c8:	97a6                	add	a5,a5,s1

000003ca <.L124>:
 3ca:	02e7c683          	lbu	a3,46(a5)
 3ce:	0705                	add	a4,a4,1
 3d0:	0791                	add	a5,a5,4
 3d2:	8285                	srl	a3,a3,0x1
 3d4:	02d78523          	sb	a3,42(a5)
 3d8:	fec719e3          	bne	a4,a2,3ca <.L124>
 3dc:	b9bd                	j	5a <.L310>

000003de <.L116>:
 3de:	4889                	li	a7,2
 3e0:	01179563          	bne	a5,a7,3ea <.L118>
 3e4:	9732                	add	a4,a4,a2
 3e6:	0741                	add	a4,a4,16
 3e8:	b725                	j	310 <.L308>

000003ea <.L118>:
 3ea:	fff78713          	add	a4,a5,-1
 3ee:	0ff77713          	zext.b	a4,a4
 3f2:	f2e872e3          	bgeu	a6,a4,316 <.L117>
 3f6:	17f5                	add	a5,a5,-3
 3f8:	0ff7f793          	zext.b	a5,a5
 3fc:	f6f869e3          	bltu	a6,a5,36e <.L121>
 400:	000007b7          	lui	a5,0x0
 404:	0007a783          	lw	a5,0(a5) # 0 <sc_recv_completed>
 408:	c40789e3          	beqz	a5,5a <.L310>
 40c:	14c7a483          	lw	s1,332(a5)
 410:	c40485e3          	beqz	s1,5a <.L310>
 414:	00000937          	lui	s2,0x0
 418:	00092583          	lw	a1,0(s2) # 0 <sc_recv_completed>
 41c:	1547a783          	lw	a5,340(a5)
 420:	cc2e                	sw	a1,24(sp)
 422:	9782                	jalr	a5
 424:	401c                	lw	a5,0(s0)
 426:	00092703          	lw	a4,0(s2)
 42a:	45e2                	lw	a1,24(sp)
 42c:	97d2                	add	a5,a5,s4
 42e:	af47c783          	lbu	a5,-1292(a5)
 432:	00000637          	lui	a2,0x0
 436:	86aa                	mv	a3,a0
 438:	00060613          	mv	a2,a2
 43c:	450d                	li	a0,3
 43e:	9482                	jalr	s1
 440:	b929                	j	5a <.L310>

00000442 <.L122>:
 442:	0189c703          	lbu	a4,24(s3)

00000446 <.L317>:
 446:	4785                	li	a5,1
 448:	04f71463          	bne	a4,a5,490 <.L125>
 44c:	000007b7          	lui	a5,0x0
 450:	0007a783          	lw	a5,0(a5) # 0 <sc_recv_completed>
 454:	cf95                	beqz	a5,490 <.L125>
 456:	14c7a483          	lw	s1,332(a5)
 45a:	c89d                	beqz	s1,490 <.L125>
 45c:	000009b7          	lui	s3,0x0
 460:	0009a583          	lw	a1,0(s3) # 0 <sc_recv_completed>
 464:	1547a783          	lw	a5,340(a5)
 468:	cc2e                	sw	a1,24(sp)
 46a:	9782                	jalr	a5
 46c:	401c                	lw	a5,0(s0)
 46e:	0009a703          	lw	a4,0(s3)
 472:	45e2                	lw	a1,24(sp)
 474:	97d2                	add	a5,a5,s4
 476:	a3f7c883          	lbu	a7,-1473(a5)
 47a:	a417c803          	lbu	a6,-1471(a5)
 47e:	a3b7c783          	lbu	a5,-1477(a5)
 482:	00000637          	lui	a2,0x0
 486:	86aa                	mv	a3,a0
 488:	00060613          	mv	a2,a2
 48c:	450d                	li	a0,3
 48e:	9482                	jalr	s1

00000490 <.L125>:
 490:	4e000713          	li	a4,1248
 494:	02e90733          	mul	a4,s2,a4
 498:	401c                	lw	a5,0(s0)
 49a:	97ba                	add	a5,a5,a4
 49c:	06500713          	li	a4,101
 4a0:	02e78723          	sb	a4,46(a5)
 4a4:	02e78923          	sb	a4,50(a5)
 4a8:	02e78b23          	sb	a4,54(a5)
 4ac:	02e78d23          	sb	a4,58(a5)
 4b0:	02e78f23          	sb	a4,62(a5)
 4b4:	04e78123          	sb	a4,66(a5)
 4b8:	04e78323          	sb	a4,70(a5)
 4bc:	04e78523          	sb	a4,74(a5)
 4c0:	000007b7          	lui	a5,0x0
 4c4:	0187c703          	lbu	a4,24(a5) # 18 <sc_recv_completed+0x18>
 4c8:	4785                	li	a5,1
 4ca:	0af71763          	bne	a4,a5,578 <.L103>
 4ce:	13800a13          	li	s4,312
 4d2:	03490a33          	mul	s4,s2,s4
 4d6:	4985                	li	s3,1
 4d8:	00000bb7          	lui	s7,0x0
 4dc:	00000ab7          	lui	s5,0x0
 4e0:	4b25                	li	s6,9

000004e2 <.L126>:
 4e2:	401c                	lw	a5,0(s0)
 4e4:	013a04b3          	add	s1,s4,s3
 4e8:	04a1                	add	s1,s1,8
 4ea:	048a                	sll	s1,s1,0x2
 4ec:	97a6                	add	a5,a5,s1
 4ee:	0087d583          	lhu	a1,8(a5)
 4f2:	000b8513          	mv	a0,s7
 4f6:	0985                	add	s3,s3,1
 4f8:	00000097          	auipc	ra,0x0
 4fc:	000080e7          	jalr	ra # 4f8 <.L126+0x16>
 500:	401c                	lw	a5,0(s0)
 502:	97a6                	add	a5,a5,s1
 504:	0087d503          	lhu	a0,8(a5)
 508:	00000097          	auipc	ra,0x0
 50c:	000080e7          	jalr	ra # 508 <.L126+0x26>
 510:	000a8513          	mv	a0,s5
 514:	00000097          	auipc	ra,0x0
 518:	000080e7          	jalr	ra # 514 <.L126+0x32>
 51c:	fd6993e3          	bne	s3,s6,4e2 <.L126>
 520:	000007b7          	lui	a5,0x0
 524:	0007a783          	lw	a5,0(a5) # 0 <sc_recv_completed>
 528:	cba1                	beqz	a5,578 <.L103>
 52a:	14c7a483          	lw	s1,332(a5)
 52e:	c4a9                	beqz	s1,578 <.L103>
 530:	000009b7          	lui	s3,0x0
 534:	0009a583          	lw	a1,0(s3) # 0 <sc_recv_completed>
 538:	1547a783          	lw	a5,340(a5)
 53c:	cc2e                	sw	a1,24(sp)
 53e:	9782                	jalr	a5
 540:	02e14783          	lbu	a5,46(sp)
 544:	02a14883          	lbu	a7,42(sp)
 548:	02914803          	lbu	a6,41(sp)
 54c:	c63e                	sw	a5,12(sp)
 54e:	02d14783          	lbu	a5,45(sp)
 552:	0009a703          	lw	a4,0(s3)
 556:	45e2                	lw	a1,24(sp)
 558:	c43e                	sw	a5,8(sp)
 55a:	02c14783          	lbu	a5,44(sp)
 55e:	00000637          	lui	a2,0x0
 562:	86aa                	mv	a3,a0
 564:	c23e                	sw	a5,4(sp)
 566:	02b14783          	lbu	a5,43(sp)
 56a:	00060613          	mv	a2,a2
 56e:	450d                	li	a0,3
 570:	c03e                	sw	a5,0(sp)
 572:	02814783          	lbu	a5,40(sp)
 576:	9482                	jalr	s1

00000578 <.L103>:
 578:	00042a03          	lw	s4,0(s0) # 0 <sc_recv_completed>
 57c:	6985                	lui	s3,0x1
 57e:	a8b98493          	add	s1,s3,-1397 # a8b <.L145+0x11>
 582:	94d2                	add	s1,s1,s4
 584:	8526                	mv	a0,s1
 586:	00000097          	auipc	ra,0x0
 58a:	000080e7          	jalr	ra # 586 <.L103+0xe>
 58e:	e94d                	bnez	a0,640 <.L143>
 590:	99d2                	add	s3,s3,s4
 592:	af59c783          	lbu	a5,-1291(s3)
 596:	e7cd                	bnez	a5,640 <.L143>
 598:	000009b7          	lui	s3,0x0
 59c:	0009c783          	lbu	a5,0(s3) # 0 <sc_recv_completed>
 5a0:	00098993          	mv	s3,s3
 5a4:	efd1                	bnez	a5,640 <.L143>
 5a6:	8526                	mv	a0,s1
 5a8:	00000097          	auipc	ra,0x0
 5ac:	000080e7          	jalr	ra # 5a8 <.L103+0x30>
 5b0:	0ff57713          	zext.b	a4,a0
 5b4:	02000793          	li	a5,32
 5b8:	0ff57513          	zext.b	a0,a0
 5bc:	00a7f463          	bgeu	a5,a0,5c4 <.L144>
 5c0:	02000713          	li	a4,32

000005c4 <.L144>:
 5c4:	6485                	lui	s1,0x1
 5c6:	009a0633          	add	a2,s4,s1
 5ca:	af464783          	lbu	a5,-1292(a2) # fffffaf4 <.L437+0xffffec6c>
 5ce:	4a079663          	bnez	a5,a7a <.L145>
 5d2:	a3f64783          	lbu	a5,-1473(a2)
 5d6:	3ae78063          	beq	a5,a4,976 <.L146>
 5da:	000007b7          	lui	a5,0x0
 5de:	0007a783          	lw	a5,0(a5) # 0 <sc_recv_completed>
 5e2:	cf9d                	beqz	a5,620 <.L147>
 5e4:	14c7a983          	lw	s3,332(a5)
 5e8:	02098c63          	beqz	s3,620 <.L147>
 5ec:	00000a37          	lui	s4,0x0
 5f0:	000a2583          	lw	a1,0(s4) # 0 <sc_recv_completed>
 5f4:	1547a783          	lw	a5,340(a5)
 5f8:	cc2e                	sw	a1,24(sp)
 5fa:	9782                	jalr	a5
 5fc:	401c                	lw	a5,0(s0)
 5fe:	45e2                	lw	a1,24(sp)
 600:	00000637          	lui	a2,0x0
 604:	00978733          	add	a4,a5,s1
 608:	a3f74803          	lbu	a6,-1473(a4)
 60c:	000a2703          	lw	a4,0(s4)
 610:	a8b48493          	add	s1,s1,-1397 # a8b <.L145+0x11>
 614:	86aa                	mv	a3,a0
 616:	97a6                	add	a5,a5,s1
 618:	00060613          	mv	a2,a2
 61c:	450d                	li	a0,3
 61e:	9982                	jalr	s3

00000620 <.L147>:
 620:	4004                	lw	s1,0(s0)
 622:	6985                	lui	s3,0x1
 624:	a8b98513          	add	a0,s3,-1397 # a8b <.L145+0x11>
 628:	9526                	add	a0,a0,s1
 62a:	02100613          	li	a2,33
 62e:	4581                	li	a1,0
 630:	00000097          	auipc	ra,0x0
 634:	000080e7          	jalr	ra # 630 <.L147+0x10>
 638:	94ce                	add	s1,s1,s3
 63a:	4785                	li	a5,1
 63c:	aef48aa3          	sb	a5,-1291(s1)

00000640 <.L143>:
 640:	00000097          	auipc	ra,0x0
 644:	000080e7          	jalr	ra # 640 <.L143>
 648:	46d1                	li	a3,20
 64a:	02d906b3          	mul	a3,s2,a3
 64e:	4018                	lw	a4,0(s0)
 650:	87aa                	mv	a5,a0
 652:	96ba                	add	a3,a3,a4
 654:	0046c683          	lbu	a3,4(a3)
 658:	a0a6e1e3          	bltu	a3,a0,5a <.L310>
 65c:	4e000693          	li	a3,1248
 660:	02d906b3          	mul	a3,s2,a3
 664:	9736                	add	a4,a4,a3
 666:	4685                	li	a3,1

00000668 <.L165>:
 668:	52d7d563          	bge	a5,a3,b92 <.L166>
 66c:	00000737          	lui	a4,0x0
 670:	01874703          	lbu	a4,24(a4) # 18 <sc_recv_completed+0x18>
 674:	4985                	li	s3,1
 676:	9f3713e3          	bne	a4,s3,5c <.L101>
 67a:	00000737          	lui	a4,0x0
 67e:	00072703          	lw	a4,0(a4) # 0 <sc_recv_completed>
 682:	ce3e                	sw	a5,28(sp)
 684:	9c070ce3          	beqz	a4,5c <.L101>
 688:	14c72483          	lw	s1,332(a4)
 68c:	9c0488e3          	beqz	s1,5c <.L101>
 690:	00000a37          	lui	s4,0x0
 694:	000a2583          	lw	a1,0(s4) # 0 <sc_recv_completed>
 698:	15472703          	lw	a4,340(a4)
 69c:	cc2e                	sw	a1,24(sp)
 69e:	9702                	jalr	a4
 6a0:	4651                	li	a2,20
 6a2:	02c90633          	mul	a2,s2,a2
 6a6:	4018                	lw	a4,0(s0)
 6a8:	47f2                	lw	a5,28(sp)
 6aa:	45e2                	lw	a1,24(sp)
 6ac:	86aa                	mv	a3,a0
 6ae:	450d                	li	a0,3
 6b0:	9732                	add	a4,a4,a2
 6b2:	00474803          	lbu	a6,4(a4)
 6b6:	000a2703          	lw	a4,0(s4)
 6ba:	00000637          	lui	a2,0x0
 6be:	00060613          	mv	a2,a2
 6c2:	9482                	jalr	s1
 6c4:	ba61                	j	5c <.L101>

000006c6 <.L108>:
 6c6:	4595                	li	a1,5
 6c8:	1028                	add	a0,sp,40
 6ca:	00000097          	auipc	ra,0x0
 6ce:	000080e7          	jalr	ra # 6ca <.L108+0x4>
 6d2:	02d14783          	lbu	a5,45(sp)
 6d6:	ce2a                	sw	a0,28(sp)
 6d8:	04a78e63          	beq	a5,a0,734 <.L128>
 6dc:	000007b7          	lui	a5,0x0
 6e0:	0007a783          	lw	a5,0(a5) # 0 <sc_recv_completed>
 6e4:	cb95                	beqz	a5,718 <.L129>
 6e6:	14c7a903          	lw	s2,332(a5)
 6ea:	02090763          	beqz	s2,718 <.L129>
 6ee:	000009b7          	lui	s3,0x0
 6f2:	0009a583          	lw	a1,0(s3) # 0 <sc_recv_completed>
 6f6:	1547a783          	lw	a5,340(a5)
 6fa:	cc2e                	sw	a1,24(sp)
 6fc:	9782                	jalr	a5
 6fe:	4872                	lw	a6,28(sp)
 700:	02d14783          	lbu	a5,45(sp)
 704:	0009a703          	lw	a4,0(s3)
 708:	45e2                	lw	a1,24(sp)
 70a:	00000637          	lui	a2,0x0
 70e:	86aa                	mv	a3,a0
 710:	00060613          	mv	a2,a2
 714:	450d                	li	a0,3
 716:	9902                	jalr	s2

00000718 <.L129>:
 718:	401c                	lw	a5,0(s0)
 71a:	4705                	li	a4,1
 71c:	4625                	li	a2,9
 71e:	97a6                	add	a5,a5,s1

00000720 <.L130>:
 720:	02e7c683          	lbu	a3,46(a5)
 724:	0705                	add	a4,a4,1
 726:	0791                	add	a5,a5,4
 728:	8285                	srl	a3,a3,0x1
 72a:	02d78523          	sb	a3,42(a5)
 72e:	fec719e3          	bne	a4,a2,720 <.L130>
 732:	b225                	j	5a <.L310>

00000734 <.L128>:
 734:	02b14b03          	lbu	s6,43(sp)
 738:	855a                	mv	a0,s6
 73a:	00000097          	auipc	ra,0x0
 73e:	000080e7          	jalr	ra # 73a <.L128+0x6>
 742:	8a2a                	mv	s4,a0
 744:	16050b63          	beqz	a0,8ba <.L131>
 748:	4004                	lw	s1,0(s0)
 74a:	a8ba8a93          	add	s5,s5,-1397 # fffffa8b <.L437+0xffffec03>
 74e:	03350593          	add	a1,a0,51
 752:	02100613          	li	a2,33
 756:	01548533          	add	a0,s1,s5
 75a:	00000097          	auipc	ra,0x0
 75e:	000080e7          	jalr	ra # 75a <.L128+0x26>
 762:	01748533          	add	a0,s1,s7
 766:	4619                	li	a2,6
 768:	85d2                	mv	a1,s4
 76a:	00000097          	auipc	ra,0x0
 76e:	000080e7          	jalr	ra # 76a <.L128+0x36>
 772:	000004b7          	lui	s1,0x0
 776:	00048793          	mv	a5,s1
 77a:	0187c703          	lbu	a4,24(a5)
 77e:	4785                	li	a5,1
 780:	00048493          	mv	s1,s1
 784:	04f71f63          	bne	a4,a5,7e2 <.L132>
 788:	000007b7          	lui	a5,0x0
 78c:	0007a783          	lw	a5,0(a5) # 0 <sc_recv_completed>
 790:	cba9                	beqz	a5,7e2 <.L132>
 792:	14c7ab83          	lw	s7,332(a5)
 796:	040b8663          	beqz	s7,7e2 <.L132>
 79a:	00000b37          	lui	s6,0x0
 79e:	000b2583          	lw	a1,0(s6) # 0 <sc_recv_completed>
 7a2:	1547a783          	lw	a5,340(a5)
 7a6:	cc2e                	sw	a1,24(sp)
 7a8:	9782                	jalr	a5
 7aa:	005a4703          	lbu	a4,5(s4)
 7ae:	401c                	lw	a5,0(s0)
 7b0:	001a4883          	lbu	a7,1(s4)
 7b4:	000a4803          	lbu	a6,0(s4)
 7b8:	c63a                	sw	a4,12(sp)
 7ba:	004a4703          	lbu	a4,4(s4)
 7be:	45e2                	lw	a1,24(sp)
 7c0:	00000637          	lui	a2,0x0
 7c4:	c43a                	sw	a4,8(sp)
 7c6:	003a4703          	lbu	a4,3(s4)
 7ca:	86aa                	mv	a3,a0
 7cc:	97d6                	add	a5,a5,s5
 7ce:	c23a                	sw	a4,4(sp)
 7d0:	002a4703          	lbu	a4,2(s4)
 7d4:	00060613          	mv	a2,a2
 7d8:	450d                	li	a0,3
 7da:	c03a                	sw	a4,0(sp)
 7dc:	000b2703          	lw	a4,0(s6)
 7e0:	9b82                	jalr	s7

000007e2 <.L132>:
 7e2:	02814783          	lbu	a5,40(sp)
 7e6:	400c                	lw	a1,0(s0)
 7e8:	6a05                	lui	s4,0x1
 7ea:	07f7f713          	and	a4,a5,127
 7ee:	014586b3          	add	a3,a1,s4
 7f2:	839d                	srl	a5,a5,0x7
 7f4:	a4f68023          	sb	a5,-1472(a3)
 7f8:	02914783          	lbu	a5,41(sp)
 7fc:	a2e68fa3          	sb	a4,-1473(a3)
 800:	4805                	li	a6,1
 802:	07f7f613          	and	a2,a5,127
 806:	839d                	srl	a5,a5,0x7
 808:	a2f68e23          	sb	a5,-1476(a3)
 80c:	02a14783          	lbu	a5,42(sp)
 810:	a2c68da3          	sb	a2,-1477(a3)
 814:	07f7f513          	and	a0,a5,127
 818:	839d                	srl	a5,a5,0x7
 81a:	a4f68123          	sb	a5,-1470(a3)
 81e:	02b14783          	lbu	a5,43(sp)
 822:	a4a680a3          	sb	a0,-1471(a3)
 826:	a4f681a3          	sb	a5,-1469(a3)
 82a:	02c14783          	lbu	a5,44(sp)
 82e:	a2f68d23          	sb	a5,-1478(a3)
 832:	8785                	sra	a5,a5,0x1
 834:	8b8d                	and	a5,a5,3
 836:	aef68a23          	sb	a5,-1292(a3)
 83a:	0d079b63          	bne	a5,a6,910 <.L135>
 83e:	9732                	add	a4,a4,a2

00000840 <.L309>:
 840:	972a                	add	a4,a4,a0
 842:	a2e68c23          	sb	a4,-1480(a3)

00000846 <.L136>:
 846:	962a                	add	a2,a2,a0
 848:	6985                	lui	s3,0x1
 84a:	0641                	add	a2,a2,16 # 10 <sc_recv_completed+0x10>
 84c:	0184c703          	lbu	a4,24(s1) # 18 <sc_recv_completed+0x18>
 850:	95ce                	add	a1,a1,s3
 852:	1f067613          	and	a2,a2,496
 856:	a2c58ea3          	sb	a2,-1475(a1)
 85a:	4785                	li	a5,1
 85c:	04f71163          	bne	a4,a5,89e <.L140>
 860:	000007b7          	lui	a5,0x0
 864:	0007a783          	lw	a5,0(a5) # 0 <sc_recv_completed>
 868:	cb9d                	beqz	a5,89e <.L140>
 86a:	14c7aa03          	lw	s4,332(a5)
 86e:	020a0863          	beqz	s4,89e <.L140>
 872:	00000ab7          	lui	s5,0x0
 876:	000aa583          	lw	a1,0(s5) # 0 <sc_recv_completed>
 87a:	1547a783          	lw	a5,340(a5)
 87e:	cc2e                	sw	a1,24(sp)
 880:	9782                	jalr	a5
 882:	401c                	lw	a5,0(s0)
 884:	000aa703          	lw	a4,0(s5)
 888:	45e2                	lw	a1,24(sp)
 88a:	97ce                	add	a5,a5,s3
 88c:	a3d7c783          	lbu	a5,-1475(a5)
 890:	00000637          	lui	a2,0x0
 894:	86aa                	mv	a3,a0
 896:	00060613          	mv	a2,a2
 89a:	450d                	li	a0,3
 89c:	9a02                	jalr	s4

0000089e <.L140>:
 89e:	401c                	lw	a5,0(s0)
 8a0:	6a05                	lui	s4,0x1
 8a2:	477d                	li	a4,31
 8a4:	97d2                	add	a5,a5,s4
 8a6:	a3f7c783          	lbu	a5,-1473(a5)
 8aa:	17fd                	add	a5,a5,-1
 8ac:	0ff7f793          	zext.b	a5,a5
 8b0:	faf76563          	bltu	a4,a5,5a <.L310>
 8b4:	0184c703          	lbu	a4,24(s1)
 8b8:	b679                	j	446 <.L317>

000008ba <.L131>:
 8ba:	000007b7          	lui	a5,0x0
 8be:	0007a703          	lw	a4,0(a5) # 0 <sc_recv_completed>
 8c2:	cb05                	beqz	a4,8f2 <.L133>
 8c4:	14c72903          	lw	s2,332(a4)
 8c8:	02090563          	beqz	s2,8f2 <.L133>
 8cc:	000009b7          	lui	s3,0x0
 8d0:	0009a583          	lw	a1,0(s3) # 0 <sc_recv_completed>
 8d4:	15472783          	lw	a5,340(a4)
 8d8:	cc2e                	sw	a1,24(sp)
 8da:	9782                	jalr	a5
 8dc:	0009a703          	lw	a4,0(s3)
 8e0:	45e2                	lw	a1,24(sp)
 8e2:	00000637          	lui	a2,0x0
 8e6:	86aa                	mv	a3,a0
 8e8:	87da                	mv	a5,s6
 8ea:	00060613          	mv	a2,a2
 8ee:	4509                	li	a0,2
 8f0:	9902                	jalr	s2

000008f2 <.L133>:
 8f2:	401c                	lw	a5,0(s0)
 8f4:	4705                	li	a4,1
 8f6:	4625                	li	a2,9
 8f8:	97a6                	add	a5,a5,s1

000008fa <.L134>:
 8fa:	02e7c683          	lbu	a3,46(a5)
 8fe:	0705                	add	a4,a4,1
 900:	0791                	add	a5,a5,4
 902:	8285                	srl	a3,a3,0x1
 904:	02d78523          	sb	a3,42(a5)
 908:	fec719e3          	bne	a4,a2,8fa <.L134>
 90c:	f4eff06f          	j	5a <.L310>

00000910 <.L135>:
 910:	4889                	li	a7,2
 912:	01179563          	bne	a5,a7,91c <.L137>
 916:	9732                	add	a4,a4,a2
 918:	0741                	add	a4,a4,16
 91a:	b71d                	j	840 <.L309>

0000091c <.L137>:
 91c:	fff78713          	add	a4,a5,-1
 920:	0ff77713          	zext.b	a4,a4
 924:	f2e871e3          	bgeu	a6,a4,846 <.L136>
 928:	17f5                	add	a5,a5,-3
 92a:	0ff7f793          	zext.b	a5,a5
 92e:	f6f868e3          	bltu	a6,a5,89e <.L140>
 932:	000007b7          	lui	a5,0x0
 936:	0007a783          	lw	a5,0(a5) # 0 <sc_recv_completed>
 93a:	f2078063          	beqz	a5,5a <.L310>
 93e:	14c7a483          	lw	s1,332(a5)
 942:	f0048c63          	beqz	s1,5a <.L310>
 946:	00000937          	lui	s2,0x0
 94a:	00092583          	lw	a1,0(s2) # 0 <sc_recv_completed>
 94e:	1547a783          	lw	a5,340(a5)
 952:	cc2e                	sw	a1,24(sp)
 954:	9782                	jalr	a5
 956:	401c                	lw	a5,0(s0)
 958:	00092703          	lw	a4,0(s2)
 95c:	45e2                	lw	a1,24(sp)
 95e:	97d2                	add	a5,a5,s4
 960:	af47c783          	lbu	a5,-1292(a5)
 964:	00000637          	lui	a2,0x0
 968:	86aa                	mv	a3,a0
 96a:	00060613          	mv	a2,a2
 96e:	450d                	li	a0,3
 970:	9482                	jalr	s1
 972:	eeaff06f          	j	5c <.L101>

00000976 <.L146>:
 976:	a4264583          	lbu	a1,-1470(a2) # fffffa42 <.L437+0xffffebba>
 97a:	a3b64783          	lbu	a5,-1477(a2)
 97e:	a4164683          	lbu	a3,-1471(a2)
 982:	a3c64603          	lbu	a2,-1476(a2)
 986:	c65d                	beqz	a2,a34 <.L148>
 988:	0791                	add	a5,a5,4
 98a:	4615                	li	a2,5
 98c:	02c7c7b3          	div	a5,a5,a2
 990:	0ff7f793          	zext.b	a5,a5
 994:	c9dd                	beqz	a1,a4a <.L149>
 996:	0691                	add	a3,a3,4

00000998 <.L306>:
 998:	02c6c6b3          	div	a3,a3,a2
 99c:	97b6                	add	a5,a5,a3
 99e:	078e                	sll	a5,a5,0x3
 9a0:	0ff7f493          	zext.b	s1,a5

000009a4 <.L150>:
 9a4:	6785                	lui	a5,0x1
 9a6:	97d2                	add	a5,a5,s4
 9a8:	a407c783          	lbu	a5,-1472(a5) # a40 <.L148+0xc>
 9ac:	cbcd                	beqz	a5,a5e <.L153>
 9ae:	00470813          	add	a6,a4,4
 9b2:	0ff87813          	zext.b	a6,a6
 9b6:	4795                	li	a5,5

000009b8 <.L307>:
 9b8:	02f84833          	div	a6,a6,a5
 9bc:	00000737          	lui	a4,0x0
 9c0:	01874683          	lbu	a3,24(a4) # 18 <sc_recv_completed+0x18>
 9c4:	00848793          	add	a5,s1,8
 9c8:	4705                	li	a4,1
 9ca:	080e                	sll	a6,a6,0x3
 9cc:	0ff87813          	zext.b	a6,a6
 9d0:	00f80a33          	add	s4,a6,a5
 9d4:	04e69063          	bne	a3,a4,a14 <.L155>
 9d8:	00000737          	lui	a4,0x0
 9dc:	00072703          	lw	a4,0(a4) # 0 <sc_recv_completed>
 9e0:	ce3e                	sw	a5,28(sp)
 9e2:	cb0d                	beqz	a4,a14 <.L155>
 9e4:	14c72a83          	lw	s5,332(a4)
 9e8:	020a8663          	beqz	s5,a14 <.L155>
 9ec:	00000b37          	lui	s6,0x0
 9f0:	000b2583          	lw	a1,0(s6) # 0 <sc_recv_completed>
 9f4:	15472703          	lw	a4,340(a4)
 9f8:	cc2e                	sw	a1,24(sp)
 9fa:	9702                	jalr	a4
 9fc:	47f2                	lw	a5,28(sp)
 9fe:	000b2703          	lw	a4,0(s6)
 a02:	45e2                	lw	a1,24(sp)
 a04:	00000637          	lui	a2,0x0
 a08:	86aa                	mv	a3,a0
 a0a:	8852                	mv	a6,s4
 a0c:	00060613          	mv	a2,a2
 a10:	450d                	li	a0,3
 a12:	9a82                	jalr	s5

00000a14 <.L155>:
 a14:	4e000713          	li	a4,1248
 a18:	02e90733          	mul	a4,s2,a4
 a1c:	4010                	lw	a2,0(s0)
 a1e:	06500593          	li	a1,101

00000a22 <.L156>:
 a22:	00148693          	add	a3,s1,1
 a26:	04a1                	add	s1,s1,8
 a28:	0544c163          	blt	s1,s4,a6a <.L157>

00000a2c <.L164>:
 a2c:	4785                	li	a5,1
 a2e:	00f98023          	sb	a5,0(s3)
 a32:	b139                	j	640 <.L143>

00000a34 <.L148>:
 a34:	ed91                	bnez	a1,a50 <.L151>
 a36:	00f684b3          	add	s1,a3,a5
 a3a:	0495                	add	s1,s1,5
 a3c:	4799                	li	a5,6
 a3e:	02f4c4b3          	div	s1,s1,a5
 a42:	048e                	sll	s1,s1,0x3
 a44:	0ff4f493          	zext.b	s1,s1
 a48:	bfb1                	j	9a4 <.L150>

00000a4a <.L149>:
 a4a:	0695                	add	a3,a3,5
 a4c:	4619                	li	a2,6
 a4e:	b7a9                	j	998 <.L306>

00000a50 <.L151>:
 a50:	4619                	li	a2,6
 a52:	0795                	add	a5,a5,5
 a54:	02c7c7b3          	div	a5,a5,a2
 a58:	0691                	add	a3,a3,4
 a5a:	4615                	li	a2,5
 a5c:	bf35                	j	998 <.L306>

00000a5e <.L153>:
 a5e:	00570813          	add	a6,a4,5
 a62:	0ff87813          	zext.b	a6,a6
 a66:	4799                	li	a5,6
 a68:	bf81                	j	9b8 <.L307>

00000a6a <.L157>:
 a6a:	00269793          	sll	a5,a3,0x2
 a6e:	97ba                	add	a5,a5,a4
 a70:	97b2                	add	a5,a5,a2
 a72:	04b78523          	sb	a1,74(a5)
 a76:	84b6                	mv	s1,a3
 a78:	b76d                	j	a22 <.L156>

00000a7a <.L145>:
 a7a:	a3d64a83          	lbu	s5,-1475(a2) # fffffa3d <.L437+0xffffebb5>
 a7e:	4695                	li	a3,5
 a80:	0a91                	add	s5,s5,4
 a82:	02dacab3          	div	s5,s5,a3
 a86:	4689                	li	a3,2
 a88:	0a8e                	sll	s5,s5,0x3
 a8a:	0ffafa93          	zext.b	s5,s5
 a8e:	00d79663          	bne	a5,a3,a9a <.L158>
 a92:	020a8a93          	add	s5,s5,32
 a96:	0ffafa93          	zext.b	s5,s5

00000a9a <.L158>:
 a9a:	6c05                	lui	s8,0x1
 a9c:	9a62                	add	s4,s4,s8
 a9e:	a40a4783          	lbu	a5,-1472(s4) # a40 <.L148+0xc>
 aa2:	00000bb7          	lui	s7,0x0
 aa6:	000b8b93          	mv	s7,s7
 aaa:	c7c9                	beqz	a5,b34 <.L159>
 aac:	00470493          	add	s1,a4,4
 ab0:	0ff4f493          	zext.b	s1,s1
 ab4:	4795                	li	a5,5
 ab6:	02f4c4b3          	div	s1,s1,a5
 aba:	048e                	sll	s1,s1,0x3
 abc:	0ff4f493          	zext.b	s1,s1

00000ac0 <.L160>:
 ac0:	018bc683          	lbu	a3,24(s7) # 18 <sc_recv_completed+0x18>
 ac4:	008a8793          	add	a5,s5,8
 ac8:	4705                	li	a4,1
 aca:	94be                	add	s1,s1,a5
 acc:	04e69063          	bne	a3,a4,b0c <.L161>
 ad0:	00000737          	lui	a4,0x0
 ad4:	00072703          	lw	a4,0(a4) # 0 <sc_recv_completed>
 ad8:	ce3e                	sw	a5,28(sp)
 ada:	cb0d                	beqz	a4,b0c <.L161>
 adc:	14c72a03          	lw	s4,332(a4)
 ae0:	020a0663          	beqz	s4,b0c <.L161>
 ae4:	00000b37          	lui	s6,0x0
 ae8:	000b2583          	lw	a1,0(s6) # 0 <sc_recv_completed>
 aec:	15472703          	lw	a4,340(a4)
 af0:	cc2e                	sw	a1,24(sp)
 af2:	9702                	jalr	a4
 af4:	47f2                	lw	a5,28(sp)
 af6:	000b2703          	lw	a4,0(s6)
 afa:	45e2                	lw	a1,24(sp)
 afc:	00000637          	lui	a2,0x0
 b00:	86aa                	mv	a3,a0
 b02:	8826                	mv	a6,s1
 b04:	00060613          	mv	a2,a2
 b08:	450d                	li	a0,3
 b0a:	9a02                	jalr	s4

00000b0c <.L161>:
 b0c:	4e000713          	li	a4,1248
 b10:	02e90733          	mul	a4,s2,a4
 b14:	4010                	lw	a2,0(s0)
 b16:	06500593          	li	a1,101

00000b1a <.L162>:
 b1a:	001a8693          	add	a3,s5,1
 b1e:	0aa1                	add	s5,s5,8
 b20:	f09ad6e3          	bge	s5,s1,a2c <.L164>
 b24:	00269793          	sll	a5,a3,0x2
 b28:	97ba                	add	a5,a5,a4
 b2a:	97b2                	add	a5,a5,a2
 b2c:	04b78523          	sb	a1,74(a5)
 b30:	8ab6                	mv	s5,a3
 b32:	b7e5                	j	b1a <.L162>

00000b34 <.L159>:
 b34:	00570493          	add	s1,a4,5
 b38:	4799                	li	a5,6
 b3a:	0ff4f493          	zext.b	s1,s1
 b3e:	02f4c4b3          	div	s1,s1,a5
 b42:	018bc703          	lbu	a4,24(s7)
 b46:	4785                	li	a5,1
 b48:	048e                	sll	s1,s1,0x3
 b4a:	0ff4f493          	zext.b	s1,s1
 b4e:	f6f719e3          	bne	a4,a5,ac0 <.L160>
 b52:	000007b7          	lui	a5,0x0
 b56:	0007a703          	lw	a4,0(a5) # 0 <sc_recv_completed>
 b5a:	d33d                	beqz	a4,ac0 <.L160>
 b5c:	14c72a03          	lw	s4,332(a4)
 b60:	f60a00e3          	beqz	s4,ac0 <.L160>
 b64:	00000b37          	lui	s6,0x0
 b68:	000b2583          	lw	a1,0(s6) # 0 <sc_recv_completed>
 b6c:	15472783          	lw	a5,340(a4)
 b70:	cc2e                	sw	a1,24(sp)
 b72:	9782                	jalr	a5
 b74:	4018                	lw	a4,0(s0)
 b76:	a8bc0793          	add	a5,s8,-1397 # a8b <.L145+0x11>
 b7a:	45e2                	lw	a1,24(sp)
 b7c:	97ba                	add	a5,a5,a4
 b7e:	000b2703          	lw	a4,0(s6)
 b82:	00000637          	lui	a2,0x0
 b86:	86aa                	mv	a3,a0
 b88:	00060613          	mv	a2,a2
 b8c:	450d                	li	a0,3
 b8e:	9a02                	jalr	s4
 b90:	bf05                	j	ac0 <.L160>

00000b92 <.L166>:
 b92:	02e74603          	lbu	a2,46(a4)
 b96:	0711                	add	a4,a4,4
 b98:	cc060163          	beqz	a2,5a <.L310>
 b9c:	0685                	add	a3,a3,1
 b9e:	b4e9                	j	668 <.L165>

Disassembly of section .text.sc_set_mask_status:

00000000 <sc_set_mask_status>:
   0:	000007b7          	lui	a5,0x0
   4:	00078793          	mv	a5,a5
   8:	0007c703          	lbu	a4,0(a5) # 0 <sc_set_mask_status>
   c:	fff54513          	not	a0,a0
  10:	8f69                	and	a4,a4,a0
  12:	8dd9                	or	a1,a1,a4
  14:	00b78023          	sb	a1,0(a5)
  18:	8082                	ret

Disassembly of section .text.TOUCH_v2_init_glob:

00000000 <TOUCH_v2_init_glob>:
   0:	1101                	add	sp,sp,-32
   2:	c84a                	sw	s2,16(sp)
   4:	00000937          	lui	s2,0x0
   8:	00092783          	lw	a5,0(s2) # 0 <TOUCH_v2_init_glob>
   c:	ce06                	sw	ra,28(sp)
   e:	cc22                	sw	s0,24(sp)
  10:	ca26                	sw	s1,20(sp)
  12:	efb9                	bnez	a5,70 <.L320>
  14:	00000437          	lui	s0,0x0
  18:	00042783          	lw	a5,0(s0) # 0 <TOUCH_v2_init_glob>
  1c:	4585                	li	a1,1
  1e:	4541                	li	a0,16
  20:	1707a783          	lw	a5,368(a5)
  24:	9782                	jalr	a5
  26:	00a92023          	sw	a0,0(s2)
  2a:	e139                	bnez	a0,70 <.L320>
  2c:	00042783          	lw	a5,0(s0)

00000030 <.L340>:
  30:	c795                	beqz	a5,5c <.L322>
  32:	14c7a403          	lw	s0,332(a5)
  36:	c01d                	beqz	s0,5c <.L322>
  38:	000004b7          	lui	s1,0x0
  3c:	0004a583          	lw	a1,0(s1) # 0 <TOUCH_v2_init_glob>
  40:	1547a783          	lw	a5,340(a5)
  44:	c62e                	sw	a1,12(sp)
  46:	9782                	jalr	a5
  48:	0004a703          	lw	a4,0(s1)
  4c:	45b2                	lw	a1,12(sp)
  4e:	00000637          	lui	a2,0x0
  52:	86aa                	mv	a3,a0
  54:	00060613          	mv	a2,a2
  58:	4505                	li	a0,1
  5a:	9402                	jalr	s0

0000005c <.L322>:
  5c:	4462                	lw	s0,24(sp)
  5e:	40f2                	lw	ra,28(sp)
  60:	44d2                	lw	s1,20(sp)
  62:	4942                	lw	s2,16(sp)
  64:	4501                	li	a0,0
  66:	6105                	add	sp,sp,32
  68:	00000317          	auipc	t1,0x0
  6c:	00030067          	jr	t1 # 68 <.L322+0xc>

00000070 <.L320>:
  70:	00000437          	lui	s0,0x0
  74:	00040413          	mv	s0,s0
  78:	401c                	lw	a5,0(s0)
  7a:	c785                	beqz	a5,a2 <.L324>

0000007c <.L325>:
  7c:	4462                	lw	s0,24(sp)
  7e:	000007b7          	lui	a5,0x0
  82:	40f2                	lw	ra,28(sp)
  84:	44d2                	lw	s1,20(sp)
  86:	4942                	lw	s2,16(sp)
  88:	00078793          	mv	a5,a5
  8c:	4709                	li	a4,2
  8e:	c398                	sw	a4,0(a5)
  90:	c3d8                	sw	a4,4(a5)
  92:	4581                	li	a1,0
  94:	0ff00513          	li	a0,255
  98:	6105                	add	sp,sp,32
  9a:	00000317          	auipc	t1,0x0
  9e:	00030067          	jr	t1 # 9a <.L325+0x1e>

000000a2 <.L324>:
  a2:	000004b7          	lui	s1,0x0
  a6:	0004a783          	lw	a5,0(s1) # 0 <TOUCH_v2_init_glob>
  aa:	6505                	lui	a0,0x1
  ac:	4585                	li	a1,1
  ae:	1707a783          	lw	a5,368(a5) # 170 <.L364+0xc>
  b2:	b0850513          	add	a0,a0,-1272 # b08 <.L403+0x32>
  b6:	9782                	jalr	a5
  b8:	c008                	sw	a0,0(s0)
  ba:	f169                	bnez	a0,7c <.L325>
  bc:	0004a783          	lw	a5,0(s1)
  c0:	00092503          	lw	a0,0(s2)
  c4:	0b07a783          	lw	a5,176(a5)
  c8:	9782                	jalr	a5
  ca:	0004a783          	lw	a5,0(s1)
  ce:	b78d                	j	30 <.L340>

Disassembly of section .text.TOUCH_v2_free_glob:

00000000 <TOUCH_v2_free_glob>:
   0:	1141                	add	sp,sp,-16
   2:	c422                	sw	s0,8(sp)
   4:	00000437          	lui	s0,0x0
   8:	00042503          	lw	a0,0(s0) # 0 <TOUCH_v2_free_glob>
   c:	c606                	sw	ra,12(sp)
   e:	c911                	beqz	a0,22 <.L342>
  10:	000007b7          	lui	a5,0x0
  14:	0007a783          	lw	a5,0(a5) # 0 <TOUCH_v2_free_glob>
  18:	0b07a783          	lw	a5,176(a5)
  1c:	9782                	jalr	a5
  1e:	00042023          	sw	zero,0(s0)

00000022 <.L342>:
  22:	00000437          	lui	s0,0x0
  26:	00040413          	mv	s0,s0
  2a:	4008                	lw	a0,0(s0)
  2c:	c911                	beqz	a0,40 <.L343>
  2e:	000007b7          	lui	a5,0x0
  32:	0007a783          	lw	a5,0(a5) # 0 <TOUCH_v2_free_glob>
  36:	0b07a783          	lw	a5,176(a5)
  3a:	9782                	jalr	a5
  3c:	00042023          	sw	zero,0(s0) # 0 <TOUCH_v2_free_glob>

00000040 <.L343>:
  40:	4422                	lw	s0,8(sp)
  42:	000007b7          	lui	a5,0x0
  46:	40b2                	lw	ra,12(sp)
  48:	00078793          	mv	a5,a5
  4c:	4709                	li	a4,2
  4e:	c398                	sw	a4,0(a5)
  50:	c3d8                	sw	a4,4(a5)
  52:	4581                	li	a1,0
  54:	0ff00513          	li	a0,255
  58:	0141                	add	sp,sp,16
  5a:	00000317          	auipc	t1,0x0
  5e:	00030067          	jr	t1 # 5a <.L343+0x1a>

Disassembly of section .text.sc_get_ssid_passwd:

00000000 <sc_get_ssid_passwd>:
   0:	7125                	add	sp,sp,-416
   2:	19412423          	sw	s4,392(sp)
   6:	18112e23          	sw	ra,412(sp)
   a:	18812c23          	sw	s0,408(sp)
   e:	18912a23          	sw	s1,404(sp)
  12:	19212823          	sw	s2,400(sp)
  16:	19312623          	sw	s3,396(sp)
  1a:	19512223          	sw	s5,388(sp)
  1e:	19612023          	sw	s6,384(sp)
  22:	17712e23          	sw	s7,380(sp)
  26:	17812c23          	sw	s8,376(sp)
  2a:	17912a23          	sw	s9,372(sp)
  2e:	17a12823          	sw	s10,368(sp)
  32:	17b12623          	sw	s11,364(sp)
  36:	8a2a                	mv	s4,a0
  38:	00000097          	auipc	ra,0x0
  3c:	000080e7          	jalr	ra # 38 <sc_get_ssid_passwd+0x38>
  40:	e119                	bnez	a0,46 <.L352>

00000042 <.L601>:
  42:	557d                	li	a0,-1
  44:	ab0d                	j	576 <.L351>

00000046 <.L352>:
  46:	000005b7          	lui	a1,0x0
  4a:	461d                	li	a2,7
  4c:	00058593          	mv	a1,a1
  50:	1808                	add	a0,sp,48
  52:	00000097          	auipc	ra,0x0
  56:	000080e7          	jalr	ra # 52 <.L352+0xc>
  5a:	08400613          	li	a2,132
  5e:	4581                	li	a1,0
  60:	09e8                	add	a0,sp,220
  62:	00000b37          	lui	s6,0x0
  66:	00000097          	auipc	ra,0x0
  6a:	000080e7          	jalr	ra # 66 <.L352+0x20>
  6e:	000b4783          	lbu	a5,0(s6) # 0 <sc_get_ssid_passwd>
  72:	00000437          	lui	s0,0x0
  76:	00000937          	lui	s2,0x0
  7a:	8b89                	and	a5,a5,2
  7c:	000b0b13          	mv	s6,s6
  80:	00040413          	mv	s0,s0
  84:	00090913          	mv	s2,s2
  88:	1c079b63          	bnez	a5,25e <.L355>
  8c:	4014                	lw	a3,0(s0)
  8e:	6605                	lui	a2,0x1
  90:	9636                	add	a2,a2,a3
  92:	af464783          	lbu	a5,-1292(a2) # af4 <.L403+0x1e>
  96:	16079d63          	bnez	a5,210 <.L356>
  9a:	a4264583          	lbu	a1,-1470(a2)
  9e:	a3b64783          	lbu	a5,-1477(a2)
  a2:	a4164703          	lbu	a4,-1471(a2)
  a6:	a3c64603          	lbu	a2,-1476(a2)
  aa:	c205                	beqz	a2,ca <.L357>
  ac:	0791                	add	a5,a5,4 # 4 <sc_get_ssid_passwd+0x4>
  ae:	4615                	li	a2,5
  b0:	02c7c7b3          	div	a5,a5,a2
  b4:	0ff7f793          	zext.b	a5,a5
  b8:	c18d                	beqz	a1,da <.L358>
  ba:	0711                	add	a4,a4,4
  bc:	02c74733          	div	a4,a4,a2
  c0:	97ba                	add	a5,a5,a4

000000c2 <.L599>:
  c2:	0ff7f793          	zext.b	a5,a5
  c6:	4481                	li	s1,0
  c8:	a00d                	j	ea <.L359>

000000ca <.L357>:
  ca:	12059c63          	bnez	a1,202 <.L360>
  ce:	97ba                	add	a5,a5,a4
  d0:	0795                	add	a5,a5,5
  d2:	4719                	li	a4,6
  d4:	02e7c7b3          	div	a5,a5,a4
  d8:	a031                	j	e4 <.L598>

000000da <.L358>:
  da:	0715                	add	a4,a4,5
  dc:	4619                	li	a2,6

000000de <.L597>:
  de:	02c74733          	div	a4,a4,a2
  e2:	97ba                	add	a5,a5,a4

000000e4 <.L598>:
  e4:	0ff7f793          	zext.b	a5,a5
  e8:	4485                	li	s1,1

000000ea <.L359>:
  ea:	6b85                	lui	s7,0x1
  ec:	01894703          	lbu	a4,24(s2) # 18 <sc_get_ssid_passwd+0x18>
  f0:	96de                	add	a3,a3,s7
  f2:	a2f68f23          	sb	a5,-1474(a3)
  f6:	4785                	li	a5,1
  f8:	04f71163          	bne	a4,a5,13a <.L362>
  fc:	000007b7          	lui	a5,0x0
 100:	0007a783          	lw	a5,0(a5) # 0 <sc_get_ssid_passwd>
 104:	cb9d                	beqz	a5,13a <.L362>
 106:	14c7a983          	lw	s3,332(a5)
 10a:	02098863          	beqz	s3,13a <.L362>
 10e:	00000ab7          	lui	s5,0x0
 112:	000aa583          	lw	a1,0(s5) # 0 <sc_get_ssid_passwd>
 116:	1547a783          	lw	a5,340(a5)
 11a:	d22e                	sw	a1,36(sp)
 11c:	9782                	jalr	a5
 11e:	401c                	lw	a5,0(s0)
 120:	000aa703          	lw	a4,0(s5)
 124:	5592                	lw	a1,36(sp)
 126:	97de                	add	a5,a5,s7
 128:	a3e7c783          	lbu	a5,-1474(a5)
 12c:	00000637          	lui	a2,0x0
 130:	86aa                	mv	a3,a0
 132:	00060613          	mv	a2,a2
 136:	450d                	li	a0,3
 138:	9982                	jalr	s3

0000013a <.L362>:
 13a:	401c                	lw	a5,0(s0)
 13c:	6705                	lui	a4,0x1
 13e:	97ba                	add	a5,a5,a4
 140:	a3e7c783          	lbu	a5,-1474(a5)
 144:	cfe9                	beqz	a5,21e <.L363>
 146:	13800993          	li	s3,312
 14a:	4e000c93          	li	s9,1248
 14e:	033a09b3          	mul	s3,s4,s3
 152:	4c21                	li	s8,8
 154:	4b81                	li	s7,0
 156:	4a89                	li	s5,2
 158:	00000db7          	lui	s11,0x0
 15c:	00000d37          	lui	s10,0x0
 160:	039a0cb3          	mul	s9,s4,s9

00000164 <.L364>:
 164:	4008                	lw	a0,0(s0)
 166:	6705                	lui	a4,0x1
 168:	00e507b3          	add	a5,a0,a4
 16c:	a3e7c583          	lbu	a1,-1474(a5)
 170:	00158613          	add	a2,a1,1 # 1 <sc_get_ssid_passwd+0x1>
 174:	43565d63          	bge	a2,s5,5ae <.L380>
 178:	000b4683          	lbu	a3,0(s6)
 17c:	8ac1                	and	a3,a3,16
 17e:	e68d                	bnez	a3,1a8 <.L381>
 180:	af47c783          	lbu	a5,-1292(a5)
 184:	4685                	li	a3,1
 186:	68d79063          	bne	a5,a3,806 <.L382>
 18a:	af670713          	add	a4,a4,-1290 # af6 <.L403+0x20>
 18e:	4641                	li	a2,16
 190:	4581                	li	a1,0
 192:	953a                	add	a0,a0,a4
 194:	00000097          	auipc	ra,0x0
 198:	000080e7          	jalr	ra # 194 <.L364+0x30>

0000019c <.L383>:
 19c:	45c1                	li	a1,16
 19e:	4501                	li	a0,0
 1a0:	00000097          	auipc	ra,0x0
 1a4:	000080e7          	jalr	ra # 1a0 <.L383+0x4>

000001a8 <.L381>:
 1a8:	00042983          	lw	s3,0(s0) # 0 <sc_get_ssid_passwd>
 1ac:	6785                	lui	a5,0x1
 1ae:	97ce                	add	a5,a5,s3
 1b0:	a3b7c483          	lbu	s1,-1477(a5) # a3b <.L395+0x3>
 1b4:	e489                	bnez	s1,1be <.L394>
 1b6:	a417c783          	lbu	a5,-1471(a5)
 1ba:	06078fe3          	beqz	a5,a38 <.L395>

000001be <.L394>:
 1be:	6705                	lui	a4,0x1
 1c0:	00e98ab3          	add	s5,s3,a4
 1c4:	af4ac783          	lbu	a5,-1292(s5)
 1c8:	080799e3          	bnez	a5,a5a <.L396>
 1cc:	a3cac783          	lbu	a5,-1476(s5)
 1d0:	a4a70513          	add	a0,a4,-1462 # a4a <.L398+0x4>
 1d4:	aac70713          	add	a4,a4,-1364
 1d8:	954e                	add	a0,a0,s3
 1da:	99ba                	add	s3,s3,a4
 1dc:	020798e3          	bnez	a5,a0c <.L397>
 1e0:	a42ac783          	lbu	a5,-1470(s5)
 1e4:	060791e3          	bnez	a5,a46 <.L398>
 1e8:	8626                	mv	a2,s1
 1ea:	09ec                	add	a1,sp,220
 1ec:	00000097          	auipc	ra,0x0
 1f0:	000080e7          	jalr	ra # 1ec <.L394+0x2e>
 1f4:	09fc                	add	a5,sp,220
 1f6:	a41ac603          	lbu	a2,-1471(s5)
 1fa:	009785b3          	add	a1,a5,s1
 1fe:	0310006f          	j	a2e <.L600>

00000202 <.L360>:
 202:	4619                	li	a2,6
 204:	0795                	add	a5,a5,5
 206:	02c7c7b3          	div	a5,a5,a2
 20a:	0711                	add	a4,a4,4
 20c:	4615                	li	a2,5
 20e:	bdc1                	j	de <.L597>

00000210 <.L356>:
 210:	a3d64783          	lbu	a5,-1475(a2) # fffffa3d <.L437+0xffffebb5>
 214:	4715                	li	a4,5
 216:	0791                	add	a5,a5,4
 218:	02e7c7b3          	div	a5,a5,a4
 21c:	b55d                	j	c2 <.L599>

0000021e <.L363>:
 21e:	4589                	li	a1,2
 220:	4501                	li	a0,0
 222:	00000097          	auipc	ra,0x0
 226:	000080e7          	jalr	ra # 222 <.L363+0x4>
 22a:	000007b7          	lui	a5,0x0
 22e:	0007a783          	lw	a5,0(a5) # 0 <sc_get_ssid_passwd>
 232:	c795                	beqz	a5,25e <.L355>
 234:	14c7a483          	lw	s1,332(a5)
 238:	c09d                	beqz	s1,25e <.L355>
 23a:	000009b7          	lui	s3,0x0
 23e:	0009a583          	lw	a1,0(s3) # 0 <sc_get_ssid_passwd>
 242:	1547a783          	lw	a5,340(a5)
 246:	d22e                	sw	a1,36(sp)
 248:	9782                	jalr	a5
 24a:	0009a703          	lw	a4,0(s3)
 24e:	5592                	lw	a1,36(sp)
 250:	00000637          	lui	a2,0x0
 254:	86aa                	mv	a3,a0
 256:	00060613          	mv	a2,a2
 25a:	450d                	li	a0,3
 25c:	9482                	jalr	s1

0000025e <.L355>:
 25e:	000b4783          	lbu	a5,0(s6)
 262:	8ba1                	and	a5,a5,8
 264:	12079863          	bnez	a5,394 <.L414>
 268:	4004                	lw	s1,0(s0)
 26a:	6985                	lui	s3,0x1
 26c:	a8b98513          	add	a0,s3,-1397 # a8b <.L396+0x31>
 270:	9526                	add	a0,a0,s1
 272:	00000097          	auipc	ra,0x0
 276:	000080e7          	jalr	ra # 272 <.L355+0x14>
 27a:	8b2a                	mv	s6,a0
 27c:	c979                	beqz	a0,352 <.L415>
 27e:	08400613          	li	a2,132
 282:	4581                	li	a1,0
 284:	09e8                	add	a0,sp,220
 286:	00000097          	auipc	ra,0x0
 28a:	000080e7          	jalr	ra # 286 <.L355+0x28>
 28e:	94ce                	add	s1,s1,s3
 290:	a404c783          	lbu	a5,-1472(s1)
 294:	a3f4c983          	lbu	s3,-1473(s1)
 298:	20078fe3          	beqz	a5,cb6 <.L416>
 29c:	0991                	add	s3,s3,4
 29e:	4795                	li	a5,5
 2a0:	02f9c9b3          	div	s3,s3,a5
 2a4:	4b01                	li	s6,0
 2a6:	0ff9f993          	zext.b	s3,s3

000002aa <.L417>:
 2aa:	01894703          	lbu	a4,24(s2)
 2ae:	4785                	li	a5,1
 2b0:	02f71d63          	bne	a4,a5,2ea <.L418>
 2b4:	000007b7          	lui	a5,0x0
 2b8:	0007a783          	lw	a5,0(a5) # 0 <sc_get_ssid_passwd>
 2bc:	c79d                	beqz	a5,2ea <.L418>
 2be:	14c7a483          	lw	s1,332(a5)
 2c2:	c485                	beqz	s1,2ea <.L418>
 2c4:	00000ab7          	lui	s5,0x0
 2c8:	000aa583          	lw	a1,0(s5) # 0 <sc_get_ssid_passwd>
 2cc:	1547a783          	lw	a5,340(a5)
 2d0:	d22e                	sw	a1,36(sp)
 2d2:	9782                	jalr	a5
 2d4:	000aa703          	lw	a4,0(s5)
 2d8:	5592                	lw	a1,36(sp)
 2da:	00000637          	lui	a2,0x0
 2de:	86aa                	mv	a3,a0
 2e0:	87ce                	mv	a5,s3
 2e2:	00060613          	mv	a2,a2
 2e6:	450d                	li	a0,3
 2e8:	9482                	jalr	s1

000002ea <.L418>:
 2ea:	401c                	lw	a5,0(s0)
 2ec:	6705                	lui	a4,0x1
 2ee:	13800b93          	li	s7,312
 2f2:	97ba                	add	a5,a5,a4
 2f4:	a3e7c483          	lbu	s1,-1474(a5)
 2f8:	4e000793          	li	a5,1248
 2fc:	02fa07b3          	mul	a5,s4,a5
 300:	00648a93          	add	s5,s1,6
 304:	0495                	add	s1,s1,5
 306:	048e                	sll	s1,s1,0x3
 308:	00000cb7          	lui	s9,0x0
 30c:	00000d37          	lui	s10,0x0
 310:	00000c37          	lui	s8,0x0
 314:	00000db7          	lui	s11,0x0
 318:	037a0bb3          	mul	s7,s4,s7
 31c:	d23e                	sw	a5,36(sp)

0000031e <.L419>:
 31e:	401c                	lw	a5,0(s0)
 320:	6685                	lui	a3,0x1
 322:	00d78633          	add	a2,a5,a3
 326:	a3e64703          	lbu	a4,-1474(a2) # fffffa3e <.L437+0xffffebb6>
 32a:	0719                	add	a4,a4,6 # 1006 <.L437+0x17e>
 32c:	974e                	add	a4,a4,s3
 32e:	18eacce3          	blt	s5,a4,cc6 <.L429>
 332:	a3f64483          	lbu	s1,-1473(a2)
 336:	a8b68693          	add	a3,a3,-1397 # a8b <.L396+0x31>
 33a:	97b6                	add	a5,a5,a3
 33c:	853e                	mv	a0,a5
 33e:	8626                	mv	a2,s1
 340:	09ec                	add	a1,sp,220
 342:	00000097          	auipc	ra,0x0
 346:	000080e7          	jalr	ra # 342 <.L419+0x24>
 34a:	009507b3          	add	a5,a0,s1
 34e:	00078023          	sb	zero,0(a5)

00000352 <.L415>:
 352:	45a1                	li	a1,8
 354:	4501                	li	a0,0
 356:	6985                	lui	s3,0x1
 358:	00000097          	auipc	ra,0x0
 35c:	000080e7          	jalr	ra # 358 <.L415+0x6>
 360:	4481                	li	s1,0
 362:	a8b98a13          	add	s4,s3,-1397 # a8b <.L396+0x31>
 366:	4a85                	li	s5,1
 368:	00000b37          	lui	s6,0x0

0000036c <.L430>:
 36c:	401c                	lw	a5,0(s0)
 36e:	01894603          	lbu	a2,24(s2)
 372:	01378733          	add	a4,a5,s3
 376:	a3f74683          	lbu	a3,-1473(a4)
 37a:	2ed4c1e3          	blt	s1,a3,e5c <.L432>
 37e:	4785                	li	a5,1
 380:	06f61163          	bne	a2,a5,3e2 <.L434>
 384:	00000537          	lui	a0,0x0
 388:	00050513          	mv	a0,a0
 38c:	00000097          	auipc	ra,0x0
 390:	000080e7          	jalr	ra # 38c <.L430+0x20>

00000394 <.L414>:
 394:	01894703          	lbu	a4,24(s2)
 398:	4785                	li	a5,1
 39a:	04f71463          	bne	a4,a5,3e2 <.L434>
 39e:	000007b7          	lui	a5,0x0
 3a2:	0007a783          	lw	a5,0(a5) # 0 <sc_get_ssid_passwd>
 3a6:	cf95                	beqz	a5,3e2 <.L434>
 3a8:	14c7a483          	lw	s1,332(a5)
 3ac:	c89d                	beqz	s1,3e2 <.L434>
 3ae:	000009b7          	lui	s3,0x0
 3b2:	0009a583          	lw	a1,0(s3) # 0 <sc_get_ssid_passwd>
 3b6:	1547a783          	lw	a5,340(a5)
 3ba:	d22e                	sw	a1,36(sp)
 3bc:	9782                	jalr	a5
 3be:	401c                	lw	a5,0(s0)
 3c0:	6705                	lui	a4,0x1
 3c2:	a4a70813          	add	a6,a4,-1462 # a4a <.L398+0x4>
 3c6:	a8b70713          	add	a4,a4,-1397
 3ca:	983e                	add	a6,a6,a5
 3cc:	5592                	lw	a1,36(sp)
 3ce:	97ba                	add	a5,a5,a4
 3d0:	0009a703          	lw	a4,0(s3)
 3d4:	00000637          	lui	a2,0x0
 3d8:	86aa                	mv	a3,a0
 3da:	00060613          	mv	a2,a2
 3de:	450d                	li	a0,3
 3e0:	9482                	jalr	s1

000003e2 <.L434>:
 3e2:	4501                	li	a0,0
 3e4:	00000097          	auipc	ra,0x0
 3e8:	000080e7          	jalr	ra # 3e4 <.L434+0x2>
 3ec:	000004b7          	lui	s1,0x0
 3f0:	c915                	beqz	a0,424 <.L436>
 3f2:	0004a783          	lw	a5,0(s1) # 0 <sc_get_ssid_passwd>
 3f6:	c79d                	beqz	a5,424 <.L436>
 3f8:	14c7a983          	lw	s3,332(a5)
 3fc:	02098463          	beqz	s3,424 <.L436>
 400:	00000a37          	lui	s4,0x0
 404:	000a2583          	lw	a1,0(s4) # 0 <sc_get_ssid_passwd>
 408:	1547a783          	lw	a5,340(a5)
 40c:	d22e                	sw	a1,36(sp)
 40e:	9782                	jalr	a5
 410:	000a2703          	lw	a4,0(s4)
 414:	5592                	lw	a1,36(sp)
 416:	00000637          	lui	a2,0x0
 41a:	86aa                	mv	a3,a0
 41c:	00060613          	mv	a2,a2
 420:	4505                	li	a0,1
 422:	9982                	jalr	s3

00000424 <.L436>:
 424:	0004a783          	lw	a5,0(s1)
 428:	00000537          	lui	a0,0x0
 42c:	00050513          	mv	a0,a0
 430:	0e47a783          	lw	a5,228(a5)
 434:	6985                	lui	s3,0x1
 436:	a8b98a13          	add	s4,s3,-1397 # a8b <.L396+0x31>
 43a:	9782                	jalr	a5
 43c:	0004a783          	lw	a5,0(s1)
 440:	00000537          	lui	a0,0x0
 444:	00050513          	mv	a0,a0
 448:	0e47a783          	lw	a5,228(a5)
 44c:	9782                	jalr	a5
 44e:	0ff00513          	li	a0,255
 452:	4581                	li	a1,0
 454:	00000097          	auipc	ra,0x0
 458:	000080e7          	jalr	ra # 454 <.L436+0x30>
 45c:	00042b03          	lw	s6,0(s0)
 460:	9a5a                	add	s4,s4,s6
 462:	8552                	mv	a0,s4
 464:	00000097          	auipc	ra,0x0
 468:	000080e7          	jalr	ra # 464 <.L436+0x40>
 46c:	20051ee3          	bnez	a0,e88 <.L437>
 470:	07400613          	li	a2,116
 474:	4581                	li	a1,0
 476:	08e8                	add	a0,sp,92
 478:	00000097          	auipc	ra,0x0
 47c:	000080e7          	jalr	ra # 478 <.L436+0x54>
 480:	013b0ab3          	add	s5,s6,s3
 484:	a3fac603          	lbu	a2,-1473(s5)
 488:	85d2                	mv	a1,s4
 48a:	08e8                	add	a0,sp,92
 48c:	00000097          	auipc	ra,0x0
 490:	000080e7          	jalr	ra # 48c <.L436+0x68>
 494:	a3bac603          	lbu	a2,-1477(s5)
 498:	a4a98593          	add	a1,s3,-1462
 49c:	95da                	add	a1,a1,s6
 49e:	18e8                	add	a0,sp,124
 4a0:	00000097          	auipc	ra,0x0
 4a4:	000080e7          	jalr	ra # 4a0 <.L436+0x7c>
 4a8:	478d                	li	a5,3
 4aa:	c3be                	sw	a5,196(sp)
 4ac:	a3aac783          	lbu	a5,-1478(s5)
 4b0:	01894683          	lbu	a3,24(s2)
 4b4:	4705                	li	a4,1
 4b6:	878d                	sra	a5,a5,0x3
 4b8:	8b8d                	and	a5,a5,3
 4ba:	0cf10423          	sb	a5,200(sp)
 4be:	00e68363          	beq	a3,a4,4c4 <.L438>
 4c2:	c7a9                	beqz	a5,50c <.L439>

000004c4 <.L438>:
 4c4:	0004a783          	lw	a5,0(s1)
 4c8:	c3b1                	beqz	a5,50c <.L439>
 4ca:	14c7a903          	lw	s2,332(a5)
 4ce:	02090f63          	beqz	s2,50c <.L439>
 4d2:	000009b7          	lui	s3,0x0
 4d6:	0009a583          	lw	a1,0(s3) # 0 <sc_get_ssid_passwd>
 4da:	1547a783          	lw	a5,340(a5)
 4de:	d22e                	sw	a1,36(sp)
 4e0:	9782                	jalr	a5
 4e2:	0c814703          	lbu	a4,200(sp)
 4e6:	6789                	lui	a5,0x2
 4e8:	71078793          	add	a5,a5,1808 # 2710 <.L437+0x1888>
 4ec:	02f70733          	mul	a4,a4,a5
 4f0:	6791                	lui	a5,0x4
 4f2:	75a78793          	add	a5,a5,1882 # 475a <.L437+0x38d2>
 4f6:	5592                	lw	a1,36(sp)
 4f8:	00000637          	lui	a2,0x0
 4fc:	86aa                	mv	a3,a0
 4fe:	00060613          	mv	a2,a2
 502:	450d                	li	a0,3
 504:	97ba                	add	a5,a5,a4
 506:	0009a703          	lw	a4,0(s3)
 50a:	9902                	jalr	s2

0000050c <.L439>:
 50c:	4000                	lw	s0,0(s0)
 50e:	6905                	lui	s2,0x1
 510:	aee90513          	add	a0,s2,-1298 # aee <.L403+0x18>
 514:	000005b7          	lui	a1,0x0
 518:	4619                	li	a2,6
 51a:	00058593          	mv	a1,a1
 51e:	9522                	add	a0,a0,s0
 520:	00000097          	auipc	ra,0x0
 524:	000080e7          	jalr	ra # 520 <.L439+0x14>
 528:	cd19                	beqz	a0,546 <.L440>
 52a:	012405b3          	add	a1,s0,s2
 52e:	4785                	li	a5,1
 530:	4619                	li	a2,6
 532:	aee58593          	add	a1,a1,-1298 # fffffaee <.L437+0xffffec66>
 536:	0bd10513          	add	a0,sp,189
 53a:	0af10e23          	sb	a5,188(sp)
 53e:	00000097          	auipc	ra,0x0
 542:	000080e7          	jalr	ra # 53e <.L439+0x32>

00000546 <.L440>:
 546:	4611                	li	a2,4
 548:	0ff00593          	li	a1,255
 54c:	0c910513          	add	a0,sp,201
 550:	00000097          	auipc	ra,0x0
 554:	000080e7          	jalr	ra # 550 <.L440+0xa>
 558:	0004a783          	lw	a5,0(s1)
 55c:	00000537          	lui	a0,0x0
 560:	00052503          	lw	a0,0(a0) # 0 <sc_get_ssid_passwd>
 564:	0b47a783          	lw	a5,180(a5)
 568:	577d                	li	a4,-1
 56a:	07400693          	li	a3,116
 56e:	08f0                	add	a2,sp,92
 570:	4589                	li	a1,2
 572:	9782                	jalr	a5
 574:	4501                	li	a0,0

00000576 <.L351>:
 576:	19c12083          	lw	ra,412(sp)
 57a:	19812403          	lw	s0,408(sp)
 57e:	19412483          	lw	s1,404(sp)
 582:	19012903          	lw	s2,400(sp)
 586:	18c12983          	lw	s3,396(sp)
 58a:	18812a03          	lw	s4,392(sp)
 58e:	18412a83          	lw	s5,388(sp)
 592:	18012b03          	lw	s6,384(sp)
 596:	17c12b83          	lw	s7,380(sp)
 59a:	17812c03          	lw	s8,376(sp)
 59e:	17412c83          	lw	s9,372(sp)
 5a2:	17012d03          	lw	s10,368(sp)
 5a6:	16c12d83          	lw	s11,364(sp)
 5aa:	611d                	add	sp,sp,416
 5ac:	8082                	ret

000005ae <.L380>:
 5ae:	af47c703          	lbu	a4,-1292(a5)
 5b2:	e315                	bnez	a4,5d6 <.L366>
 5b4:	a3c7c683          	lbu	a3,-1476(a5)
 5b8:	4705                	li	a4,1
 5ba:	0ae69963          	bne	a3,a4,66c <.L367>
 5be:	a427c703          	lbu	a4,-1470(a5)
 5c2:	eb11                	bnez	a4,5d6 <.L366>
 5c4:	a3b7c483          	lbu	s1,-1477(a5)
 5c8:	4795                	li	a5,5
 5ca:	0491                	add	s1,s1,4
 5cc:	02f4c4b3          	div	s1,s1,a5
 5d0:	0485                	add	s1,s1,1
 5d2:	0154a4b3          	slt	s1,s1,s5

000005d6 <.L366>:
 5d6:	01894703          	lbu	a4,24(s2)
 5da:	4785                	li	a5,1
 5dc:	02f71c63          	bne	a4,a5,614 <.L368>
 5e0:	000da783          	lw	a5,0(s11) # 0 <sc_get_ssid_passwd>
 5e4:	cb85                	beqz	a5,614 <.L368>
 5e6:	14c7a803          	lw	a6,332(a5)
 5ea:	d442                	sw	a6,40(sp)
 5ec:	02080463          	beqz	a6,614 <.L368>
 5f0:	000d2583          	lw	a1,0(s10) # 0 <sc_get_ssid_passwd>
 5f4:	1547a783          	lw	a5,340(a5)
 5f8:	d22e                	sw	a1,36(sp)
 5fa:	9782                	jalr	a5
 5fc:	000d2703          	lw	a4,0(s10)
 600:	5592                	lw	a1,36(sp)
 602:	5822                	lw	a6,40(sp)
 604:	00000637          	lui	a2,0x0
 608:	86aa                	mv	a3,a0
 60a:	87a6                	mv	a5,s1
 60c:	00060613          	mv	a2,a2
 610:	450d                	li	a0,3
 612:	9802                	jalr	a6

00000614 <.L368>:
 614:	86a6                	mv	a3,s1
 616:	1810                	add	a2,sp,48
 618:	0ffaf593          	zext.b	a1,s5
 61c:	8552                	mv	a0,s4
 61e:	d802                	sw	zero,48(sp)
 620:	02011a23          	sh	zero,52(sp)
 624:	02010b23          	sb	zero,54(sp)
 628:	00000097          	auipc	ra,0x0
 62c:	000080e7          	jalr	ra # 628 <.L368+0x14>
 630:	a00509e3          	beqz	a0,42 <.L601>
 634:	01894703          	lbu	a4,24(s2)
 638:	4785                	li	a5,1
 63a:	04f70a63          	beq	a4,a5,68e <.L441>

0000063e <.L373>:
 63e:	09fc                	add	a5,sp,220
 640:	01778533          	add	a0,a5,s7
 644:	e4cd                	bnez	s1,6ee <.L371>
 646:	4615                	li	a2,5
 648:	180c                	add	a1,sp,48
 64a:	00000097          	auipc	ra,0x0
 64e:	000080e7          	jalr	ra # 64a <.L373+0xc>
 652:	03514783          	lbu	a5,53(sp)
 656:	4595                	li	a1,5
 658:	1808                	add	a0,sp,48
 65a:	02f10b23          	sb	a5,54(sp)
 65e:	00000097          	auipc	ra,0x0
 662:	000080e7          	jalr	ra # 65e <.L373+0x20>
 666:	0b95                	add	s7,s7,5 # 1005 <.L437+0x17d>
 668:	88aa                	mv	a7,a0
 66a:	a04d                	j	70c <.L374>

0000066c <.L367>:
 66c:	f6ad                	bnez	a3,5d6 <.L366>
 66e:	a427c683          	lbu	a3,-1470(a5)
 672:	f6e692e3          	bne	a3,a4,5d6 <.L366>
 676:	a3b7c483          	lbu	s1,-1477(a5)
 67a:	4799                	li	a5,6
 67c:	0495                	add	s1,s1,5
 67e:	02f4c4b3          	div	s1,s1,a5
 682:	0485                	add	s1,s1,1
 684:	0154a4b3          	slt	s1,s1,s5
 688:	0014c493          	xor	s1,s1,1
 68c:	b7a9                	j	5d6 <.L366>

0000068e <.L441>:
 68e:	4705                	li	a4,1

00000690 <.L370>:
 690:	018707b3          	add	a5,a4,s8
 694:	4014                	lw	a3,0(s0)
 696:	01378633          	add	a2,a5,s3
 69a:	060a                	sll	a2,a2,0x2
 69c:	96b2                	add	a3,a3,a2
 69e:	02a6c603          	lbu	a2,42(a3)
 6a2:	0286d583          	lhu	a1,40(a3)
 6a6:	d23e                	sw	a5,36(sp)
 6a8:	000007b7          	lui	a5,0x0
 6ac:	00078513          	mv	a0,a5
 6b0:	d43a                	sw	a4,40(sp)
 6b2:	00000097          	auipc	ra,0x0
 6b6:	000080e7          	jalr	ra # 6b2 <.L370+0x22>
 6ba:	000007b7          	lui	a5,0x0
 6be:	00078513          	mv	a0,a5
 6c2:	00000097          	auipc	ra,0x0
 6c6:	000080e7          	jalr	ra # 6c2 <.L370+0x32>
 6ca:	5792                	lw	a5,36(sp)
 6cc:	4014                	lw	a3,0(s0)
 6ce:	97ce                	add	a5,a5,s3
 6d0:	07a1                	add	a5,a5,8 # 8 <sc_get_ssid_passwd+0x8>
 6d2:	078a                	sll	a5,a5,0x2
 6d4:	97b6                	add	a5,a5,a3
 6d6:	0087d503          	lhu	a0,8(a5)
 6da:	00000097          	auipc	ra,0x0
 6de:	000080e7          	jalr	ra # 6da <.L370+0x4a>
 6e2:	5722                	lw	a4,40(sp)
 6e4:	4825                	li	a6,9
 6e6:	0705                	add	a4,a4,1
 6e8:	fb0714e3          	bne	a4,a6,690 <.L370>
 6ec:	bf89                	j	63e <.L373>

000006ee <.L371>:
 6ee:	4619                	li	a2,6
 6f0:	180c                	add	a1,sp,48
 6f2:	00000097          	auipc	ra,0x0
 6f6:	000080e7          	jalr	ra # 6f2 <.L371+0x4>
 6fa:	4599                	li	a1,6
 6fc:	1808                	add	a0,sp,48
 6fe:	00000097          	auipc	ra,0x0
 702:	000080e7          	jalr	ra # 6fe <.L371+0x10>
 706:	0b99                	add	s7,s7,6
 708:	03f57893          	and	a7,a0,63

0000070c <.L374>:
 70c:	03614703          	lbu	a4,54(sp)
 710:	401c                	lw	a5,0(s0)
 712:	09171563          	bne	a4,a7,79c <.L375>
 716:	002c1713          	sll	a4,s8,0x2
 71a:	9766                	add	a4,a4,s9
 71c:	97ba                	add	a5,a5,a4
 71e:	06500613          	li	a2,101
 722:	4705                	li	a4,1
 724:	46a5                	li	a3,9

00000726 <.L376>:
 726:	02c78723          	sb	a2,46(a5)
 72a:	0705                	add	a4,a4,1
 72c:	0791                	add	a5,a5,4
 72e:	fed71ce3          	bne	a4,a3,726 <.L376>
 732:	01894703          	lbu	a4,24(s2)
 736:	4785                	li	a5,1
 738:	04f71f63          	bne	a4,a5,796 <.L379>
 73c:	000da783          	lw	a5,0(s11)
 740:	cbb9                	beqz	a5,796 <.L379>
 742:	14c7a303          	lw	t1,332(a5)
 746:	d41a                	sw	t1,40(sp)
 748:	04030763          	beqz	t1,796 <.L379>
 74c:	000d2583          	lw	a1,0(s10)
 750:	1547a783          	lw	a5,340(a5)
 754:	d22e                	sw	a1,36(sp)
 756:	9782                	jalr	a5
 758:	03614783          	lbu	a5,54(sp)
 75c:	03114883          	lbu	a7,49(sp)
 760:	03014803          	lbu	a6,48(sp)
 764:	c83e                	sw	a5,16(sp)
 766:	03514783          	lbu	a5,53(sp)
 76a:	000d2703          	lw	a4,0(s10)
 76e:	5592                	lw	a1,36(sp)
 770:	c63e                	sw	a5,12(sp)
 772:	03414783          	lbu	a5,52(sp)
 776:	5322                	lw	t1,40(sp)
 778:	00000637          	lui	a2,0x0
 77c:	c43e                	sw	a5,8(sp)
 77e:	03314783          	lbu	a5,51(sp)
 782:	86aa                	mv	a3,a0
 784:	00060613          	mv	a2,a2
 788:	c23e                	sw	a5,4(sp)
 78a:	03214783          	lbu	a5,50(sp)
 78e:	450d                	li	a0,3
 790:	c03e                	sw	a5,0(sp)
 792:	87d6                	mv	a5,s5
 794:	9302                	jalr	t1

00000796 <.L379>:
 796:	0a85                	add	s5,s5,1
 798:	0c21                	add	s8,s8,8 # 8 <sc_get_ssid_passwd+0x8>
 79a:	b2e9                	j	164 <.L364>

0000079c <.L375>:
 79c:	99e2                	add	s3,s3,s8
 79e:	098a                	sll	s3,s3,0x2
 7a0:	97ce                	add	a5,a5,s3
 7a2:	4705                	li	a4,1
 7a4:	4625                	li	a2,9

000007a6 <.L378>:
 7a6:	02e7c683          	lbu	a3,46(a5)
 7aa:	0705                	add	a4,a4,1
 7ac:	0791                	add	a5,a5,4
 7ae:	8285                	srl	a3,a3,0x1
 7b0:	02d78523          	sb	a3,42(a5)
 7b4:	fec719e3          	bne	a4,a2,7a6 <.L378>
 7b8:	01894703          	lbu	a4,24(s2)
 7bc:	4785                	li	a5,1
 7be:	88f712e3          	bne	a4,a5,42 <.L601>
 7c2:	000007b7          	lui	a5,0x0
 7c6:	0007a783          	lw	a5,0(a5) # 0 <sc_get_ssid_passwd>
 7ca:	d446                	sw	a7,40(sp)
 7cc:	86078be3          	beqz	a5,42 <.L601>
 7d0:	14c7a403          	lw	s0,332(a5)
 7d4:	860407e3          	beqz	s0,42 <.L601>
 7d8:	000004b7          	lui	s1,0x0
 7dc:	0004a583          	lw	a1,0(s1) # 0 <sc_get_ssid_passwd>
 7e0:	1547a783          	lw	a5,340(a5)
 7e4:	d22e                	sw	a1,36(sp)
 7e6:	9782                	jalr	a5
 7e8:	58a2                	lw	a7,40(sp)
 7ea:	03614803          	lbu	a6,54(sp)
 7ee:	0004a703          	lw	a4,0(s1)
 7f2:	5592                	lw	a1,36(sp)
 7f4:	00000637          	lui	a2,0x0
 7f8:	86aa                	mv	a3,a0
 7fa:	87d6                	mv	a5,s5
 7fc:	00060613          	mv	a2,a2
 800:	450d                	li	a0,3
 802:	9402                	jalr	s0
 804:	b83d                	j	42 <.L601>

00000806 <.L382>:
 806:	4709                	li	a4,2
 808:	98e79ae3          	bne	a5,a4,19c <.L383>
 80c:	13800793          	li	a5,312
 810:	02fa07b3          	mul	a5,s4,a5
 814:	c482                	sw	zero,72(sp)
 816:	c682                	sw	zero,76(sp)
 818:	c882                	sw	zero,80(sp)
 81a:	ca82                	sw	zero,84(sp)
 81c:	cc82                	sw	zero,88(sp)
 81e:	00258a93          	add	s5,a1,2
 822:	00361493          	sll	s1,a2,0x3
 826:	00000c37          	lui	s8,0x0
 82a:	00000d37          	lui	s10,0x0
 82e:	d23e                	sw	a5,36(sp)
 830:	00000bb7          	lui	s7,0x0
 834:	00000db7          	lui	s11,0x0

00000838 <.L384>:
 838:	4008                	lw	a0,0(s0)
 83a:	6785                	lui	a5,0x1
 83c:	00f50733          	add	a4,a0,a5
 840:	a3e74703          	lbu	a4,-1474(a4)
 844:	0715                	add	a4,a4,5
 846:	01575c63          	bge	a4,s5,85e <.L393>
 84a:	af678793          	add	a5,a5,-1290 # af6 <.L403+0x20>
 84e:	4641                	li	a2,16
 850:	00ac                	add	a1,sp,72
 852:	953e                	add	a0,a0,a5
 854:	00000097          	auipc	ra,0x0
 858:	000080e7          	jalr	ra # 854 <.L384+0x1c>
 85c:	b281                	j	19c <.L383>

0000085e <.L393>:
 85e:	4681                	li	a3,0
 860:	1810                	add	a2,sp,48
 862:	0ffaf593          	zext.b	a1,s5
 866:	8552                	mv	a0,s4
 868:	d802                	sw	zero,48(sp)
 86a:	02011a23          	sh	zero,52(sp)
 86e:	02010b23          	sb	zero,54(sp)
 872:	00000097          	auipc	ra,0x0
 876:	000080e7          	jalr	ra # 872 <.L393+0x14>
 87a:	fc050463          	beqz	a0,42 <.L601>
 87e:	01894703          	lbu	a4,24(s2)
 882:	4785                	li	a5,1
 884:	08f70b63          	beq	a4,a5,91a <.L442>

00000888 <.L388>:
 888:	401c                	lw	a5,0(s0)
 88a:	6705                	lui	a4,0x1
 88c:	ffea8513          	add	a0,s5,-2
 890:	97ba                	add	a5,a5,a4
 892:	a3e7c783          	lbu	a5,-1474(a5)
 896:	4615                	li	a2,5
 898:	180c                	add	a1,sp,48
 89a:	8d1d                	sub	a0,a0,a5
 89c:	4795                	li	a5,5
 89e:	02f50533          	mul	a0,a0,a5
 8a2:	00bc                	add	a5,sp,72
 8a4:	953e                	add	a0,a0,a5
 8a6:	00000097          	auipc	ra,0x0
 8aa:	000080e7          	jalr	ra # 8a6 <.L388+0x1e>
 8ae:	4595                	li	a1,5
 8b0:	1808                	add	a0,sp,48
 8b2:	00000097          	auipc	ra,0x0
 8b6:	000080e7          	jalr	ra # 8b2 <.L388+0x2a>
 8ba:	03514783          	lbu	a5,53(sp)
 8be:	0ca78563          	beq	a5,a0,988 <.L386>
 8c2:	000007b7          	lui	a5,0x0
 8c6:	0007a783          	lw	a5,0(a5) # 0 <sc_get_ssid_passwd>
 8ca:	d42a                	sw	a0,40(sp)
 8cc:	cb9d                	beqz	a5,902 <.L391>
 8ce:	14c7a903          	lw	s2,332(a5)
 8d2:	02090863          	beqz	s2,902 <.L391>
 8d6:	00000a37          	lui	s4,0x0
 8da:	000a2583          	lw	a1,0(s4) # 0 <sc_get_ssid_passwd>
 8de:	1547a783          	lw	a5,340(a5)
 8e2:	d22e                	sw	a1,36(sp)
 8e4:	9782                	jalr	a5
 8e6:	58a2                	lw	a7,40(sp)
 8e8:	03614803          	lbu	a6,54(sp)
 8ec:	000a2703          	lw	a4,0(s4)
 8f0:	5592                	lw	a1,36(sp)
 8f2:	00000637          	lui	a2,0x0
 8f6:	86aa                	mv	a3,a0
 8f8:	87d6                	mv	a5,s5
 8fa:	00060613          	mv	a2,a2
 8fe:	450d                	li	a0,3
 900:	9902                	jalr	s2

00000902 <.L391>:
 902:	0485                	add	s1,s1,1
 904:	401c                	lw	a5,0(s0)
 906:	94ce                	add	s1,s1,s3
 908:	048a                	sll	s1,s1,0x2

0000090a <.L604>:
 90a:	97a6                	add	a5,a5,s1
 90c:	02a7c703          	lbu	a4,42(a5)
 910:	8305                	srl	a4,a4,0x1
 912:	02e78523          	sb	a4,42(a5)
 916:	f2cff06f          	j	42 <.L601>

0000091a <.L442>:
 91a:	4705                	li	a4,1

0000091c <.L385>:
 91c:	009707b3          	add	a5,a4,s1
 920:	4014                	lw	a3,0(s0)
 922:	00f98633          	add	a2,s3,a5
 926:	060a                	sll	a2,a2,0x2
 928:	96b2                	add	a3,a3,a2
 92a:	02a6c603          	lbu	a2,42(a3)
 92e:	0286d583          	lhu	a1,40(a3)
 932:	d43e                	sw	a5,40(sp)
 934:	000007b7          	lui	a5,0x0
 938:	00078513          	mv	a0,a5
 93c:	d63a                	sw	a4,44(sp)
 93e:	00000097          	auipc	ra,0x0
 942:	000080e7          	jalr	ra # 93e <.L385+0x22>
 946:	000007b7          	lui	a5,0x0
 94a:	00078513          	mv	a0,a5
 94e:	00000097          	auipc	ra,0x0
 952:	000080e7          	jalr	ra # 94e <.L385+0x32>
 956:	5712                	lw	a4,36(sp)
 958:	57a2                	lw	a5,40(sp)
 95a:	4014                	lw	a3,0(s0)
 95c:	97ba                	add	a5,a5,a4
 95e:	07a1                	add	a5,a5,8 # 8 <sc_get_ssid_passwd+0x8>
 960:	078a                	sll	a5,a5,0x2
 962:	97b6                	add	a5,a5,a3
 964:	0087d503          	lhu	a0,8(a5)
 968:	00000097          	auipc	ra,0x0
 96c:	000080e7          	jalr	ra # 968 <.L385+0x4c>
 970:	000c0513          	mv	a0,s8
 974:	00000097          	auipc	ra,0x0
 978:	000080e7          	jalr	ra # 974 <.L385+0x58>
 97c:	5732                	lw	a4,44(sp)
 97e:	4825                	li	a6,9
 980:	0705                	add	a4,a4,1 # 1001 <.L437+0x179>
 982:	f9071de3          	bne	a4,a6,91c <.L385>
 986:	b709                	j	888 <.L388>

00000988 <.L386>:
 988:	401c                	lw	a5,0(s0)
 98a:	00249713          	sll	a4,s1,0x2
 98e:	9766                	add	a4,a4,s9
 990:	97ba                	add	a5,a5,a4
 992:	06500613          	li	a2,101
 996:	4705                	li	a4,1
 998:	46a5                	li	a3,9

0000099a <.L389>:
 99a:	02c78723          	sb	a2,46(a5)
 99e:	0705                	add	a4,a4,1
 9a0:	0791                	add	a5,a5,4
 9a2:	fed71ce3          	bne	a4,a3,99a <.L389>
 9a6:	01894703          	lbu	a4,24(s2)
 9aa:	4785                	li	a5,1
 9ac:	04f71d63          	bne	a4,a5,a06 <.L392>
 9b0:	000d2783          	lw	a5,0(s10) # 0 <sc_get_ssid_passwd>
 9b4:	cba9                	beqz	a5,a06 <.L392>
 9b6:	14c7a303          	lw	t1,332(a5)
 9ba:	d61a                	sw	t1,44(sp)
 9bc:	04030563          	beqz	t1,a06 <.L392>
 9c0:	000ba583          	lw	a1,0(s7) # 0 <sc_get_ssid_passwd>
 9c4:	1547a783          	lw	a5,340(a5)
 9c8:	d42e                	sw	a1,40(sp)
 9ca:	9782                	jalr	a5
 9cc:	03614783          	lbu	a5,54(sp)
 9d0:	03114883          	lbu	a7,49(sp)
 9d4:	03014803          	lbu	a6,48(sp)
 9d8:	c83e                	sw	a5,16(sp)
 9da:	03514783          	lbu	a5,53(sp)
 9de:	000ba703          	lw	a4,0(s7)
 9e2:	55a2                	lw	a1,40(sp)
 9e4:	c63e                	sw	a5,12(sp)
 9e6:	03414783          	lbu	a5,52(sp)
 9ea:	5332                	lw	t1,44(sp)
 9ec:	86aa                	mv	a3,a0
 9ee:	c43e                	sw	a5,8(sp)
 9f0:	03314783          	lbu	a5,51(sp)
 9f4:	000d8613          	mv	a2,s11
 9f8:	450d                	li	a0,3
 9fa:	c23e                	sw	a5,4(sp)
 9fc:	03214783          	lbu	a5,50(sp)
 a00:	c03e                	sw	a5,0(sp)
 a02:	87d6                	mv	a5,s5
 a04:	9302                	jalr	t1

00000a06 <.L392>:
 a06:	0a85                	add	s5,s5,1
 a08:	04a1                	add	s1,s1,8
 a0a:	b53d                	j	838 <.L384>

00000a0c <.L397>:
 a0c:	09ec                	add	a1,sp,220
 a0e:	8626                	mv	a2,s1
 a10:	00000097          	auipc	ra,0x0
 a14:	000080e7          	jalr	ra # a10 <.L397+0x4>
 a18:	00448593          	add	a1,s1,4
 a1c:	4795                	li	a5,5

00000a1e <.L603>:
 a1e:	02f5c5b3          	div	a1,a1,a5
 a22:	a41ac603          	lbu	a2,-1471(s5)
 a26:	02f585b3          	mul	a1,a1,a5
 a2a:	09fc                	add	a5,sp,220
 a2c:	95be                	add	a1,a1,a5

00000a2e <.L600>:
 a2e:	854e                	mv	a0,s3
 a30:	00000097          	auipc	ra,0x0
 a34:	000080e7          	jalr	ra # a30 <.L600+0x2>

00000a38 <.L395>:
 a38:	4589                	li	a1,2
 a3a:	4501                	li	a0,0
 a3c:	00000097          	auipc	ra,0x0
 a40:	000080e7          	jalr	ra # a3c <.L395+0x4>
 a44:	b829                	j	25e <.L355>

00000a46 <.L398>:
 a46:	09ec                	add	a1,sp,220
 a48:	8626                	mv	a2,s1
 a4a:	00000097          	auipc	ra,0x0
 a4e:	000080e7          	jalr	ra # a4a <.L398+0x4>
 a52:	00548593          	add	a1,s1,5
 a56:	4799                	li	a5,6
 a58:	b7d9                	j	a1e <.L603>

00000a5a <.L396>:
 a5a:	17fd                	add	a5,a5,-1
 a5c:	0ff7f793          	zext.b	a5,a5
 a60:	4485                	li	s1,1
 a62:	20f4ec63          	bltu	s1,a5,c7a <.L400>
 a66:	08000613          	li	a2,128
 a6a:	4581                	li	a1,0
 a6c:	08e8                	add	a0,sp,92
 a6e:	00000097          	auipc	ra,0x0
 a72:	000080e7          	jalr	ra # a6e <.L396+0x14>
 a76:	a3dac603          	lbu	a2,-1475(s5)
 a7a:	09ec                	add	a1,sp,220
 a7c:	08e8                	add	a0,sp,92
 a7e:	00000097          	auipc	ra,0x0
 a82:	000080e7          	jalr	ra # a7e <.L396+0x24>
 a86:	45c1                	li	a1,16
 a88:	1828                	add	a0,sp,56
 a8a:	00000097          	auipc	ra,0x0
 a8e:	000080e7          	jalr	ra # a8a <.L396+0x30>
 a92:	01894783          	lbu	a5,24(s2)
 a96:	0c979363          	bne	a5,s1,b5c <.L401>
 a9a:	00000ab7          	lui	s5,0x0
 a9e:	000aa783          	lw	a5,0(s5) # 0 <sc_get_ssid_passwd>
 aa2:	c795                	beqz	a5,ace <.L402>
 aa4:	14c7a483          	lw	s1,332(a5)
 aa8:	c09d                	beqz	s1,ace <.L402>
 aaa:	000009b7          	lui	s3,0x0
 aae:	0009a583          	lw	a1,0(s3) # 0 <sc_get_ssid_passwd>
 ab2:	1547a783          	lw	a5,340(a5)
 ab6:	d22e                	sw	a1,36(sp)
 ab8:	9782                	jalr	a5
 aba:	0009a703          	lw	a4,0(s3)
 abe:	5592                	lw	a1,36(sp)
 ac0:	00000637          	lui	a2,0x0
 ac4:	86aa                	mv	a3,a0
 ac6:	00060613          	mv	a2,a2
 aca:	450d                	li	a0,3
 acc:	9482                	jalr	s1

00000ace <.L402>:
 ace:	4481                	li	s1,0
 ad0:	000009b7          	lui	s3,0x0
 ad4:	4bc1                	li	s7,16

00000ad6 <.L403>:
 ad6:	183c                	add	a5,sp,56
 ad8:	97a6                	add	a5,a5,s1
 ada:	0007c583          	lbu	a1,0(a5)
 ade:	00098513          	mv	a0,s3
 ae2:	0485                	add	s1,s1,1
 ae4:	00000097          	auipc	ra,0x0
 ae8:	000080e7          	jalr	ra # ae4 <.L403+0xe>
 aec:	ff7495e3          	bne	s1,s7,ad6 <.L403>
 af0:	4529                	li	a0,10
 af2:	00000097          	auipc	ra,0x0
 af6:	000080e7          	jalr	ra # af2 <.L403+0x1c>
 afa:	000aa783          	lw	a5,0(s5)
 afe:	c795                	beqz	a5,b2a <.L405>
 b00:	14c7a483          	lw	s1,332(a5)
 b04:	c09d                	beqz	s1,b2a <.L405>
 b06:	00000ab7          	lui	s5,0x0
 b0a:	000aa583          	lw	a1,0(s5) # 0 <sc_get_ssid_passwd>
 b0e:	1547a783          	lw	a5,340(a5)
 b12:	d22e                	sw	a1,36(sp)
 b14:	9782                	jalr	a5
 b16:	000aa703          	lw	a4,0(s5)
 b1a:	5592                	lw	a1,36(sp)
 b1c:	00000637          	lui	a2,0x0
 b20:	86aa                	mv	a3,a0
 b22:	00060613          	mv	a2,a2
 b26:	450d                	li	a0,3
 b28:	9482                	jalr	s1

00000b2a <.L405>:
 b2a:	4481                	li	s1,0
 b2c:	6a85                	lui	s5,0x1
 b2e:	a821                	j	b46 <.L406>

00000b30 <.L407>:
 b30:	08fc                	add	a5,sp,92
 b32:	97a6                	add	a5,a5,s1
 b34:	0007c583          	lbu	a1,0(a5)
 b38:	00098513          	mv	a0,s3
 b3c:	0485                	add	s1,s1,1
 b3e:	00000097          	auipc	ra,0x0
 b42:	000080e7          	jalr	ra # b3e <.L407+0xe>

00000b46 <.L406>:
 b46:	401c                	lw	a5,0(s0)
 b48:	97d6                	add	a5,a5,s5
 b4a:	a3d7c783          	lbu	a5,-1475(a5)
 b4e:	fef4c1e3          	blt	s1,a5,b30 <.L407>
 b52:	4529                	li	a0,10
 b54:	00000097          	auipc	ra,0x0
 b58:	000080e7          	jalr	ra # b54 <.L406+0xe>

00000b5c <.L401>:
 b5c:	000007b7          	lui	a5,0x0
 b60:	00078793          	mv	a5,a5
 b64:	4bd8                	lw	a4,20(a5)
 b66:	cf09                	beqz	a4,b80 <.L408>
 b68:	400c                	lw	a1,0(s0)
 b6a:	6785                	lui	a5,0x1
 b6c:	08f0                	add	a2,sp,92
 b6e:	00f586b3          	add	a3,a1,a5
 b72:	a3d6c683          	lbu	a3,-1475(a3)
 b76:	af678793          	add	a5,a5,-1290 # af6 <.L403+0x20>
 b7a:	95be                	add	a1,a1,a5
 b7c:	1828                	add	a0,sp,56
 b7e:	9702                	jalr	a4

00000b80 <.L408>:
 b80:	01894703          	lbu	a4,24(s2)
 b84:	4785                	li	a5,1
 b86:	06f71763          	bne	a4,a5,bf4 <.L409>
 b8a:	000007b7          	lui	a5,0x0
 b8e:	0007a783          	lw	a5,0(a5) # 0 <sc_get_ssid_passwd>
 b92:	c795                	beqz	a5,bbe <.L410>
 b94:	14c7a483          	lw	s1,332(a5)
 b98:	c09d                	beqz	s1,bbe <.L410>
 b9a:	000009b7          	lui	s3,0x0
 b9e:	0009a583          	lw	a1,0(s3) # 0 <sc_get_ssid_passwd>
 ba2:	1547a783          	lw	a5,340(a5)
 ba6:	d22e                	sw	a1,36(sp)
 ba8:	9782                	jalr	a5
 baa:	0009a703          	lw	a4,0(s3)
 bae:	5592                	lw	a1,36(sp)
 bb0:	00000637          	lui	a2,0x0
 bb4:	86aa                	mv	a3,a0
 bb6:	00060613          	mv	a2,a2
 bba:	450d                	li	a0,3
 bbc:	9482                	jalr	s1

00000bbe <.L410>:
 bbe:	4481                	li	s1,0
 bc0:	6985                	lui	s3,0x1
 bc2:	00000ab7          	lui	s5,0x0
 bc6:	a821                	j	bde <.L411>

00000bc8 <.L412>:
 bc8:	08fc                	add	a5,sp,92
 bca:	97a6                	add	a5,a5,s1
 bcc:	0007c583          	lbu	a1,0(a5)
 bd0:	000a8513          	mv	a0,s5
 bd4:	0485                	add	s1,s1,1
 bd6:	00000097          	auipc	ra,0x0
 bda:	000080e7          	jalr	ra # bd6 <.L412+0xe>

00000bde <.L411>:
 bde:	401c                	lw	a5,0(s0)
 be0:	97ce                	add	a5,a5,s3
 be2:	a3d7c783          	lbu	a5,-1475(a5)
 be6:	fef4c1e3          	blt	s1,a5,bc8 <.L412>
 bea:	4529                	li	a0,10
 bec:	00000097          	auipc	ra,0x0
 bf0:	000080e7          	jalr	ra # bec <.L411+0xe>

00000bf4 <.L409>:
 bf4:	4004                	lw	s1,0(s0)
 bf6:	6985                	lui	s3,0x1
 bf8:	a4a98b93          	add	s7,s3,-1462 # a4a <.L398+0x4>
 bfc:	01348c33          	add	s8,s1,s3
 c00:	a3bc4a83          	lbu	s5,-1477(s8) # fffffa3b <.L437+0xffffebb3>
 c04:	08ec                	add	a1,sp,92
 c06:	01748533          	add	a0,s1,s7
 c0a:	8656                	mv	a2,s5
 c0c:	00000097          	auipc	ra,0x0
 c10:	000080e7          	jalr	ra # c0c <.L409+0x18>
 c14:	a41c4603          	lbu	a2,-1471(s8)
 c18:	08fc                	add	a5,sp,92
 c1a:	aac98993          	add	s3,s3,-1364
 c1e:	015785b3          	add	a1,a5,s5
 c22:	01348533          	add	a0,s1,s3
 c26:	00000097          	auipc	ra,0x0
 c2a:	000080e7          	jalr	ra # c26 <.L409+0x32>
 c2e:	01894703          	lbu	a4,24(s2)
 c32:	4785                	li	a5,1
 c34:	e0f712e3          	bne	a4,a5,a38 <.L395>
 c38:	000007b7          	lui	a5,0x0
 c3c:	0007a783          	lw	a5,0(a5) # 0 <sc_get_ssid_passwd>
 c40:	de078ce3          	beqz	a5,a38 <.L395>
 c44:	14c7a483          	lw	s1,332(a5)
 c48:	de0488e3          	beqz	s1,a38 <.L395>
 c4c:	00000ab7          	lui	s5,0x0
 c50:	000aa583          	lw	a1,0(s5) # 0 <sc_get_ssid_passwd>
 c54:	1547a783          	lw	a5,340(a5)
 c58:	d22e                	sw	a1,36(sp)
 c5a:	9782                	jalr	a5
 c5c:	401c                	lw	a5,0(s0)
 c5e:	000aa703          	lw	a4,0(s5)
 c62:	5592                	lw	a1,36(sp)
 c64:	00000637          	lui	a2,0x0
 c68:	86aa                	mv	a3,a0
 c6a:	01378833          	add	a6,a5,s3
 c6e:	00060613          	mv	a2,a2
 c72:	97de                	add	a5,a5,s7
 c74:	450d                	li	a0,3
 c76:	9482                	jalr	s1
 c78:	b3c1                	j	a38 <.L395>

00000c7a <.L400>:
 c7a:	000007b7          	lui	a5,0x0
 c7e:	0007a783          	lw	a5,0(a5) # 0 <sc_get_ssid_passwd>
 c82:	bc078063          	beqz	a5,42 <.L601>
 c86:	14c7a403          	lw	s0,332(a5)
 c8a:	ba040c63          	beqz	s0,42 <.L601>
 c8e:	000004b7          	lui	s1,0x0
 c92:	0004a583          	lw	a1,0(s1) # 0 <sc_get_ssid_passwd>
 c96:	1547a783          	lw	a5,340(a5)
 c9a:	d22e                	sw	a1,36(sp)
 c9c:	9782                	jalr	a5
 c9e:	0004a703          	lw	a4,0(s1)
 ca2:	00000637          	lui	a2,0x0
 ca6:	86aa                	mv	a3,a0
 ca8:	00060613          	mv	a2,a2

00000cac <.L602>:
 cac:	5592                	lw	a1,36(sp)
 cae:	4505                	li	a0,1
 cb0:	9402                	jalr	s0
 cb2:	b90ff06f          	j	42 <.L601>

00000cb6 <.L416>:
 cb6:	0995                	add	s3,s3,5
 cb8:	4799                	li	a5,6
 cba:	02f9c9b3          	div	s3,s3,a5
 cbe:	0ff9f993          	zext.b	s3,s3
 cc2:	de8ff06f          	j	2aa <.L417>

00000cc6 <.L429>:
 cc6:	86da                	mv	a3,s6
 cc8:	1810                	add	a2,sp,48
 cca:	0ffaf593          	zext.b	a1,s5
 cce:	8552                	mv	a0,s4
 cd0:	d802                	sw	zero,48(sp)
 cd2:	02011a23          	sh	zero,52(sp)
 cd6:	02010b23          	sb	zero,54(sp)
 cda:	00000097          	auipc	ra,0x0
 cde:	000080e7          	jalr	ra # cda <.L429+0x14>
 ce2:	b6050063          	beqz	a0,42 <.L601>
 ce6:	01894703          	lbu	a4,24(s2)
 cea:	4785                	li	a5,1
 cec:	04f70163          	beq	a4,a5,d2e <.L443>

00000cf0 <.L423>:
 cf0:	401c                	lw	a5,0(s0)
 cf2:	6705                	lui	a4,0x1
 cf4:	97ba                	add	a5,a5,a4
 cf6:	a3e7c503          	lbu	a0,-1474(a5)
 cfa:	a407c783          	lbu	a5,-1472(a5)
 cfe:	40aa8533          	sub	a0,s5,a0
 d02:	1569                	add	a0,a0,-6
 d04:	ebd9                	bnez	a5,d9a <.L421>
 d06:	4799                	li	a5,6
 d08:	02f50533          	mul	a0,a0,a5
 d0c:	09fc                	add	a5,sp,220
 d0e:	4619                	li	a2,6
 d10:	180c                	add	a1,sp,48
 d12:	953e                	add	a0,a0,a5
 d14:	00000097          	auipc	ra,0x0
 d18:	000080e7          	jalr	ra # d14 <.L423+0x24>
 d1c:	4599                	li	a1,6
 d1e:	1808                	add	a0,sp,48
 d20:	00000097          	auipc	ra,0x0
 d24:	000080e7          	jalr	ra # d20 <.L423+0x30>
 d28:	03f57513          	and	a0,a0,63
 d2c:	a861                	j	dc4 <.L424>

00000d2e <.L443>:
 d2e:	4705                	li	a4,1

00000d30 <.L420>:
 d30:	009707b3          	add	a5,a4,s1
 d34:	4014                	lw	a3,0(s0)
 d36:	01778633          	add	a2,a5,s7
 d3a:	060a                	sll	a2,a2,0x2
 d3c:	96b2                	add	a3,a3,a2
 d3e:	02a6c603          	lbu	a2,42(a3)
 d42:	0286d583          	lhu	a1,40(a3)
 d46:	d43e                	sw	a5,40(sp)
 d48:	000007b7          	lui	a5,0x0
 d4c:	00078513          	mv	a0,a5
 d50:	d63a                	sw	a4,44(sp)
 d52:	00000097          	auipc	ra,0x0
 d56:	000080e7          	jalr	ra # d52 <.L420+0x22>
 d5a:	000007b7          	lui	a5,0x0
 d5e:	00078513          	mv	a0,a5
 d62:	00000097          	auipc	ra,0x0
 d66:	000080e7          	jalr	ra # d62 <.L420+0x32>
 d6a:	57a2                	lw	a5,40(sp)
 d6c:	4014                	lw	a3,0(s0)
 d6e:	97de                	add	a5,a5,s7
 d70:	07a1                	add	a5,a5,8 # 8 <sc_get_ssid_passwd+0x8>
 d72:	078a                	sll	a5,a5,0x2
 d74:	97b6                	add	a5,a5,a3
 d76:	0087d503          	lhu	a0,8(a5)
 d7a:	00000097          	auipc	ra,0x0
 d7e:	000080e7          	jalr	ra # d7a <.L420+0x4a>
 d82:	000c8513          	mv	a0,s9
 d86:	00000097          	auipc	ra,0x0
 d8a:	000080e7          	jalr	ra # d86 <.L420+0x56>
 d8e:	5732                	lw	a4,44(sp)
 d90:	4825                	li	a6,9
 d92:	0705                	add	a4,a4,1 # 1001 <.L437+0x179>
 d94:	f9071ee3          	bne	a4,a6,d30 <.L420>
 d98:	bfa1                	j	cf0 <.L423>

00000d9a <.L421>:
 d9a:	4795                	li	a5,5
 d9c:	02f50533          	mul	a0,a0,a5
 da0:	09fc                	add	a5,sp,220
 da2:	4615                	li	a2,5
 da4:	180c                	add	a1,sp,48
 da6:	953e                	add	a0,a0,a5
 da8:	00000097          	auipc	ra,0x0
 dac:	000080e7          	jalr	ra # da8 <.L421+0xe>
 db0:	4595                	li	a1,5
 db2:	1808                	add	a0,sp,48
 db4:	00000097          	auipc	ra,0x0
 db8:	000080e7          	jalr	ra # db4 <.L421+0x1a>
 dbc:	03514783          	lbu	a5,53(sp)
 dc0:	02f10b23          	sb	a5,54(sp)

00000dc4 <.L424>:
 dc4:	03614703          	lbu	a4,54(sp)
 dc8:	401c                	lw	a5,0(s0)
 dca:	08a71563          	bne	a4,a0,e54 <.L425>
 dce:	5692                	lw	a3,36(sp)
 dd0:	00249713          	sll	a4,s1,0x2
 dd4:	06500613          	li	a2,101
 dd8:	9736                	add	a4,a4,a3
 dda:	97ba                	add	a5,a5,a4
 ddc:	46a5                	li	a3,9
 dde:	4705                	li	a4,1

00000de0 <.L426>:
 de0:	02c78723          	sb	a2,46(a5)
 de4:	0705                	add	a4,a4,1
 de6:	0791                	add	a5,a5,4
 de8:	fed71ce3          	bne	a4,a3,de0 <.L426>
 dec:	01894703          	lbu	a4,24(s2)
 df0:	4785                	li	a5,1
 df2:	04f71d63          	bne	a4,a5,e4c <.L428>
 df6:	000d2783          	lw	a5,0(s10)
 dfa:	cba9                	beqz	a5,e4c <.L428>
 dfc:	14c7a303          	lw	t1,332(a5)
 e00:	d61a                	sw	t1,44(sp)
 e02:	04030563          	beqz	t1,e4c <.L428>
 e06:	000c2583          	lw	a1,0(s8)
 e0a:	1547a783          	lw	a5,340(a5)
 e0e:	d42e                	sw	a1,40(sp)
 e10:	9782                	jalr	a5
 e12:	03614783          	lbu	a5,54(sp)
 e16:	03114883          	lbu	a7,49(sp)
 e1a:	03014803          	lbu	a6,48(sp)
 e1e:	c83e                	sw	a5,16(sp)
 e20:	03514783          	lbu	a5,53(sp)
 e24:	000c2703          	lw	a4,0(s8)
 e28:	55a2                	lw	a1,40(sp)
 e2a:	c63e                	sw	a5,12(sp)
 e2c:	03414783          	lbu	a5,52(sp)
 e30:	5332                	lw	t1,44(sp)
 e32:	86aa                	mv	a3,a0
 e34:	c43e                	sw	a5,8(sp)
 e36:	03314783          	lbu	a5,51(sp)
 e3a:	000d8613          	mv	a2,s11
 e3e:	450d                	li	a0,3
 e40:	c23e                	sw	a5,4(sp)
 e42:	03214783          	lbu	a5,50(sp)
 e46:	c03e                	sw	a5,0(sp)
 e48:	87d6                	mv	a5,s5
 e4a:	9302                	jalr	t1

00000e4c <.L428>:
 e4c:	0a85                	add	s5,s5,1
 e4e:	04a1                	add	s1,s1,8
 e50:	cceff06f          	j	31e <.L419>

00000e54 <.L425>:
 e54:	0485                	add	s1,s1,1
 e56:	94de                	add	s1,s1,s7
 e58:	048a                	sll	s1,s1,0x2
 e5a:	bc45                	j	90a <.L604>

00000e5c <.L432>:
 e5c:	97d2                	add	a5,a5,s4
 e5e:	97a6                	add	a5,a5,s1
 e60:	a4574683          	lbu	a3,-1467(a4)
 e64:	0007c583          	lbu	a1,0(a5)
 e68:	8ead                	xor	a3,a3,a1
 e6a:	a4d702a3          	sb	a3,-1467(a4)
 e6e:	01561a63          	bne	a2,s5,e82 <.L431>
 e72:	0007c583          	lbu	a1,0(a5)
 e76:	000b0513          	mv	a0,s6
 e7a:	00000097          	auipc	ra,0x0
 e7e:	000080e7          	jalr	ra # e7a <.L432+0x1e>

00000e82 <.L431>:
 e82:	0485                	add	s1,s1,1
 e84:	ce8ff06f          	j	36c <.L430>

00000e88 <.L437>:
 e88:	0004a783          	lw	a5,0(s1)
 e8c:	9a078b63          	beqz	a5,42 <.L601>
 e90:	14c7a403          	lw	s0,332(a5)
 e94:	9a040763          	beqz	s0,42 <.L601>
 e98:	000004b7          	lui	s1,0x0
 e9c:	0004a583          	lw	a1,0(s1) # 0 <sc_get_ssid_passwd>
 ea0:	1547a783          	lw	a5,340(a5)
 ea4:	d22e                	sw	a1,36(sp)
 ea6:	9782                	jalr	a5
 ea8:	00000637          	lui	a2,0x0
 eac:	0004a703          	lw	a4,0(s1)
 eb0:	86aa                	mv	a3,a0
 eb2:	00060613          	mv	a2,a2
 eb6:	bbdd                	j	cac <.L602>

Disassembly of section .text.sc_time_elapsed_ms_since:

00000000 <sc_time_elapsed_ms_since>:
   0:	1141                	add	sp,sp,-16
   2:	c422                	sw	s0,8(sp)
   4:	c606                	sw	ra,12(sp)
   6:	842a                	mv	s0,a0
   8:	00000097          	auipc	ra,0x0
   c:	000080e7          	jalr	ra # 8 <sc_time_elapsed_ms_since+0x8>
  10:	40b2                	lw	ra,12(sp)
  12:	8d01                	sub	a0,a0,s0
  14:	4422                	lw	s0,8(sp)
  16:	0141                	add	sp,sp,16
  18:	8082                	ret

Disassembly of section .text.sc_restart_switch_channel:

00000000 <sc_restart_switch_channel>:
   0:	000007b7          	lui	a5,0x0
   4:	0007a783          	lw	a5,0(a5) # 0 <sc_restart_switch_channel>
   8:	1141                	add	sp,sp,-16
   a:	c606                	sw	ra,12(sp)
   c:	c422                	sw	s0,8(sp)
   e:	c226                	sw	s1,4(sp)
  10:	00078023          	sb	zero,0(a5)
  14:	000004b7          	lui	s1,0x0
  18:	0004a783          	lw	a5,0(s1) # 0 <sc_restart_switch_channel>
  1c:	00000437          	lui	s0,0x0
  20:	00040513          	mv	a0,s0
  24:	0e47a783          	lw	a5,228(a5)
  28:	9782                	jalr	a5
  2a:	0004a783          	lw	a5,0(s1)
  2e:	00040513          	mv	a0,s0
  32:	0e87a783          	lw	a5,232(a5)
  36:	9782                	jalr	a5
  38:	0004a783          	lw	a5,0(s1)
  3c:	000005b7          	lui	a1,0x0
  40:	4601                	li	a2,0
  42:	0ec7a783          	lw	a5,236(a5)
  46:	00058593          	mv	a1,a1
  4a:	00040513          	mv	a0,s0
  4e:	9782                	jalr	a5
  50:	4501                	li	a0,0
  52:	00000097          	auipc	ra,0x0
  56:	000080e7          	jalr	ra # 52 <sc_restart_switch_channel+0x52>
  5a:	000007b7          	lui	a5,0x0
  5e:	0007a483          	lw	s1,0(a5) # 0 <sc_restart_switch_channel>
  62:	6405                	lui	s0,0x1
  64:	a3040513          	add	a0,s0,-1488 # a30 <.L600+0x2>
  68:	00048023          	sb	zero,0(s1)
  6c:	00048a23          	sb	zero,20(s1)
  70:	4619                	li	a2,6
  72:	4581                	li	a1,0
  74:	9526                	add	a0,a0,s1
  76:	00000097          	auipc	ra,0x0
  7a:	000080e7          	jalr	ra # 76 <sc_restart_switch_channel+0x76>
  7e:	aee40513          	add	a0,s0,-1298
  82:	4422                	lw	s0,8(sp)
  84:	40b2                	lw	ra,12(sp)
  86:	9526                	add	a0,a0,s1
  88:	4492                	lw	s1,4(sp)
  8a:	4619                	li	a2,6
  8c:	4581                	li	a1,0
  8e:	0141                	add	sp,sp,16
  90:	00000317          	auipc	t1,0x0
  94:	00030067          	jr	t1 # 90 <sc_restart_switch_channel+0x90>

Disassembly of section .text.sc_ciper_type_transfer:

00000000 <sc_ciper_type_transfer>:
   0:	4795                	li	a5,5
   2:	00a7ea63          	bltu	a5,a0,16 <.L610>
   6:	000007b7          	lui	a5,0x0
   a:	00078793          	mv	a5,a5
   e:	953e                	add	a0,a0,a5
  10:	00054503          	lbu	a0,0(a0)
  14:	8082                	ret

00000016 <.L610>:
  16:	000007b7          	lui	a5,0x0
  1a:	0007a783          	lw	a5,0(a5) # 0 <sc_ciper_type_transfer>
  1e:	0ff00513          	li	a0,255
  22:	c3a9                	beqz	a5,64 <.L615>
  24:	1101                	add	sp,sp,-32
  26:	cc22                	sw	s0,24(sp)
  28:	14c7a403          	lw	s0,332(a5)
  2c:	ce06                	sw	ra,28(sp)
  2e:	ca26                	sw	s1,20(sp)
  30:	c40d                	beqz	s0,5a <.L611>
  32:	000004b7          	lui	s1,0x0
  36:	0004a583          	lw	a1,0(s1) # 0 <sc_ciper_type_transfer>
  3a:	1547a783          	lw	a5,340(a5)
  3e:	c62e                	sw	a1,12(sp)
  40:	9782                	jalr	a5
  42:	0004a703          	lw	a4,0(s1)
  46:	45b2                	lw	a1,12(sp)
  48:	00000637          	lui	a2,0x0
  4c:	86aa                	mv	a3,a0
  4e:	00060613          	mv	a2,a2
  52:	4509                	li	a0,2
  54:	9402                	jalr	s0
  56:	0ff00513          	li	a0,255

0000005a <.L611>:
  5a:	40f2                	lw	ra,28(sp)
  5c:	4462                	lw	s0,24(sp)
  5e:	44d2                	lw	s1,20(sp)
  60:	6105                	add	sp,sp,32
  62:	8082                	ret

00000064 <.L615>:
  64:	8082                	ret

Disassembly of section .text.sc_recv_callback:

00000000 <sc_recv_callback>:
   0:	7179                	add	sp,sp,-48
   2:	d422                	sw	s0,40(sp)
   4:	d226                	sw	s1,36(sp)
   6:	842a                	mv	s0,a0
   8:	d04a                	sw	s2,32(sp)
   a:	84ae                	mv	s1,a1
   c:	8932                	mv	s2,a2
   e:	4581                	li	a1,0
  10:	4661                	li	a2,24
  12:	0028                	add	a0,sp,8
  14:	d606                	sw	ra,44(sp)
  16:	00000097          	auipc	ra,0x0
  1a:	000080e7          	jalr	ra # 16 <sc_recv_callback+0x16>
  1e:	00a45783          	lhu	a5,10(s0)
  22:	00040703          	lb	a4,0(s0)
  26:	0034                	add	a3,sp,8
  28:	8bbd                	and	a5,a5,15
  2a:	864a                	mv	a2,s2
  2c:	85a6                	mv	a1,s1
  2e:	03040513          	add	a0,s0,48
  32:	00f10ea3          	sb	a5,29(sp)
  36:	00000097          	auipc	ra,0x0
  3a:	000080e7          	jalr	ra # 36 <sc_recv_callback+0x36>
  3e:	4785                	li	a5,1
  40:	00f51d63          	bne	a0,a5,5a <.L620>
  44:	0028                	add	a0,sp,8
  46:	00000097          	auipc	ra,0x0
  4a:	000080e7          	jalr	ra # 46 <sc_recv_callback+0x46>

0000004e <.L618>:
  4e:	50b2                	lw	ra,44(sp)
  50:	5422                	lw	s0,40(sp)
  52:	5492                	lw	s1,36(sp)
  54:	5902                	lw	s2,32(sp)
  56:	6145                	add	sp,sp,48
  58:	8082                	ret

0000005a <.L620>:
  5a:	4501                	li	a0,0
  5c:	bfcd                	j	4e <.L618>

Disassembly of section .text.sc_is_invalid_pkg:

00000000 <sc_is_invalid_pkg>:
   0:	f8150513          	add	a0,a0,-127
   4:	43253513          	sltiu	a0,a0,1074
   8:	00154513          	xor	a0,a0,1
   c:	8082                	ret

Disassembly of section .text.sc_sniffer_cb:

00000000 <sc_sniffer_cb>:
   0:	1101                	add	sp,sp,-32
   2:	cc22                	sw	s0,24(sp)
   4:	ce06                	sw	ra,28(sp)
   6:	ca26                	sw	s1,20(sp)
   8:	c84a                	sw	s2,16(sp)
   a:	00000097          	auipc	ra,0x0
   e:	000080e7          	jalr	ra # a <sc_sniffer_cb+0xa>
  12:	000007b7          	lui	a5,0x0
  16:	0007a783          	lw	a5,0(a5) # 0 <sc_sniffer_cb>
  1a:	842a                	mv	s0,a0
  1c:	0007c703          	lbu	a4,0(a5)
  20:	4785                	li	a5,1
  22:	02f71063          	bne	a4,a5,42 <.L623>
  26:	000004b7          	lui	s1,0x0
  2a:	ffe50793          	add	a5,a0,-2
  2e:	470d                	li	a4,3
  30:	00048493          	mv	s1,s1
  34:	00f76e63          	bltu	a4,a5,50 <.L626>
  38:	00000097          	auipc	ra,0x0
  3c:	000080e7          	jalr	ra # 38 <sc_sniffer_cb+0x38>
  40:	c088                	sw	a0,0(s1)

00000042 <.L623>:
  42:	40f2                	lw	ra,28(sp)
  44:	8522                	mv	a0,s0
  46:	4462                	lw	s0,24(sp)
  48:	44d2                	lw	s1,20(sp)
  4a:	4942                	lw	s2,16(sp)
  4c:	6105                	add	sp,sp,32
  4e:	8082                	ret

00000050 <.L626>:
  50:	4084                	lw	s1,0(s1)
  52:	00000097          	auipc	ra,0x0
  56:	000080e7          	jalr	ra # 52 <.L626+0x2>
  5a:	6785                	lui	a5,0x1
  5c:	8d05                	sub	a0,a0,s1
  5e:	38878793          	add	a5,a5,904 # 1388 <.L437+0x500>
  62:	fea7f0e3          	bgeu	a5,a0,42 <.L623>
  66:	000007b7          	lui	a5,0x0
  6a:	0007a783          	lw	a5,0(a5) # 0 <sc_sniffer_cb>
  6e:	c795                	beqz	a5,9a <.L628>
  70:	14c7a483          	lw	s1,332(a5)
  74:	c09d                	beqz	s1,9a <.L628>
  76:	00000937          	lui	s2,0x0
  7a:	00092583          	lw	a1,0(s2) # 0 <sc_sniffer_cb>
  7e:	1547a783          	lw	a5,340(a5)
  82:	c62e                	sw	a1,12(sp)
  84:	9782                	jalr	a5
  86:	00092703          	lw	a4,0(s2)
  8a:	45b2                	lw	a1,12(sp)
  8c:	00000637          	lui	a2,0x0
  90:	86aa                	mv	a3,a0
  92:	00060613          	mv	a2,a2
  96:	450d                	li	a0,3
  98:	9482                	jalr	s1

0000009a <.L628>:
  9a:	00000097          	auipc	ra,0x0
  9e:	000080e7          	jalr	ra # 9a <.L628>
  a2:	b745                	j	42 <.L623>

Disassembly of section .text.sc_pack_handle:

00000000 <sc_pack_handle>:
   0:	000007b7          	lui	a5,0x0
   4:	0107c703          	lbu	a4,16(a5) # 10 <sc_pack_handle+0x10>
   8:	4785                	li	a5,1
   a:	862e                	mv	a2,a1
   c:	02f70c63          	beq	a4,a5,44 <.L636>
  10:	555c                	lw	a5,44(a0)
  12:	4154                	lw	a3,4(a0)
  14:	08000737          	lui	a4,0x8000
  18:	07d2                	sll	a5,a5,0x14
  1a:	8f75                	and	a4,a4,a3
  1c:	83d1                	srl	a5,a5,0x14
  1e:	c719                	beqz	a4,2c <.L638>
  20:	470d                	li	a4,3
  22:	00e59563          	bne	a1,a4,2c <.L638>
  26:	17f1                	add	a5,a5,-4
  28:	07c2                	sll	a5,a5,0x10
  2a:	83c1                	srl	a5,a5,0x10

0000002c <.L638>:
  2c:	f8178713          	add	a4,a5,-127
  30:	43100693          	li	a3,1073
  34:	00e6e863          	bltu	a3,a4,44 <.L636>
  38:	ffc78593          	add	a1,a5,-4
  3c:	00000317          	auipc	t1,0x0
  40:	00030067          	jr	t1 # 3c <.L638+0x10>

00000044 <.L636>:
  44:	8082                	ret
