In archive /Users/dimajolkin/GolandProjects/espradio/blobs/libs/esp32c3/libsmartconfig.a:

sc_broadcast.o:     file format elf32-littleriscv


Disassembly of section .text.sc_is_sync_frame:

00000000 <sc_is_sync_frame>:
   0:	715d                	add	sp,sp,-80
   2:	c4a2                	sw	s0,72(sp)
   4:	c686                	sw	ra,76(sp)
   6:	843e                	mv	s0,a5
   8:	c2a6                	sw	s1,68(sp)
   a:	c0ca                	sw	s2,64(sp)
   c:	de4e                	sw	s3,60(sp)
   e:	dc52                	sw	s4,56(sp)
  10:	da56                	sw	s5,52(sp)
  12:	d85a                	sw	s6,48(sp)
  14:	d65e                	sw	s7,44(sp)
  16:	d462                	sw	s8,40(sp)
  18:	d266                	sw	s9,36(sp)
  1a:	d06a                	sw	s10,32(sp)
  1c:	ce6e                	sw	s11,28(sp)
  1e:	4791                	li	a5,4
  20:	02a7eb63          	bltu	a5,a0,56 <.L21>
  24:	000007b7          	lui	a5,0x0
  28:	84ba                	mv	s1,a4
  2a:	00078793          	mv	a5,a5
  2e:	00151713          	sll	a4,a0,0x1
  32:	97ba                	add	a5,a5,a4
  34:	97a2                	add	a5,a5,s0
  36:	0007cd83          	lbu	s11,0(a5) # 0 <sc_is_sync_frame>
  3a:	000007b7          	lui	a5,0x0
  3e:	8c2a                	mv	s8,a0
  40:	8ab2                	mv	s5,a2
  42:	8cb6                	mv	s9,a3
  44:	8d42                	mv	s10,a6
  46:	41b585b3          	sub	a1,a1,s11
  4a:	00078793          	mv	a5,a5
  4e:	4901                	li	s2,0

00000050 <.L3>:
  50:	0007d703          	lhu	a4,0(a5) # 0 <sc_is_sync_frame>
  54:	e319                	bnez	a4,5a <.L7>

00000056 <.L21>:
  56:	4781                	li	a5,0
  58:	a241                	j	1d8 <.L1>

0000005a <.L7>:
  5a:	0789                	add	a5,a5,2
  5c:	18e59e63          	bne	a1,a4,1f8 <.L4>
  60:	00000a37          	lui	s4,0x0
  64:	000a2b03          	lw	s6,0(s4) # 0 <sc_is_sync_frame>
  68:	6985                	lui	s3,0x1
  6a:	aee98b93          	add	s7,s3,-1298 # aee <.L174+0x426>
  6e:	9bda                	add	s7,s7,s6
  70:	000005b7          	lui	a1,0x0
  74:	4619                	li	a2,6
  76:	00058593          	mv	a1,a1
  7a:	855e                	mv	a0,s7
  7c:	a3098993          	add	s3,s3,-1488
  80:	00000097          	auipc	ra,0x0
  84:	000080e7          	jalr	ra # 80 <.L7+0x26>
  88:	99da                	add	s3,s3,s6
  8a:	16051963          	bnez	a0,1fc <.L54>
  8e:	4619                	li	a2,6
  90:	85d6                	mv	a1,s5
  92:	855e                	mv	a0,s7
  94:	00000097          	auipc	ra,0x0
  98:	000080e7          	jalr	ra # 94 <.L7+0x3a>
  9c:	4619                	li	a2,6
  9e:	85e6                	mv	a1,s9
  a0:	854e                	mv	a0,s3
  a2:	00000097          	auipc	ra,0x0
  a6:	000080e7          	jalr	ra # a2 <.L7+0x48>

000000aa <.L8>:
  aa:	47d1                	li	a5,20
  ac:	02f407b3          	mul	a5,s0,a5
  b0:	090e                	sll	s2,s2,0x3
  b2:	6505                	lui	a0,0x1
  b4:	0ff97913          	zext.b	s2,s2
  b8:	06400713          	li	a4,100
  bc:	a8b50513          	add	a0,a0,-1397 # a8b <.L174+0x3c3>
  c0:	02100613          	li	a2,33
  c4:	4581                	li	a1,0
  c6:	955a                	add	a0,a0,s6
  c8:	97da                	add	a5,a5,s6
  ca:	01278123          	sb	s2,2(a5)
  ce:	012781a3          	sb	s2,3(a5)
  d2:	01b780a3          	sb	s11,1(a5)
  d6:	00e783a3          	sb	a4,7(a5)
  da:	01a79523          	sh	s10,10(a5)
  de:	01a79623          	sh	s10,12(a5)
  e2:	00000097          	auipc	ra,0x0
  e6:	000080e7          	jalr	ra # e2 <.L8+0x38>
  ea:	8556                	mv	a0,s5
  ec:	00000097          	auipc	ra,0x0
  f0:	000080e7          	jalr	ra # ec <.L8+0x42>
  f4:	892a                	mv	s2,a0
  f6:	18050c63          	beqz	a0,28e <.L11>
  fa:	942a                	add	s0,s0,a0
  fc:	03044703          	lbu	a4,48(s0)
 100:	4791                	li	a5,4
 102:	04e7f063          	bgeu	a5,a4,142 <.L12>
 106:	000007b7          	lui	a5,0x0
 10a:	0007a783          	lw	a5,0(a5) # 0 <sc_is_sync_frame>
 10e:	18078063          	beqz	a5,28e <.L11>
 112:	14c7a983          	lw	s3,332(a5)
 116:	16098c63          	beqz	s3,28e <.L11>
 11a:	00000ab7          	lui	s5,0x0
 11e:	000aa583          	lw	a1,0(s5) # 0 <sc_is_sync_frame>
 122:	1547a783          	lw	a5,340(a5)
 126:	c62e                	sw	a1,12(sp)
 128:	9782                	jalr	a5
 12a:	000aa703          	lw	a4,0(s5)
 12e:	45b2                	lw	a1,12(sp)
 130:	00000637          	lui	a2,0x0
 134:	86aa                	mv	a3,a0
 136:	03390793          	add	a5,s2,51
 13a:	00060613          	mv	a2,a2
 13e:	4509                	li	a0,2
 140:	9982                	jalr	s3

00000142 <.L12>:
 142:	03044783          	lbu	a5,48(s0)
 146:	15879463          	bne	a5,s8,28e <.L11>
 14a:	05494703          	lbu	a4,84(s2)
 14e:	14070063          	beqz	a4,28e <.L11>
 152:	000007b7          	lui	a5,0x0
 156:	0007a783          	lw	a5,0(a5) # 0 <sc_is_sync_frame>
 15a:	0ee48c63          	beq	s1,a4,252 <.L13>
 15e:	cb8d                	beqz	a5,190 <.L14>
 160:	14c7a403          	lw	s0,332(a5)
 164:	c415                	beqz	s0,190 <.L14>
 166:	000009b7          	lui	s3,0x0
 16a:	0009a583          	lw	a1,0(s3) # 0 <sc_is_sync_frame>
 16e:	1547a783          	lw	a5,340(a5)
 172:	c62e                	sw	a1,12(sp)
 174:	9782                	jalr	a5
 176:	05494803          	lbu	a6,84(s2)
 17a:	0009a703          	lw	a4,0(s3)
 17e:	45b2                	lw	a1,12(sp)
 180:	00000637          	lui	a2,0x0
 184:	86aa                	mv	a3,a0
 186:	87a6                	mv	a5,s1
 188:	00060613          	mv	a2,a2
 18c:	450d                	li	a0,3
 18e:	9402                	jalr	s0

00000190 <.L14>:
 190:	000a2783          	lw	a5,0(s4)
 194:	05494503          	lbu	a0,84(s2)
 198:	6705                	lui	a4,0x1
 19a:	97ba                	add	a5,a5,a4
 19c:	a2a78b23          	sb	a0,-1482(a5)
 1a0:	00000097          	auipc	ra,0x0
 1a4:	000080e7          	jalr	ra # 1a0 <.L14+0x10>

000001a8 <.L15>:
 1a8:	000a2783          	lw	a5,0(s4)
 1ac:	6705                	lui	a4,0x1
 1ae:	97ba                	add	a5,a5,a4
 1b0:	a367c783          	lbu	a5,-1482(a5)
 1b4:	e7e5                	bnez	a5,29c <.L16>

000001b6 <.L19>:
 1b6:	000a2503          	lw	a0,0(s4)
 1ba:	6785                	lui	a5,0x1
 1bc:	a8b78793          	add	a5,a5,-1397 # a8b <.L174+0x3c3>
 1c0:	953e                	add	a0,a0,a5
 1c2:	02100613          	li	a2,33
 1c6:	10090b63          	beqz	s2,2dc <.L17>
 1ca:	03390593          	add	a1,s2,51
 1ce:	00000097          	auipc	ra,0x0
 1d2:	000080e7          	jalr	ra # 1ce <.L19+0x18>

000001d6 <.L56>:
 1d6:	4785                	li	a5,1

000001d8 <.L1>:
 1d8:	40b6                	lw	ra,76(sp)
 1da:	4426                	lw	s0,72(sp)
 1dc:	4496                	lw	s1,68(sp)
 1de:	4906                	lw	s2,64(sp)
 1e0:	59f2                	lw	s3,60(sp)
 1e2:	5a62                	lw	s4,56(sp)
 1e4:	5ad2                	lw	s5,52(sp)
 1e6:	5b42                	lw	s6,48(sp)
 1e8:	5bb2                	lw	s7,44(sp)
 1ea:	5c22                	lw	s8,40(sp)
 1ec:	5c92                	lw	s9,36(sp)
 1ee:	5d02                	lw	s10,32(sp)
 1f0:	4df2                	lw	s11,28(sp)
 1f2:	853e                	mv	a0,a5
 1f4:	6161                	add	sp,sp,80
 1f6:	8082                	ret

000001f8 <.L4>:
 1f8:	0905                	add	s2,s2,1
 1fa:	bd99                	j	50 <.L3>

000001fc <.L54>:
 1fc:	4619                	li	a2,6
 1fe:	85e6                	mv	a1,s9
 200:	854e                	mv	a0,s3
 202:	00000097          	auipc	ra,0x0
 206:	000080e7          	jalr	ra # 202 <.L54+0x6>
 20a:	c62a                	sw	a0,12(sp)
 20c:	e40515e3          	bnez	a0,56 <.L21>
 210:	4619                	li	a2,6
 212:	85d6                	mv	a1,s5
 214:	855e                	mv	a0,s7
 216:	00000097          	auipc	ra,0x0
 21a:	000080e7          	jalr	ra # 216 <.L54+0x1a>
 21e:	e80506e3          	beqz	a0,aa <.L8>
 222:	47b2                	lw	a5,12(sp)
 224:	d855                	beqz	s0,1d8 <.L1>
 226:	4619                	li	a2,6
 228:	85d6                	mv	a1,s5
 22a:	855e                	mv	a0,s7
 22c:	00000097          	auipc	ra,0x0
 230:	000080e7          	jalr	ra # 22c <.L54+0x30>
 234:	4619                	li	a2,6
 236:	85e6                	mv	a1,s9
 238:	854e                	mv	a0,s3
 23a:	00000097          	auipc	ra,0x0
 23e:	000080e7          	jalr	ra # 23a <.L54+0x3e>
 242:	000b4703          	lbu	a4,0(s6)
 246:	478d                	li	a5,3
 248:	e6f711e3          	bne	a4,a5,aa <.L8>
 24c:	000b0023          	sb	zero,0(s6)
 250:	bda9                	j	aa <.L8>

00000252 <.L13>:
 252:	000a2703          	lw	a4,0(s4)
 256:	6685                	lui	a3,0x1
 258:	9736                	add	a4,a4,a3
 25a:	a2970b23          	sb	s1,-1482(a4) # a36 <.L174+0x36e>
 25e:	cf9d                	beqz	a5,29c <.L16>
 260:	14c7a403          	lw	s0,332(a5)
 264:	cc05                	beqz	s0,29c <.L16>
 266:	000009b7          	lui	s3,0x0
 26a:	0009a583          	lw	a1,0(s3) # 0 <sc_is_sync_frame>
 26e:	1547a783          	lw	a5,340(a5)
 272:	c62e                	sw	a1,12(sp)
 274:	9782                	jalr	a5
 276:	0009a703          	lw	a4,0(s3)
 27a:	45b2                	lw	a1,12(sp)
 27c:	00000637          	lui	a2,0x0
 280:	86aa                	mv	a3,a0
 282:	87a6                	mv	a5,s1
 284:	00060613          	mv	a2,a2
 288:	450d                	li	a0,3
 28a:	9402                	jalr	s0
 28c:	bf31                	j	1a8 <.L15>

0000028e <.L11>:
 28e:	000a2783          	lw	a5,0(s4)
 292:	d899                	beqz	s1,1a8 <.L15>
 294:	6705                	lui	a4,0x1
 296:	97ba                	add	a5,a5,a4
 298:	a2978b23          	sb	s1,-1482(a5)

0000029c <.L16>:
 29c:	000007b7          	lui	a5,0x0
 2a0:	0007a783          	lw	a5,0(a5) # 0 <sc_is_sync_frame>
 2a4:	00000537          	lui	a0,0x0
 2a8:	00050513          	mv	a0,a0
 2ac:	0e47a783          	lw	a5,228(a5)
 2b0:	9782                	jalr	a5
 2b2:	000007b7          	lui	a5,0x0
 2b6:	00078023          	sb	zero,0(a5) # 0 <sc_is_sync_frame>
 2ba:	000a2783          	lw	a5,0(s4)
 2be:	6705                	lui	a4,0x1
 2c0:	4581                	li	a1,0
 2c2:	97ba                	add	a5,a5,a4
 2c4:	a367c503          	lbu	a0,-1482(a5)
 2c8:	00000097          	auipc	ra,0x0
 2cc:	000080e7          	jalr	ra # 2c8 <.L16+0x2c>
 2d0:	4501                	li	a0,0
 2d2:	00000097          	auipc	ra,0x0
 2d6:	000080e7          	jalr	ra # 2d2 <.L16+0x36>
 2da:	bdf1                	j	1b6 <.L19>

000002dc <.L17>:
 2dc:	4581                	li	a1,0
 2de:	00000097          	auipc	ra,0x0
 2e2:	000080e7          	jalr	ra # 2de <.L17+0x2>
 2e6:	000007b7          	lui	a5,0x0
 2ea:	0007a703          	lw	a4,0(a5) # 0 <sc_is_sync_frame>
 2ee:	4785                	li	a5,1
 2f0:	ee0704e3          	beqz	a4,1d8 <.L1>
 2f4:	14c72403          	lw	s0,332(a4) # 114c <.L174+0xa84>
 2f8:	ee0400e3          	beqz	s0,1d8 <.L1>
 2fc:	000004b7          	lui	s1,0x0
 300:	0004a583          	lw	a1,0(s1) # 0 <sc_is_sync_frame>
 304:	15472783          	lw	a5,340(a4)
 308:	c62e                	sw	a1,12(sp)
 30a:	9782                	jalr	a5
 30c:	0004a703          	lw	a4,0(s1)
 310:	45b2                	lw	a1,12(sp)
 312:	00000637          	lui	a2,0x0
 316:	86aa                	mv	a3,a0
 318:	00060613          	mv	a2,a2
 31c:	450d                	li	a0,3
 31e:	9402                	jalr	s0
 320:	bd5d                	j	1d6 <.L56>

Disassembly of section .text.sc_get_data_score:

00000000 <sc_get_data_score>:
   0:	40a58633          	sub	a2,a1,a0
   4:	6505                	lui	a0,0x1
   6:	157d                	add	a0,a0,-1 # fff <.L174+0x937>
   8:	8e69                	and	a2,a2,a0
   a:	0642                	sll	a2,a2,0x10
   c:	8241                	srl	a2,a2,0x10
   e:	fff60813          	add	a6,a2,-1 # ffffffff <.L174+0xfffff937>
  12:	0842                	sll	a6,a6,0x10
  14:	01085813          	srl	a6,a6,0x10
  18:	3e600893          	li	a7,998
  1c:	0708e663          	bltu	a7,a6,88 <.L61>
  20:	4851                	li	a6,20
  22:	030787b3          	mul	a5,a5,a6
  26:	00000837          	lui	a6,0x0
  2a:	00082803          	lw	a6,0(a6) # 0 <sc_get_data_score>
  2e:	983e                	add	a6,a6,a5
  30:	00c85783          	lhu	a5,12(a6)
  34:	8d9d                	sub	a1,a1,a5
  36:	8de9                	and	a1,a1,a0
  38:	15fd                	add	a1,a1,-1 # ffffffff <.L174+0xfffff937>
  3a:	05c2                	sll	a1,a1,0x10
  3c:	81c1                	srl	a1,a1,0x10
  3e:	4501                	li	a0,0
  40:	04b8e563          	bltu	a7,a1,8a <.L58>
  44:	04d77363          	bgeu	a4,a3,8a <.L58>
  48:	8e99                	sub	a3,a3,a4
  4a:	16f9                	add	a3,a3,-2 # ffe <.L174+0x936>
  4c:	9636                	add	a2,a2,a3
  4e:	0642                	sll	a2,a2,0x10
  50:	000006b7          	lui	a3,0x0
  54:	8241                	srl	a2,a2,0x10
  56:	4781                	li	a5,0
  58:	00068693          	mv	a3,a3

0000005c <.L59>:
  5c:	00279713          	sll	a4,a5,0x2
  60:	9736                	add	a4,a4,a3
  62:	00075583          	lhu	a1,0(a4)
  66:	00c5ed63          	bltu	a1,a2,80 <.L60>
  6a:	00274703          	lbu	a4,2(a4)
  6e:	00784783          	lbu	a5,7(a6)
  72:	4505                	li	a0,1
  74:	00f77b63          	bgeu	a4,a5,8a <.L58>
  78:	8f99                	sub	a5,a5,a4
  7a:	0ff7f513          	zext.b	a0,a5
  7e:	8082                	ret

00000080 <.L60>:
  80:	0785                	add	a5,a5,1
  82:	0ff7f793          	zext.b	a5,a5
  86:	bfd9                	j	5c <.L59>

00000088 <.L61>:
  88:	4501                	li	a0,0

0000008a <.L58>:
  8a:	8082                	ret

Disassembly of section .text.sc_try_to_sync_pos:

00000000 <sc_try_to_sync_pos>:
   0:	7179                	add	sp,sp,-48
   2:	d422                	sw	s0,40(sp)
   4:	d226                	sw	s1,36(sp)
   6:	d04a                	sw	s2,32(sp)
   8:	84aa                	mv	s1,a0
   a:	ce4e                	sw	s3,28(sp)
   c:	cc52                	sw	s4,24(sp)
   e:	ca56                	sw	s5,20(sp)
  10:	c65e                	sw	s7,12(sp)
  12:	893a                	mv	s2,a4
  14:	d606                	sw	ra,44(sp)
  16:	c85a                	sw	s6,16(sp)
  18:	c462                	sw	s8,8(sp)
  1a:	00000097          	auipc	ra,0x0
  1e:	000080e7          	jalr	ra # 1a <sc_try_to_sync_pos+0x1a>
  22:	02400313          	li	t1,36
  26:	02648333          	mul	t1,s1,t1
  2a:	4e000593          	li	a1,1248
  2e:	13800693          	li	a3,312
  32:	000007b7          	lui	a5,0x0
  36:	0007a883          	lw	a7,0(a5) # 0 <sc_try_to_sync_pos>
  3a:	6785                	lui	a5,0x1
  3c:	9ec78793          	add	a5,a5,-1556 # 9ec <.L174+0x324>
  40:	4a89                	li	s5,2
  42:	49a1                	li	s3,8
  44:	547d                	li	s0,-1
  46:	02b485b3          	mul	a1,s1,a1
  4a:	979a                	add	a5,a5,t1
  4c:	00f883b3          	add	t2,a7,a5
  50:	4a01                	li	s4,0
  52:	4781                	li	a5,0
  54:	4705                	li	a4,1
  56:	4ba5                	li	s7,9
  58:	02d486b3          	mul	a3,s1,a3
  5c:	95c6                	add	a1,a1,a7

0000005e <.L66>:
  5e:	82ae                	mv	t0,a1
  60:	4e01                	li	t3,0
  62:	4081                	li	ra,0

00000064 <.L67>:
  64:	00ae4e63          	blt	t3,a0,80 <.L94>
  68:	12009863          	bnez	ra,198 <.L74>
  6c:	4a05                	li	s4,1
  6e:	00ea9763          	bne	s5,a4,7c <.L95>
  72:	577d                	li	a4,-1
  74:	06e91763          	bne	s2,a4,e2 <.L92>

00000078 <.L115>:
  78:	547d                	li	s0,-1
  7a:	a2a1                	j	1c2 <.L84>

0000007c <.L95>:
  7c:	4a85                	li	s5,1
  7e:	b7c5                	j	5e <.L66>

00000080 <.L94>:
  80:	8816                	mv	a6,t0
  82:	8f9e                	mv	t6,t2
  84:	06400e93          	li	t4,100
  88:	4f05                	li	t5,1
  8a:	4601                	li	a2,0

0000008c <.L72>:
  8c:	002fcb03          	lbu	s6,2(t6)
  90:	000b0a63          	beqz	s6,a4 <.L68>
  94:	020a0863          	beqz	s4,c4 <.L69>
  98:	02e84b03          	lbu	s6,46(a6)
  9c:	01676463          	bltu	a4,s6,a4 <.L68>
  a0:	0605                	add	a2,a2,1
  a2:	8ed2                	mv	t4,s4

000000a4 <.L68>:
  a4:	0f05                	add	t5,t5,1
  a6:	0f91                	add	t6,t6,4
  a8:	0811                	add	a6,a6,4
  aa:	ff7f11e3          	bne	t5,s7,8c <.L72>

000000ae <.L70>:
  ae:	00c0d763          	bge	ra,a2,bc <.L73>
  b2:	ffff0993          	add	s3,t5,-1
  b6:	87f6                	mv	a5,t4
  b8:	8472                	mv	s0,t3
  ba:	80b2                	mv	ra,a2

000000bc <.L73>:
  bc:	0e21                	add	t3,t3,8
  be:	02028293          	add	t0,t0,32
  c2:	b74d                	j	64 <.L67>

000000c4 <.L69>:
  c4:	02c85b03          	lhu	s6,44(a6)
  c8:	fc0b0ee3          	beqz	s6,a4 <.L68>
  cc:	000fdc03          	lhu	s8,0(t6)
  d0:	fd6c1fe3          	bne	s8,s6,ae <.L70>
  d4:	02e84b03          	lbu	s6,46(a6)
  d8:	0605                	add	a2,a2,1
  da:	fddb55e3          	bge	s6,t4,a4 <.L68>
  de:	8eda                	mv	t4,s6
  e0:	b7d1                	j	a4 <.L68>

000000e2 <.L92>:
  e2:	1961                	add	s2,s2,-8
  e4:	00095763          	bgez	s2,f2 <.L76>
  e8:	4721                	li	a4,8
  ea:	02e54733          	div	a4,a0,a4
  ee:	00371913          	sll	s2,a4,0x3

000000f2 <.L76>:
  f2:	10009863          	bnez	ra,202 <.L78>

000000f6 <.L101>:
  f6:	4789                	li	a5,2
  f8:	a035                	j	124 <.L77>

000000fa <.L79>:
  fa:	4709                	li	a4,2
  fc:	00e09763          	bne	ra,a4,10a <.L82>
 100:	4751                	li	a4,20
 102:	0af75563          	bge	a4,a5,1ac <.L81>
 106:	47d1                	li	a5,20
 108:	a055                	j	1ac <.L81>

0000010a <.L82>:
 10a:	4721                	li	a4,8
 10c:	f61746e3          	blt	a4,ra,78 <.L115>
 110:	4779                	li	a4,30
 112:	08f75d63          	bge	a4,a5,1ac <.L81>
 116:	47f9                	li	a5,30
 118:	a851                	j	1ac <.L81>

0000011a <.L87>:
 11a:	4705                	li	a4,1
 11c:	00e08463          	beq	ra,a4,124 <.L77>
 120:	080a0d63          	beqz	s4,1ba <.L86>

00000124 <.L77>:
 124:	45d1                	li	a1,20
 126:	02b485b3          	mul	a1,s1,a1
 12a:	96ca                	add	a3,a3,s2
 12c:	068a                	sll	a3,a3,0x2
 12e:	0ff7f713          	zext.b	a4,a5
 132:	00190613          	add	a2,s2,1
 136:	96c6                	add	a3,a3,a7
 138:	00990e93          	add	t4,s2,9
 13c:	547d                	li	s0,-1
 13e:	99ca                	add	s3,s3,s2
 140:	4f05                	li	t5,1
 142:	95c6                	add	a1,a1,a7
 144:	00170f93          	add	t6,a4,1

00000148 <.L88>:
 148:	06c9cd63          	blt	s3,a2,1c2 <.L84>
 14c:	07d60b63          	beq	a2,t4,1c2 <.L84>
 150:	06a65963          	bge	a2,a0,1c2 <.L84>
 154:	02e6c803          	lbu	a6,46(a3) # 2e <sc_try_to_sync_pos+0x2e>
 158:	02f85c63          	bge	a6,a5,190 <.L89>
 15c:	0023c803          	lbu	a6,2(t2)
 160:	02080863          	beqz	a6,190 <.L89>
 164:	0003de03          	lhu	t3,0(t2)
 168:	03c69623          	sh	t3,44(a3)
 16c:	8e3a                	mv	t3,a4
 16e:	0107c663          	blt	a5,a6,17a <.L90>
 172:	410f8833          	sub	a6,t6,a6
 176:	0ff87e13          	zext.b	t3,a6

0000017a <.L90>:
 17a:	03c68723          	sb	t3,46(a3)
 17e:	0045c803          	lbu	a6,4(a1)
 182:	01e58323          	sb	t5,6(a1)
 186:	4401                	li	s0,0
 188:	00c85463          	bge	a6,a2,190 <.L89>
 18c:	00c58223          	sb	a2,4(a1)

00000190 <.L89>:
 190:	0605                	add	a2,a2,1
 192:	0691                	add	a3,a3,4
 194:	0391                	add	t2,t2,4
 196:	bf4d                	j	148 <.L88>

00000198 <.L74>:
 198:	577d                	li	a4,-1
 19a:	f4e914e3          	bne	s2,a4,e2 <.L92>

0000019e <.L93>:
 19e:	4705                	li	a4,1
 1a0:	f4e09de3          	bne	ra,a4,fa <.L79>
 1a4:	4729                	li	a4,10
 1a6:	00f75363          	bge	a4,a5,1ac <.L81>
 1aa:	47a9                	li	a5,10

000001ac <.L81>:
 1ac:	577d                	li	a4,-1
 1ae:	00e90663          	beq	s2,a4,1ba <.L86>
 1b2:	f72414e3          	bne	s0,s2,11a <.L87>
 1b6:	0789                	add	a5,a5,2
 1b8:	49a1                	li	s3,8

000001ba <.L86>:
 1ba:	577d                	li	a4,-1
 1bc:	8922                	mv	s2,s0
 1be:	f6e413e3          	bne	s0,a4,124 <.L77>

000001c2 <.L84>:
 1c2:	47d1                	li	a5,20
 1c4:	02f487b3          	mul	a5,s1,a5
 1c8:	02400613          	li	a2,36
 1cc:	4581                	li	a1,0
 1ce:	97c6                	add	a5,a5,a7
 1d0:	00078423          	sb	zero,8(a5)
 1d4:	6785                	lui	a5,0x1
 1d6:	9e878793          	add	a5,a5,-1560 # 9e8 <.L174+0x320>
 1da:	979a                	add	a5,a5,t1
 1dc:	00f88533          	add	a0,a7,a5
 1e0:	00000097          	auipc	ra,0x0
 1e4:	000080e7          	jalr	ra # 1e0 <.L84+0x1e>
 1e8:	50b2                	lw	ra,44(sp)
 1ea:	8522                	mv	a0,s0
 1ec:	5422                	lw	s0,40(sp)
 1ee:	5492                	lw	s1,36(sp)
 1f0:	5902                	lw	s2,32(sp)
 1f2:	49f2                	lw	s3,28(sp)
 1f4:	4a62                	lw	s4,24(sp)
 1f6:	4ad2                	lw	s5,20(sp)
 1f8:	4b42                	lw	s6,16(sp)
 1fa:	4bb2                	lw	s7,12(sp)
 1fc:	4c22                	lw	s8,8(sp)
 1fe:	6145                	add	sp,sp,48
 200:	8082                	ret

00000202 <.L78>:
 202:	f80a0ee3          	beqz	s4,19e <.L93>
 206:	bdc5                	j	f6 <.L101>

Disassembly of section .text.sc_try_to_replace_same_pos:

00000000 <sc_try_to_replace_same_pos>:
   0:	1141                	add	sp,sp,-16
   2:	c422                	sw	s0,8(sp)
   4:	c226                	sw	s1,4(sp)
   6:	842a                	mv	s0,a0
   8:	84ae                	mv	s1,a1
   a:	c04a                	sw	s2,0(sp)
   c:	c606                	sw	ra,12(sp)
   e:	8932                	mv	s2,a2
  10:	00000097          	auipc	ra,0x0
  14:	000080e7          	jalr	ra # 10 <sc_try_to_replace_same_pos+0x10>
  18:	4721                	li	a4,8
  1a:	02e4e733          	rem	a4,s1,a4
  1e:	000007b7          	lui	a5,0x0
  22:	0007a683          	lw	a3,0(a5) # 0 <sc_try_to_replace_same_pos>
  26:	13800793          	li	a5,312
  2a:	4e000613          	li	a2,1248
  2e:	0542                	sll	a0,a0,0x10
  30:	4801                	li	a6,0
  32:	4881                	li	a7,0
  34:	8141                	srl	a0,a0,0x10
  36:	02f407b3          	mul	a5,s0,a5
  3a:	02c40633          	mul	a2,s0,a2
  3e:	97a6                	add	a5,a5,s1
  40:	07a1                	add	a5,a5,8
  42:	078a                	sll	a5,a5,0x2
  44:	97b6                	add	a5,a5,a3

00000046 <.L118>:
  46:	02e55963          	bge	a0,a4,78 <.L121>
  4a:	00088463          	beqz	a7,52 <.L122>
  4e:	00080463          	beqz	a6,56 <.L123>

00000052 <.L122>:
  52:	4501                	li	a0,0
  54:	ec01                	bnez	s0,6c <.L117>

00000056 <.L123>:
  56:	13800793          	li	a5,312
  5a:	02f40433          	mul	s0,s0,a5
  5e:	4505                	li	a0,1
  60:	9426                	add	s0,s0,s1
  62:	0421                	add	s0,s0,8
  64:	040a                	sll	s0,s0,0x2
  66:	96a2                	add	a3,a3,s0
  68:	01269423          	sh	s2,8(a3)

0000006c <.L117>:
  6c:	40b2                	lw	ra,12(sp)
  6e:	4422                	lw	s0,8(sp)
  70:	4492                	lw	s1,4(sp)
  72:	4902                	lw	s2,0(sp)
  74:	0141                	add	sp,sp,16
  76:	8082                	ret

00000078 <.L121>:
  78:	00271593          	sll	a1,a4,0x2
  7c:	95b2                	add	a1,a1,a2
  7e:	95b6                	add	a1,a1,a3
  80:	0285d583          	lhu	a1,40(a1)
  84:	00970763          	beq	a4,s1,92 <.L119>
  88:	0087d303          	lhu	t1,8(a5)
  8c:	00b31363          	bne	t1,a1,92 <.L119>
  90:	4885                	li	a7,1

00000092 <.L119>:
  92:	01259363          	bne	a1,s2,98 <.L120>
  96:	4805                	li	a6,1

00000098 <.L120>:
  98:	0721                	add	a4,a4,8
  9a:	b775                	j	46 <.L118>

Disassembly of section .text.sc_recv_callback_broadcast:

00000000 <sc_recv_callback_broadcast>:
   0:	7119                	add	sp,sp,-128
   2:	d6ce                	sw	s3,108(sp)
   4:	89aa                	mv	s3,a0
   6:	dca2                	sw	s0,120(sp)
   8:	daa6                	sw	s1,116(sp)
   a:	d8ca                	sw	s2,112(sp)
   c:	d4d2                	sw	s4,104(sp)
   e:	d2d6                	sw	s5,100(sp)
  10:	d0da                	sw	s6,96(sp)
  12:	cae6                	sw	s9,84(sp)
  14:	c8ea                	sw	s10,80(sp)
  16:	c6ee                	sw	s11,76(sp)
  18:	de86                	sw	ra,124(sp)
  1a:	cede                	sw	s7,92(sp)
  1c:	cce2                	sw	s8,88(sp)
  1e:	00000097          	auipc	ra,0x0
  22:	000080e7          	jalr	ra # 1e <sc_recv_callback_broadcast+0x1e>
  26:	0149c403          	lbu	s0,20(s3)
  2a:	4ad1                	li	s5,20
  2c:	00c9a783          	lw	a5,12(s3)
  30:	03540ab3          	mul	s5,s0,s5
  34:	00000937          	lui	s2,0x0
  38:	00092c83          	lw	s9,0(s2) # 0 <sc_recv_callback_broadcast>
  3c:	ce3e                	sw	a5,28(sp)
  3e:	0159c783          	lbu	a5,21(s3)
  42:	8d2a                	mv	s10,a0
  44:	0089ab03          	lw	s6,8(s3)
  48:	d23e                	sw	a5,36(sp)
  4a:	0109ad83          	lw	s11,16(s3)
  4e:	0049da03          	lhu	s4,4(s3)
  52:	015c87b3          	add	a5,s9,s5
  56:	0007c703          	lbu	a4,0(a5)
  5a:	d03e                	sw	a5,32(sp)
  5c:	0029d483          	lhu	s1,2(s3)
  60:	0009c503          	lbu	a0,0(s3)
  64:	16071563          	bnez	a4,1ce <.L135>
  68:	5712                	lw	a4,36(sp)
  6a:	866e                	mv	a2,s11
  6c:	8852                	mv	a6,s4
  6e:	87a2                	mv	a5,s0
  70:	86da                	mv	a3,s6
  72:	85a6                	mv	a1,s1
  74:	00000097          	auipc	ra,0x0
  78:	000080e7          	jalr	ra # 74 <sc_recv_callback_broadcast+0x74>
  7c:	8daa                	mv	s11,a0
  7e:	4b81                	li	s7,0
  80:	12050863          	beqz	a0,1b0 <.L136>
  84:	5612                	lw	a2,36(sp)
  86:	85a2                	mv	a1,s0
  88:	450d                	li	a0,3
  8a:	00000097          	auipc	ra,0x0
  8e:	000080e7          	jalr	ra # 8a <sc_recv_callback_broadcast+0x8a>
  92:	000007b7          	lui	a5,0x0
  96:	0007a783          	lw	a5,0(a5) # 0 <sc_recv_callback_broadcast>
  9a:	4705                	li	a4,1
  9c:	000009b7          	lui	s3,0x0
  a0:	0007c683          	lbu	a3,0(a5)
  a4:	0ce68263          	beq	a3,a4,168 <.L137>
  a8:	00e78023          	sb	a4,0(a5)
  ac:	000007b7          	lui	a5,0x0
  b0:	00078793          	mv	a5,a5
  b4:	468d                	li	a3,3
  b6:	cbd4                	sw	a3,20(a5)
  b8:	00e78ca3          	sb	a4,25(a5) # 19 <sc_recv_callback_broadcast+0x19>
  bc:	0009a783          	lw	a5,0(s3) # 0 <sc_recv_callback_broadcast>
  c0:	c79d                	beqz	a5,ee <.L138>
  c2:	14c7aa83          	lw	s5,332(a5)
  c6:	020a8463          	beqz	s5,ee <.L138>
  ca:	00000b37          	lui	s6,0x0
  ce:	000b2583          	lw	a1,0(s6) # 0 <sc_recv_callback_broadcast>
  d2:	1547a783          	lw	a5,340(a5)
  d6:	ce2e                	sw	a1,28(sp)
  d8:	9782                	jalr	a5
  da:	000b2703          	lw	a4,0(s6)
  de:	45f2                	lw	a1,28(sp)
  e0:	00000637          	lui	a2,0x0
  e4:	86aa                	mv	a3,a0
  e6:	00060613          	mv	a2,a2
  ea:	450d                	li	a0,3
  ec:	9a82                	jalr	s5

000000ee <.L138>:
  ee:	0009a783          	lw	a5,0(s3)
  f2:	00000ab7          	lui	s5,0x0
  f6:	000a8513          	mv	a0,s5
  fa:	0e47a783          	lw	a5,228(a5)
  fe:	9782                	jalr	a5
 100:	0009a783          	lw	a5,0(s3)
 104:	000a8513          	mv	a0,s5
 108:	0e87a783          	lw	a5,232(a5)
 10c:	9782                	jalr	a5
 10e:	0009a783          	lw	a5,0(s3)
 112:	000005b7          	lui	a1,0x0
 116:	4601                	li	a2,0
 118:	0ec7a783          	lw	a5,236(a5)
 11c:	00058593          	mv	a1,a1
 120:	000a8513          	mv	a0,s5
 124:	9782                	jalr	a5
 126:	000007b7          	lui	a5,0x0
 12a:	0007c583          	lbu	a1,0(a5) # 0 <sc_recv_callback_broadcast>
 12e:	3e800713          	li	a4,1000
 132:	0009a783          	lw	a5,0(s3)
 136:	02e585b3          	mul	a1,a1,a4
 13a:	4601                	li	a2,0
 13c:	0e07a783          	lw	a5,224(a5)
 140:	000a8513          	mv	a0,s5
 144:	9782                	jalr	a5
 146:	0009a783          	lw	a5,0(s3)
 14a:	00000537          	lui	a0,0x0
 14e:	00052503          	lw	a0,0(a0) # 0 <sc_recv_callback_broadcast>
 152:	0b47a783          	lw	a5,180(a5)
 156:	577d                	li	a4,-1
 158:	4681                	li	a3,0
 15a:	4601                	li	a2,0
 15c:	4585                	li	a1,1
 15e:	9782                	jalr	a5
 160:	000007b7          	lui	a5,0x0
 164:	0007a023          	sw	zero,0(a5) # 0 <sc_recv_callback_broadcast>

00000168 <.L137>:
 168:	0009a783          	lw	a5,0(s3)
 16c:	c3a1                	beqz	a5,1ac <.L173>
 16e:	14c7a983          	lw	s3,332(a5)
 172:	02098d63          	beqz	s3,1ac <.L173>
 176:	00000ab7          	lui	s5,0x0
 17a:	000aa583          	lw	a1,0(s5) # 0 <sc_recv_callback_broadcast>
 17e:	1547a783          	lw	a5,340(a5)
 182:	ce2e                	sw	a1,28(sp)
 184:	9782                	jalr	a5
 186:	4751                	li	a4,20
 188:	02e40733          	mul	a4,s0,a4
 18c:	00092783          	lw	a5,0(s2)
 190:	45f2                	lw	a1,28(sp)
 192:	00000637          	lui	a2,0x0
 196:	86aa                	mv	a3,a0
 198:	8822                	mv	a6,s0
 19a:	00060613          	mv	a2,a2
 19e:	450d                	li	a0,3
 1a0:	97ba                	add	a5,a5,a4
 1a2:	0017c783          	lbu	a5,1(a5)
 1a6:	000aa703          	lw	a4,0(s5)
 1aa:	9982                	jalr	s3

000001ac <.L173>:
 1ac:	4b81                	li	s7,0
 1ae:	4d8d                	li	s11,3

000001b0 <.L136>:
 1b0:	4751                	li	a4,20
 1b2:	02e40433          	mul	s0,s0,a4
 1b6:	00092783          	lw	a5,0(s2)
 1ba:	97a2                	add	a5,a5,s0
 1bc:	01479623          	sh	s4,12(a5)
 1c0:	01a7a823          	sw	s10,16(a5)
 1c4:	017782a3          	sb	s7,5(a5)
 1c8:	00979723          	sh	s1,14(a5)
 1cc:	a005                	j	1ec <.L134>

000001ce <.L135>:
 1ce:	468d                	li	a3,3
 1d0:	4ed71c63          	bne	a4,a3,6c8 <.L174>
 1d4:	6b85                	lui	s7,0x1
 1d6:	a30b8593          	add	a1,s7,-1488 # a30 <.L174+0x368>
 1da:	4619                	li	a2,6
 1dc:	95e6                	add	a1,a1,s9
 1de:	855a                	mv	a0,s6
 1e0:	00000097          	auipc	ra,0x0
 1e4:	000080e7          	jalr	ra # 1e0 <.L135+0x12>
 1e8:	c115                	beqz	a0,20c <.L139>

000001ea <.L141>:
 1ea:	4d81                	li	s11,0

000001ec <.L134>:
 1ec:	50f6                	lw	ra,124(sp)
 1ee:	5466                	lw	s0,120(sp)
 1f0:	54d6                	lw	s1,116(sp)
 1f2:	5946                	lw	s2,112(sp)
 1f4:	59b6                	lw	s3,108(sp)
 1f6:	5a26                	lw	s4,104(sp)
 1f8:	5a96                	lw	s5,100(sp)
 1fa:	5b06                	lw	s6,96(sp)
 1fc:	4bf6                	lw	s7,92(sp)
 1fe:	4c66                	lw	s8,88(sp)
 200:	4cd6                	lw	s9,84(sp)
 202:	4d46                	lw	s10,80(sp)
 204:	856e                	mv	a0,s11
 206:	4db6                	lw	s11,76(sp)
 208:	6109                	add	sp,sp,128
 20a:	8082                	ret

0000020c <.L139>:
 20c:	4572                	lw	a0,28(sp)
 20e:	000005b7          	lui	a1,0x0
 212:	4619                	li	a2,6
 214:	00058593          	mv	a1,a1
 218:	00000097          	auipc	ra,0x0
 21c:	000080e7          	jalr	ra # 218 <.L139+0xc>
 220:	f569                	bnez	a0,1ea <.L141>
 222:	aeeb8593          	add	a1,s7,-1298
 226:	856e                	mv	a0,s11
 228:	4619                	li	a2,6
 22a:	95e6                	add	a1,a1,s9
 22c:	00000097          	auipc	ra,0x0
 230:	000080e7          	jalr	ra # 22c <.L139+0x20>
 234:	8daa                	mv	s11,a0
 236:	f955                	bnez	a0,1ea <.L141>
 238:	015c87b3          	add	a5,s9,s5
 23c:	4b98                	lw	a4,16(a5)
 23e:	19000613          	li	a2,400
 242:	4c01                	li	s8,0
 244:	40ed05b3          	sub	a1,s10,a4
 248:	00b67963          	bgeu	a2,a1,25a <.L142>
 24c:	9be6                	add	s7,s7,s9
 24e:	a37bcc03          	lbu	s8,-1481(s7)
 252:	000c0463          	beqz	s8,25a <.L142>
 256:	01a73c33          	sltu	s8,a4,s10

0000025a <.L142>:
 25a:	015c87b3          	add	a5,s9,s5
 25e:	00c7d703          	lhu	a4,12(a5)
 262:	3e700613          	li	a2,999
 266:	40ea0733          	sub	a4,s4,a4
 26a:	0752                	sll	a4,a4,0x14
 26c:	8351                	srl	a4,a4,0x14
 26e:	14e66363          	bltu	a2,a4,3b4 <.L143>
 272:	12070963          	beqz	a4,3a4 <.L144>

00000276 <.L146>:
 276:	5782                	lw	a5,32(sp)
 278:	0017c783          	lbu	a5,1(a5)
 27c:	f697f7e3          	bgeu	a5,s1,1ea <.L141>
 280:	40f487b3          	sub	a5,s1,a5
 284:	01079493          	sll	s1,a5,0x10
 288:	80c1                	srl	s1,s1,0x10
 28a:	8526                	mv	a0,s1
 28c:	00000097          	auipc	ra,0x0
 290:	000080e7          	jalr	ra # 28c <.L146+0x16>
 294:	2e050d63          	beqz	a0,58e <.L147>
 298:	8526                	mv	a0,s1
 29a:	00000097          	auipc	ra,0x0
 29e:	000080e7          	jalr	ra # 29a <.L146+0x24>
 2a2:	00092783          	lw	a5,0(s2)
 2a6:	01051b93          	sll	s7,a0,0x10
 2aa:	010bdb93          	srl	s7,s7,0x10
 2ae:	97d6                	add	a5,a5,s5
 2b0:	4721                	li	a4,8
 2b2:	0027ca83          	lbu	s5,2(a5)
 2b6:	8caa                	mv	s9,a0
 2b8:	f37769e3          	bltu	a4,s7,1ea <.L141>
 2bc:	015b8733          	add	a4,s7,s5
 2c0:	01071d93          	sll	s11,a4,0x10
 2c4:	0057c703          	lbu	a4,5(a5)
 2c8:	010ddd93          	srl	s11,s11,0x10
 2cc:	00e56a63          	bltu	a0,a4,2e0 <.L148>
 2d0:	00e51663          	bne	a0,a4,2dc <.L149>
 2d4:	00e7d703          	lhu	a4,14(a5)
 2d8:	00971463          	bne	a4,s1,2e0 <.L148>

000002dc <.L149>:
 2dc:	020c0963          	beqz	s8,30e <.L150>

000002e0 <.L148>:
 2e0:	0087c703          	lbu	a4,8(a5)
 2e4:	cf01                	beqz	a4,2fc <.L151>
 2e6:	00c7d583          	lhu	a1,12(a5)
 2ea:	577d                	li	a4,-1
 2ec:	86d6                	mv	a3,s5
 2ee:	0ffa7613          	zext.b	a2,s4
 2f2:	8522                	mv	a0,s0
 2f4:	00000097          	auipc	ra,0x0
 2f8:	000080e7          	jalr	ra # 2f4 <.L148+0x14>

000002fc <.L151>:
 2fc:	4751                	li	a4,20
 2fe:	02e40733          	mul	a4,s0,a4
 302:	00092783          	lw	a5,0(s2)
 306:	97ba                	add	a5,a5,a4
 308:	4705                	li	a4,1
 30a:	00e78423          	sb	a4,8(a5)

0000030e <.L150>:
 30e:	00ad8793          	add	a5,s11,10
 312:	078a                	sll	a5,a5,0x2
 314:	9ae6                	add	s5,s5,s9
 316:	d63e                	sw	a5,44(sp)
 318:	0ffaf793          	zext.b	a5,s5
 31c:	d43e                	sw	a5,40(sp)
 31e:	000007b7          	lui	a5,0x0
 322:	00078793          	mv	a5,a5
 326:	da3e                	sw	a5,52(sp)
 328:	fffd8793          	add	a5,s11,-1
 32c:	07c2                	sll	a5,a5,0x10
 32e:	83c1                	srl	a5,a5,0x10
 330:	dc3e                	sw	a5,56(sp)

00000332 <.L168>:
 332:	4751                	li	a4,20
 334:	02e40ab3          	mul	s5,s0,a4
 338:	00092503          	lw	a0,0(s2)
 33c:	01550833          	add	a6,a0,s5
 340:	00884783          	lbu	a5,8(a6)
 344:	c3d9                	beqz	a5,3ca <.L152>
 346:	47a5                	li	a5,9
 348:	02f407b3          	mul	a5,s0,a5
 34c:	27ac8713          	add	a4,s9,634
 350:	4672                	lw	a2,28(sp)
 352:	86a2                	mv	a3,s0
 354:	85da                	mv	a1,s6
 356:	97ba                	add	a5,a5,a4
 358:	078a                	sll	a5,a5,0x2
 35a:	8726                	mv	a4,s1
 35c:	953e                	add	a0,a0,a5
 35e:	00000097          	auipc	ra,0x0
 362:	000080e7          	jalr	ra # 35e <.L168+0x2c>
 366:	00092583          	lw	a1,0(s2)
 36a:	4785                	li	a5,1
 36c:	4685                	li	a3,1
 36e:	01558733          	add	a4,a1,s5
 372:	00874603          	lbu	a2,8(a4)
 376:	00f60863          	beq	a2,a5,386 <.L153>
 37a:	00c75683          	lhu	a3,12(a4)
 37e:	40da06b3          	sub	a3,s4,a3
 382:	0ff6f693          	zext.b	a3,a3

00000386 <.L153>:
 386:	47a5                	li	a5,9
 388:	02f407b3          	mul	a5,s0,a5
 38c:	0605                	add	a2,a2,1 # 1 <sc_recv_callback_broadcast+0x1>
 38e:	97e6                	add	a5,a5,s9
 390:	27878793          	add	a5,a5,632 # 278 <.L146+0x2>
 394:	078a                	sll	a5,a5,0x2
 396:	95be                	add	a1,a1,a5
 398:	00d58523          	sb	a3,10(a1) # a <sc_recv_callback_broadcast+0xa>
 39c:	00c70423          	sb	a2,8(a4)

000003a0 <.L178>:
 3a0:	4d91                	li	s11,4
 3a2:	b539                	j	1b0 <.L136>

000003a4 <.L144>:
 3a4:	4751                	li	a4,20
 3a6:	02e40733          	mul	a4,s0,a4
 3aa:	00ec87b3          	add	a5,s9,a4
 3ae:	01a7a823          	sw	s10,16(a5)
 3b2:	bd2d                	j	1ec <.L134>

000003b4 <.L143>:
 3b4:	4751                	li	a4,20
 3b6:	02e40733          	mul	a4,s0,a4
 3ba:	00ec87b3          	add	a5,s9,a4
 3be:	01a7a823          	sw	s10,16(a5)
 3c2:	ea0c1ae3          	bnez	s8,276 <.L146>
 3c6:	4b81                	li	s7,0
 3c8:	b3e5                	j	1b0 <.L136>

000003ca <.L152>:
 3ca:	00384703          	lbu	a4,3(a6)
 3ce:	56a2                	lw	a3,40(sp)
 3d0:	00c85603          	lhu	a2,12(a6)
 3d4:	00a85503          	lhu	a0,10(a6)
 3d8:	87a2                	mv	a5,s0
 3da:	85d2                	mv	a1,s4
 3dc:	d042                	sw	a6,32(sp)
 3de:	00000097          	auipc	ra,0x0
 3e2:	000080e7          	jalr	ra # 3de <.L152+0x14>
 3e6:	8c2a                	mv	s8,a0
 3e8:	dd45                	beqz	a0,3a0 <.L178>
 3ea:	5802                	lw	a6,32(sp)
 3ec:	00784783          	lbu	a5,7(a6)
 3f0:	00f57463          	bgeu	a0,a5,3f8 <.L154>
 3f4:	00a803a3          	sb	a0,7(a6)

000003f8 <.L154>:
 3f8:	57d2                	lw	a5,52(sp)
 3fa:	01481523          	sh	s4,10(a6)
 3fe:	0187c703          	lbu	a4,24(a5)
 402:	4785                	li	a5,1
 404:	04f71d63          	bne	a4,a5,45e <.L155>
 408:	000007b7          	lui	a5,0x0
 40c:	0007a783          	lw	a5,0(a5) # 0 <sc_recv_callback_broadcast>
 410:	c7b9                	beqz	a5,45e <.L155>
 412:	14c7aa83          	lw	s5,332(a5)
 416:	040a8463          	beqz	s5,45e <.L155>
 41a:	00000737          	lui	a4,0x0
 41e:	00072583          	lw	a1,0(a4) # 0 <sc_recv_callback_broadcast>
 422:	1547a783          	lw	a5,340(a5)
 426:	d02e                	sw	a1,32(sp)
 428:	9782                	jalr	a5
 42a:	4751                	li	a4,20
 42c:	02e40733          	mul	a4,s0,a4
 430:	00092783          	lw	a5,0(s2)
 434:	5582                	lw	a1,32(sp)
 436:	00000637          	lui	a2,0x0
 43a:	86aa                	mv	a3,a0
 43c:	88e2                	mv	a7,s8
 43e:	8866                	mv	a6,s9
 440:	00060613          	mv	a2,a2
 444:	450d                	li	a0,3
 446:	97ba                	add	a5,a5,a4
 448:	0027c783          	lbu	a5,2(a5)
 44c:	00000737          	lui	a4,0x0
 450:	00072703          	lw	a4,0(a4) # 0 <sc_recv_callback_broadcast>
 454:	c422                	sw	s0,8(sp)
 456:	c226                	sw	s1,4(sp)
 458:	c052                	sw	s4,0(sp)
 45a:	838d                	srl	a5,a5,0x3
 45c:	9a82                	jalr	s5

0000045e <.L155>:
 45e:	5762                	lw	a4,56(sp)
 460:	13600793          	li	a5,310
 464:	d8e7e3e3          	bltu	a5,a4,1ea <.L141>
 468:	4751                	li	a4,20
 46a:	02e40733          	mul	a4,s0,a4
 46e:	00092783          	lw	a5,0(s2)
 472:	4a81                	li	s5,0
 474:	97ba                	add	a5,a5,a4
 476:	5722                	lw	a4,40(sp)
 478:	00e781a3          	sb	a4,3(a5)
 47c:	57b2                	lw	a5,44(sp)
 47e:	d03e                	sw	a5,32(sp)
 480:	001c0793          	add	a5,s8,1
 484:	d83e                	sw	a5,48(sp)

00000486 <.L169>:
 486:	5782                	lw	a5,32(sp)
 488:	00092503          	lw	a0,0(s2)
 48c:	4672                	lw	a2,28(sp)
 48e:	0ffaf413          	zext.b	s0,s5
 492:	8726                	mv	a4,s1
 494:	86a2                	mv	a3,s0
 496:	953e                	add	a0,a0,a5
 498:	85da                	mv	a1,s6
 49a:	00000097          	auipc	ra,0x0
 49e:	000080e7          	jalr	ra # 49a <.L169+0x14>
 4a2:	13800793          	li	a5,312
 4a6:	02fa8733          	mul	a4,s5,a5
 4aa:	00092803          	lw	a6,0(s2)
 4ae:	976e                	add	a4,a4,s11
 4b0:	070a                	sll	a4,a4,0x2
 4b2:	00e80633          	add	a2,a6,a4
 4b6:	02a64683          	lbu	a3,42(a2) # 2a <sc_recv_callback_broadcast+0x2a>
 4ba:	1986fa63          	bgeu	a3,s8,64e <.L161>
 4be:	03860523          	sb	s8,42(a2)
 4c2:	c11d                	beqz	a0,4e8 <.L163>
 4c4:	47d1                	li	a5,20
 4c6:	02fa8733          	mul	a4,s5,a5
 4ca:	4785                	li	a5,1
 4cc:	4672                	lw	a2,28(sp)
 4ce:	86a2                	mv	a3,s0
 4d0:	85da                	mv	a1,s6
 4d2:	9742                	add	a4,a4,a6
 4d4:	00f70323          	sb	a5,6(a4)
 4d8:	5782                	lw	a5,32(sp)
 4da:	8726                	mv	a4,s1
 4dc:	00f80533          	add	a0,a6,a5
 4e0:	00000097          	auipc	ra,0x0
 4e4:	000080e7          	jalr	ra # 4e0 <.L169+0x5a>

000004e8 <.L163>:
 4e8:	5782                	lw	a5,32(sp)
 4ea:	4e078793          	add	a5,a5,1248
 4ee:	d03e                	sw	a5,32(sp)
 4f0:	4785                	li	a5,1
 4f2:	14fa9c63          	bne	s5,a5,64a <.L182>
 4f6:	0149c403          	lbu	s0,20(s3)
 4fa:	4d91                	li	s11,4

000004fc <.L160>:
 4fc:	47d1                	li	a5,20
 4fe:	02f407b3          	mul	a5,s0,a5
 502:	00092703          	lw	a4,0(s2)
 506:	97ba                	add	a5,a5,a4
 508:	0047c583          	lbu	a1,4(a5)
 50c:	0037c603          	lbu	a2,3(a5)
 510:	86ae                	mv	a3,a1
 512:	00c5f363          	bgeu	a1,a2,518 <.L170>
 516:	86b2                	mv	a3,a2

00000518 <.L170>:
 518:	6a85                	lui	s5,0x1
 51a:	00d78223          	sb	a3,4(a5)
 51e:	9756                	add	a4,a4,s5
 520:	a3774703          	lbu	a4,-1481(a4)
 524:	0ff6f613          	zext.b	a2,a3
 528:	00371693          	sll	a3,a4,0x3
 52c:	c8d642e3          	blt	a2,a3,1b0 <.L136>
 530:	c80700e3          	beqz	a4,1b0 <.L136>
 534:	0067c783          	lbu	a5,6(a5)
 538:	c6078ce3          	beqz	a5,1b0 <.L136>
 53c:	8522                	mv	a0,s0
 53e:	00000097          	auipc	ra,0x0
 542:	000080e7          	jalr	ra # 53e <.L170+0x26>
 546:	c60505e3          	beqz	a0,1b0 <.L136>
 54a:	47d1                	li	a5,20
 54c:	02f407b3          	mul	a5,s0,a5
 550:	00092503          	lw	a0,0(s2)
 554:	aeea8a93          	add	s5,s5,-1298 # aee <.L174+0x426>
 558:	4619                	li	a2,6
 55a:	97aa                	add	a5,a5,a0
 55c:	00078323          	sb	zero,6(a5)
 560:	0109a583          	lw	a1,16(s3)
 564:	9556                	add	a0,a0,s5
 566:	00000097          	auipc	ra,0x0
 56a:	000080e7          	jalr	ra # 566 <.L170+0x4e>
 56e:	8522                	mv	a0,s0
 570:	00000097          	auipc	ra,0x0
 574:	000080e7          	jalr	ra # 570 <.L170+0x58>
 578:	c2051ce3          	bnez	a0,1b0 <.L136>
 57c:	5612                	lw	a2,36(sp)
 57e:	85a2                	mv	a1,s0
 580:	451d                	li	a0,7
 582:	00000097          	auipc	ra,0x0
 586:	000080e7          	jalr	ra # 582 <.L170+0x6a>
 58a:	4d99                	li	s11,6
 58c:	b185                	j	1ec <.L134>

0000058e <.L147>:
 58e:	8526                	mv	a0,s1
 590:	00000097          	auipc	ra,0x0
 594:	000080e7          	jalr	ra # 590 <.L147+0x2>
 598:	c155                	beqz	a0,63c <.L156>

0000059a <.L159>:
 59a:	8526                	mv	a0,s1
 59c:	00000097          	auipc	ra,0x0
 5a0:	000080e7          	jalr	ra # 59c <.L159+0x2>
 5a4:	00092783          	lw	a5,0(s2)
 5a8:	8b2a                	mv	s6,a0
 5aa:	97d6                	add	a5,a5,s5
 5ac:	0087c703          	lbu	a4,8(a5)
 5b0:	cf09                	beqz	a4,5ca <.L158>
 5b2:	0027c683          	lbu	a3,2(a5)
 5b6:	00c7d583          	lhu	a1,12(a5)
 5ba:	872a                	mv	a4,a0
 5bc:	0ffa7613          	zext.b	a2,s4
 5c0:	8522                	mv	a0,s0
 5c2:	00000097          	auipc	ra,0x0
 5c6:	000080e7          	jalr	ra # 5c2 <.L159+0x28>

000005ca <.L158>:
 5ca:	00092783          	lw	a5,0(s2)
 5ce:	06400713          	li	a4,100
 5d2:	97d6                	add	a5,a5,s5
 5d4:	016781a3          	sb	s6,3(a5)
 5d8:	01678123          	sb	s6,2(a5)
 5dc:	01479523          	sh	s4,10(a5)
 5e0:	00e783a3          	sb	a4,7(a5)
 5e4:	000007b7          	lui	a5,0x0
 5e8:	0187c703          	lbu	a4,24(a5) # 18 <sc_recv_callback_broadcast+0x18>
 5ec:	4785                	li	a5,1
 5ee:	04f71463          	bne	a4,a5,636 <.L181>
 5f2:	000007b7          	lui	a5,0x0
 5f6:	0007a783          	lw	a5,0(a5) # 0 <sc_recv_callback_broadcast>
 5fa:	cf95                	beqz	a5,636 <.L181>
 5fc:	14c7aa83          	lw	s5,332(a5)
 600:	020a8b63          	beqz	s5,636 <.L181>
 604:	00000bb7          	lui	s7,0x0
 608:	000ba583          	lw	a1,0(s7) # 0 <sc_recv_callback_broadcast>
 60c:	1547a783          	lw	a5,340(a5)
 610:	ce2e                	sw	a1,28(sp)
 612:	9782                	jalr	a5
 614:	000ba703          	lw	a4,0(s7)
 618:	45f2                	lw	a1,28(sp)
 61a:	003b5793          	srl	a5,s6,0x3
 61e:	00000637          	lui	a2,0x0
 622:	86aa                	mv	a3,a0
 624:	c022                	sw	s0,0(sp)
 626:	88a6                	mv	a7,s1
 628:	8852                	mv	a6,s4
 62a:	0ff7f793          	zext.b	a5,a5
 62e:	00060613          	mv	a2,a2
 632:	450d                	li	a0,3
 634:	9a82                	jalr	s5

00000636 <.L181>:
 636:	4b81                	li	s7,0
 638:	4d8d                	li	s11,3
 63a:	b5c9                	j	4fc <.L160>

0000063c <.L156>:
 63c:	8526                	mv	a0,s1
 63e:	00000097          	auipc	ra,0x0
 642:	000080e7          	jalr	ra # 63e <.L156+0x2>
 646:	f931                	bnez	a0,59a <.L159>
 648:	b64d                	j	1ea <.L141>

0000064a <.L182>:
 64a:	4a85                	li	s5,1
 64c:	bd2d                	j	486 <.L169>

0000064e <.L161>:
 64e:	03869b63          	bne	a3,s8,684 <.L164>
 652:	e509                	bnez	a0,65c <.L165>
 654:	57c2                	lw	a5,48(sp)
 656:	02f60523          	sb	a5,42(a2) # 2a <sc_recv_callback_broadcast+0x2a>
 65a:	b579                	j	4e8 <.L163>

0000065c <.L165>:
 65c:	8626                	mv	a2,s1
 65e:	85ee                	mv	a1,s11
 660:	8556                	mv	a0,s5
 662:	de3a                	sw	a4,60(sp)
 664:	00000097          	auipc	ra,0x0
 668:	000080e7          	jalr	ra # 664 <.L165+0x8>
 66c:	e6051ee3          	bnez	a0,4e8 <.L163>
 670:	00092683          	lw	a3,0(s2)
 674:	5772                	lw	a4,60(sp)
 676:	9736                	add	a4,a4,a3
 678:	02a74683          	lbu	a3,42(a4)
 67c:	8285                	srl	a3,a3,0x1
 67e:	02d70523          	sb	a3,42(a4)
 682:	b59d                	j	4e8 <.L163>

00000684 <.L164>:
 684:	0149c703          	lbu	a4,20(s3)
 688:	e68710e3          	bne	a4,s0,4e8 <.L163>
 68c:	47d1                	li	a5,20
 68e:	02fa8733          	mul	a4,s5,a5
 692:	c911                	beqz	a0,6a6 <.L167>
 694:	9742                	add	a4,a4,a6
 696:	00874683          	lbu	a3,8(a4)
 69a:	e40697e3          	bnez	a3,4e8 <.L163>
 69e:	4785                	li	a5,1
 6a0:	00f70423          	sb	a5,8(a4)
 6a4:	b179                	j	332 <.L168>

000006a6 <.L167>:
 6a6:	983a                	add	a6,a6,a4
 6a8:	00784703          	lbu	a4,7(a6)
 6ac:	03100793          	li	a5,49
 6b0:	e2e7fce3          	bgeu	a5,a4,4e8 <.L163>
 6b4:	41868633          	sub	a2,a3,s8
 6b8:	47a5                	li	a5,9
 6ba:	e2c7c7e3          	blt	a5,a2,4e8 <.L163>
 6be:	9736                	add	a4,a4,a3
 6c0:	8705                	sra	a4,a4,0x1
 6c2:	00e803a3          	sb	a4,7(a6)
 6c6:	b50d                	j	4e8 <.L163>

000006c8 <.L174>:
 6c8:	4b81                	li	s7,0
 6ca:	4d81                	li	s11,0
 6cc:	b4d5                	j	1b0 <.L136>

sc_sniffer.o:     file format elf32-littleriscv


Disassembly of section .text.esp_smartconfig_fast_mode_local:

00000000 <esp_smartconfig_fast_mode_local>:
   0:	03200793          	li	a5,50
   4:	e119                	bnez	a0,a <.L2>
   6:	06400793          	li	a5,100

0000000a <.L2>:
   a:	00000737          	lui	a4,0x0
   e:	00f70023          	sb	a5,0(a4) # 0 <esp_smartconfig_fast_mode_local>
  12:	4501                	li	a0,0
  14:	8082                	ret

Disassembly of section .text.sc_smartconfig_restart:

00000000 <sc_smartconfig_restart>:
   0:	1101                	add	sp,sp,-32
   2:	000007b7          	lui	a5,0x0
   6:	c42a                	sw	a0,8(sp)
   8:	00078793          	mv	a5,a5
   c:	0048                	add	a0,sp,4
   e:	4581                	li	a1,0
  10:	ce06                	sw	ra,28(sp)
  12:	c23e                	sw	a5,4(sp)
  14:	c602                	sw	zero,12(sp)
  16:	00000097          	auipc	ra,0x0
  1a:	000080e7          	jalr	ra # 16 <sc_smartconfig_restart+0x16>
  1e:	40f2                	lw	ra,28(sp)
  20:	6105                	add	sp,sp,32
  22:	8082                	ret

Disassembly of section .text.sc_channel_timer_cb:

00000000 <sc_channel_timer_cb>:
   0:	1101                	add	sp,sp,-32
   2:	000007b7          	lui	a5,0x0
   6:	c42a                	sw	a0,8(sp)
   8:	00078793          	mv	a5,a5
   c:	0048                	add	a0,sp,4
   e:	4581                	li	a1,0
  10:	ce06                	sw	ra,28(sp)
  12:	c23e                	sw	a5,4(sp)
  14:	c602                	sw	zero,12(sp)
  16:	00000097          	auipc	ra,0x0
  1a:	000080e7          	jalr	ra # 16 <sc_channel_timer_cb+0x16>
  1e:	40f2                	lw	ra,28(sp)
  20:	6105                	add	sp,sp,32
  22:	8082                	ret

Disassembly of section .text.sc_PackCallback:

00000000 <sc_PackCallback>:
   0:	00000737          	lui	a4,0x0
   4:	00070713          	mv	a4,a4
   8:	01074783          	lbu	a5,16(a4) # 10 <sc_PackCallback+0x10>
   c:	4605                	li	a2,1
   e:	0ac78e63          	beq	a5,a2,ca <.L24>
  12:	000007b7          	lui	a5,0x0
  16:	0007a783          	lw	a5,0(a5) # 0 <sc_PackCallback>
  1a:	480d                	li	a6,3
  1c:	01079663          	bne	a5,a6,28 <.L10>
  20:	00000317          	auipc	t1,0x0
  24:	00030067          	jr	t1 # 20 <sc_PackCallback+0x20>

00000028 <.L10>:
  28:	01974883          	lbu	a7,25(a4)
  2c:	06089f63          	bnez	a7,aa <.L11>
  30:	1141                	add	sp,sp,-16
  32:	c422                	sw	s0,8(sp)
  34:	c606                	sw	ra,12(sp)
  36:	842a                	mv	s0,a0
  38:	03059e63          	bne	a1,a6,74 <.L12>
  3c:	4154                	lw	a3,4(a0)
  3e:	08000737          	lui	a4,0x8000
  42:	8f75                	and	a4,a4,a3
  44:	cf11                	beqz	a4,60 <.L13>
  46:	5554                	lw	a3,44(a0)
  48:	6605                	lui	a2,0x1
  4a:	167d                	add	a2,a2,-1 # fff <.L172+0xb6f>
  4c:	00c6f733          	and	a4,a3,a2
  50:	1771                	add	a4,a4,-4 # 7fffffc <.L172+0x7fffb6c>
  52:	0742                	sll	a4,a4,0x10
  54:	8341                	srl	a4,a4,0x10
  56:	8f71                	and	a4,a4,a2
  58:	767d                	lui	a2,0xfffff
  5a:	8ef1                	and	a3,a3,a2
  5c:	8ed9                	or	a3,a3,a4
  5e:	d554                	sw	a3,44(a0)

00000060 <.L13>:
  60:	9bf5                	and	a5,a5,-3
  62:	e3a5                	bnez	a5,c2 <.L8>
  64:	8522                	mv	a0,s0
  66:	4422                	lw	s0,8(sp)
  68:	40b2                	lw	ra,12(sp)
  6a:	0141                	add	sp,sp,16
  6c:	00000317          	auipc	t1,0x0
  70:	00030067          	jr	t1 # 6c <.L13+0xc>

00000074 <.L12>:
  74:	4709                	li	a4,2
  76:	04e59663          	bne	a1,a4,c2 <.L8>
  7a:	02c78163          	beq	a5,a2,9c <.L15>
  7e:	00b78a63          	beq	a5,a1,92 <.L16>
  82:	e3a1                	bnez	a5,c2 <.L8>
  84:	4422                	lw	s0,8(sp)
  86:	40b2                	lw	ra,12(sp)
  88:	0141                	add	sp,sp,16
  8a:	00000317          	auipc	t1,0x0
  8e:	00030067          	jr	t1 # 8a <.L12+0x16>

00000092 <.L16>:
  92:	00000097          	auipc	ra,0x0
  96:	000080e7          	jalr	ra # 92 <.L16>
  9a:	8522                	mv	a0,s0

0000009c <.L15>:
  9c:	4422                	lw	s0,8(sp)
  9e:	40b2                	lw	ra,12(sp)
  a0:	0141                	add	sp,sp,16
  a2:	00000317          	auipc	t1,0x0
  a6:	00030067          	jr	t1 # a2 <.L15+0x6>

000000aa <.L11>:
  aa:	4b5c                	lw	a5,20(a4)
  ac:	e789                	bnez	a5,b6 <.L19>
  ae:	00000317          	auipc	t1,0x0
  b2:	00030067          	jr	t1 # ae <.L11+0x4>

000000b6 <.L19>:
  b6:	00c79a63          	bne	a5,a2,ca <.L24>
  ba:	00000317          	auipc	t1,0x0
  be:	00030067          	jr	t1 # ba <.L19+0x4>

000000c2 <.L8>:
  c2:	40b2                	lw	ra,12(sp)
  c4:	4422                	lw	s0,8(sp)
  c6:	0141                	add	sp,sp,16
  c8:	8082                	ret

000000ca <.L24>:
  ca:	8082                	ret

Disassembly of section .text.sc_init_sniffer_glob:

00000000 <sc_init_sniffer_glob>:
   0:	1101                	add	sp,sp,-32
   2:	cc22                	sw	s0,24(sp)
   4:	00000437          	lui	s0,0x0
   8:	00040793          	mv	a5,s0
   c:	439c                	lw	a5,0(a5)
   e:	ce06                	sw	ra,28(sp)
  10:	ca26                	sw	s1,20(sp)
  12:	00040413          	mv	s0,s0
  16:	ef91                	bnez	a5,32 <.L28>
  18:	000007b7          	lui	a5,0x0
  1c:	0007a783          	lw	a5,0(a5) # 0 <sc_init_sniffer_glob>
  20:	4585                	li	a1,1
  22:	05c00513          	li	a0,92
  26:	1707a783          	lw	a5,368(a5)
  2a:	9782                	jalr	a5
  2c:	c008                	sw	a0,0(s0)
  2e:	04052c23          	sw	zero,88(a0)

00000032 <.L28>:
  32:	401c                	lw	a5,0(s0)
  34:	ebb1                	bnez	a5,88 <.L29>
  36:	000007b7          	lui	a5,0x0
  3a:	0007a783          	lw	a5,0(a5) # 0 <sc_init_sniffer_glob>
  3e:	cf85                	beqz	a5,76 <.L30>
  40:	14c7a483          	lw	s1,332(a5)
  44:	c88d                	beqz	s1,76 <.L30>
  46:	00000437          	lui	s0,0x0
  4a:	00040413          	mv	s0,s0
  4e:	400c                	lw	a1,0(s0)
  50:	1547a783          	lw	a5,340(a5)
  54:	c62e                	sw	a1,12(sp)
  56:	9782                	jalr	a5
  58:	4018                	lw	a4,0(s0)
  5a:	45b2                	lw	a1,12(sp)
  5c:	000007b7          	lui	a5,0x0
  60:	00000637          	lui	a2,0x0
  64:	86aa                	mv	a3,a0
  66:	04900813          	li	a6,73
  6a:	00078793          	mv	a5,a5
  6e:	00060613          	mv	a2,a2
  72:	4505                	li	a0,1
  74:	9482                	jalr	s1

00000076 <.L30>:
  76:	4462                	lw	s0,24(sp)
  78:	40f2                	lw	ra,28(sp)
  7a:	44d2                	lw	s1,20(sp)
  7c:	4501                	li	a0,0
  7e:	6105                	add	sp,sp,32
  80:	00000317          	auipc	t1,0x0
  84:	00030067          	jr	t1 # 80 <.L30+0xa>

00000088 <.L29>:
  88:	40f2                	lw	ra,28(sp)
  8a:	4462                	lw	s0,24(sp)
  8c:	00000737          	lui	a4,0x0
  90:	00f72023          	sw	a5,0(a4) # 0 <sc_init_sniffer_glob>
  94:	44d2                	lw	s1,20(sp)
  96:	6105                	add	sp,sp,32
  98:	8082                	ret

Disassembly of section .text.sc_free_sniffer_glob:

00000000 <sc_free_sniffer_glob>:
   0:	000007b7          	lui	a5,0x0
   4:	00078713          	mv	a4,a5
   8:	1141                	add	sp,sp,-16
   a:	4308                	lw	a0,0(a4)
   c:	c422                	sw	s0,8(sp)
   e:	00000437          	lui	s0,0x0
  12:	c226                	sw	s1,4(sp)
  14:	c04a                	sw	s2,0(sp)
  16:	c606                	sw	ra,12(sp)
  18:	00078493          	mv	s1,a5
  1c:	00040413          	mv	s0,s0
  20:	00000937          	lui	s2,0x0

00000024 <.L39>:
  24:	e919                	bnez	a0,3a <.L40>
  26:	40b2                	lw	ra,12(sp)
  28:	00042023          	sw	zero,0(s0) # 0 <sc_free_sniffer_glob>
  2c:	4422                	lw	s0,8(sp)
  2e:	0004a023          	sw	zero,0(s1)
  32:	4902                	lw	s2,0(sp)
  34:	4492                	lw	s1,4(sp)
  36:	0141                	add	sp,sp,16
  38:	8082                	ret

0000003a <.L40>:
  3a:	4d3c                	lw	a5,88(a0)
  3c:	c01c                	sw	a5,0(s0)
  3e:	00092783          	lw	a5,0(s2) # 0 <sc_free_sniffer_glob>
  42:	0b07a783          	lw	a5,176(a5) # b0 <.L11+0x6>
  46:	9782                	jalr	a5
  48:	4008                	lw	a0,0(s0)
  4a:	bfe9                	j	24 <.L39>

Disassembly of section .text.esp_smartconfig_stop_local:

00000000 <esp_smartconfig_stop_local>:
   0:	000007b7          	lui	a5,0x0
   4:	00078793          	mv	a5,a5
   8:	4bd8                	lw	a4,20(a5)
   a:	1101                	add	sp,sp,-32
   c:	ce06                	sw	ra,28(sp)
   e:	cc22                	sw	s0,24(sp)
  10:	ca26                	sw	s1,20(sp)
  12:	c84a                	sw	s2,16(sp)
  14:	c64e                	sw	s3,12(sp)
  16:	e375                	bnez	a4,fa <.L43>
  18:	4705                	li	a4,1
  1a:	00000437          	lui	s0,0x0
  1e:	00e79823          	sh	a4,16(a5) # 10 <esp_smartconfig_stop_local+0x10>
  22:	00078923          	sb	zero,18(a5)
  26:	00042783          	lw	a5,0(s0) # 0 <esp_smartconfig_stop_local>
  2a:	000006b7          	lui	a3,0x0
  2e:	00000937          	lui	s2,0x0
  32:	0e47a783          	lw	a5,228(a5)
  36:	00e68023          	sb	a4,0(a3) # 0 <esp_smartconfig_stop_local>
  3a:	4609                	li	a2,2
  3c:	000006b7          	lui	a3,0x0
  40:	00090513          	mv	a0,s2
  44:	00c68023          	sb	a2,0(a3) # 0 <esp_smartconfig_stop_local>
  48:	9782                	jalr	a5
  4a:	00042783          	lw	a5,0(s0)
  4e:	000004b7          	lui	s1,0x0
  52:	00048513          	mv	a0,s1
  56:	0e47a783          	lw	a5,228(a5)
  5a:	9782                	jalr	a5
  5c:	00042783          	lw	a5,0(s0)
  60:	00090513          	mv	a0,s2
  64:	0e87a783          	lw	a5,232(a5)
  68:	9782                	jalr	a5
  6a:	00042783          	lw	a5,0(s0)
  6e:	00048513          	mv	a0,s1
  72:	000004b7          	lui	s1,0x0
  76:	0e87a783          	lw	a5,232(a5)
  7a:	9782                	jalr	a5
  7c:	00042783          	lw	a5,0(s0)
  80:	00048513          	mv	a0,s1
  84:	0e47a783          	lw	a5,228(a5)
  88:	9782                	jalr	a5
  8a:	00042783          	lw	a5,0(s0)
  8e:	00048513          	mv	a0,s1
  92:	0e87a783          	lw	a5,232(a5)
  96:	9782                	jalr	a5
  98:	000007b7          	lui	a5,0x0
  9c:	4501                	li	a0,0
  9e:	00078023          	sb	zero,0(a5) # 0 <esp_smartconfig_stop_local>
  a2:	00000097          	auipc	ra,0x0
  a6:	000080e7          	jalr	ra # a2 <esp_smartconfig_stop_local+0xa2>
  aa:	85aa                	mv	a1,a0
  ac:	cd19                	beqz	a0,ca <.L44>
  ae:	00000637          	lui	a2,0x0
  b2:	00000537          	lui	a0,0x0
  b6:	28a00693          	li	a3,650
  ba:	00060613          	mv	a2,a2
  be:	00050513          	mv	a0,a0
  c2:	00000097          	auipc	ra,0x0
  c6:	000080e7          	jalr	ra # c2 <esp_smartconfig_stop_local+0xc2>

000000ca <.L44>:
  ca:	00000097          	auipc	ra,0x0
  ce:	000080e7          	jalr	ra # ca <.L44>
  d2:	00000097          	auipc	ra,0x0
  d6:	000080e7          	jalr	ra # d2 <.L44+0x8>
  da:	00000097          	auipc	ra,0x0
  de:	000080e7          	jalr	ra # da <.L44+0x10>
  e2:	00000097          	auipc	ra,0x0
  e6:	000080e7          	jalr	ra # e2 <.L44+0x18>

000000ea <.L45>:
  ea:	40f2                	lw	ra,28(sp)
  ec:	4462                	lw	s0,24(sp)
  ee:	44d2                	lw	s1,20(sp)
  f0:	4942                	lw	s2,16(sp)
  f2:	49b2                	lw	s3,12(sp)
  f4:	4501                	li	a0,0
  f6:	6105                	add	sp,sp,32
  f8:	8082                	ret

000000fa <.L43>:
  fa:	4685                	li	a3,1
  fc:	0ad71f63          	bne	a4,a3,1ba <.L46>
 100:	00000437          	lui	s0,0x0
 104:	00e79823          	sh	a4,16(a5)
 108:	00078923          	sb	zero,18(a5)
 10c:	00042783          	lw	a5,0(s0) # 0 <esp_smartconfig_stop_local>
 110:	000004b7          	lui	s1,0x0
 114:	000006b7          	lui	a3,0x0
 118:	0e47a783          	lw	a5,228(a5)
 11c:	00e68023          	sb	a4,0(a3) # 0 <esp_smartconfig_stop_local>
 120:	4609                	li	a2,2
 122:	000006b7          	lui	a3,0x0
 126:	00048513          	mv	a0,s1
 12a:	00c68023          	sb	a2,0(a3) # 0 <esp_smartconfig_stop_local>
 12e:	9782                	jalr	a5
 130:	00042783          	lw	a5,0(s0)
 134:	00048513          	mv	a0,s1
 138:	000004b7          	lui	s1,0x0
 13c:	0e87a783          	lw	a5,232(a5)
 140:	9782                	jalr	a5
 142:	00042783          	lw	a5,0(s0)
 146:	00048513          	mv	a0,s1
 14a:	0e47a783          	lw	a5,228(a5)
 14e:	9782                	jalr	a5
 150:	00042783          	lw	a5,0(s0)
 154:	00048513          	mv	a0,s1
 158:	0e87a783          	lw	a5,232(a5)
 15c:	9782                	jalr	a5
 15e:	000007b7          	lui	a5,0x0
 162:	4501                	li	a0,0
 164:	00078023          	sb	zero,0(a5) # 0 <esp_smartconfig_stop_local>
 168:	00000097          	auipc	ra,0x0
 16c:	000080e7          	jalr	ra # 168 <.L43+0x6e>
 170:	85aa                	mv	a1,a0
 172:	cd19                	beqz	a0,190 <.L47>
 174:	00000637          	lui	a2,0x0
 178:	00000537          	lui	a0,0x0
 17c:	29e00693          	li	a3,670
 180:	00060613          	mv	a2,a2
 184:	00050513          	mv	a0,a0
 188:	00000097          	auipc	ra,0x0
 18c:	000080e7          	jalr	ra # 188 <.L43+0x8e>

00000190 <.L47>:
 190:	00000097          	auipc	ra,0x0
 194:	000080e7          	jalr	ra # 190 <.L47>
 198:	00000097          	auipc	ra,0x0
 19c:	000080e7          	jalr	ra # 198 <.L47+0x8>
 1a0:	00000097          	auipc	ra,0x0
 1a4:	000080e7          	jalr	ra # 1a0 <.L47+0x10>

000001a8 <.L65>:
 1a8:	00000097          	auipc	ra,0x0
 1ac:	000080e7          	jalr	ra # 1a8 <.L65>

000001b0 <.L64>:
 1b0:	00000097          	auipc	ra,0x0
 1b4:	000080e7          	jalr	ra # 1b0 <.L64>
 1b8:	bf0d                	j	ea <.L45>

000001ba <.L46>:
 1ba:	4609                	li	a2,2
 1bc:	0cc71a63          	bne	a4,a2,290 <.L48>
 1c0:	00000437          	lui	s0,0x0
 1c4:	00d79823          	sh	a3,16(a5)
 1c8:	00078923          	sb	zero,18(a5)
 1cc:	00042783          	lw	a5,0(s0) # 0 <esp_smartconfig_stop_local>
 1d0:	00000637          	lui	a2,0x0
 1d4:	00000937          	lui	s2,0x0
 1d8:	0e47a783          	lw	a5,228(a5)
 1dc:	00d60023          	sb	a3,0(a2) # 0 <esp_smartconfig_stop_local>
 1e0:	00090513          	mv	a0,s2
 1e4:	00000637          	lui	a2,0x0
 1e8:	00e60023          	sb	a4,0(a2) # 0 <esp_smartconfig_stop_local>
 1ec:	9782                	jalr	a5
 1ee:	00042783          	lw	a5,0(s0)
 1f2:	000004b7          	lui	s1,0x0
 1f6:	00048513          	mv	a0,s1
 1fa:	0e47a783          	lw	a5,228(a5)
 1fe:	9782                	jalr	a5
 200:	00042783          	lw	a5,0(s0)
 204:	00090513          	mv	a0,s2
 208:	0e87a783          	lw	a5,232(a5)
 20c:	9782                	jalr	a5
 20e:	00042783          	lw	a5,0(s0)
 212:	00048513          	mv	a0,s1
 216:	000004b7          	lui	s1,0x0
 21a:	0e87a783          	lw	a5,232(a5)
 21e:	9782                	jalr	a5
 220:	00042783          	lw	a5,0(s0)
 224:	00048513          	mv	a0,s1
 228:	0e47a783          	lw	a5,228(a5)
 22c:	9782                	jalr	a5
 22e:	00042783          	lw	a5,0(s0)
 232:	00048513          	mv	a0,s1
 236:	0e87a783          	lw	a5,232(a5)
 23a:	9782                	jalr	a5
 23c:	000007b7          	lui	a5,0x0
 240:	4501                	li	a0,0
 242:	00078023          	sb	zero,0(a5) # 0 <esp_smartconfig_stop_local>
 246:	00000097          	auipc	ra,0x0
 24a:	000080e7          	jalr	ra # 246 <.L46+0x8c>
 24e:	85aa                	mv	a1,a0
 250:	cd19                	beqz	a0,26e <.L49>
 252:	00000637          	lui	a2,0x0
 256:	00000537          	lui	a0,0x0
 25a:	2b400693          	li	a3,692
 25e:	00060613          	mv	a2,a2
 262:	00050513          	mv	a0,a0
 266:	00000097          	auipc	ra,0x0
 26a:	000080e7          	jalr	ra # 266 <.L46+0xac>

0000026e <.L49>:
 26e:	00000097          	auipc	ra,0x0
 272:	000080e7          	jalr	ra # 26e <.L49>
 276:	00000097          	auipc	ra,0x0
 27a:	000080e7          	jalr	ra # 276 <.L49+0x8>
 27e:	00000097          	auipc	ra,0x0
 282:	000080e7          	jalr	ra # 27e <.L49+0x10>
 286:	00000097          	auipc	ra,0x0
 28a:	000080e7          	jalr	ra # 286 <.L49+0x18>
 28e:	bf29                	j	1a8 <.L65>

00000290 <.L48>:
 290:	458d                	li	a1,3
 292:	e4b71ce3          	bne	a4,a1,ea <.L45>
 296:	00000437          	lui	s0,0x0
 29a:	00d79823          	sh	a3,16(a5)
 29e:	00078923          	sb	zero,18(a5)
 2a2:	00042783          	lw	a5,0(s0) # 0 <esp_smartconfig_stop_local>
 2a6:	00000737          	lui	a4,0x0
 2aa:	000009b7          	lui	s3,0x0
 2ae:	0e47a783          	lw	a5,228(a5)
 2b2:	00d70023          	sb	a3,0(a4) # 0 <esp_smartconfig_stop_local>
 2b6:	00098513          	mv	a0,s3
 2ba:	00000737          	lui	a4,0x0
 2be:	00c70023          	sb	a2,0(a4) # 0 <esp_smartconfig_stop_local>
 2c2:	9782                	jalr	a5
 2c4:	00042783          	lw	a5,0(s0)
 2c8:	00000937          	lui	s2,0x0
 2cc:	00090513          	mv	a0,s2
 2d0:	0e47a783          	lw	a5,228(a5)
 2d4:	000004b7          	lui	s1,0x0
 2d8:	9782                	jalr	a5
 2da:	00042783          	lw	a5,0(s0)
 2de:	00048513          	mv	a0,s1
 2e2:	0e47a783          	lw	a5,228(a5)
 2e6:	9782                	jalr	a5
 2e8:	00042783          	lw	a5,0(s0)
 2ec:	00098513          	mv	a0,s3
 2f0:	0e87a783          	lw	a5,232(a5)
 2f4:	9782                	jalr	a5
 2f6:	00042783          	lw	a5,0(s0)
 2fa:	00090513          	mv	a0,s2
 2fe:	0e87a783          	lw	a5,232(a5)
 302:	9782                	jalr	a5
 304:	00042783          	lw	a5,0(s0)
 308:	00048513          	mv	a0,s1
 30c:	0e87a783          	lw	a5,232(a5)
 310:	9782                	jalr	a5
 312:	000007b7          	lui	a5,0x0
 316:	4501                	li	a0,0
 318:	00078023          	sb	zero,0(a5) # 0 <esp_smartconfig_stop_local>
 31c:	00000097          	auipc	ra,0x0
 320:	000080e7          	jalr	ra # 31c <.L48+0x8c>
 324:	85aa                	mv	a1,a0
 326:	cd19                	beqz	a0,344 <.L50>
 328:	00000637          	lui	a2,0x0
 32c:	00000537          	lui	a0,0x0
 330:	2cb00693          	li	a3,715
 334:	00060613          	mv	a2,a2
 338:	00050513          	mv	a0,a0
 33c:	00000097          	auipc	ra,0x0
 340:	000080e7          	jalr	ra # 33c <.L48+0xac>

00000344 <.L50>:
 344:	00000097          	auipc	ra,0x0
 348:	000080e7          	jalr	ra # 344 <.L50>
 34c:	b595                	j	1b0 <.L64>

Disassembly of section .text.sc_listen_next_channel:

00000000 <sc_listen_next_channel>:
   0:	1101                	add	sp,sp,-32
   2:	c84a                	sw	s2,16(sp)
   4:	00000937          	lui	s2,0x0
   8:	00090793          	mv	a5,s2
   c:	cc22                	sw	s0,24(sp)
   e:	c64e                	sw	s3,12(sp)
  10:	c452                	sw	s4,8(sp)
  12:	c256                	sw	s5,4(sp)
  14:	ce06                	sw	ra,28(sp)
  16:	ca26                	sw	s1,20(sp)
  18:	0007c483          	lbu	s1,0(a5)
  1c:	49b9                	li	s3,14
  1e:	0087aa03          	lw	s4,8(a5)
  22:	00c7aa83          	lw	s5,12(a5)
  26:	8426                	mv	s0,s1
  28:	00090913          	mv	s2,s2
  2c:	0099f363          	bgeu	s3,s1,32 <.L68>

00000030 <.L82>:
  30:	4405                	li	s0,1

00000032 <.L68>:
  32:	0ff47493          	zext.b	s1,s0
  36:	fe99ede3          	bltu	s3,s1,30 <.L82>
  3a:	8622                	mv	a2,s0
  3c:	8552                	mv	a0,s4
  3e:	85d6                	mv	a1,s5
  40:	00000097          	auipc	ra,0x0
  44:	000080e7          	jalr	ra # 40 <.L68+0xe>
  48:	00148793          	add	a5,s1,1 # 1 <sc_listen_next_channel+0x1>
  4c:	8905                	and	a0,a0,1
  4e:	0ff7f793          	zext.b	a5,a5
  52:	0405                	add	s0,s0,1
  54:	dd79                	beqz	a0,32 <.L68>
  56:	4581                	li	a1,0
  58:	8526                	mv	a0,s1
  5a:	00f90023          	sb	a5,0(s2) # 0 <sc_listen_next_channel>
  5e:	009900a3          	sb	s1,1(s2)
  62:	00000097          	auipc	ra,0x0
  66:	000080e7          	jalr	ra # 62 <.L68+0x30>
  6a:	85aa                	mv	a1,a0
  6c:	cd19                	beqz	a0,8a <.L70>
  6e:	00000637          	lui	a2,0x0
  72:	00000537          	lui	a0,0x0
  76:	09c00693          	li	a3,156
  7a:	00060613          	mv	a2,a2
  7e:	00050513          	mv	a0,a0
  82:	00000097          	auipc	ra,0x0
  86:	000080e7          	jalr	ra # 82 <.L68+0x50>

0000008a <.L70>:
  8a:	000007b7          	lui	a5,0x0
  8e:	0007a703          	lw	a4,0(a5) # 0 <sc_listen_next_channel>
  92:	478d                	li	a5,3
  94:	00f71a63          	bne	a4,a5,a8 <.L71>
  98:	000007b7          	lui	a5,0x0
  9c:	0007a783          	lw	a5,0(a5) # 0 <sc_listen_next_channel>
  a0:	557d                	li	a0,-1
  a2:	0007c783          	lbu	a5,0(a5)
  a6:	eb85                	bnez	a5,d6 <.L66>

000000a8 <.L71>:
  a8:	000007b7          	lui	a5,0x0
  ac:	0007c783          	lbu	a5,0(a5) # 0 <sc_listen_next_channel>
  b0:	557d                	li	a0,-1
  b2:	c395                	beqz	a5,d6 <.L66>
  b4:	000007b7          	lui	a5,0x0
  b8:	0007a783          	lw	a5,0(a5) # 0 <sc_listen_next_channel>
  bc:	00000737          	lui	a4,0x0
  c0:	00074583          	lbu	a1,0(a4) # 0 <sc_listen_next_channel>
  c4:	0e07a783          	lw	a5,224(a5)
  c8:	00000537          	lui	a0,0x0
  cc:	00050513          	mv	a0,a0
  d0:	4601                	li	a2,0
  d2:	9782                	jalr	a5
  d4:	4501                	li	a0,0

000000d6 <.L66>:
  d6:	40f2                	lw	ra,28(sp)
  d8:	4462                	lw	s0,24(sp)
  da:	44d2                	lw	s1,20(sp)
  dc:	4942                	lw	s2,16(sp)
  de:	49b2                	lw	s3,12(sp)
  e0:	4a22                	lw	s4,8(sp)
  e2:	4a92                	lw	s5,4(sp)
  e4:	6105                	add	sp,sp,32
  e6:	8082                	ret

Disassembly of section .text.sc_channel_timer_cb_local:

00000000 <sc_channel_timer_cb_local>:
   0:	000007b7          	lui	a5,0x0
   4:	0007c783          	lbu	a5,0(a5) # 0 <sc_channel_timer_cb_local>
   8:	eb81                	bnez	a5,18 <.L85>
   a:	557d                	li	a0,-1
   c:	8082                	ret

0000000e <.L88>:
   e:	557d                	li	a0,-1

00000010 <.L84>:
  10:	40b2                	lw	ra,12(sp)
  12:	4422                	lw	s0,8(sp)
  14:	0141                	add	sp,sp,16
  16:	8082                	ret

00000018 <.L85>:
  18:	000007b7          	lui	a5,0x0
  1c:	0007a783          	lw	a5,0(a5) # 0 <sc_channel_timer_cb_local>
  20:	1141                	add	sp,sp,-16
  22:	00000537          	lui	a0,0x0
  26:	0e47a783          	lw	a5,228(a5)
  2a:	c422                	sw	s0,8(sp)
  2c:	c606                	sw	ra,12(sp)
  2e:	00050513          	mv	a0,a0
  32:	9782                	jalr	a5
  34:	000007b7          	lui	a5,0x0
  38:	00078713          	mv	a4,a5
  3c:	4314                	lw	a3,0(a4)
  3e:	470d                	li	a4,3
  40:	00078413          	mv	s0,a5
  44:	00e69963          	bne	a3,a4,56 <.L87>
  48:	000007b7          	lui	a5,0x0
  4c:	0007a783          	lw	a5,0(a5) # 0 <sc_channel_timer_cb_local>
  50:	0007c783          	lbu	a5,0(a5)
  54:	ffcd                	bnez	a5,e <.L88>

00000056 <.L87>:
  56:	00000097          	auipc	ra,0x0
  5a:	000080e7          	jalr	ra # 56 <.L87>
  5e:	57fd                	li	a5,-1
  60:	faf507e3          	beq	a0,a5,e <.L88>
  64:	401c                	lw	a5,0(s0)
  66:	e795                	bnez	a5,92 <.L89>
  68:	000007b7          	lui	a5,0x0
  6c:	0007a783          	lw	a5,0(a5) # 0 <sc_channel_timer_cb_local>
  70:	4685                	li	a3,1
  72:	4501                	li	a0,0
  74:	0197c703          	lbu	a4,25(a5)
  78:	f8d71ce3          	bne	a4,a3,10 <.L84>
  7c:	000006b7          	lui	a3,0x0
  80:	0187c603          	lbu	a2,24(a5)
  84:	0016c683          	lbu	a3,1(a3) # 1 <sc_channel_timer_cb_local+0x1>
  88:	f8d614e3          	bne	a2,a3,10 <.L84>
  8c:	00e78d23          	sb	a4,26(a5)
  90:	b741                	j	10 <.L84>

00000092 <.L89>:
  92:	4705                	li	a4,1
  94:	02e79663          	bne	a5,a4,c0 <.L90>
  98:	00000737          	lui	a4,0x0
  9c:	00072703          	lw	a4,0(a4) # 0 <sc_channel_timer_cb_local>
  a0:	4501                	li	a0,0
  a2:	01c74683          	lbu	a3,28(a4)
  a6:	f6f695e3          	bne	a3,a5,10 <.L84>
  aa:	000007b7          	lui	a5,0x0
  ae:	01a74603          	lbu	a2,26(a4)
  b2:	0017c783          	lbu	a5,1(a5) # 1 <sc_channel_timer_cb_local+0x1>
  b6:	f4f61de3          	bne	a2,a5,10 <.L84>
  ba:	00d70ea3          	sb	a3,29(a4)
  be:	bf89                	j	10 <.L84>

000000c0 <.L90>:
  c0:	4689                	li	a3,2
  c2:	4501                	li	a0,0
  c4:	f4d796e3          	bne	a5,a3,10 <.L84>
  c8:	000007b7          	lui	a5,0x0
  cc:	0007a783          	lw	a5,0(a5) # 0 <sc_channel_timer_cb_local>
  d0:	0197c683          	lbu	a3,25(a5)
  d4:	00e69d63          	bne	a3,a4,ee <.L91>
  d8:	00000737          	lui	a4,0x0
  dc:	0187c603          	lbu	a2,24(a5)
  e0:	00174703          	lbu	a4,1(a4) # 1 <sc_channel_timer_cb_local+0x1>
  e4:	f2e616e3          	bne	a2,a4,10 <.L84>
  e8:	00d78d23          	sb	a3,26(a5)
  ec:	b715                	j	10 <.L84>

000000ee <.L91>:
  ee:	000007b7          	lui	a5,0x0
  f2:	0007a783          	lw	a5,0(a5) # 0 <sc_channel_timer_cb_local>
  f6:	01c7c683          	lbu	a3,28(a5)
  fa:	f0e69be3          	bne	a3,a4,10 <.L84>
  fe:	00000737          	lui	a4,0x0
 102:	01a7c603          	lbu	a2,26(a5)
 106:	00174703          	lbu	a4,1(a4) # 1 <sc_channel_timer_cb_local+0x1>
 10a:	f0e613e3          	bne	a2,a4,10 <.L84>
 10e:	00d78ea3          	sb	a3,29(a5)
 112:	bdfd                	j	10 <.L84>

Disassembly of section .text.sc_add_bss:

00000000 <sc_add_bss>:
   0:	12050a63          	beqz	a0,134 <.L109>
   4:	1101                	add	sp,sp,-32
   6:	c84a                	sw	s2,16(sp)
   8:	00000937          	lui	s2,0x0
   c:	00092783          	lw	a5,0(s2) # 0 <sc_add_bss>
  10:	cc22                	sw	s0,24(sp)
  12:	ca26                	sw	s1,20(sp)
  14:	1707a783          	lw	a5,368(a5)
  18:	ce06                	sw	ra,28(sp)
  1a:	84aa                	mv	s1,a0
  1c:	4585                	li	a1,1
  1e:	05c00513          	li	a0,92
  22:	9782                	jalr	a5
  24:	842a                	mv	s0,a0
  26:	e939                	bnez	a0,7c <.L105>
  28:	00092783          	lw	a5,0(s2)
  2c:	cf85                	beqz	a5,64 <.L106>
  2e:	14c7a483          	lw	s1,332(a5)
  32:	c88d                	beqz	s1,64 <.L106>
  34:	00000437          	lui	s0,0x0
  38:	00040413          	mv	s0,s0
  3c:	400c                	lw	a1,0(s0)
  3e:	1547a783          	lw	a5,340(a5)
  42:	c62e                	sw	a1,12(sp)
  44:	9782                	jalr	a5
  46:	4018                	lw	a4,0(s0)
  48:	45b2                	lw	a1,12(sp)
  4a:	000007b7          	lui	a5,0x0
  4e:	00000637          	lui	a2,0x0
  52:	86aa                	mv	a3,a0
  54:	14600813          	li	a6,326
  58:	00078793          	mv	a5,a5
  5c:	00060613          	mv	a2,a2
  60:	4505                	li	a0,1
  62:	9482                	jalr	s1

00000064 <.L106>:
  64:	4501                	li	a0,0
  66:	00000097          	auipc	ra,0x0
  6a:	000080e7          	jalr	ra # 66 <.L106+0x2>
  6e:	557d                	li	a0,-1

00000070 <.L103>:
  70:	40f2                	lw	ra,28(sp)
  72:	4462                	lw	s0,24(sp)
  74:	44d2                	lw	s1,20(sp)
  76:	4942                	lw	s2,16(sp)
  78:	6105                	add	sp,sp,32
  7a:	8082                	ret

0000007c <.L105>:
  7c:	4619                	li	a2,6
  7e:	00448593          	add	a1,s1,4
  82:	00000097          	auipc	ra,0x0
  86:	000080e7          	jalr	ra # 82 <.L105+0x6>
  8a:	02000613          	li	a2,32
  8e:	00a48593          	add	a1,s1,10
  92:	03340513          	add	a0,s0,51 # 33 <sc_add_bss+0x33>
  96:	00000097          	auipc	ra,0x0
  9a:	000080e7          	jalr	ra # 96 <.L105+0x1a>
  9e:	02b4c783          	lbu	a5,43(s1)
  a2:	04f40a23          	sb	a5,84(s0)
  a6:	02c4c783          	lbu	a5,44(s1)
  aa:	02f40723          	sb	a5,46(s0)
  ae:	000007b7          	lui	a5,0x0
  b2:	0007a703          	lw	a4,0(a5) # 0 <sc_add_bss>
  b6:	478d                	li	a5,3
  b8:	02f71163          	bne	a4,a5,da <.L107>
  bc:	02e4c783          	lbu	a5,46(s1)
  c0:	02f407a3          	sb	a5,47(s0)
  c4:	02d4c703          	lbu	a4,45(s1)
  c8:	02e40923          	sb	a4,50(s0)
  cc:	4705                	li	a4,1
  ce:	04e79263          	bne	a5,a4,112 <.L108>
  d2:	10100793          	li	a5,257
  d6:	02f41823          	sh	a5,48(s0)

000000da <.L107>:
  da:	000007b7          	lui	a5,0x0
  de:	00078793          	mv	a5,a5
  e2:	4398                	lw	a4,0(a5)
  e4:	04042c23          	sw	zero,88(s0)
  e8:	c380                	sw	s0,0(a5)
  ea:	cf20                	sw	s0,88(a4)
  ec:	02b4c683          	lbu	a3,43(s1)
  f0:	000007b7          	lui	a5,0x0
  f4:	00078793          	mv	a5,a5
  f8:	4705                	li	a4,1
  fa:	00d71733          	sll	a4,a4,a3
  fe:	4794                	lw	a3,8(a5)
 100:	41f75613          	sra	a2,a4,0x1f
 104:	4501                	li	a0,0
 106:	8ed9                	or	a3,a3,a4
 108:	47d8                	lw	a4,12(a5)
 10a:	c794                	sw	a3,8(a5)
 10c:	8f51                	or	a4,a4,a2
 10e:	c7d8                	sw	a4,12(a5)
 110:	b785                	j	70 <.L103>

00000112 <.L108>:
 112:	0444c503          	lbu	a0,68(s1)
 116:	00000097          	auipc	ra,0x0
 11a:	000080e7          	jalr	ra # 116 <.L108+0x4>
 11e:	02a40823          	sb	a0,48(s0)
 122:	0404c503          	lbu	a0,64(s1)
 126:	00000097          	auipc	ra,0x0
 12a:	000080e7          	jalr	ra # 126 <.L108+0x14>
 12e:	02a408a3          	sb	a0,49(s0)
 132:	b765                	j	da <.L107>

00000134 <.L109>:
 134:	557d                	li	a0,-1
 136:	8082                	ret

Disassembly of section .text.sc_system_init_done:

00000000 <sc_system_init_done>:
   0:	000007b7          	lui	a5,0x0
   4:	0107c703          	lbu	a4,16(a5) # 10 <sc_system_init_done+0x10>
   8:	4785                	li	a5,1
   a:	0af70063          	beq	a4,a5,aa <.L137>
   e:	715d                	add	sp,sp,-80
  10:	c686                	sw	ra,76(sp)
  12:	c4a2                	sw	s0,72(sp)
  14:	c2a6                	sw	s1,68(sp)
  16:	00000097          	auipc	ra,0x0
  1a:	000080e7          	jalr	ra # 16 <sc_system_init_done+0x16>
  1e:	85aa                	mv	a1,a0
  20:	cd19                	beqz	a0,3e <.L122>
  22:	00000637          	lui	a2,0x0
  26:	00000537          	lui	a0,0x0
  2a:	21700693          	li	a3,535
  2e:	00060613          	mv	a2,a2
  32:	00050513          	mv	a0,a0
  36:	00000097          	auipc	ra,0x0
  3a:	000080e7          	jalr	ra # 36 <sc_system_init_done+0x36>

0000003e <.L122>:
  3e:	02c00613          	li	a2,44
  42:	4581                	li	a1,0
  44:	0848                	add	a0,sp,20
  46:	00000097          	auipc	ra,0x0
  4a:	000080e7          	jalr	ra # 46 <.L122+0x8>
  4e:	000005b7          	lui	a1,0x0
  52:	4785                	li	a5,1
  54:	00058593          	mv	a1,a1
  58:	0848                	add	a0,sp,20
  5a:	00f10ea3          	sb	a5,29(sp)
  5e:	00000097          	auipc	ra,0x0
  62:	000080e7          	jalr	ra # 5e <.L122+0x20>
  66:	c62a                	sw	a0,12(sp)
  68:	cd05                	beqz	a0,a0 <.L120>
  6a:	00000737          	lui	a4,0x0
  6e:	00072703          	lw	a4,0(a4) # 0 <sc_system_init_done>
  72:	c71d                	beqz	a4,a0 <.L120>
  74:	14c72483          	lw	s1,332(a4)
  78:	c485                	beqz	s1,a0 <.L120>
  7a:	00000437          	lui	s0,0x0
  7e:	00040413          	mv	s0,s0
  82:	400c                	lw	a1,0(s0)
  84:	15472703          	lw	a4,340(a4)
  88:	c42e                	sw	a1,8(sp)
  8a:	9702                	jalr	a4
  8c:	47b2                	lw	a5,12(sp)
  8e:	4018                	lw	a4,0(s0)
  90:	45a2                	lw	a1,8(sp)
  92:	00000637          	lui	a2,0x0
  96:	86aa                	mv	a3,a0
  98:	00060613          	mv	a2,a2
  9c:	4505                	li	a0,1
  9e:	9482                	jalr	s1

000000a0 <.L120>:
  a0:	40b6                	lw	ra,76(sp)
  a2:	4426                	lw	s0,72(sp)
  a4:	4496                	lw	s1,68(sp)
  a6:	6161                	add	sp,sp,80
  a8:	8082                	ret

000000aa <.L137>:
  aa:	8082                	ret

Disassembly of section .text.sc_wifi_scan_done:

00000000 <sc_wifi_scan_done>:
   0:	715d                	add	sp,sp,-80
   2:	c0ca                	sw	s2,64(sp)
   4:	00000937          	lui	s2,0x0
   8:	00094683          	lbu	a3,0(s2) # 0 <sc_wifi_scan_done>
   c:	c4a2                	sw	s0,72(sp)
   e:	c2a6                	sw	s1,68(sp)
  10:	c686                	sw	ra,76(sp)
  12:	000004b7          	lui	s1,0x0
  16:	de4e                	sw	s3,60(sp)
  18:	dc52                	sw	s4,56(sp)
  1a:	da56                	sw	s5,52(sp)
  1c:	d85a                	sw	s6,48(sp)
  1e:	d65e                	sw	s7,44(sp)
  20:	d462                	sw	s8,40(sp)
  22:	d266                	sw	s9,36(sp)
  24:	4705                	li	a4,1
  26:	842a                	mv	s0,a0
  28:	87ae                	mv	a5,a1
  2a:	00090913          	mv	s2,s2
  2e:	00048493          	mv	s1,s1
  32:	00e69a63          	bne	a3,a4,46 <.L141>
  36:	4701                	li	a4,0
  38:	4681                	li	a3,0
  3a:	c4d8                	sw	a4,12(s1)
  3c:	10100713          	li	a4,257
  40:	c494                	sw	a3,8(s1)
  42:	00e49023          	sh	a4,0(s1) # 0 <sc_wifi_scan_done>

00000046 <.L141>:
  46:	0104c683          	lbu	a3,16(s1)
  4a:	4705                	li	a4,1
  4c:	06e68b63          	beq	a3,a4,c2 <.L140>
  50:	12078663          	beqz	a5,17c <.L174>
  54:	000004b7          	lui	s1,0x0
  58:	0004a703          	lw	a4,0(s1) # 0 <sc_wifi_scan_done>
  5c:	c63e                	sw	a5,12(sp)
  5e:	cb05                	beqz	a4,8e <.L173>
  60:	14c72903          	lw	s2,332(a4)
  64:	02090563          	beqz	s2,8e <.L173>
  68:	00000437          	lui	s0,0x0
  6c:	00040413          	mv	s0,s0
  70:	400c                	lw	a1,0(s0)
  72:	15472703          	lw	a4,340(a4)
  76:	c42e                	sw	a1,8(sp)
  78:	9702                	jalr	a4
  7a:	47b2                	lw	a5,12(sp)
  7c:	4018                	lw	a4,0(s0)
  7e:	45a2                	lw	a1,8(sp)
  80:	00000637          	lui	a2,0x0
  84:	86aa                	mv	a3,a0
  86:	00060613          	mv	a2,a2
  8a:	450d                	li	a0,3
  8c:	9902                	jalr	s2

0000008e <.L173>:
  8e:	0004a783          	lw	a5,0(s1)
  92:	03200513          	li	a0,50
  96:	09c7a403          	lw	s0,156(a5)
  9a:	0a07a783          	lw	a5,160(a5)
  9e:	9782                	jalr	a5
  a0:	9402                	jalr	s0
  a2:	a045                	j	142 <.L236>

000000a4 <.L151>:
  a4:	02b44783          	lbu	a5,43(s0) # 2b <sc_wifi_scan_done+0x2b>
  a8:	cbb9                	beqz	a5,fe <.L145>
  aa:	02d40783          	lb	a5,45(s0)
  ae:	0577c863          	blt	a5,s7,fe <.L145>
  b2:	03871563          	bne	a4,s8,dc <.L146>
  b6:	8522                	mv	a0,s0
  b8:	00000097          	auipc	ra,0x0
  bc:	000080e7          	jalr	ra # b8 <.L151+0x14>
  c0:	cd1d                	beqz	a0,fe <.L145>

000000c2 <.L140>:
  c2:	40b6                	lw	ra,76(sp)
  c4:	4426                	lw	s0,72(sp)
  c6:	4496                	lw	s1,68(sp)
  c8:	4906                	lw	s2,64(sp)
  ca:	59f2                	lw	s3,60(sp)
  cc:	5a62                	lw	s4,56(sp)
  ce:	5ad2                	lw	s5,52(sp)
  d0:	5b42                	lw	s6,48(sp)
  d2:	5bb2                	lw	s7,44(sp)
  d4:	5c22                	lw	s8,40(sp)
  d6:	5c92                	lw	s9,36(sp)
  d8:	6161                	add	sp,sp,80
  da:	8082                	ret

000000dc <.L146>:
  dc:	000aa783          	lw	a5,0(s5)
  e0:	00440c93          	add	s9,s0,4
  e4:	0587a983          	lw	s3,88(a5)
  e8:	00fa2023          	sw	a5,0(s4)

000000ec <.L148>:
  ec:	06099b63          	bnez	s3,162 <.L149>
  f0:	8522                	mv	a0,s0
  f2:	00000097          	auipc	ra,0x0
  f6:	000080e7          	jalr	ra # f2 <.L148+0x6>
  fa:	f561                	bnez	a0,c2 <.L140>
  fc:	4b05                	li	s6,1

000000fe <.L145>:
  fe:	4000                	lw	s0,0(s0)

00000100 <.L143>:
 100:	00094703          	lbu	a4,0(s2)
 104:	f045                	bnez	s0,a4 <.L151>
 106:	000007b7          	lui	a5,0x0
 10a:	00078793          	mv	a5,a5
 10e:	000b0763          	beqz	s6,11c <.L152>
 112:	0007c683          	lbu	a3,0(a5) # 0 <sc_wifi_scan_done>
 116:	0685                	add	a3,a3,1
 118:	00d78023          	sb	a3,0(a5)

0000011c <.L152>:
 11c:	0007c683          	lbu	a3,0(a5)
 120:	00d77563          	bgeu	a4,a3,12a <.L153>
 124:	4685                	li	a3,1
 126:	00e6fb63          	bgeu	a3,a4,13c <.L154>

0000012a <.L153>:
 12a:	000009b7          	lui	s3,0x0
 12e:	00098693          	mv	a3,s3
 132:	4294                	lw	a3,0(a3)
 134:	00098993          	mv	s3,s3
 138:	4eb4                	lw	a3,88(a3)
 13a:	eeb1                	bnez	a3,196 <.L155>

0000013c <.L154>:
 13c:	0705                	add	a4,a4,1
 13e:	00e90023          	sb	a4,0(s2)

00000142 <.L236>:
 142:	4426                	lw	s0,72(sp)
 144:	40b6                	lw	ra,76(sp)
 146:	4496                	lw	s1,68(sp)
 148:	4906                	lw	s2,64(sp)
 14a:	59f2                	lw	s3,60(sp)
 14c:	5a62                	lw	s4,56(sp)
 14e:	5ad2                	lw	s5,52(sp)
 150:	5b42                	lw	s6,48(sp)
 152:	5bb2                	lw	s7,44(sp)
 154:	5c22                	lw	s8,40(sp)
 156:	5c92                	lw	s9,36(sp)
 158:	6161                	add	sp,sp,80
 15a:	00000317          	auipc	t1,0x0
 15e:	00030067          	jr	t1 # 15a <.L236+0x18>

00000162 <.L149>:
 162:	4619                	li	a2,6
 164:	85ce                	mv	a1,s3
 166:	8566                	mv	a0,s9
 168:	00000097          	auipc	ra,0x0
 16c:	000080e7          	jalr	ra # 168 <.L149+0x6>
 170:	d559                	beqz	a0,fe <.L145>
 172:	013a2023          	sw	s3,0(s4)
 176:	0589a983          	lw	s3,88(s3) # 58 <.L141+0x12>
 17a:	bf8d                	j	ec <.L148>

0000017c <.L174>:
 17c:	00000ab7          	lui	s5,0x0
 180:	00000a37          	lui	s4,0x0
 184:	4b01                	li	s6,0
 186:	fac00b93          	li	s7,-84
 18a:	4c05                	li	s8,1
 18c:	000a8a93          	mv	s5,s5
 190:	000a0a13          	mv	s4,s4
 194:	b7b5                	j	100 <.L143>

00000196 <.L155>:
 196:	4705                	li	a4,1
 198:	00e90023          	sb	a4,0(s2)
 19c:	4709                	li	a4,2
 19e:	00e78023          	sb	a4,0(a5)
 1a2:	000007b7          	lui	a5,0x0
 1a6:	0007a703          	lw	a4,0(a5) # 0 <sc_wifi_scan_done>
 1aa:	478d                	li	a5,3
 1ac:	10f70a63          	beq	a4,a5,2c0 <.L157>
 1b0:	00000937          	lui	s2,0x0
 1b4:	00092783          	lw	a5,0(s2) # 0 <sc_wifi_scan_done>
 1b8:	4585                	li	a1,1
 1ba:	05c00513          	li	a0,92
 1be:	1707a783          	lw	a5,368(a5)
 1c2:	9782                	jalr	a5
 1c4:	842a                	mv	s0,a0
 1c6:	e125                	bnez	a0,226 <.L158>
 1c8:	00092783          	lw	a5,0(s2)
 1cc:	cf85                	beqz	a5,204 <.L160>
 1ce:	14c7a483          	lw	s1,332(a5)
 1d2:	c88d                	beqz	s1,204 <.L160>
 1d4:	00000437          	lui	s0,0x0
 1d8:	00040413          	mv	s0,s0
 1dc:	400c                	lw	a1,0(s0)
 1de:	1547a783          	lw	a5,340(a5)
 1e2:	c42e                	sw	a1,8(sp)
 1e4:	9782                	jalr	a5
 1e6:	86aa                	mv	a3,a0
 1e8:	1ca00813          	li	a6,458

000001ec <.L235>:
 1ec:	4018                	lw	a4,0(s0)
 1ee:	45a2                	lw	a1,8(sp)
 1f0:	000007b7          	lui	a5,0x0
 1f4:	00000637          	lui	a2,0x0
 1f8:	00078793          	mv	a5,a5
 1fc:	00060613          	mv	a2,a2
 200:	4505                	li	a0,1
 202:	9482                	jalr	s1

00000204 <.L160>:
 204:	4426                	lw	s0,72(sp)
 206:	40b6                	lw	ra,76(sp)
 208:	4496                	lw	s1,68(sp)
 20a:	4906                	lw	s2,64(sp)
 20c:	59f2                	lw	s3,60(sp)
 20e:	5a62                	lw	s4,56(sp)
 210:	5ad2                	lw	s5,52(sp)
 212:	5b42                	lw	s6,48(sp)
 214:	5bb2                	lw	s7,44(sp)
 216:	5c22                	lw	s8,40(sp)
 218:	5c92                	lw	s9,36(sp)
 21a:	4501                	li	a0,0
 21c:	6161                	add	sp,sp,80
 21e:	00000317          	auipc	t1,0x0
 222:	00030067          	jr	t1 # 21e <.L160+0x1a>

00000226 <.L158>:
 226:	000005b7          	lui	a1,0x0
 22a:	4619                	li	a2,6
 22c:	00058593          	mv	a1,a1
 230:	00000097          	auipc	ra,0x0
 234:	000080e7          	jalr	ra # 230 <.L158+0xa>
 238:	0009a783          	lw	a5,0(s3)
 23c:	4fb8                	lw	a4,88(a5)
 23e:	cc38                	sw	a4,88(s0)
 240:	cfa0                	sw	s0,88(a5)
 242:	4c3c                	lw	a5,88(s0)
 244:	cb89                	beqz	a5,256 <.L162>
 246:	0547c703          	lbu	a4,84(a5) # 54 <.L141+0xe>
 24a:	04e40a23          	sb	a4,84(s0) # 54 <.L141+0xe>
 24e:	02e7c783          	lbu	a5,46(a5)
 252:	02f40723          	sb	a5,46(s0)

00000256 <.L162>:
 256:	00092783          	lw	a5,0(s2)
 25a:	4585                	li	a1,1
 25c:	05c00513          	li	a0,92
 260:	1707a783          	lw	a5,368(a5)
 264:	9782                	jalr	a5
 266:	842a                	mv	s0,a0
 268:	e505                	bnez	a0,290 <.L163>
 26a:	00092783          	lw	a5,0(s2)
 26e:	dbd9                	beqz	a5,204 <.L160>
 270:	14c7a483          	lw	s1,332(a5)
 274:	d8c1                	beqz	s1,204 <.L160>
 276:	00000437          	lui	s0,0x0
 27a:	00040413          	mv	s0,s0
 27e:	400c                	lw	a1,0(s0)
 280:	1547a783          	lw	a5,340(a5)
 284:	c42e                	sw	a1,8(sp)
 286:	9782                	jalr	a5
 288:	86aa                	mv	a3,a0
 28a:	1da00813          	li	a6,474
 28e:	bfb9                	j	1ec <.L235>

00000290 <.L163>:
 290:	000005b7          	lui	a1,0x0
 294:	4619                	li	a2,6
 296:	00058593          	mv	a1,a1
 29a:	00000097          	auipc	ra,0x0
 29e:	000080e7          	jalr	ra # 29a <.L163+0xa>
 2a2:	0009a783          	lw	a5,0(s3)
 2a6:	4fb8                	lw	a4,88(a5)
 2a8:	cc38                	sw	a4,88(s0)
 2aa:	cfa0                	sw	s0,88(a5)
 2ac:	4c3c                	lw	a5,88(s0)
 2ae:	cb89                	beqz	a5,2c0 <.L157>
 2b0:	0547c703          	lbu	a4,84(a5)
 2b4:	04e40a23          	sb	a4,84(s0) # 54 <.L141+0xe>
 2b8:	02e7c783          	lbu	a5,46(a5)
 2bc:	02f40723          	sb	a5,46(s0)

000002c0 <.L157>:
 2c0:	449c                	lw	a5,8(s1)
 2c2:	6721                	lui	a4,0x8
 2c4:	1779                	add	a4,a4,-2 # 7ffe <.L172+0x7b6e>
 2c6:	8ff9                	and	a5,a5,a4
 2c8:	c49c                	sw	a5,8(s1)
 2ca:	0004a623          	sw	zero,12(s1)
 2ce:	4701                	li	a4,0
 2d0:	4685                	li	a3,1
 2d2:	ef95                	bnez	a5,30e <.L165>
 2d4:	000007b7          	lui	a5,0x0
 2d8:	0007a783          	lw	a5,0(a5) # 0 <sc_wifi_scan_done>
 2dc:	e60783e3          	beqz	a5,142 <.L236>
 2e0:	14c7a483          	lw	s1,332(a5)
 2e4:	e4048fe3          	beqz	s1,142 <.L236>
 2e8:	00000437          	lui	s0,0x0
 2ec:	00040413          	mv	s0,s0
 2f0:	400c                	lw	a1,0(s0)
 2f2:	1547a783          	lw	a5,340(a5)
 2f6:	c42e                	sw	a1,8(sp)
 2f8:	9782                	jalr	a5
 2fa:	4018                	lw	a4,0(s0)
 2fc:	45a2                	lw	a1,8(sp)
 2fe:	00000637          	lui	a2,0x0
 302:	86aa                	mv	a3,a0
 304:	00060613          	mv	a2,a2
 308:	450d                	li	a0,3
 30a:	9482                	jalr	s1
 30c:	bd1d                	j	142 <.L236>

0000030e <.L165>:
 30e:	0017b613          	seqz	a2,a5
 312:	fff78593          	add	a1,a5,-1
 316:	40c70633          	sub	a2,a4,a2
 31a:	8f71                	and	a4,a4,a2
 31c:	8fed                	and	a5,a5,a1
 31e:	8636                	mv	a2,a3
 320:	00e7e5b3          	or	a1,a5,a4
 324:	0685                	add	a3,a3,1
 326:	0ff6f693          	zext.b	a3,a3
 32a:	f1f5                	bnez	a1,30e <.L165>
 32c:	0014c503          	lbu	a0,1(s1)
 330:	00c48d23          	sb	a2,26(s1)
 334:	00000097          	auipc	ra,0x0
 338:	000080e7          	jalr	ra # 334 <.L165+0x26>
 33c:	85aa                	mv	a1,a0
 33e:	cd19                	beqz	a0,35c <.L167>
 340:	00000637          	lui	a2,0x0
 344:	00000537          	lui	a0,0x0
 348:	1f800693          	li	a3,504
 34c:	00060613          	mv	a2,a2
 350:	00050513          	mv	a0,a0
 354:	00000097          	auipc	ra,0x0
 358:	000080e7          	jalr	ra # 354 <.L165+0x46>

0000035c <.L167>:
 35c:	4501                	li	a0,0
 35e:	00000097          	auipc	ra,0x0
 362:	000080e7          	jalr	ra # 35e <.L167+0x2>
 366:	85aa                	mv	a1,a0
 368:	cd19                	beqz	a0,386 <.L168>
 36a:	00000637          	lui	a2,0x0
 36e:	00000537          	lui	a0,0x0
 372:	1f900693          	li	a3,505
 376:	00060613          	mv	a2,a2
 37a:	00050513          	mv	a0,a0
 37e:	00000097          	auipc	ra,0x0
 382:	000080e7          	jalr	ra # 37e <.L167+0x22>

00000386 <.L168>:
 386:	47b1                	li	a5,12
 388:	0868                	add	a0,sp,28
 38a:	ce3e                	sw	a5,28(sp)
 38c:	00000097          	auipc	ra,0x0
 390:	000080e7          	jalr	ra # 38c <.L168+0x6>
 394:	85aa                	mv	a1,a0
 396:	cd19                	beqz	a0,3b4 <.L169>
 398:	00000637          	lui	a2,0x0
 39c:	00000537          	lui	a0,0x0
 3a0:	1fd00693          	li	a3,509
 3a4:	00060613          	mv	a2,a2
 3a8:	00050513          	mv	a0,a0
 3ac:	00000097          	auipc	ra,0x0
 3b0:	000080e7          	jalr	ra # 3ac <.L168+0x26>

000003b4 <.L169>:
 3b4:	00000537          	lui	a0,0x0
 3b8:	00050513          	mv	a0,a0
 3bc:	00000097          	auipc	ra,0x0
 3c0:	000080e7          	jalr	ra # 3bc <.L169+0x8>
 3c4:	85aa                	mv	a1,a0
 3c6:	cd19                	beqz	a0,3e4 <.L170>
 3c8:	00000637          	lui	a2,0x0
 3cc:	00000537          	lui	a0,0x0
 3d0:	1fe00693          	li	a3,510
 3d4:	00060613          	mv	a2,a2
 3d8:	00050513          	mv	a0,a0
 3dc:	00000097          	auipc	ra,0x0
 3e0:	000080e7          	jalr	ra # 3dc <.L169+0x28>

000003e4 <.L170>:
 3e4:	4505                	li	a0,1
 3e6:	00000097          	auipc	ra,0x0
 3ea:	000080e7          	jalr	ra # 3e6 <.L170+0x2>
 3ee:	85aa                	mv	a1,a0
 3f0:	cd19                	beqz	a0,40e <.L171>
 3f2:	00000637          	lui	a2,0x0
 3f6:	00000537          	lui	a0,0x0
 3fa:	1ff00693          	li	a3,511
 3fe:	00060613          	mv	a2,a2
 402:	00050513          	mv	a0,a0
 406:	00000097          	auipc	ra,0x0
 40a:	000080e7          	jalr	ra # 406 <.L170+0x22>

0000040e <.L171>:
 40e:	00000437          	lui	s0,0x0
 412:	00042783          	lw	a5,0(s0) # 0 <sc_wifi_scan_done>
 416:	000004b7          	lui	s1,0x0
 41a:	00048513          	mv	a0,s1
 41e:	0e47a783          	lw	a5,228(a5)
 422:	9782                	jalr	a5
 424:	00042783          	lw	a5,0(s0)
 428:	00048513          	mv	a0,s1
 42c:	0e87a783          	lw	a5,232(a5)
 430:	9782                	jalr	a5
 432:	00042783          	lw	a5,0(s0)
 436:	000005b7          	lui	a1,0x0
 43a:	4601                	li	a2,0
 43c:	0ec7a783          	lw	a5,236(a5)
 440:	00058593          	mv	a1,a1
 444:	00048513          	mv	a0,s1
 448:	9782                	jalr	a5
 44a:	000007b7          	lui	a5,0x0
 44e:	4705                	li	a4,1
 450:	4501                	li	a0,0
 452:	00e78023          	sb	a4,0(a5) # 0 <sc_wifi_scan_done>
 456:	00000097          	auipc	ra,0x0
 45a:	000080e7          	jalr	ra # 456 <.L171+0x48>
 45e:	00042783          	lw	a5,0(s0)
 462:	c79d                	beqz	a5,490 <.L172>
 464:	14c7a903          	lw	s2,332(a5)
 468:	02090463          	beqz	s2,490 <.L172>
 46c:	000004b7          	lui	s1,0x0
 470:	00048493          	mv	s1,s1
 474:	408c                	lw	a1,0(s1)
 476:	1547a783          	lw	a5,340(a5)
 47a:	c42e                	sw	a1,8(sp)
 47c:	9782                	jalr	a5
 47e:	4098                	lw	a4,0(s1)
 480:	45a2                	lw	a1,8(sp)
 482:	00000637          	lui	a2,0x0
 486:	86aa                	mv	a3,a0
 488:	00060613          	mv	a2,a2
 48c:	450d                	li	a0,3
 48e:	9902                	jalr	s2

00000490 <.L172>:
 490:	00042783          	lw	a5,0(s0)
 494:	00000537          	lui	a0,0x0
 498:	00052503          	lw	a0,0(a0) # 0 <sc_wifi_scan_done>
 49c:	0b47a783          	lw	a5,180(a5)
 4a0:	577d                	li	a4,-1
 4a2:	4681                	li	a3,0
 4a4:	4601                	li	a2,0
 4a6:	4581                	li	a1,0
 4a8:	9782                	jalr	a5
 4aa:	b921                	j	c2 <.L140>

Disassembly of section .text.esp_smartconfig_internal_start:

00000000 <esp_smartconfig_internal_start>:
   0:	1101                	add	sp,sp,-32
   2:	000007b7          	lui	a5,0x0
   6:	c42a                	sw	a0,8(sp)
   8:	00078793          	mv	a5,a5
   c:	0048                	add	a0,sp,4
   e:	4585                	li	a1,1
  10:	ce06                	sw	ra,28(sp)
  12:	c602                	sw	zero,12(sp)
  14:	c23e                	sw	a5,4(sp)
  16:	00000097          	auipc	ra,0x0
  1a:	000080e7          	jalr	ra # 16 <esp_smartconfig_internal_start+0x16>
  1e:	40f2                	lw	ra,28(sp)
  20:	6105                	add	sp,sp,32
  22:	8082                	ret

Disassembly of section .text.esp_smartconfig_internal_stop:

00000000 <esp_smartconfig_internal_stop>:
   0:	1101                	add	sp,sp,-32
   2:	000007b7          	lui	a5,0x0
   6:	00078793          	mv	a5,a5
   a:	0048                	add	a0,sp,4
   c:	4585                	li	a1,1
   e:	ce06                	sw	ra,28(sp)
  10:	c23e                	sw	a5,4(sp)
  12:	c402                	sw	zero,8(sp)
  14:	c602                	sw	zero,12(sp)
  16:	00000097          	auipc	ra,0x0
  1a:	000080e7          	jalr	ra # 16 <esp_smartconfig_internal_stop+0x16>
  1e:	40f2                	lw	ra,28(sp)
  20:	6105                	add	sp,sp,32
  22:	8082                	ret

Disassembly of section .text.sc_smartconfig_restart_local:

00000000 <sc_smartconfig_restart_local>:
   0:	7179                	add	sp,sp,-48
   2:	d422                	sw	s0,40(sp)
   4:	d606                	sw	ra,44(sp)
   6:	d226                	sw	s1,36(sp)
   8:	00000097          	auipc	ra,0x0
   c:	000080e7          	jalr	ra # 8 <sc_smartconfig_restart_local+0x8>
  10:	00000437          	lui	s0,0x0
  14:	cd31                	beqz	a0,70 <.L242>
  16:	00042783          	lw	a5,0(s0) # 0 <sc_smartconfig_restart_local>
  1a:	000004b7          	lui	s1,0x0
  1e:	00048513          	mv	a0,s1
  22:	0e47a783          	lw	a5,228(a5) # e4 <.L330+0x2>
  26:	9782                	jalr	a5
  28:	00042783          	lw	a5,0(s0)
  2c:	00048513          	mv	a0,s1
  30:	0e87a783          	lw	a5,232(a5)
  34:	9782                	jalr	a5
  36:	00042783          	lw	a5,0(s0)
  3a:	000005b7          	lui	a1,0x0
  3e:	4601                	li	a2,0
  40:	0ec7a783          	lw	a5,236(a5)
  44:	00058593          	mv	a1,a1
  48:	00048513          	mv	a0,s1
  4c:	9782                	jalr	a5
  4e:	00042783          	lw	a5,0(s0)
  52:	6585                	lui	a1,0x1
  54:	4601                	li	a2,0
  56:	0e07a783          	lw	a5,224(a5)
  5a:	38858593          	add	a1,a1,904 # 1388 <.L172+0xef8>
  5e:	00048513          	mv	a0,s1
  62:	9782                	jalr	a5

00000064 <.L243>:
  64:	50b2                	lw	ra,44(sp)
  66:	5422                	lw	s0,40(sp)
  68:	5492                	lw	s1,36(sp)
  6a:	4501                	li	a0,0
  6c:	6145                	add	sp,sp,48
  6e:	8082                	ret

00000070 <.L242>:
  70:	00000097          	auipc	ra,0x0
  74:	000080e7          	jalr	ra # 70 <.L242>
  78:	00042783          	lw	a5,0(s0)
  7c:	c795                	beqz	a5,a8 <.L244>
  7e:	14c7a483          	lw	s1,332(a5)
  82:	c09d                	beqz	s1,a8 <.L244>
  84:	00000437          	lui	s0,0x0
  88:	00040413          	mv	s0,s0
  8c:	400c                	lw	a1,0(s0)
  8e:	1547a783          	lw	a5,340(a5)
  92:	c62e                	sw	a1,12(sp)
  94:	9782                	jalr	a5
  96:	4018                	lw	a4,0(s0)
  98:	45b2                	lw	a1,12(sp)
  9a:	00000637          	lui	a2,0x0
  9e:	86aa                	mv	a3,a0
  a0:	00060613          	mv	a2,a2
  a4:	450d                	li	a0,3
  a6:	9482                	jalr	s1

000000a8 <.L244>:
  a8:	000007b7          	lui	a5,0x0
  ac:	0187c783          	lbu	a5,24(a5) # 18 <sc_smartconfig_restart_local+0x18>
  b0:	cc02                	sw	zero,24(sp)
  b2:	0828                	add	a0,sp,24
  b4:	00f037b3          	snez	a5,a5
  b8:	ce02                	sw	zero,28(sp)
  ba:	00f10c23          	sb	a5,24(sp)
  be:	00000097          	auipc	ra,0x0
  c2:	000080e7          	jalr	ra # be <.L244+0x16>
  c6:	bf79                	j	64 <.L243>

Disassembly of section .text.smartconfig_get_status:

00000000 <smartconfig_get_status>:
   0:	000007b7          	lui	a5,0x0
   4:	00078793          	mv	a5,a5
   8:	4bc8                	lw	a0,20(a5)
   a:	e129                	bnez	a0,4c <.L253>
   c:	0117c703          	lbu	a4,17(a5) # 11 <smartconfig_get_status+0x11>
  10:	cb5d                	beqz	a4,c6 <.L252>
  12:	0127c683          	lbu	a3,18(a5)
  16:	4705                	li	a4,1
  18:	0ae68663          	beq	a3,a4,c4 <.L265>
  1c:	0197c783          	lbu	a5,25(a5)
  20:	cfc1                	beqz	a5,b8 <.L261>
  22:	000007b7          	lui	a5,0x0
  26:	0007a783          	lw	a5,0(a5) # 0 <smartconfig_get_status>
  2a:	4398                	lw	a4,0(a5)
  2c:	43d4                	lw	a3,4(a5)
  2e:	0ff6f793          	zext.b	a5,a3
  32:	00e6f463          	bgeu	a3,a4,3a <.L256>
  36:	0ff77793          	zext.b	a5,a4

0000003a <.L256>:
  3a:	cfbd                	beqz	a5,b8 <.L261>
  3c:	4705                	li	a4,1
  3e:	06e78f63          	beq	a5,a4,bc <.L262>
  42:	4709                	li	a4,2

00000044 <.L280>:
  44:	08e79163          	bne	a5,a4,c6 <.L252>
  48:	450d                	li	a0,3
  4a:	8082                	ret

0000004c <.L253>:
  4c:	4705                	li	a4,1
  4e:	06e51963          	bne	a0,a4,c0 <.L264>
  52:	0117c703          	lbu	a4,17(a5)
  56:	c72d                	beqz	a4,c0 <.L264>
  58:	0127c703          	lbu	a4,18(a5)
  5c:	06a70463          	beq	a4,a0,c4 <.L265>
  60:	0197c783          	lbu	a5,25(a5)
  64:	c3ad                	beqz	a5,c6 <.L252>
  66:	000007b7          	lui	a5,0x0
  6a:	0007a703          	lw	a4,0(a5) # 0 <smartconfig_get_status>
  6e:	4781                	li	a5,0
  70:	01f74683          	lbu	a3,31(a4)
  74:	00a69863          	bne	a3,a0,84 <.L257>
  78:	000007b7          	lui	a5,0x0
  7c:	0007a783          	lw	a5,0(a5) # 0 <smartconfig_get_status>
  80:	0007c783          	lbu	a5,0(a5)

00000084 <.L257>:
  84:	02074683          	lbu	a3,32(a4)
  88:	4705                	li	a4,1
  8a:	00e69b63          	bne	a3,a4,a0 <.L258>
  8e:	00000737          	lui	a4,0x0
  92:	00072703          	lw	a4,0(a4) # 0 <smartconfig_get_status>
  96:	4318                	lw	a4,0(a4)
  98:	00e7f463          	bgeu	a5,a4,a0 <.L258>
  9c:	0ff77793          	zext.b	a5,a4

000000a0 <.L258>:
  a0:	c39d                	beqz	a5,c6 <.L252>
  a2:	fff78713          	add	a4,a5,-1
  a6:	0ff77713          	zext.b	a4,a4
  aa:	468d                	li	a3,3
  ac:	4509                	li	a0,2
  ae:	00e6fc63          	bgeu	a3,a4,c6 <.L252>
  b2:	4719                	li	a4,6
  b4:	4501                	li	a0,0
  b6:	b779                	j	44 <.L280>

000000b8 <.L261>:
  b8:	4505                	li	a0,1
  ba:	8082                	ret

000000bc <.L262>:
  bc:	4509                	li	a0,2
  be:	8082                	ret

000000c0 <.L264>:
  c0:	4501                	li	a0,0
  c2:	8082                	ret

000000c4 <.L265>:
  c4:	4511                	li	a0,4

000000c6 <.L252>:
  c6:	8082                	ret

Disassembly of section .text.esp_smartconfig_start_local:

00000000 <esp_smartconfig_start_local>:
   0:	7139                	add	sp,sp,-64
   2:	d64e                	sw	s3,44(sp)
   4:	de06                	sw	ra,60(sp)
   6:	dc22                	sw	s0,56(sp)
   8:	da26                	sw	s1,52(sp)
   a:	d84a                	sw	s2,48(sp)
   c:	d452                	sw	s4,40(sp)
   e:	d256                	sw	s5,36(sp)
  10:	000009b7          	lui	s3,0x0
  14:	e539                	bnez	a0,62 <.L282>
  16:	0009a783          	lw	a5,0(s3) # 0 <esp_smartconfig_start_local>
  1a:	10200413          	li	s0,258
  1e:	cb85                	beqz	a5,4e <.L281>
  20:	14c7a483          	lw	s1,332(a5)
  24:	c48d                	beqz	s1,4e <.L281>
  26:	00000437          	lui	s0,0x0
  2a:	00040413          	mv	s0,s0
  2e:	400c                	lw	a1,0(s0)
  30:	1547a783          	lw	a5,340(a5)
  34:	c62e                	sw	a1,12(sp)
  36:	9782                	jalr	a5
  38:	4018                	lw	a4,0(s0)
  3a:	45b2                	lw	a1,12(sp)
  3c:	00000637          	lui	a2,0x0
  40:	86aa                	mv	a3,a0
  42:	00060613          	mv	a2,a2
  46:	4505                	li	a0,1
  48:	9482                	jalr	s1
  4a:	10200413          	li	s0,258

0000004e <.L281>:
  4e:	50f2                	lw	ra,60(sp)
  50:	8522                	mv	a0,s0
  52:	5462                	lw	s0,56(sp)
  54:	54d2                	lw	s1,52(sp)
  56:	5942                	lw	s2,48(sp)
  58:	59b2                	lw	s3,44(sp)
  5a:	5a22                	lw	s4,40(sp)
  5c:	5a92                	lw	s5,36(sp)
  5e:	6121                	add	sp,sp,64
  60:	8082                	ret

00000062 <.L282>:
  62:	892a                	mv	s2,a0
  64:	0868                	add	a0,sp,28
  66:	00000097          	auipc	ra,0x0
  6a:	000080e7          	jalr	ra # 66 <.L282+0x4>
  6e:	842a                	mv	s0,a0
  70:	c91d                	beqz	a0,a6 <.L284>
  72:	0009a783          	lw	a5,0(s3)
  76:	547d                	li	s0,-1
  78:	dbf9                	beqz	a5,4e <.L281>
  7a:	14c7a483          	lw	s1,332(a5)
  7e:	d8e1                	beqz	s1,4e <.L281>
  80:	00000437          	lui	s0,0x0
  84:	00040413          	mv	s0,s0
  88:	400c                	lw	a1,0(s0)
  8a:	1547a783          	lw	a5,340(a5)
  8e:	c62e                	sw	a1,12(sp)
  90:	9782                	jalr	a5
  92:	4018                	lw	a4,0(s0)
  94:	00000637          	lui	a2,0x0
  98:	86aa                	mv	a3,a0
  9a:	00060613          	mv	a2,a2

0000009e <.L331>:
  9e:	45b2                	lw	a1,12(sp)
  a0:	4505                	li	a0,1
  a2:	9482                	jalr	s1
  a4:	a83d                	j	e2 <.L330>

000000a6 <.L284>:
  a6:	4772                	lw	a4,28(sp)
  a8:	4789                	li	a5,2
  aa:	02f71e63          	bne	a4,a5,e6 <.L285>
  ae:	0009a783          	lw	a5,0(s3)
  b2:	547d                	li	s0,-1
  b4:	dfc9                	beqz	a5,4e <.L281>
  b6:	14c7a483          	lw	s1,332(a5)
  ba:	d8d1                	beqz	s1,4e <.L281>
  bc:	00000437          	lui	s0,0x0
  c0:	00040413          	mv	s0,s0
  c4:	400c                	lw	a1,0(s0)
  c6:	1547a783          	lw	a5,340(a5)
  ca:	c62e                	sw	a1,12(sp)
  cc:	9782                	jalr	a5
  ce:	47f2                	lw	a5,28(sp)
  d0:	4018                	lw	a4,0(s0)
  d2:	45b2                	lw	a1,12(sp)
  d4:	00000637          	lui	a2,0x0
  d8:	86aa                	mv	a3,a0
  da:	00060613          	mv	a2,a2
  de:	4505                	li	a0,1
  e0:	9482                	jalr	s1

000000e2 <.L330>:
  e2:	547d                	li	s0,-1
  e4:	b7ad                	j	4e <.L281>

000000e6 <.L285>:
  e6:	00000097          	auipc	ra,0x0
  ea:	000080e7          	jalr	ra # e6 <.L285>
  ee:	c905                	beqz	a0,11e <.L286>
  f0:	0009a783          	lw	a5,0(s3)
  f4:	547d                	li	s0,-1
  f6:	dfa1                	beqz	a5,4e <.L281>
  f8:	14c7a483          	lw	s1,332(a5)
  fc:	d8a9                	beqz	s1,4e <.L281>
  fe:	00000437          	lui	s0,0x0
 102:	00040413          	mv	s0,s0
 106:	400c                	lw	a1,0(s0)
 108:	1547a783          	lw	a5,340(a5)
 10c:	c62e                	sw	a1,12(sp)
 10e:	9782                	jalr	a5
 110:	00000637          	lui	a2,0x0
 114:	4018                	lw	a4,0(s0)
 116:	86aa                	mv	a3,a0
 118:	00060613          	mv	a2,a2
 11c:	b749                	j	9e <.L331>

0000011e <.L286>:
 11e:	00000097          	auipc	ra,0x0
 122:	000080e7          	jalr	ra # 11e <.L286>
 126:	85aa                	mv	a1,a0
 128:	cd19                	beqz	a0,146 <.L287>
 12a:	00000637          	lui	a2,0x0
 12e:	00000537          	lui	a0,0x0
 132:	23d00693          	li	a3,573
 136:	00060613          	mv	a2,a2
 13a:	00050513          	mv	a0,a0
 13e:	00000097          	auipc	ra,0x0
 142:	000080e7          	jalr	ra # 13e <.L286+0x20>

00000146 <.L287>:
 146:	0009a783          	lw	a5,0(s3)
 14a:	03200513          	li	a0,50
 14e:	09c7a483          	lw	s1,156(a5)
 152:	0a07a783          	lw	a5,160(a5)
 156:	9782                	jalr	a5
 158:	9482                	jalr	s1
 15a:	00094703          	lbu	a4,0(s2)
 15e:	000004b7          	lui	s1,0x0
 162:	00048793          	mv	a5,s1
 166:	00e78c23          	sb	a4,24(a5)
 16a:	0009a783          	lw	a5,0(s3)
 16e:	00048493          	mv	s1,s1
 172:	cf8d                	beqz	a5,1ac <.L288>
 174:	14c7aa83          	lw	s5,332(a5)
 178:	020a8a63          	beqz	s5,1ac <.L288>
 17c:	00000a37          	lui	s4,0x0
 180:	000a0a13          	mv	s4,s4
 184:	000a2583          	lw	a1,0(s4) # 0 <esp_smartconfig_start_local>
 188:	1547a783          	lw	a5,340(a5)
 18c:	c62e                	sw	a1,12(sp)
 18e:	9782                	jalr	a5
 190:	000a2703          	lw	a4,0(s4)
 194:	45b2                	lw	a1,12(sp)
 196:	000007b7          	lui	a5,0x0
 19a:	00000637          	lui	a2,0x0
 19e:	86aa                	mv	a3,a0
 1a0:	00078793          	mv	a5,a5
 1a4:	00060613          	mv	a2,a2
 1a8:	450d                	li	a0,3
 1aa:	9a82                	jalr	s5

000001ac <.L288>:
 1ac:	00049823          	sh	zero,16(s1) # 10 <esp_smartconfig_start_local+0x10>
 1b0:	4501                	li	a0,0
 1b2:	00048923          	sb	zero,18(s1)
 1b6:	00048ca3          	sb	zero,25(s1)
 1ba:	00000097          	auipc	ra,0x0
 1be:	000080e7          	jalr	ra # 1ba <.L288+0xe>
 1c2:	cd05                	beqz	a0,1fa <.L289>
 1c4:	0009a783          	lw	a5,0(s3)
 1c8:	cb8d                	beqz	a5,1fa <.L289>
 1ca:	14c7aa03          	lw	s4,332(a5) # 14c <.L287+0x6>
 1ce:	020a0663          	beqz	s4,1fa <.L289>
 1d2:	000009b7          	lui	s3,0x0
 1d6:	00098993          	mv	s3,s3
 1da:	0009a583          	lw	a1,0(s3) # 0 <esp_smartconfig_start_local>
 1de:	1547a783          	lw	a5,340(a5)
 1e2:	c62e                	sw	a1,12(sp)
 1e4:	9782                	jalr	a5
 1e6:	0009a703          	lw	a4,0(s3)
 1ea:	45b2                	lw	a1,12(sp)
 1ec:	00000637          	lui	a2,0x0
 1f0:	86aa                	mv	a3,a0
 1f2:	00060613          	mv	a2,a2
 1f6:	4505                	li	a0,1
 1f8:	9a02                	jalr	s4

000001fa <.L289>:
 1fa:	00000097          	auipc	ra,0x0
 1fe:	000080e7          	jalr	ra # 1fa <.L289>
 202:	000007b7          	lui	a5,0x0
 206:	0007a783          	lw	a5,0(a5) # 0 <esp_smartconfig_start_local>
 20a:	4709                	li	a4,2
 20c:	02e78563          	beq	a5,a4,236 <.L290>
 210:	00f76863          	bltu	a4,a5,220 <.L291>
 214:	e78d                	bnez	a5,23e <.L328>
 216:	00000097          	auipc	ra,0x0
 21a:	000080e7          	jalr	ra # 216 <.L289+0x1c>
 21e:	a021                	j	226 <.L295>

00000220 <.L291>:
 220:	470d                	li	a4,3
 222:	02e78363          	beq	a5,a4,248 <.L294>

00000226 <.L295>:
 226:	00000097          	auipc	ra,0x0
 22a:	000080e7          	jalr	ra # 226 <.L295>
 22e:	4785                	li	a5,1
 230:	00f488a3          	sb	a5,17(s1)
 234:	bd29                	j	4e <.L281>

00000236 <.L290>:
 236:	00000097          	auipc	ra,0x0
 23a:	000080e7          	jalr	ra # 236 <.L290>

0000023e <.L328>:
 23e:	00000097          	auipc	ra,0x0
 242:	000080e7          	jalr	ra # 23e <.L328>
 246:	b7c5                	j	226 <.L295>

00000248 <.L294>:
 248:	00000097          	auipc	ra,0x0
 24c:	000080e7          	jalr	ra # 248 <.L294>
 250:	00194783          	lbu	a5,1(s2)
 254:	dbe9                	beqz	a5,226 <.L295>
 256:	00492783          	lw	a5,4(s2)
 25a:	d7f1                	beqz	a5,226 <.L295>
 25c:	00000097          	auipc	ra,0x0
 260:	000080e7          	jalr	ra # 25c <.L294+0x14>
 264:	00492903          	lw	s2,4(s2)
 268:	854a                	mv	a0,s2
 26a:	00000097          	auipc	ra,0x0
 26e:	000080e7          	jalr	ra # 26a <.L294+0x22>
 272:	0ff57593          	zext.b	a1,a0
 276:	854a                	mv	a0,s2
 278:	00000097          	auipc	ra,0x0
 27c:	000080e7          	jalr	ra # 278 <.L294+0x30>
 280:	b75d                	j	226 <.L295>

Disassembly of section .text.esp_esptouch_set_timeout_local:

00000000 <esp_esptouch_set_timeout_local>:
   0:	1141                	add	sp,sp,-16
   2:	c422                	sw	s0,8(sp)
   4:	c606                	sw	ra,12(sp)
   6:	842a                	mv	s0,a0
   8:	00000097          	auipc	ra,0x0
   c:	000080e7          	jalr	ra # 8 <esp_esptouch_set_timeout_local+0x8>
  10:	ed19                	bnez	a0,2e <.L335>
  12:	47bd                	li	a5,15
  14:	8522                	mv	a0,s0
  16:	00f47363          	bgeu	s0,a5,1c <.L334>
  1a:	453d                	li	a0,15

0000001c <.L334>:
  1c:	000007b7          	lui	a5,0x0
  20:	00a7a023          	sw	a0,0(a5) # 0 <esp_esptouch_set_timeout_local>
  24:	4501                	li	a0,0

00000026 <.L332>:
  26:	40b2                	lw	ra,12(sp)
  28:	4422                	lw	s0,8(sp)
  2a:	0141                	add	sp,sp,16
  2c:	8082                	ret

0000002e <.L335>:
  2e:	557d                	li	a0,-1
  30:	bfdd                	j	26 <.L332>

Disassembly of section .text.esp_smartconfig_set_type_local:

00000000 <esp_smartconfig_set_type_local>:
   0:	1141                	add	sp,sp,-16
   2:	c422                	sw	s0,8(sp)
   4:	c606                	sw	ra,12(sp)
   6:	842a                	mv	s0,a0
   8:	00000097          	auipc	ra,0x0
   c:	000080e7          	jalr	ra # 8 <esp_smartconfig_set_type_local+0x8>
  10:	ed01                	bnez	a0,28 <.L339>
  12:	478d                	li	a5,3
  14:	0087e663          	bltu	a5,s0,20 <.L337>
  18:	000007b7          	lui	a5,0x0
  1c:	0087a023          	sw	s0,0(a5) # 0 <esp_smartconfig_set_type_local>

00000020 <.L337>:
  20:	40b2                	lw	ra,12(sp)
  22:	4422                	lw	s0,8(sp)
  24:	0141                	add	sp,sp,16
  26:	8082                	ret

00000028 <.L339>:
  28:	557d                	li	a0,-1
  2a:	bfdd                	j	20 <.L337>

Disassembly of section .text.esp_smartconfig_get_version:

00000000 <esp_smartconfig_get_version>:
   0:	00000537          	lui	a0,0x0
   4:	00050513          	mv	a0,a0
   8:	8082                	ret

Disassembly of section .text.esp_esptouch_set_timeout:

00000000 <esp_esptouch_set_timeout>:
   0:	1101                	add	sp,sp,-32
   2:	000007b7          	lui	a5,0x0
   6:	c42a                	sw	a0,8(sp)
   8:	00078793          	mv	a5,a5
   c:	0048                	add	a0,sp,4
   e:	4585                	li	a1,1
  10:	ce06                	sw	ra,28(sp)
  12:	c23e                	sw	a5,4(sp)
  14:	c602                	sw	zero,12(sp)
  16:	00000097          	auipc	ra,0x0
  1a:	000080e7          	jalr	ra # 16 <esp_esptouch_set_timeout+0x16>
  1e:	40f2                	lw	ra,28(sp)
  20:	4501                	li	a0,0
  22:	6105                	add	sp,sp,32
  24:	8082                	ret

Disassembly of section .text.esp_smartconfig_set_type:

00000000 <esp_smartconfig_set_type>:
   0:	1101                	add	sp,sp,-32
   2:	000007b7          	lui	a5,0x0
   6:	c42a                	sw	a0,8(sp)
   8:	00078793          	mv	a5,a5
   c:	0048                	add	a0,sp,4
   e:	4585                	li	a1,1
  10:	ce06                	sw	ra,28(sp)
  12:	c23e                	sw	a5,4(sp)
  14:	c602                	sw	zero,12(sp)
  16:	00000097          	auipc	ra,0x0
  1a:	000080e7          	jalr	ra # 16 <esp_smartconfig_set_type+0x16>
  1e:	40f2                	lw	ra,28(sp)
  20:	6105                	add	sp,sp,32
  22:	8082                	ret

Disassembly of section .text.esp_smartconfig_get_type:

00000000 <esp_smartconfig_get_type>:
   0:	000007b7          	lui	a5,0x0
   4:	0007a503          	lw	a0,0(a5) # 0 <esp_smartconfig_get_type>
   8:	8082                	ret

Disassembly of section .text.esp_smartconfig_fast_mode:

00000000 <esp_smartconfig_fast_mode>:
   0:	1101                	add	sp,sp,-32
   2:	000007b7          	lui	a5,0x0
   6:	c42a                	sw	a0,8(sp)
   8:	00078793          	mv	a5,a5
   c:	0048                	add	a0,sp,4
   e:	4585                	li	a1,1
  10:	ce06                	sw	ra,28(sp)
  12:	c23e                	sw	a5,4(sp)
  14:	c602                	sw	zero,12(sp)
  16:	00000097          	auipc	ra,0x0
  1a:	000080e7          	jalr	ra # 16 <esp_smartconfig_fast_mode+0x16>
  1e:	40f2                	lw	ra,28(sp)
  20:	6105                	add	sp,sp,32
  22:	8082                	ret

Disassembly of section .text.esp_smartconfig_get_rvd_data:

00000000 <esp_smartconfig_get_rvd_data>:
   0:	000007b7          	lui	a5,0x0
   4:	0007a703          	lw	a4,0(a5) # 0 <esp_smartconfig_get_rvd_data>
   8:	7179                	add	sp,sp,-48
   a:	d606                	sw	ra,44(sp)
   c:	d422                	sw	s0,40(sp)
   e:	d226                	sw	s1,36(sp)
  10:	d04a                	sw	s2,32(sp)
  12:	ce4e                	sw	s3,28(sp)
  14:	cc52                	sw	s4,24(sp)
  16:	ca56                	sw	s5,20(sp)
  18:	478d                	li	a5,3
  1a:	04f70763          	beq	a4,a5,68 <.L351>
  1e:	000007b7          	lui	a5,0x0
  22:	0007a783          	lw	a5,0(a5) # 0 <esp_smartconfig_get_rvd_data>
  26:	557d                	li	a0,-1
  28:	c79d                	beqz	a5,56 <.L350>
  2a:	14c7a483          	lw	s1,332(a5)
  2e:	c485                	beqz	s1,56 <.L350>
  30:	00000437          	lui	s0,0x0
  34:	00040413          	mv	s0,s0
  38:	400c                	lw	a1,0(s0)
  3a:	1547a783          	lw	a5,340(a5)
  3e:	c62e                	sw	a1,12(sp)
  40:	9782                	jalr	a5
  42:	4018                	lw	a4,0(s0)
  44:	45b2                	lw	a1,12(sp)
  46:	00000637          	lui	a2,0x0
  4a:	86aa                	mv	a3,a0
  4c:	00060613          	mv	a2,a2
  50:	4505                	li	a0,1
  52:	9482                	jalr	s1
  54:	557d                	li	a0,-1

00000056 <.L350>:
  56:	50b2                	lw	ra,44(sp)
  58:	5422                	lw	s0,40(sp)
  5a:	5492                	lw	s1,36(sp)
  5c:	5902                	lw	s2,32(sp)
  5e:	49f2                	lw	s3,28(sp)
  60:	4a62                	lw	s4,24(sp)
  62:	4ad2                	lw	s5,20(sp)
  64:	6145                	add	sp,sp,48
  66:	8082                	ret

00000068 <.L351>:
  68:	842a                	mv	s0,a0
  6a:	557d                	li	a0,-1
  6c:	d46d                	beqz	s0,56 <.L350>
  6e:	000009b7          	lui	s3,0x0
  72:	0009a783          	lw	a5,0(s3) # 0 <esp_smartconfig_get_rvd_data>
  76:	6a85                	lui	s5,0x1
  78:	84ae                	mv	s1,a1
  7a:	97d6                	add	a5,a5,s5
  7c:	a417c783          	lbu	a5,-1471(a5)
  80:	04b7e463          	bltu	a5,a1,c8 <.L353>
  84:	000007b7          	lui	a5,0x0
  88:	0007a783          	lw	a5,0(a5) # 0 <esp_smartconfig_get_rvd_data>
  8c:	cf95                	beqz	a5,c8 <.L353>
  8e:	14c7aa03          	lw	s4,332(a5)
  92:	020a0b63          	beqz	s4,c8 <.L353>
  96:	00000937          	lui	s2,0x0
  9a:	00090913          	mv	s2,s2
  9e:	00092583          	lw	a1,0(s2) # 0 <esp_smartconfig_get_rvd_data>
  a2:	1547a783          	lw	a5,340(a5)
  a6:	c62e                	sw	a1,12(sp)
  a8:	9782                	jalr	a5
  aa:	0009a783          	lw	a5,0(s3)
  ae:	00092703          	lw	a4,0(s2)
  b2:	45b2                	lw	a1,12(sp)
  b4:	97d6                	add	a5,a5,s5
  b6:	a417c783          	lbu	a5,-1471(a5)
  ba:	00000637          	lui	a2,0x0
  be:	86aa                	mv	a3,a0
  c0:	00060613          	mv	a2,a2
  c4:	450d                	li	a0,3
  c6:	9a02                	jalr	s4

000000c8 <.L353>:
  c8:	0009a583          	lw	a1,0(s3)
  cc:	6785                	lui	a5,0x1
  ce:	97ae                	add	a5,a5,a1
  d0:	a417c903          	lbu	s2,-1471(a5) # a41 <.L172+0x5b1>
  d4:	00996563          	bltu	s2,s1,de <.L354>
  d8:	14fd                	add	s1,s1,-1
  da:	0ff4f913          	zext.b	s2,s1

000000de <.L354>:
  de:	6785                	lui	a5,0x1
  e0:	aac78793          	add	a5,a5,-1364 # aac <.L172+0x61c>
  e4:	8522                	mv	a0,s0
  e6:	864a                	mv	a2,s2
  e8:	95be                	add	a1,a1,a5
  ea:	00000097          	auipc	ra,0x0
  ee:	000080e7          	jalr	ra # ea <.L354+0xc>
  f2:	944a                	add	s0,s0,s2
  f4:	00040023          	sb	zero,0(s0) # 0 <esp_smartconfig_get_rvd_data>
  f8:	4501                	li	a0,0
  fa:	bfb1                	j	56 <.L350>

Disassembly of section .text.esp_smartconfig_internal_set_encrypt:

00000000 <esp_smartconfig_internal_set_encrypt>:
   0:	000007b7          	lui	a5,0x0
   4:	00a78023          	sb	a0,0(a5) # 0 <esp_smartconfig_internal_set_encrypt>
   8:	c11d                	beqz	a0,2e <.L366>
   a:	000007b7          	lui	a5,0x0
   e:	06300713          	li	a4,99
  12:	00e79023          	sh	a4,0(a5) # 0 <esp_smartconfig_internal_set_encrypt>
  16:	000007b7          	lui	a5,0x0
  1a:	19c00713          	li	a4,412
  1e:	00e79023          	sh	a4,0(a5) # 0 <esp_smartconfig_internal_set_encrypt>
  22:	000007b7          	lui	a5,0x0
  26:	1da00713          	li	a4,474
  2a:	00e79023          	sh	a4,0(a5) # 0 <esp_smartconfig_internal_set_encrypt>

0000002e <.L366>:
  2e:	4501                	li	a0,0
  30:	8082                	ret

sc_esptouch.o:     file format elf32-littleriscv


Disassembly of section .text.restart_delay_cb_local:

00000000 <restart_delay_cb_local>:
   0:	000007b7          	lui	a5,0x0
   4:	00078023          	sb	zero,0(a5) # 0 <restart_delay_cb_local>
   8:	4501                	li	a0,0
   a:	8082                	ret

Disassembly of section .text.restart_delay_cb:

00000000 <restart_delay_cb>:
   0:	1101                	add	sp,sp,-32
   2:	000007b7          	lui	a5,0x0
   6:	c42a                	sw	a0,8(sp)
   8:	00078793          	mv	a5,a5
   c:	0048                	add	a0,sp,4
   e:	4581                	li	a1,0
  10:	ce06                	sw	ra,28(sp)
  12:	c23e                	sw	a5,4(sp)
  14:	c602                	sw	zero,12(sp)
  16:	00000097          	auipc	ra,0x0
  1a:	000080e7          	jalr	ra # 16 <restart_delay_cb+0x16>
  1e:	40f2                	lw	ra,28(sp)
  20:	6105                	add	sp,sp,32
  22:	8082                	ret

Disassembly of section .text.get_delay_restart_flag:

00000000 <get_delay_restart_flag>:
   0:	000007b7          	lui	a5,0x0
   4:	0007c503          	lbu	a0,0(a5) # 0 <get_delay_restart_flag>
   8:	8082                	ret

Disassembly of section .text.set_delay_restart_flag:

00000000 <set_delay_restart_flag>:
   0:	00a03533          	snez	a0,a0
   4:	000007b7          	lui	a5,0x0
   8:	00a78023          	sb	a0,0(a5) # 0 <set_delay_restart_flag>
   c:	8082                	ret

Disassembly of section .text.TOUCH_Init_guide_glob:

00000000 <TOUCH_Init_guide_glob>:
   0:	1141                	add	sp,sp,-16
   2:	c422                	sw	s0,8(sp)
   4:	00000437          	lui	s0,0x0
   8:	00040413          	mv	s0,s0
   c:	401c                	lw	a5,0(s0)
   e:	c606                	sw	ra,12(sp)
  10:	e78d                	bnez	a5,3a <.L7>
  12:	000007b7          	lui	a5,0x0
  16:	0007a783          	lw	a5,0(a5) # 0 <TOUCH_Init_guide_glob>
  1a:	4585                	li	a1,1
  1c:	05c00513          	li	a0,92
  20:	1707a783          	lw	a5,368(a5)
  24:	9782                	jalr	a5
  26:	c008                	sw	a0,0(s0)
  28:	e909                	bnez	a0,3a <.L7>

0000002a <.L9>:
  2a:	4422                	lw	s0,8(sp)
  2c:	40b2                	lw	ra,12(sp)
  2e:	4501                	li	a0,0
  30:	0141                	add	sp,sp,16
  32:	00000317          	auipc	t1,0x0
  36:	00030067          	jr	t1 # 32 <.L9+0x8>

0000003a <.L7>:
  3a:	00000437          	lui	s0,0x0
  3e:	00040793          	mv	a5,s0
  42:	439c                	lw	a5,0(a5)
  44:	00040413          	mv	s0,s0
  48:	ef89                	bnez	a5,62 <.L8>
  4a:	000007b7          	lui	a5,0x0
  4e:	0007a783          	lw	a5,0(a5) # 0 <TOUCH_Init_guide_glob>
  52:	4585                	li	a1,1
  54:	4541                	li	a0,16
  56:	1707a783          	lw	a5,368(a5)
  5a:	9782                	jalr	a5
  5c:	c008                	sw	a0,0(s0)
  5e:	00052623          	sw	zero,12(a0)

00000062 <.L8>:
  62:	401c                	lw	a5,0(s0)
  64:	d3f9                	beqz	a5,2a <.L9>
  66:	40b2                	lw	ra,12(sp)
  68:	4422                	lw	s0,8(sp)
  6a:	00000737          	lui	a4,0x0
  6e:	00f72023          	sw	a5,0(a4) # 0 <TOUCH_Init_guide_glob>
  72:	0141                	add	sp,sp,16
  74:	8082                	ret

Disassembly of section .text.TOUCH_Free_guide_glob:

00000000 <TOUCH_Free_guide_glob>:
   0:	1141                	add	sp,sp,-16
   2:	c422                	sw	s0,8(sp)
   4:	00000437          	lui	s0,0x0
   8:	00040413          	mv	s0,s0
   c:	4008                	lw	a0,0(s0)
   e:	c606                	sw	ra,12(sp)
  10:	c226                	sw	s1,4(sp)
  12:	c04a                	sw	s2,0(sp)
  14:	c911                	beqz	a0,28 <.L15>
  16:	000007b7          	lui	a5,0x0
  1a:	0007a783          	lw	a5,0(a5) # 0 <TOUCH_Free_guide_glob>
  1e:	0b07a783          	lw	a5,176(a5)
  22:	9782                	jalr	a5
  24:	00042023          	sw	zero,0(s0) # 0 <TOUCH_Free_guide_glob>

00000028 <.L15>:
  28:	000007b7          	lui	a5,0x0
  2c:	00078713          	mv	a4,a5
  30:	4308                	lw	a0,0(a4)
  32:	00000437          	lui	s0,0x0
  36:	00078493          	mv	s1,a5
  3a:	00040413          	mv	s0,s0
  3e:	00000937          	lui	s2,0x0

00000042 <.L16>:
  42:	e919                	bnez	a0,58 <.L17>
  44:	40b2                	lw	ra,12(sp)
  46:	00042023          	sw	zero,0(s0) # 0 <TOUCH_Free_guide_glob>
  4a:	4422                	lw	s0,8(sp)
  4c:	0004a023          	sw	zero,0(s1)
  50:	4902                	lw	s2,0(sp)
  52:	4492                	lw	s1,4(sp)
  54:	0141                	add	sp,sp,16
  56:	8082                	ret

00000058 <.L17>:
  58:	455c                	lw	a5,12(a0)
  5a:	c01c                	sw	a5,0(s0)
  5c:	00092783          	lw	a5,0(s2) # 0 <TOUCH_Free_guide_glob>
  60:	0b07a783          	lw	a5,176(a5) # b0 <.L31+0x8>
  64:	9782                	jalr	a5
  66:	4008                	lw	a0,0(s0)
  68:	bfe9                	j	42 <.L16>

Disassembly of section .text.TOUCH_Init_glob:

00000000 <TOUCH_Init_glob>:
   0:	1141                	add	sp,sp,-16
   2:	c422                	sw	s0,8(sp)
   4:	00000437          	lui	s0,0x0
   8:	00040413          	mv	s0,s0
   c:	401c                	lw	a5,0(s0)
   e:	c606                	sw	ra,12(sp)
  10:	e79d                	bnez	a5,3e <.L22>
  12:	000007b7          	lui	a5,0x0
  16:	0007a783          	lw	a5,0(a5) # 0 <TOUCH_Init_glob>
  1a:	4585                	li	a1,1
  1c:	1a400513          	li	a0,420
  20:	1707a783          	lw	a5,368(a5)
  24:	9782                	jalr	a5
  26:	c008                	sw	a0,0(s0)
  28:	e901                	bnez	a0,38 <.L24>
  2a:	4422                	lw	s0,8(sp)
  2c:	40b2                	lw	ra,12(sp)
  2e:	0141                	add	sp,sp,16
  30:	00000317          	auipc	t1,0x0
  34:	00030067          	jr	t1 # 30 <TOUCH_Init_glob+0x30>

00000038 <.L24>:
  38:	577d                	li	a4,-1
  3a:	06e50b23          	sb	a4,118(a0)

0000003e <.L22>:
  3e:	40b2                	lw	ra,12(sp)
  40:	4422                	lw	s0,8(sp)
  42:	0141                	add	sp,sp,16
  44:	8082                	ret

Disassembly of section .text.TOUCH_Find_sync_ht20_end.constprop.0:

00000000 <TOUCH_Find_sync_ht20_end.constprop.0>:
   0:	000007b7          	lui	a5,0x0
   4:	0007a783          	lw	a5,0(a5) # 0 <TOUCH_Find_sync_ht20_end.constprop.0>
   8:	711d                	add	sp,sp,-96
   a:	cca2                	sw	s0,88(sp)
   c:	caa6                	sw	s1,84(sp)
   e:	47c0                	lw	s0,12(a5)
  10:	c6ce                	sw	s3,76(sp)
  12:	ce86                	sw	ra,92(sp)
  14:	c8ca                	sw	s2,80(sp)
  16:	c4d2                	sw	s4,72(sp)
  18:	c2d6                	sw	s5,68(sp)
  1a:	c0da                	sw	s6,64(sp)
  1c:	de5e                	sw	s7,60(sp)
  1e:	dc62                	sw	s8,56(sp)
  20:	000004b7          	lui	s1,0x0
  24:	00000097          	auipc	ra,0x0
  28:	000080e7          	jalr	ra # 24 <TOUCH_Find_sync_ht20_end.constprop.0+0x24>
  2c:	4981                	li	s3,0
  2e:	4781                	li	a5,0
  30:	00048493          	mv	s1,s1

00000034 <.L27>:
  34:	ec71                	bnez	s0,110 <.L30>
  36:	00000937          	lui	s2,0x0
  3a:	00090713          	mv	a4,s2
  3e:	01874683          	lbu	a3,24(a4)
  42:	4705                	li	a4,1
  44:	00090913          	mv	s2,s2
  48:	00000437          	lui	s0,0x0
  4c:	04e69e63          	bne	a3,a4,a8 <.L31>
  50:	00042703          	lw	a4,0(s0) # 0 <TOUCH_Find_sync_ht20_end.constprop.0>
  54:	ce3e                	sw	a5,28(sp)
  56:	cb29                	beqz	a4,a8 <.L31>
  58:	14c72483          	lw	s1,332(a4)
  5c:	c4b1                	beqz	s1,a8 <.L31>
  5e:	00000a37          	lui	s4,0x0
  62:	02814803          	lbu	a6,40(sp)
  66:	000a2583          	lw	a1,0(s4) # 0 <TOUCH_Find_sync_ht20_end.constprop.0>
  6a:	15472703          	lw	a4,340(a4)
  6e:	cc42                	sw	a6,24(sp)
  70:	ca2e                	sw	a1,20(sp)
  72:	9702                	jalr	a4
  74:	02d14703          	lbu	a4,45(sp)
  78:	02914883          	lbu	a7,41(sp)
  7c:	4862                	lw	a6,24(sp)
  7e:	c63a                	sw	a4,12(sp)
  80:	02c14703          	lbu	a4,44(sp)
  84:	47f2                	lw	a5,28(sp)
  86:	45d2                	lw	a1,20(sp)
  88:	c43a                	sw	a4,8(sp)
  8a:	02b14703          	lbu	a4,43(sp)
  8e:	00000637          	lui	a2,0x0
  92:	86aa                	mv	a3,a0
  94:	c23a                	sw	a4,4(sp)
  96:	02a14703          	lbu	a4,42(sp)
  9a:	00060613          	mv	a2,a2
  9e:	450d                	li	a0,3
  a0:	c03a                	sw	a4,0(sp)
  a2:	000a2703          	lw	a4,0(s4)
  a6:	9482                	jalr	s1

000000a8 <.L31>:
  a8:	4785                	li	a5,1
  aa:	00f90ca3          	sb	a5,25(s2) # 19 <TOUCH_Find_sync_ht20_end.constprop.0+0x19>
  ae:	00042783          	lw	a5,0(s0)
  b2:	00092a23          	sw	zero,20(s2)
  b6:	c795                	beqz	a5,e2 <.L32>
  b8:	14c7a483          	lw	s1,332(a5)
  bc:	c09d                	beqz	s1,e2 <.L32>
  be:	00000a37          	lui	s4,0x0
  c2:	000a2583          	lw	a1,0(s4) # 0 <TOUCH_Find_sync_ht20_end.constprop.0>
  c6:	1547a783          	lw	a5,340(a5)
  ca:	ca2e                	sw	a1,20(sp)
  cc:	9782                	jalr	a5
  ce:	000a2703          	lw	a4,0(s4)
  d2:	45d2                	lw	a1,20(sp)
  d4:	00000637          	lui	a2,0x0
  d8:	86aa                	mv	a3,a0
  da:	00060613          	mv	a2,a2
  de:	450d                	li	a0,3
  e0:	9482                	jalr	s1

000000e2 <.L32>:
  e2:	000004b7          	lui	s1,0x0
  e6:	00048793          	mv	a5,s1
  ea:	439c                	lw	a5,0(a5)
  ec:	4705                	li	a4,1
  ee:	00048493          	mv	s1,s1
  f2:	01378423          	sb	s3,8(a5)
  f6:	c398                	sw	a4,0(a5)
  f8:	00e78ba3          	sb	a4,23(a5)
  fc:	000007b7          	lui	a5,0x0
 100:	0007a783          	lw	a5,0(a5) # 0 <TOUCH_Find_sync_ht20_end.constprop.0>
 104:	0587a983          	lw	s3,88(a5)

00000108 <.L33>:
 108:	02099e63          	bnez	s3,144 <.L36>
 10c:	4a01                	li	s4,0
 10e:	a881                	j	15e <.L35>

00000110 <.L30>:
 110:	00640903          	lb	s2,6(s0)
 114:	0127c363          	blt	a5,s2,11a <.L28>
 118:	e785                	bnez	a5,140 <.L29>

0000011a <.L28>:
 11a:	4619                	li	a2,6
 11c:	85a2                	mv	a1,s0
 11e:	1028                	add	a0,sp,40
 120:	00000097          	auipc	ra,0x0
 124:	000080e7          	jalr	ra # 120 <.L28+0x6>
 128:	409c                	lw	a5,0(s1)
 12a:	00844703          	lbu	a4,8(s0)
 12e:	00744983          	lbu	s3,7(s0)
 132:	00e78e23          	sb	a4,28(a5)
 136:	00a45703          	lhu	a4,10(s0)
 13a:	00e79f23          	sh	a4,30(a5)
 13e:	87ca                	mv	a5,s2

00000140 <.L29>:
 140:	4440                	lw	s0,12(s0)
 142:	bdcd                	j	34 <.L27>

00000144 <.L36>:
 144:	4619                	li	a2,6
 146:	85ce                	mv	a1,s3
 148:	1028                	add	a0,sp,40
 14a:	00000097          	auipc	ra,0x0
 14e:	000080e7          	jalr	ra # 14a <.L36+0x6>
 152:	2a051e63          	bnez	a0,40e <.L34>
 156:	0549ca03          	lbu	s4,84(s3)
 15a:	02e9c983          	lbu	s3,46(s3)

0000015e <.L35>:
 15e:	00042783          	lw	a5,0(s0)
 162:	00000ab7          	lui	s5,0x0
 166:	000a8513          	mv	a0,s5
 16a:	0e47a783          	lw	a5,228(a5)
 16e:	00000bb7          	lui	s7,0x0
 172:	00000b37          	lui	s6,0x0
 176:	9782                	jalr	a5
 178:	00042783          	lw	a5,0(s0)
 17c:	000a8513          	mv	a0,s5
 180:	0e87a783          	lw	a5,232(a5)
 184:	9782                	jalr	a5
 186:	85ce                	mv	a1,s3
 188:	8552                	mv	a0,s4
 18a:	000b8023          	sb	zero,0(s7) # 0 <TOUCH_Find_sync_ht20_end.constprop.0>
 18e:	00000097          	auipc	ra,0x0
 192:	000080e7          	jalr	ra # 18e <.L35+0x30>
 196:	409c                	lw	a5,0(s1)
 198:	000b0513          	mv	a0,s6
 19c:	01478c23          	sb	s4,24(a5)
 1a0:	01378ca3          	sb	s3,25(a5)
 1a4:	00042783          	lw	a5,0(s0)
 1a8:	0e47a783          	lw	a5,228(a5)
 1ac:	9782                	jalr	a5
 1ae:	00042783          	lw	a5,0(s0)
 1b2:	000b0513          	mv	a0,s6
 1b6:	0e87a783          	lw	a5,232(a5)
 1ba:	9782                	jalr	a5
 1bc:	00042783          	lw	a5,0(s0)
 1c0:	000005b7          	lui	a1,0x0
 1c4:	000b0513          	mv	a0,s6
 1c8:	0ec7a783          	lw	a5,236(a5)
 1cc:	4601                	li	a2,0
 1ce:	00058593          	mv	a1,a1
 1d2:	9782                	jalr	a5
 1d4:	000007b7          	lui	a5,0x0
 1d8:	0007a703          	lw	a4,0(a5) # 0 <TOUCH_Find_sync_ht20_end.constprop.0>
 1dc:	3e800593          	li	a1,1000
 1e0:	00042783          	lw	a5,0(s0)
 1e4:	02e585b3          	mul	a1,a1,a4
 1e8:	4601                	li	a2,0
 1ea:	0e07a783          	lw	a5,224(a5)
 1ee:	000b0513          	mv	a0,s6
 1f2:	00000b37          	lui	s6,0x0
 1f6:	9782                	jalr	a5
 1f8:	00042783          	lw	a5,0(s0)
 1fc:	000b0513          	mv	a0,s6
 200:	0e47a783          	lw	a5,228(a5)
 204:	9782                	jalr	a5
 206:	00042783          	lw	a5,0(s0)
 20a:	000b0513          	mv	a0,s6
 20e:	0e87a783          	lw	a5,232(a5)
 212:	9782                	jalr	a5
 214:	00042783          	lw	a5,0(s0)
 218:	000005b7          	lui	a1,0x0
 21c:	4601                	li	a2,0
 21e:	0ec7a783          	lw	a5,236(a5)
 222:	00058593          	mv	a1,a1
 226:	000b0513          	mv	a0,s6
 22a:	9782                	jalr	a5
 22c:	01894703          	lbu	a4,24(s2)
 230:	000007b7          	lui	a5,0x0
 234:	00078023          	sb	zero,0(a5) # 0 <TOUCH_Find_sync_ht20_end.constprop.0>
 238:	4785                	li	a5,1
 23a:	02f71d63          	bne	a4,a5,274 <.L37>
 23e:	00042783          	lw	a5,0(s0)
 242:	cb8d                	beqz	a5,274 <.L37>
 244:	14c7ab03          	lw	s6,332(a5)
 248:	020b0663          	beqz	s6,274 <.L37>
 24c:	00000c37          	lui	s8,0x0
 250:	000c2583          	lw	a1,0(s8) # 0 <TOUCH_Find_sync_ht20_end.constprop.0>
 254:	1547a783          	lw	a5,340(a5)
 258:	ca2e                	sw	a1,20(sp)
 25a:	9782                	jalr	a5
 25c:	000c2703          	lw	a4,0(s8)
 260:	45d2                	lw	a1,20(sp)
 262:	00000637          	lui	a2,0x0
 266:	86aa                	mv	a3,a0
 268:	884e                	mv	a6,s3
 26a:	87d2                	mv	a5,s4
 26c:	00060613          	mv	a2,a2
 270:	450d                	li	a0,3
 272:	9b02                	jalr	s6

00000274 <.L37>:
 274:	4088                	lw	a0,0(s1)
 276:	4619                	li	a2,6
 278:	102c                	add	a1,sp,40
 27a:	0525                	add	a0,a0,9
 27c:	00000097          	auipc	ra,0x0
 280:	000080e7          	jalr	ra # 27c <.L37+0x8>
 284:	00042783          	lw	a5,0(s0)
 288:	c7b9                	beqz	a5,2d6 <.L38>
 28a:	14c7ab03          	lw	s6,332(a5)
 28e:	040b0463          	beqz	s6,2d6 <.L38>
 292:	00000c37          	lui	s8,0x0
 296:	000c2583          	lw	a1,0(s8) # 0 <TOUCH_Find_sync_ht20_end.constprop.0>
 29a:	1547a783          	lw	a5,340(a5)
 29e:	ca2e                	sw	a1,20(sp)
 2a0:	9782                	jalr	a5
 2a2:	4098                	lw	a4,0(s1)
 2a4:	45d2                	lw	a1,20(sp)
 2a6:	86aa                	mv	a3,a0
 2a8:	00e74603          	lbu	a2,14(a4)
 2ac:	00b74883          	lbu	a7,11(a4)
 2b0:	00a74803          	lbu	a6,10(a4)
 2b4:	00974783          	lbu	a5,9(a4)
 2b8:	c432                	sw	a2,8(sp)
 2ba:	00d74603          	lbu	a2,13(a4)
 2be:	450d                	li	a0,3
 2c0:	c232                	sw	a2,4(sp)
 2c2:	00c74703          	lbu	a4,12(a4)
 2c6:	00000637          	lui	a2,0x0
 2ca:	00060613          	mv	a2,a2
 2ce:	c03a                	sw	a4,0(sp)
 2d0:	000c2703          	lw	a4,0(s8)
 2d4:	9b02                	jalr	s6

000002d6 <.L38>:
 2d6:	4088                	lw	a0,0(s1)
 2d8:	000005b7          	lui	a1,0x0
 2dc:	4619                	li	a2,6
 2de:	00058593          	mv	a1,a1
 2e2:	053d                	add	a0,a0,15
 2e4:	00000097          	auipc	ra,0x0
 2e8:	000080e7          	jalr	ra # 2e4 <.L38+0xe>
 2ec:	01894703          	lbu	a4,24(s2)
 2f0:	4785                	li	a5,1
 2f2:	02f71e63          	bne	a4,a5,32e <.L39>
 2f6:	00042783          	lw	a5,0(s0)
 2fa:	cb95                	beqz	a5,32e <.L39>
 2fc:	14c7ab03          	lw	s6,332(a5)
 300:	020b0763          	beqz	s6,32e <.L39>
 304:	00000c37          	lui	s8,0x0
 308:	000c2583          	lw	a1,0(s8) # 0 <TOUCH_Find_sync_ht20_end.constprop.0>
 30c:	1547a783          	lw	a5,340(a5)
 310:	ca2e                	sw	a1,20(sp)
 312:	9782                	jalr	a5
 314:	409c                	lw	a5,0(s1)
 316:	000c2703          	lw	a4,0(s8)
 31a:	45d2                	lw	a1,20(sp)
 31c:	0087c783          	lbu	a5,8(a5)
 320:	00000637          	lui	a2,0x0
 324:	86aa                	mv	a3,a0
 326:	00060613          	mv	a2,a2
 32a:	450d                	li	a0,3
 32c:	9b02                	jalr	s6

0000032e <.L39>:
 32e:	4098                	lw	a4,0(s1)
 330:	00042783          	lw	a5,0(s0)
 334:	4354                	lw	a3,4(a4)
 336:	ead9                	bnez	a3,3cc <.L41>
 338:	01875683          	lhu	a3,24(a4)
 33c:	00d71d23          	sh	a3,26(a4)
 340:	cf85                	beqz	a5,378 <.L42>
 342:	14c7ab03          	lw	s6,332(a5)
 346:	020b0963          	beqz	s6,378 <.L42>
 34a:	00000c37          	lui	s8,0x0
 34e:	000c2583          	lw	a1,0(s8) # 0 <TOUCH_Find_sync_ht20_end.constprop.0>
 352:	1547a783          	lw	a5,340(a5)
 356:	ca2e                	sw	a1,20(sp)
 358:	9782                	jalr	a5
 35a:	409c                	lw	a5,0(s1)
 35c:	000c2703          	lw	a4,0(s8)
 360:	45d2                	lw	a1,20(sp)
 362:	0197c803          	lbu	a6,25(a5)
 366:	0187c783          	lbu	a5,24(a5)
 36a:	00000637          	lui	a2,0x0
 36e:	86aa                	mv	a3,a0
 370:	00060613          	mv	a2,a2
 374:	450d                	li	a0,3
 376:	9b02                	jalr	s6

00000378 <.L42>:
 378:	00042783          	lw	a5,0(s0)
 37c:	00000537          	lui	a0,0x0
 380:	00052503          	lw	a0,0(a0) # 0 <TOUCH_Find_sync_ht20_end.constprop.0>
 384:	0b47a783          	lw	a5,180(a5)
 388:	577d                	li	a4,-1
 38a:	4681                	li	a3,0
 38c:	4601                	li	a2,0
 38e:	4585                	li	a1,1
 390:	9782                	jalr	a5
 392:	01894703          	lbu	a4,24(s2)
 396:	4785                	li	a5,1
 398:	02f71a63          	bne	a4,a5,3cc <.L41>
 39c:	00042783          	lw	a5,0(s0)
 3a0:	c795                	beqz	a5,3cc <.L41>
 3a2:	14c7a483          	lw	s1,332(a5)
 3a6:	c09d                	beqz	s1,3cc <.L41>
 3a8:	00000937          	lui	s2,0x0
 3ac:	00092583          	lw	a1,0(s2) # 0 <TOUCH_Find_sync_ht20_end.constprop.0>
 3b0:	1547a783          	lw	a5,340(a5)
 3b4:	ca2e                	sw	a1,20(sp)
 3b6:	9782                	jalr	a5
 3b8:	00092703          	lw	a4,0(s2)
 3bc:	45d2                	lw	a1,20(sp)
 3be:	00000637          	lui	a2,0x0
 3c2:	86aa                	mv	a3,a0
 3c4:	00060613          	mv	a2,a2
 3c8:	450d                	li	a0,3
 3ca:	9482                	jalr	s1

000003cc <.L41>:
 3cc:	00042783          	lw	a5,0(s0)
 3d0:	000a8513          	mv	a0,s5
 3d4:	0e47a783          	lw	a5,228(a5)
 3d8:	9782                	jalr	a5
 3da:	00042783          	lw	a5,0(s0)
 3de:	000a8513          	mv	a0,s5
 3e2:	0e87a783          	lw	a5,232(a5)
 3e6:	9782                	jalr	a5
 3e8:	4466                	lw	s0,88(sp)
 3ea:	40f6                	lw	ra,92(sp)
 3ec:	44d6                	lw	s1,84(sp)
 3ee:	4946                	lw	s2,80(sp)
 3f0:	4a96                	lw	s5,68(sp)
 3f2:	4b06                	lw	s6,64(sp)
 3f4:	5c62                	lw	s8,56(sp)
 3f6:	000b8023          	sb	zero,0(s7)
 3fa:	85ce                	mv	a1,s3
 3fc:	5bf2                	lw	s7,60(sp)
 3fe:	49b6                	lw	s3,76(sp)
 400:	8552                	mv	a0,s4
 402:	4a26                	lw	s4,72(sp)
 404:	6125                	add	sp,sp,96
 406:	00000317          	auipc	t1,0x0
 40a:	00030067          	jr	t1 # 406 <.L41+0x3a>

0000040e <.L34>:
 40e:	0589a983          	lw	s3,88(s3)
 412:	b9dd                	j	108 <.L33>

Disassembly of section .text.TOUCH_Free_glob:

00000000 <TOUCH_Free_glob>:
   0:	1141                	add	sp,sp,-16
   2:	c422                	sw	s0,8(sp)
   4:	00000437          	lui	s0,0x0
   8:	00040413          	mv	s0,s0
   c:	4008                	lw	a0,0(s0)
   e:	c606                	sw	ra,12(sp)
  10:	c911                	beqz	a0,24 <.L87>
  12:	000007b7          	lui	a5,0x0
  16:	0007a783          	lw	a5,0(a5) # 0 <TOUCH_Free_glob>
  1a:	0b07a783          	lw	a5,176(a5)
  1e:	9782                	jalr	a5
  20:	00042023          	sw	zero,0(s0) # 0 <TOUCH_Free_glob>

00000024 <.L87>:
  24:	40b2                	lw	ra,12(sp)
  26:	4422                	lw	s0,8(sp)
  28:	0141                	add	sp,sp,16
  2a:	8082                	ret

Disassembly of section .text.TOUCH_Find_sync_ht20:

00000000 <TOUCH_Find_sync_ht20>:
   0:	000007b7          	lui	a5,0x0
   4:	0007a783          	lw	a5,0(a5) # 0 <TOUCH_Find_sync_ht20>
   8:	7159                	add	sp,sp,-112
   a:	cece                	sw	s3,92(sp)
   c:	cad6                	sw	s5,84(sp)
   e:	c6de                	sw	s7,76(sp)
  10:	000009b7          	lui	s3,0x0
  14:	03450a93          	add	s5,a0,52
  18:	00000bb7          	lui	s7,0x0
  1c:	d4a2                	sw	s0,104(sp)
  1e:	d2a6                	sw	s1,100(sp)
  20:	d686                	sw	ra,108(sp)
  22:	d0ca                	sw	s2,96(sp)
  24:	ccd2                	sw	s4,88(sp)
  26:	c8da                	sw	s6,80(sp)
  28:	c4e2                	sw	s8,72(sp)
  2a:	c2e6                	sw	s9,68(sp)
  2c:	c0ea                	sw	s10,64(sp)
  2e:	de6e                	sw	s11,60(sp)
  30:	4fa0                	lw	s0,88(a5)
  32:	84aa                	mv	s1,a0
  34:	00098793          	mv	a5,s3
  38:	460d                	li	a2,3
  3a:	000b8593          	mv	a1,s7
  3e:	8556                	mv	a0,s5
  40:	0017ca03          	lbu	s4,1(a5)
  44:	00000097          	auipc	ra,0x0
  48:	000080e7          	jalr	ra # 44 <TOUCH_Find_sync_ht20+0x44>
  4c:	00098993          	mv	s3,s3
  50:	cd09                	beqz	a0,6a <.L94>
  52:	00000937          	lui	s2,0x0
  56:	4619                	li	a2,6
  58:	00090593          	mv	a1,s2
  5c:	8556                	mv	a0,s5
  5e:	00000097          	auipc	ra,0x0
  62:	000080e7          	jalr	ra # 5e <TOUCH_Find_sync_ht20+0x5e>
  66:	3a051d63          	bnez	a0,420 <.L95>

0000006a <.L94>:
  6a:	00000ab7          	lui	s5,0x0
  6e:	000a8793          	mv	a5,s5
  72:	0007ac03          	lw	s8,0(a5)
  76:	000a8a93          	mv	s5,s5
  7a:	01bc4783          	lbu	a5,27(s8)
  7e:	1d479c63          	bne	a5,s4,256 <.L96>

00000082 <.L98>:
  82:	03a48b93          	add	s7,s1,58 # 3a <TOUCH_Find_sync_ht20+0x3a>

00000086 <.L97>:
  86:	36040c63          	beqz	s0,3fe <.L93>
  8a:	4619                	li	a2,6
  8c:	85a2                	mv	a1,s0
  8e:	855e                	mv	a0,s7
  90:	00000097          	auipc	ra,0x0
  94:	000080e7          	jalr	ra # 90 <.L97+0xa>
  98:	38051263          	bnez	a0,41c <.L99>
  9c:	02c4a903          	lw	s2,44(s1)
  a0:	28000793          	li	a5,640
  a4:	0464dc83          	lhu	s9,70(s1)
  a8:	0952                	sll	s2,s2,0x14
  aa:	01495913          	srl	s2,s2,0x14
  ae:	3527e863          	bltu	a5,s2,3fe <.L93>
  b2:	000007b7          	lui	a5,0x0
  b6:	0007d783          	lhu	a5,0(a5) # 0 <TOUCH_Find_sync_ht20>
  ba:	34f96263          	bltu	s2,a5,3fe <.L93>
  be:	02c45783          	lhu	a5,44(s0)
  c2:	004cdc93          	srl	s9,s9,0x4
  c6:	01979663          	bne	a5,s9,d2 <.L101>
  ca:	02045783          	lhu	a5,32(s0)
  ce:	33278863          	beq	a5,s2,3fe <.L93>

000000d2 <.L101>:
  d2:	02440b13          	add	s6,s0,36
  d6:	4619                	li	a2,6
  d8:	02640593          	add	a1,s0,38
  dc:	855a                	mv	a0,s6
  de:	00000097          	auipc	ra,0x0
  e2:	000080e7          	jalr	ra # de <.L101+0xc>
  e6:	85da                	mv	a1,s6
  e8:	03241523          	sh	s2,42(s0)
  ec:	03941623          	sh	s9,44(s0)
  f0:	1028                	add	a0,sp,40
  f2:	02a40313          	add	t1,s0,42
  f6:	4601                	li	a2,0
  f8:	4681                	li	a3,0
  fa:	4e19                	li	t3,6
  fc:	4e8d                	li	t4,3
  fe:	4809                	li	a6,2
 100:	58e9                	li	a7,-6

00000102 <.L116>:
 102:	0005d783          	lhu	a5,0(a1) # 0 <TOUCH_Find_sync_ht20>
 106:	40f907b3          	sub	a5,s2,a5
 10a:	01079713          	sll	a4,a5,0x10
 10e:	078d                	add	a5,a5,3
 110:	8741                	sra	a4,a4,0x10
 112:	07c2                	sll	a5,a5,0x10
 114:	00e51023          	sh	a4,0(a0)
 118:	83c1                	srl	a5,a5,0x10
 11a:	2cfe6e63          	bltu	t3,a5,3f6 <.L102>
 11e:	0605                	add	a2,a2,1 # 1 <TOUCH_Find_sync_ht20+0x1>
 120:	0ff67613          	zext.b	a2,a2
 124:	00e05563          	blez	a4,12e <.L103>
 128:	0685                	add	a3,a3,1
 12a:	0ff6f693          	zext.b	a3,a3

0000012e <.L103>:
 12e:	2dd61463          	bne	a2,t4,3f6 <.L102>
 132:	02815f03          	lhu	t5,40(sp)
 136:	02a15f83          	lhu	t6,42(sp)
 13a:	02c15703          	lhu	a4,44(sp)
 13e:	01ff07b3          	add	a5,t5,t6
 142:	03ff0f33          	mul	t5,t5,t6
 146:	97ba                	add	a5,a5,a4
 148:	07c2                	sll	a5,a5,0x10
 14a:	83c1                	srl	a5,a5,0x10
 14c:	9bed                	and	a5,a5,-5
 14e:	03e70733          	mul	a4,a4,t5
 152:	01071f13          	sll	t5,a4,0x10
 156:	0742                	sll	a4,a4,0x10
 158:	010f5f13          	srl	t5,t5,0x10
 15c:	8741                	sra	a4,a4,0x10
 15e:	01078663          	beq	a5,a6,16a <.L104>
 162:	07c2                	sll	a5,a5,0x10
 164:	87c1                	sra	a5,a5,0x10
 166:	29179863          	bne	a5,a7,3f6 <.L102>

0000016a <.L104>:
 16a:	ffbf7793          	and	a5,t5,-5
 16e:	01078563          	beq	a5,a6,178 <.L105>
 172:	9b6d                	and	a4,a4,-5
 174:	29171163          	bne	a4,a7,3f6 <.L102>

00000178 <.L105>:
 178:	008c5783          	lhu	a5,8(s8)
 17c:	00000737          	lui	a4,0x0
 180:	00075703          	lhu	a4,0(a4) # 0 <TOUCH_Find_sync_ht20>
 184:	0785                	add	a5,a5,1
 186:	07c2                	sll	a5,a5,0x10
 188:	87c1                	sra	a5,a5,0x10
 18a:	00fc1423          	sh	a5,8(s8)
 18e:	40e90733          	sub	a4,s2,a4
 192:	0786                	sll	a5,a5,0x1
 194:	97e2                	add	a5,a5,s8
 196:	8f15                	sub	a4,a4,a3
 198:	00e79423          	sh	a4,8(a5)
 19c:	008c1703          	lh	a4,8(s8)
 1a0:	4785                	li	a5,1
 1a2:	00f71e63          	bne	a4,a5,1be <.L106>
 1a6:	0004c783          	lbu	a5,0(s1)
 1aa:	4619                	li	a2,6
 1ac:	85de                	mv	a1,s7
 1ae:	00fc0823          	sb	a5,16(s8)
 1b2:	011c0513          	add	a0,s8,17
 1b6:	00000097          	auipc	ra,0x0
 1ba:	000080e7          	jalr	ra # 1b6 <.L105+0x3e>

000001be <.L106>:
 1be:	0189c703          	lbu	a4,24(s3) # 18 <TOUCH_Find_sync_ht20+0x18>
 1c2:	4785                	li	a5,1
 1c4:	04f71663          	bne	a4,a5,210 <.L107>
 1c8:	000007b7          	lui	a5,0x0
 1cc:	0007a783          	lw	a5,0(a5) # 0 <TOUCH_Find_sync_ht20>
 1d0:	c3a1                	beqz	a5,210 <.L107>
 1d2:	14c7a903          	lw	s2,332(a5)
 1d6:	02090d63          	beqz	s2,210 <.L107>
 1da:	00000bb7          	lui	s7,0x0
 1de:	000ba583          	lw	a1,0(s7) # 0 <TOUCH_Find_sync_ht20>
 1e2:	1547a783          	lw	a5,340(a5)
 1e6:	ce2e                	sw	a1,28(sp)
 1e8:	9782                	jalr	a5
 1ea:	000aa703          	lw	a4,0(s5) # 0 <TOUCH_Find_sync_ht20>
 1ee:	45f2                	lw	a1,28(sp)
 1f0:	86aa                	mv	a3,a0
 1f2:	00871783          	lh	a5,8(a4)
 1f6:	450d                	li	a0,3
 1f8:	00179613          	sll	a2,a5,0x1
 1fc:	9732                	add	a4,a4,a2
 1fe:	00871803          	lh	a6,8(a4)
 202:	000ba703          	lw	a4,0(s7)
 206:	00000637          	lui	a2,0x0
 20a:	00060613          	mv	a2,a2
 20e:	9902                	jalr	s2

00000210 <.L107>:
 210:	000aa783          	lw	a5,0(s5)
 214:	00879783          	lh	a5,8(a5)
 218:	1af05a63          	blez	a5,3cc <.L108>
 21c:	00000bb7          	lui	s7,0x0
 220:	000ba783          	lw	a5,0(s7) # 0 <TOUCH_Find_sync_ht20>
 224:	4585                	li	a1,1
 226:	4541                	li	a0,16
 228:	1707a783          	lw	a5,368(a5)
 22c:	9782                	jalr	a5
 22e:	892a                	mv	s2,a0
 230:	ed21                	bnez	a0,288 <.L109>
 232:	5426                	lw	s0,104(sp)
 234:	50b6                	lw	ra,108(sp)
 236:	5496                	lw	s1,100(sp)
 238:	5906                	lw	s2,96(sp)
 23a:	49f6                	lw	s3,92(sp)
 23c:	4a66                	lw	s4,88(sp)
 23e:	4ad6                	lw	s5,84(sp)
 240:	4b46                	lw	s6,80(sp)
 242:	4bb6                	lw	s7,76(sp)
 244:	4c26                	lw	s8,72(sp)
 246:	4c96                	lw	s9,68(sp)
 248:	4d06                	lw	s10,64(sp)
 24a:	5df2                	lw	s11,60(sp)
 24c:	6165                	add	sp,sp,112
 24e:	00000317          	auipc	t1,0x0
 252:	00030067          	jr	t1 # 24e <.L107+0x3e>

00000256 <.L96>:
 256:	01ac4703          	lbu	a4,26(s8)
 25a:	014c0da3          	sb	s4,27(s8)
 25e:	4785                	li	a5,1
 260:	e2f711e3          	bne	a4,a5,82 <.L98>

00000264 <.L112>:
 264:	5426                	lw	s0,104(sp)
 266:	50b6                	lw	ra,108(sp)
 268:	5496                	lw	s1,100(sp)
 26a:	5906                	lw	s2,96(sp)
 26c:	49f6                	lw	s3,92(sp)
 26e:	4a66                	lw	s4,88(sp)
 270:	4ad6                	lw	s5,84(sp)
 272:	4b46                	lw	s6,80(sp)
 274:	4bb6                	lw	s7,76(sp)
 276:	4c26                	lw	s8,72(sp)
 278:	4c96                	lw	s9,68(sp)
 27a:	4d06                	lw	s10,64(sp)
 27c:	5df2                	lw	s11,60(sp)
 27e:	6165                	add	sp,sp,112
 280:	00000317          	auipc	t1,0x0
 284:	00030067          	jr	t1 # 280 <.L112+0x1c>

00000288 <.L109>:
 288:	0304c703          	lbu	a4,48(s1)
 28c:	08800793          	li	a5,136
 290:	00f71d63          	bne	a4,a5,2aa <.L110>
 294:	4785                	li	a5,1
 296:	00f50423          	sb	a5,8(a0)
 29a:	0484d783          	lhu	a5,72(s1)
 29e:	00879713          	sll	a4,a5,0x8
 2a2:	83a1                	srl	a5,a5,0x8
 2a4:	8fd9                	or	a5,a5,a4
 2a6:	00f51523          	sh	a5,10(a0)

000002aa <.L110>:
 2aa:	000aa583          	lw	a1,0(s5)
 2ae:	4619                	li	a2,6
 2b0:	854a                	mv	a0,s2
 2b2:	05c5                	add	a1,a1,17
 2b4:	00000097          	auipc	ra,0x0
 2b8:	000080e7          	jalr	ra # 2b4 <.L110+0xa>
 2bc:	000aa703          	lw	a4,0(s5)
 2c0:	4621                	li	a2,8
 2c2:	4581                	li	a1,0
 2c4:	01074783          	lbu	a5,16(a4)
 2c8:	01a40513          	add	a0,s0,26
 2cc:	00f90323          	sb	a5,6(s2) # 6 <TOUCH_Find_sync_ht20+0x6>
 2d0:	00871783          	lh	a5,8(a4)
 2d4:	0786                	sll	a5,a5,0x1
 2d6:	97ba                	add	a5,a5,a4
 2d8:	0087d783          	lhu	a5,8(a5)
 2dc:	00092623          	sw	zero,12(s2)
 2e0:	00f903a3          	sb	a5,7(s2)
 2e4:	000007b7          	lui	a5,0x0
 2e8:	00078793          	mv	a5,a5
 2ec:	4394                	lw	a3,0(a5)
 2ee:	0127a023          	sw	s2,0(a5) # 0 <TOUCH_Find_sync_ht20>
 2f2:	0126a623          	sw	s2,12(a3)
 2f6:	00071423          	sh	zero,8(a4)
 2fa:	00000097          	auipc	ra,0x0
 2fe:	000080e7          	jalr	ra # 2fa <.L110+0x50>
 302:	0189c703          	lbu	a4,24(s3)
 306:	4785                	li	a5,1
 308:	04f71c63          	bne	a4,a5,360 <.L111>
 30c:	000ba783          	lw	a5,0(s7)
 310:	cba1                	beqz	a5,360 <.L111>
 312:	14c7a403          	lw	s0,332(a5)
 316:	c429                	beqz	s0,360 <.L111>
 318:	000004b7          	lui	s1,0x0
 31c:	0004a583          	lw	a1,0(s1) # 0 <TOUCH_Find_sync_ht20>
 320:	1547a783          	lw	a5,340(a5)
 324:	ce2e                	sw	a1,28(sp)
 326:	9782                	jalr	a5
 328:	00594703          	lbu	a4,5(s2)
 32c:	00194883          	lbu	a7,1(s2)
 330:	00094803          	lbu	a6,0(s2)
 334:	00690783          	lb	a5,6(s2)
 338:	c63a                	sw	a4,12(sp)
 33a:	00494703          	lbu	a4,4(s2)
 33e:	45f2                	lw	a1,28(sp)
 340:	00000637          	lui	a2,0x0
 344:	c43a                	sw	a4,8(sp)
 346:	00394703          	lbu	a4,3(s2)
 34a:	86aa                	mv	a3,a0
 34c:	00060613          	mv	a2,a2
 350:	c23a                	sw	a4,4(sp)
 352:	00294703          	lbu	a4,2(s2)
 356:	450d                	li	a0,3
 358:	c03a                	sw	a4,0(sp)
 35a:	0004a703          	lw	a4,0(s1)
 35e:	9402                	jalr	s0

00000360 <.L111>:
 360:	00690703          	lb	a4,6(s2)
 364:	fc500793          	li	a5,-59
 368:	eef75ee3          	bge	a4,a5,264 <.L112>
 36c:	01a9c703          	lbu	a4,26(s3)
 370:	4785                	li	a5,1
 372:	eef709e3          	beq	a4,a5,264 <.L112>
 376:	000aa703          	lw	a4,0(s5)
 37a:	01974683          	lbu	a3,25(a4)
 37e:	04f68263          	beq	a3,a5,3c2 <.L114>
 382:	01470c23          	sb	s4,24(a4)
 386:	00f70ca3          	sb	a5,25(a4)
 38a:	0189c703          	lbu	a4,24(s3)
 38e:	02f71a63          	bne	a4,a5,3c2 <.L114>
 392:	000ba783          	lw	a5,0(s7)
 396:	c795                	beqz	a5,3c2 <.L114>
 398:	14c7a403          	lw	s0,332(a5)
 39c:	c01d                	beqz	s0,3c2 <.L114>
 39e:	000004b7          	lui	s1,0x0
 3a2:	0004a583          	lw	a1,0(s1) # 0 <TOUCH_Find_sync_ht20>
 3a6:	1547a783          	lw	a5,340(a5)
 3aa:	ce2e                	sw	a1,28(sp)
 3ac:	9782                	jalr	a5
 3ae:	0004a703          	lw	a4,0(s1)
 3b2:	45f2                	lw	a1,28(sp)
 3b4:	00000637          	lui	a2,0x0
 3b8:	86aa                	mv	a3,a0
 3ba:	00060613          	mv	a2,a2
 3be:	450d                	li	a0,3
 3c0:	9402                	jalr	s0

000003c2 <.L114>:
 3c2:	4501                	li	a0,0
 3c4:	00000097          	auipc	ra,0x0
 3c8:	000080e7          	jalr	ra # 3c4 <.L114+0x2>

000003cc <.L108>:
 3cc:	4621                	li	a2,8
 3ce:	4581                	li	a1,0
 3d0:	855a                	mv	a0,s6

000003d2 <.L222>:
 3d2:	5426                	lw	s0,104(sp)
 3d4:	50b6                	lw	ra,108(sp)
 3d6:	5496                	lw	s1,100(sp)
 3d8:	5906                	lw	s2,96(sp)
 3da:	49f6                	lw	s3,92(sp)
 3dc:	4a66                	lw	s4,88(sp)
 3de:	4ad6                	lw	s5,84(sp)
 3e0:	4b46                	lw	s6,80(sp)
 3e2:	4bb6                	lw	s7,76(sp)
 3e4:	4c26                	lw	s8,72(sp)
 3e6:	4c96                	lw	s9,68(sp)
 3e8:	4d06                	lw	s10,64(sp)
 3ea:	5df2                	lw	s11,60(sp)
 3ec:	6165                	add	sp,sp,112
 3ee:	00000317          	auipc	t1,0x0
 3f2:	00030067          	jr	t1 # 3ee <.L222+0x1c>

000003f6 <.L102>:
 3f6:	0589                	add	a1,a1,2
 3f8:	0509                	add	a0,a0,2
 3fa:	d06594e3          	bne	a1,t1,102 <.L116>

000003fe <.L93>:
 3fe:	50b6                	lw	ra,108(sp)
 400:	5426                	lw	s0,104(sp)
 402:	5496                	lw	s1,100(sp)
 404:	5906                	lw	s2,96(sp)
 406:	49f6                	lw	s3,92(sp)
 408:	4a66                	lw	s4,88(sp)
 40a:	4ad6                	lw	s5,84(sp)
 40c:	4b46                	lw	s6,80(sp)
 40e:	4bb6                	lw	s7,76(sp)
 410:	4c26                	lw	s8,72(sp)
 412:	4c96                	lw	s9,68(sp)
 414:	4d06                	lw	s10,64(sp)
 416:	5df2                	lw	s11,60(sp)
 418:	6165                	add	sp,sp,112
 41a:	8082                	ret

0000041c <.L99>:
 41c:	4c20                	lw	s0,88(s0)
 41e:	b1a5                	j	86 <.L97>

00000420 <.L95>:
 420:	04048b13          	add	s6,s1,64
 424:	460d                	li	a2,3
 426:	000b8593          	mv	a1,s7
 42a:	855a                	mv	a0,s6
 42c:	00000097          	auipc	ra,0x0
 430:	000080e7          	jalr	ra # 42c <.L95+0xc>
 434:	c911                	beqz	a0,448 <.L118>
 436:	4619                	li	a2,6
 438:	00090593          	mv	a1,s2
 43c:	855a                	mv	a0,s6
 43e:	00000097          	auipc	ra,0x0
 442:	000080e7          	jalr	ra # 43e <.L95+0x1e>
 446:	fd45                	bnez	a0,3fe <.L93>

00000448 <.L118>:
 448:	00000c37          	lui	s8,0x0
 44c:	000c0793          	mv	a5,s8
 450:	0007ac83          	lw	s9,0(a5)
 454:	000c0c13          	mv	s8,s8
 458:	01ccc783          	lbu	a5,28(s9)
 45c:	01478463          	beq	a5,s4,464 <.L120>
 460:	014c8e23          	sb	s4,28(s9)

00000464 <.L120>:
 464:	dc49                	beqz	s0,3fe <.L93>
 466:	4619                	li	a2,6
 468:	85a2                	mv	a1,s0
 46a:	8556                	mv	a0,s5
 46c:	00000097          	auipc	ra,0x0
 470:	000080e7          	jalr	ra # 46c <.L120+0x8>
 474:	50051b63          	bnez	a0,98a <.L121>
 478:	02c4a903          	lw	s2,44(s1)
 47c:	28000793          	li	a5,640
 480:	0464da03          	lhu	s4,70(s1)
 484:	0952                	sll	s2,s2,0x14
 486:	01495913          	srl	s2,s2,0x14
 48a:	f727eae3          	bltu	a5,s2,3fe <.L93>
 48e:	000007b7          	lui	a5,0x0
 492:	0007d783          	lhu	a5,0(a5) # 0 <TOUCH_Find_sync_ht20>
 496:	f6f964e3          	bltu	s2,a5,3fe <.L93>
 49a:	02245783          	lhu	a5,34(s0)
 49e:	004a5a13          	srl	s4,s4,0x4
 4a2:	01479663          	bne	a5,s4,4ae <.L122>
 4a6:	02045783          	lhu	a5,32(s0)
 4aa:	f5278ae3          	beq	a5,s2,3fe <.L93>

000004ae <.L122>:
 4ae:	01a40b93          	add	s7,s0,26
 4b2:	4619                	li	a2,6
 4b4:	01c40593          	add	a1,s0,28
 4b8:	855e                	mv	a0,s7
 4ba:	00000097          	auipc	ra,0x0
 4be:	000080e7          	jalr	ra # 4ba <.L122+0xc>
 4c2:	85de                	mv	a1,s7
 4c4:	03241023          	sh	s2,32(s0)
 4c8:	03441123          	sh	s4,34(s0)
 4cc:	1028                	add	a0,sp,40
 4ce:	02040313          	add	t1,s0,32
 4d2:	4681                	li	a3,0
 4d4:	4601                	li	a2,0
 4d6:	4e19                	li	t3,6
 4d8:	4e8d                	li	t4,3
 4da:	4809                	li	a6,2
 4dc:	58e9                	li	a7,-6

000004de <.L142>:
 4de:	0005d783          	lhu	a5,0(a1)
 4e2:	40f907b3          	sub	a5,s2,a5
 4e6:	01079713          	sll	a4,a5,0x10
 4ea:	078d                	add	a5,a5,3
 4ec:	8741                	sra	a4,a4,0x10
 4ee:	07c2                	sll	a5,a5,0x10
 4f0:	00e51023          	sh	a4,0(a0)
 4f4:	83c1                	srl	a5,a5,0x10
 4f6:	48fe6563          	bltu	t3,a5,980 <.L123>
 4fa:	0605                	add	a2,a2,1 # 1 <TOUCH_Find_sync_ht20+0x1>
 4fc:	0ff67613          	zext.b	a2,a2
 500:	00e05563          	blez	a4,50a <.L124>
 504:	0685                	add	a3,a3,1
 506:	0ff6f693          	zext.b	a3,a3

0000050a <.L124>:
 50a:	47d61b63          	bne	a2,t4,980 <.L123>
 50e:	02815f03          	lhu	t5,40(sp)
 512:	02a15f83          	lhu	t6,42(sp)
 516:	02c15703          	lhu	a4,44(sp)
 51a:	01ff07b3          	add	a5,t5,t6
 51e:	03ff0f33          	mul	t5,t5,t6
 522:	97ba                	add	a5,a5,a4
 524:	07c2                	sll	a5,a5,0x10
 526:	83c1                	srl	a5,a5,0x10
 528:	9bed                	and	a5,a5,-5
 52a:	03e70733          	mul	a4,a4,t5
 52e:	01071f13          	sll	t5,a4,0x10
 532:	0742                	sll	a4,a4,0x10
 534:	010f5f13          	srl	t5,t5,0x10
 538:	8741                	sra	a4,a4,0x10
 53a:	01078663          	beq	a5,a6,546 <.L125>
 53e:	07c2                	sll	a5,a5,0x10
 540:	87c1                	sra	a5,a5,0x10
 542:	43179f63          	bne	a5,a7,980 <.L123>

00000546 <.L125>:
 546:	ffbf7793          	and	a5,t5,-5
 54a:	01078563          	beq	a5,a6,554 <.L126>
 54e:	9b6d                	and	a4,a4,-5
 550:	43171863          	bne	a4,a7,980 <.L123>

00000554 <.L126>:
 554:	000cd783          	lhu	a5,0(s9)
 558:	00000737          	lui	a4,0x0
 55c:	00075703          	lhu	a4,0(a4) # 0 <TOUCH_Find_sync_ht20>
 560:	0785                	add	a5,a5,1
 562:	07c2                	sll	a5,a5,0x10
 564:	87c1                	sra	a5,a5,0x10
 566:	00fc9023          	sh	a5,0(s9)
 56a:	40e90733          	sub	a4,s2,a4
 56e:	0786                	sll	a5,a5,0x1
 570:	97e6                	add	a5,a5,s9
 572:	8f15                	sub	a4,a4,a3
 574:	00e79023          	sh	a4,0(a5)
 578:	000c9783          	lh	a5,0(s9)
 57c:	3ef05663          	blez	a5,968 <.L127>
 580:	00000937          	lui	s2,0x0
 584:	00092783          	lw	a5,0(s2) # 0 <TOUCH_Find_sync_ht20>
 588:	00000cb7          	lui	s9,0x0
 58c:	000c8513          	mv	a0,s9
 590:	0e47a783          	lw	a5,228(a5)
 594:	00000d37          	lui	s10,0x0
 598:	00000a37          	lui	s4,0x0
 59c:	9782                	jalr	a5
 59e:	00092783          	lw	a5,0(s2)
 5a2:	000c8513          	mv	a0,s9
 5a6:	0e87a783          	lw	a5,232(a5)
 5aa:	9782                	jalr	a5
 5ac:	02e44583          	lbu	a1,46(s0)
 5b0:	05444503          	lbu	a0,84(s0)
 5b4:	000d0023          	sb	zero,0(s10) # 0 <TOUCH_Find_sync_ht20>
 5b8:	00000097          	auipc	ra,0x0
 5bc:	000080e7          	jalr	ra # 5b8 <.L126+0x64>
 5c0:	00092783          	lw	a5,0(s2)
 5c4:	000a0513          	mv	a0,s4
 5c8:	0e47a783          	lw	a5,228(a5)
 5cc:	9782                	jalr	a5
 5ce:	00092783          	lw	a5,0(s2)
 5d2:	000a0513          	mv	a0,s4
 5d6:	0e87a783          	lw	a5,232(a5)
 5da:	9782                	jalr	a5
 5dc:	00092783          	lw	a5,0(s2)
 5e0:	000005b7          	lui	a1,0x0
 5e4:	000a0513          	mv	a0,s4
 5e8:	0ec7a783          	lw	a5,236(a5)
 5ec:	4601                	li	a2,0
 5ee:	00058593          	mv	a1,a1
 5f2:	9782                	jalr	a5
 5f4:	000007b7          	lui	a5,0x0
 5f8:	0007a703          	lw	a4,0(a5) # 0 <TOUCH_Find_sync_ht20>
 5fc:	3e800593          	li	a1,1000
 600:	00092783          	lw	a5,0(s2)
 604:	02e585b3          	mul	a1,a1,a4
 608:	4601                	li	a2,0
 60a:	0e07a783          	lw	a5,224(a5)
 60e:	000a0513          	mv	a0,s4
 612:	00000a37          	lui	s4,0x0
 616:	9782                	jalr	a5
 618:	00092783          	lw	a5,0(s2)
 61c:	000a0513          	mv	a0,s4
 620:	0e47a783          	lw	a5,228(a5)
 624:	9782                	jalr	a5
 626:	00092783          	lw	a5,0(s2)
 62a:	000a0513          	mv	a0,s4
 62e:	0e87a783          	lw	a5,232(a5)
 632:	9782                	jalr	a5
 634:	00092783          	lw	a5,0(s2)
 638:	000005b7          	lui	a1,0x0
 63c:	4601                	li	a2,0
 63e:	0ec7a783          	lw	a5,236(a5)
 642:	00058593          	mv	a1,a1
 646:	000a0513          	mv	a0,s4
 64a:	9782                	jalr	a5
 64c:	000007b7          	lui	a5,0x0
 650:	00078023          	sb	zero,0(a5) # 0 <TOUCH_Find_sync_ht20>
 654:	00000097          	auipc	ra,0x0
 658:	000080e7          	jalr	ra # 654 <.L126+0x100>
 65c:	4785                	li	a5,1
 65e:	00f98ca3          	sb	a5,25(s3)
 662:	00092783          	lw	a5,0(s2)
 666:	0009aa23          	sw	zero,20(s3)
 66a:	c79d                	beqz	a5,698 <.L128>
 66c:	14c7aa03          	lw	s4,332(a5)
 670:	020a0463          	beqz	s4,698 <.L128>
 674:	00000db7          	lui	s11,0x0
 678:	000da583          	lw	a1,0(s11) # 0 <TOUCH_Find_sync_ht20>
 67c:	1547a783          	lw	a5,340(a5)
 680:	ce2e                	sw	a1,28(sp)
 682:	9782                	jalr	a5
 684:	000da703          	lw	a4,0(s11)
 688:	45f2                	lw	a1,28(sp)
 68a:	00000637          	lui	a2,0x0
 68e:	86aa                	mv	a3,a0
 690:	00060613          	mv	a2,a2
 694:	450d                	li	a0,3
 696:	9a02                	jalr	s4

00000698 <.L128>:
 698:	02045703          	lhu	a4,32(s0)
 69c:	23d00793          	li	a5,573
 6a0:	02e7eb63          	bltu	a5,a4,6d6 <.L129>
 6a4:	00092783          	lw	a5,0(s2)
 6a8:	c79d                	beqz	a5,6d6 <.L129>
 6aa:	14c7aa03          	lw	s4,332(a5)
 6ae:	020a0463          	beqz	s4,6d6 <.L129>
 6b2:	00000db7          	lui	s11,0x0
 6b6:	000da583          	lw	a1,0(s11) # 0 <TOUCH_Find_sync_ht20>
 6ba:	1547a783          	lw	a5,340(a5)
 6be:	ce2e                	sw	a1,28(sp)
 6c0:	9782                	jalr	a5
 6c2:	000da703          	lw	a4,0(s11)
 6c6:	45f2                	lw	a1,28(sp)
 6c8:	00000637          	lui	a2,0x0
 6cc:	86aa                	mv	a3,a0
 6ce:	00060613          	mv	a2,a2
 6d2:	450d                	li	a0,3
 6d4:	9a02                	jalr	s4

000006d6 <.L129>:
 6d6:	000c2683          	lw	a3,0(s8) # 0 <TOUCH_Find_sync_ht20>
 6da:	00000a37          	lui	s4,0x0
 6de:	000a0793          	mv	a5,s4
 6e2:	00069703          	lh	a4,0(a3)
 6e6:	439c                	lw	a5,0(a5)
 6e8:	4605                	li	a2,1
 6ea:	0706                	sll	a4,a4,0x1
 6ec:	9736                	add	a4,a4,a3
 6ee:	00075703          	lhu	a4,0(a4)
 6f2:	c390                	sw	a2,0(a5)
 6f4:	000a0a13          	mv	s4,s4
 6f8:	00e78423          	sb	a4,8(a5)
 6fc:	0304c583          	lbu	a1,48(s1)
 700:	08800713          	li	a4,136
 704:	00e59c63          	bne	a1,a4,71c <.L130>
 708:	00c78e23          	sb	a2,28(a5)
 70c:	0484d703          	lhu	a4,72(s1)
 710:	00871613          	sll	a2,a4,0x8
 714:	8321                	srl	a4,a4,0x8
 716:	8f51                	or	a4,a4,a2
 718:	00e79f23          	sh	a4,30(a5)

0000071c <.L130>:
 71c:	00078ba3          	sb	zero,23(a5)
 720:	00069023          	sh	zero,0(a3)
 724:	05444703          	lbu	a4,84(s0)
 728:	00e78c23          	sb	a4,24(a5)
 72c:	02e44703          	lbu	a4,46(s0)
 730:	00e78ca3          	sb	a4,25(a5)
 734:	0189c703          	lbu	a4,24(s3)
 738:	4785                	li	a5,1
 73a:	02f71f63          	bne	a4,a5,778 <.L131>
 73e:	00092783          	lw	a5,0(s2)
 742:	cb9d                	beqz	a5,778 <.L131>
 744:	14c7ac03          	lw	s8,332(a5)
 748:	020c0863          	beqz	s8,778 <.L131>
 74c:	00000db7          	lui	s11,0x0
 750:	000da583          	lw	a1,0(s11) # 0 <TOUCH_Find_sync_ht20>
 754:	1547a783          	lw	a5,340(a5)
 758:	ce2e                	sw	a1,28(sp)
 75a:	9782                	jalr	a5
 75c:	02e44803          	lbu	a6,46(s0)
 760:	05444783          	lbu	a5,84(s0)
 764:	000da703          	lw	a4,0(s11)
 768:	45f2                	lw	a1,28(sp)
 76a:	00000637          	lui	a2,0x0
 76e:	86aa                	mv	a3,a0
 770:	00060613          	mv	a2,a2
 774:	450d                	li	a0,3
 776:	9c02                	jalr	s8

00000778 <.L131>:
 778:	000a2783          	lw	a5,0(s4) # 0 <TOUCH_Find_sync_ht20>
 77c:	03a48493          	add	s1,s1,58
 780:	8c26                	mv	s8,s1
 782:	07a5                	add	a5,a5,9

00000784 <.L132>:
 784:	0004c703          	lbu	a4,0(s1)
 788:	0485                	add	s1,s1,1
 78a:	0785                	add	a5,a5,1
 78c:	fee78fa3          	sb	a4,-1(a5)
 790:	fe9b1ae3          	bne	s6,s1,784 <.L132>
 794:	00092783          	lw	a5,0(s2)
 798:	c7b9                	beqz	a5,7e6 <.L133>
 79a:	14c7a483          	lw	s1,332(a5)
 79e:	c4a1                	beqz	s1,7e6 <.L133>
 7a0:	00000b37          	lui	s6,0x0
 7a4:	000b2583          	lw	a1,0(s6) # 0 <TOUCH_Find_sync_ht20>
 7a8:	1547a783          	lw	a5,340(a5)
 7ac:	ce2e                	sw	a1,28(sp)
 7ae:	9782                	jalr	a5
 7b0:	000a2703          	lw	a4,0(s4)
 7b4:	45f2                	lw	a1,28(sp)
 7b6:	86aa                	mv	a3,a0
 7b8:	00e74603          	lbu	a2,14(a4)
 7bc:	00b74883          	lbu	a7,11(a4)
 7c0:	00a74803          	lbu	a6,10(a4)
 7c4:	00974783          	lbu	a5,9(a4)
 7c8:	c432                	sw	a2,8(sp)
 7ca:	00d74603          	lbu	a2,13(a4)
 7ce:	450d                	li	a0,3
 7d0:	c232                	sw	a2,4(sp)
 7d2:	00c74703          	lbu	a4,12(a4)
 7d6:	00000637          	lui	a2,0x0
 7da:	00060613          	mv	a2,a2
 7de:	c03a                	sw	a4,0(sp)
 7e0:	000b2703          	lw	a4,0(s6)
 7e4:	9482                	jalr	s1

000007e6 <.L133>:
 7e6:	000a2783          	lw	a5,0(s4)
 7ea:	07bd                	add	a5,a5,15

000007ec <.L134>:
 7ec:	000ac703          	lbu	a4,0(s5)
 7f0:	0a85                	add	s5,s5,1
 7f2:	0785                	add	a5,a5,1
 7f4:	fee78fa3          	sb	a4,-1(a5)
 7f8:	ff5c1ae3          	bne	s8,s5,7ec <.L134>
 7fc:	00092783          	lw	a5,0(s2)
 800:	c7b9                	beqz	a5,84e <.L135>
 802:	14c7a483          	lw	s1,332(a5)
 806:	c4a1                	beqz	s1,84e <.L135>
 808:	00000ab7          	lui	s5,0x0
 80c:	000aa583          	lw	a1,0(s5) # 0 <TOUCH_Find_sync_ht20>
 810:	1547a783          	lw	a5,340(a5)
 814:	ce2e                	sw	a1,28(sp)
 816:	9782                	jalr	a5
 818:	000a2703          	lw	a4,0(s4)
 81c:	45f2                	lw	a1,28(sp)
 81e:	86aa                	mv	a3,a0
 820:	01474603          	lbu	a2,20(a4)
 824:	01174883          	lbu	a7,17(a4)
 828:	01074803          	lbu	a6,16(a4)
 82c:	00f74783          	lbu	a5,15(a4)
 830:	c432                	sw	a2,8(sp)
 832:	01374603          	lbu	a2,19(a4)
 836:	450d                	li	a0,3
 838:	c232                	sw	a2,4(sp)
 83a:	01274703          	lbu	a4,18(a4)
 83e:	00000637          	lui	a2,0x0
 842:	00060613          	mv	a2,a2
 846:	c03a                	sw	a4,0(sp)
 848:	000aa703          	lw	a4,0(s5)
 84c:	9482                	jalr	s1

0000084e <.L135>:
 84e:	0189c703          	lbu	a4,24(s3)
 852:	4785                	li	a5,1
 854:	02f71e63          	bne	a4,a5,890 <.L136>
 858:	00092783          	lw	a5,0(s2)
 85c:	cb95                	beqz	a5,890 <.L136>
 85e:	14c7a483          	lw	s1,332(a5)
 862:	c49d                	beqz	s1,890 <.L136>
 864:	00000ab7          	lui	s5,0x0
 868:	000aa583          	lw	a1,0(s5) # 0 <TOUCH_Find_sync_ht20>
 86c:	1547a783          	lw	a5,340(a5)
 870:	ce2e                	sw	a1,28(sp)
 872:	9782                	jalr	a5
 874:	000a2783          	lw	a5,0(s4)
 878:	000aa703          	lw	a4,0(s5)
 87c:	45f2                	lw	a1,28(sp)
 87e:	0087c783          	lbu	a5,8(a5)
 882:	00000637          	lui	a2,0x0
 886:	86aa                	mv	a3,a0
 888:	00060613          	mv	a2,a2
 88c:	450d                	li	a0,3
 88e:	9482                	jalr	s1

00000890 <.L136>:
 890:	000a2783          	lw	a5,0(s4)
 894:	00092703          	lw	a4,0(s2)
 898:	43d4                	lw	a3,4(a5)
 89a:	eaf9                	bnez	a3,970 <.L137>
 89c:	0087c683          	lbu	a3,8(a5)
 8a0:	06d79a23          	sh	a3,116(a5)
 8a4:	0187d683          	lhu	a3,24(a5)
 8a8:	00d79d23          	sh	a3,26(a5)
 8ac:	cf05                	beqz	a4,8e4 <.L138>
 8ae:	14c72483          	lw	s1,332(a4)
 8b2:	c88d                	beqz	s1,8e4 <.L138>
 8b4:	00000ab7          	lui	s5,0x0
 8b8:	000aa583          	lw	a1,0(s5) # 0 <TOUCH_Find_sync_ht20>
 8bc:	15472783          	lw	a5,340(a4)
 8c0:	ce2e                	sw	a1,28(sp)
 8c2:	9782                	jalr	a5
 8c4:	000a2783          	lw	a5,0(s4)
 8c8:	000aa703          	lw	a4,0(s5)
 8cc:	45f2                	lw	a1,28(sp)
 8ce:	0197c803          	lbu	a6,25(a5)
 8d2:	0187c783          	lbu	a5,24(a5)
 8d6:	00000637          	lui	a2,0x0
 8da:	86aa                	mv	a3,a0
 8dc:	00060613          	mv	a2,a2
 8e0:	450d                	li	a0,3
 8e2:	9482                	jalr	s1

000008e4 <.L138>:
 8e4:	00092783          	lw	a5,0(s2)
 8e8:	00000537          	lui	a0,0x0
 8ec:	00052503          	lw	a0,0(a0) # 0 <TOUCH_Find_sync_ht20>
 8f0:	0b47a783          	lw	a5,180(a5)
 8f4:	577d                	li	a4,-1
 8f6:	4681                	li	a3,0
 8f8:	4601                	li	a2,0
 8fa:	4585                	li	a1,1
 8fc:	9782                	jalr	a5
 8fe:	0189c703          	lbu	a4,24(s3)
 902:	4785                	li	a5,1
 904:	02f71a63          	bne	a4,a5,938 <.L140>
 908:	00092783          	lw	a5,0(s2)
 90c:	c795                	beqz	a5,938 <.L140>
 90e:	14c7a483          	lw	s1,332(a5)
 912:	c09d                	beqz	s1,938 <.L140>
 914:	000009b7          	lui	s3,0x0
 918:	0009a583          	lw	a1,0(s3) # 0 <TOUCH_Find_sync_ht20>
 91c:	1547a783          	lw	a5,340(a5)
 920:	ce2e                	sw	a1,28(sp)
 922:	9782                	jalr	a5
 924:	0009a703          	lw	a4,0(s3)
 928:	45f2                	lw	a1,28(sp)
 92a:	00000637          	lui	a2,0x0
 92e:	86aa                	mv	a3,a0
 930:	00060613          	mv	a2,a2
 934:	450d                	li	a0,3
 936:	9482                	jalr	s1

00000938 <.L140>:
 938:	00092783          	lw	a5,0(s2)
 93c:	000c8513          	mv	a0,s9
 940:	0e47a783          	lw	a5,228(a5)
 944:	9782                	jalr	a5
 946:	00092783          	lw	a5,0(s2)
 94a:	000c8513          	mv	a0,s9
 94e:	0e87a783          	lw	a5,232(a5)
 952:	9782                	jalr	a5
 954:	02e44583          	lbu	a1,46(s0)
 958:	05444503          	lbu	a0,84(s0)
 95c:	000d0023          	sb	zero,0(s10)
 960:	00000097          	auipc	ra,0x0
 964:	000080e7          	jalr	ra # 960 <.L140+0x28>

00000968 <.L127>:
 968:	4621                	li	a2,8
 96a:	4581                	li	a1,0
 96c:	855e                	mv	a0,s7
 96e:	b495                	j	3d2 <.L222>

00000970 <.L137>:
 970:	4705                	li	a4,1
 972:	fce693e3          	bne	a3,a4,938 <.L140>
 976:	0087c703          	lbu	a4,8(a5)
 97a:	06e79a23          	sh	a4,116(a5)
 97e:	bf6d                	j	938 <.L140>

00000980 <.L123>:
 980:	0589                	add	a1,a1,2 # 2 <TOUCH_Find_sync_ht20+0x2>
 982:	0509                	add	a0,a0,2
 984:	b4659de3          	bne	a1,t1,4de <.L142>
 988:	bc9d                	j	3fe <.L93>

0000098a <.L121>:
 98a:	4c20                	lw	s0,88(s0)
 98c:	bce1                	j	464 <.L120>

Disassembly of section .text.TOUCH_Find_sync_ht40:

00000000 <TOUCH_Find_sync_ht40>:
   0:	715d                	add	sp,sp,-80
   2:	c0ca                	sw	s2,64(sp)
   4:	00000937          	lui	s2,0x0
   8:	c2a6                	sw	s1,68(sp)
   a:	dc52                	sw	s4,56(sp)
   c:	00090793          	mv	a5,s2
  10:	c686                	sw	ra,76(sp)
  12:	c4a2                	sw	s0,72(sp)
  14:	de4e                	sw	s3,60(sp)
  16:	da56                	sw	s5,52(sp)
  18:	d85a                	sw	s6,48(sp)
  1a:	d65e                	sw	s7,44(sp)
  1c:	d462                	sw	s8,40(sp)
  1e:	000004b7          	lui	s1,0x0
  22:	0017c983          	lbu	s3,1(a5)
  26:	00048793          	mv	a5,s1
  2a:	439c                	lw	a5,0(a5)
  2c:	8a2a                	mv	s4,a0
  2e:	00090913          	mv	s2,s2
  32:	01c7c703          	lbu	a4,28(a5)
  36:	00048493          	mv	s1,s1
  3a:	01370d63          	beq	a4,s3,54 <.L224>
  3e:	02078713          	add	a4,a5,32
  42:	05478693          	add	a3,a5,84

00000046 <.L225>:
  46:	00071023          	sh	zero,0(a4)
  4a:	0711                	add	a4,a4,4
  4c:	fed71de3          	bne	a4,a3,46 <.L225>
  50:	01378e23          	sb	s3,28(a5)

00000054 <.L224>:
  54:	02ca2703          	lw	a4,44(s4)
  58:	28000693          	li	a3,640
  5c:	0752                	sll	a4,a4,0x14
  5e:	8351                	srl	a4,a4,0x14
  60:	3ee6c463          	blt	a3,a4,448 <.L223>
  64:	000006b7          	lui	a3,0x0
  68:	0006d683          	lhu	a3,0(a3) # 0 <TOUCH_Find_sync_ht40>
  6c:	3cd74e63          	blt	a4,a3,448 <.L223>
  70:	02078693          	add	a3,a5,32
  74:	05478593          	add	a1,a5,84
  78:	8636                	mv	a2,a3

0000007a <.L227>:
  7a:	00061503          	lh	a0,0(a2) # 0 <TOUCH_Find_sync_ht40>
  7e:	3ca70563          	beq	a4,a0,448 <.L223>
  82:	0611                	add	a2,a2,4
  84:	fec59be3          	bne	a1,a2,7a <.L227>
  88:	88b6                	mv	a7,a3
  8a:	4601                	li	a2,0
  8c:	4801                	li	a6,0
  8e:	4f19                	li	t5,6
  90:	4f8d                	li	t6,3
  92:	4309                	li	t1,2
  94:	5e69                	li	t3,-6
  96:	4eb5                	li	t4,13

00000098 <.L251>:
  98:	0008d583          	lhu	a1,0(a7)
  9c:	40b705b3          	sub	a1,a4,a1
  a0:	05c2                	sll	a1,a1,0x10
  a2:	81c1                	srl	a1,a1,0x10
  a4:	00358513          	add	a0,a1,3
  a8:	0542                	sll	a0,a0,0x10
  aa:	8141                	srl	a0,a0,0x10
  ac:	3eaf6a63          	bltu	t5,a0,4a0 <.L228>
  b0:	0605                	add	a2,a2,1
  b2:	0ff67613          	zext.b	a2,a2
  b6:	0028d283          	lhu	t0,2(a7)
  ba:	00161513          	sll	a0,a2,0x1
  be:	0541                	add	a0,a0,16
  c0:	0800                	add	s0,sp,16
  c2:	9522                	add	a0,a0,s0
  c4:	fe551823          	sh	t0,-16(a0)
  c8:	feb51c23          	sh	a1,-8(a0)
  cc:	3df61a63          	bne	a2,t6,4a0 <.L228>
  d0:	01a11603          	lh	a2,26(sp)
  d4:	01c11383          	lh	t2,28(sp)
  d8:	01e11283          	lh	t0,30(sp)
  dc:	01061413          	sll	s0,a2,0x10
  e0:	01039a93          	sll	s5,t2,0x10
  e4:	8041                	srl	s0,s0,0x10
  e6:	010ada93          	srl	s5,s5,0x10
  ea:	015405b3          	add	a1,s0,s5
  ee:	03540433          	mul	s0,s0,s5
  f2:	01029513          	sll	a0,t0,0x10
  f6:	8141                	srl	a0,a0,0x10
  f8:	95aa                	add	a1,a1,a0
  fa:	05c2                	sll	a1,a1,0x10
  fc:	81c1                	srl	a1,a1,0x10
  fe:	99ed                	and	a1,a1,-5
 100:	02850533          	mul	a0,a0,s0
 104:	01051413          	sll	s0,a0,0x10
 108:	0542                	sll	a0,a0,0x10
 10a:	8041                	srl	s0,s0,0x10
 10c:	8541                	sra	a0,a0,0x10
 10e:	00658663          	beq	a1,t1,11a <.L229>
 112:	05c2                	sll	a1,a1,0x10
 114:	85c1                	sra	a1,a1,0x10
 116:	39c59463          	bne	a1,t3,49e <.L258>

0000011a <.L229>:
 11a:	ffb47593          	and	a1,s0,-5
 11e:	00658563          	beq	a1,t1,128 <.L230>
 122:	996d                	and	a0,a0,-5
 124:	37c51d63          	bne	a0,t3,49e <.L258>

00000128 <.L230>:
 128:	00c02633          	sgtz	a2,a2
 12c:	00705363          	blez	t2,132 <.L231>
 130:	0605                	add	a2,a2,1

00000132 <.L231>:
 132:	00505563          	blez	t0,13c <.L232>
 136:	0605                	add	a2,a2,1
 138:	0ff67613          	zext.b	a2,a2

0000013c <.L232>:
 13c:	000a0303          	lb	t1,0(s4)
 140:	0808                	add	a0,sp,16
 142:	01610893          	add	a7,sp,22
 146:	02800e13          	li	t3,40

0000014a <.L234>:
 14a:	00251583          	lh	a1,2(a0)
 14e:	406585b3          	sub	a1,a1,t1
 152:	05d1                	add	a1,a1,20
 154:	30be6663          	bltu	t3,a1,460 <.L259>
 158:	0509                	add	a0,a0,2
 15a:	fea898e3          	bne	a7,a0,14a <.L234>
 15e:	0547d683          	lhu	a3,84(a5)
 162:	000005b7          	lui	a1,0x0
 166:	0005d583          	lhu	a1,0(a1) # 0 <TOUCH_Find_sync_ht40>
 16a:	0685                	add	a3,a3,1
 16c:	06c2                	sll	a3,a3,0x10
 16e:	82c1                	srl	a3,a3,0x10
 170:	04d79a23          	sh	a3,84(a5)
 174:	02868693          	add	a3,a3,40
 178:	8f0d                	sub	a4,a4,a1
 17a:	0686                	sll	a3,a3,0x1
 17c:	8f11                	sub	a4,a4,a2
 17e:	96be                	add	a3,a3,a5
 180:	00e69223          	sh	a4,4(a3)
 184:	01411583          	lh	a1,20(sp)
 188:	01211703          	lh	a4,18(sp)
 18c:	0547d603          	lhu	a2,84(a5)
 190:	972e                	add	a4,a4,a1
 192:	01611583          	lh	a1,22(sp)
 196:	fff60693          	add	a3,a2,-1
 19a:	96be                	add	a3,a3,a5
 19c:	972e                	add	a4,a4,a1
 19e:	458d                	li	a1,3
 1a0:	02b74733          	div	a4,a4,a1
 1a4:	01368ea3          	sb	s3,29(a3)
 1a8:	04e68d23          	sb	a4,90(a3)
 1ac:	4705                	li	a4,1
 1ae:	26c77a63          	bgeu	a4,a2,422 <.L256>
 1b2:	0567d683          	lhu	a3,86(a5)
 1b6:	0587d703          	lhu	a4,88(a5)
 1ba:	00e68863          	beq	a3,a4,1ca <.L237>
 1be:	01d7c683          	lbu	a3,29(a5)
 1c2:	01e7c703          	lbu	a4,30(a5)
 1c6:	28e69f63          	bne	a3,a4,464 <.L238>

000001ca <.L237>:
 1ca:	00000437          	lui	s0,0x0
 1ce:	00042783          	lw	a5,0(s0) # 0 <TOUCH_Find_sync_ht40>
 1d2:	00000ab7          	lui	s5,0x0
 1d6:	000a8513          	mv	a0,s5
 1da:	0e47a783          	lw	a5,228(a5)
 1de:	00000b37          	lui	s6,0x0
 1e2:	9782                	jalr	a5
 1e4:	00042783          	lw	a5,0(s0)
 1e8:	000a8513          	mv	a0,s5
 1ec:	0e87a783          	lw	a5,232(a5)
 1f0:	9782                	jalr	a5
 1f2:	000b0023          	sb	zero,0(s6) # 0 <TOUCH_Find_sync_ht40>
 1f6:	00000097          	auipc	ra,0x0
 1fa:	000080e7          	jalr	ra # 1f6 <.L237+0x2c>
 1fe:	4785                	li	a5,1
 200:	00f90ca3          	sb	a5,25(s2) # 19 <TOUCH_Find_sync_ht40+0x19>
 204:	00042783          	lw	a5,0(s0)
 208:	00092a23          	sw	zero,20(s2)
 20c:	24079f63          	bnez	a5,46a <.L239>

00000210 <.L240>:
 210:	02ca2783          	lw	a5,44(s4)
 214:	23d00713          	li	a4,573
 218:	07d2                	sll	a5,a5,0x14
 21a:	83d1                	srl	a5,a5,0x14
 21c:	02f76b63          	bltu	a4,a5,252 <.L242>
 220:	00042783          	lw	a5,0(s0)
 224:	c79d                	beqz	a5,252 <.L242>
 226:	14c7aa03          	lw	s4,332(a5)
 22a:	020a0463          	beqz	s4,252 <.L242>
 22e:	00000bb7          	lui	s7,0x0
 232:	000ba583          	lw	a1,0(s7) # 0 <TOUCH_Find_sync_ht40>
 236:	1547a783          	lw	a5,340(a5)
 23a:	c62e                	sw	a1,12(sp)
 23c:	9782                	jalr	a5
 23e:	000ba703          	lw	a4,0(s7)
 242:	45b2                	lw	a1,12(sp)
 244:	00000637          	lui	a2,0x0
 248:	86aa                	mv	a3,a0
 24a:	00060613          	mv	a2,a2
 24e:	450d                	li	a0,3
 250:	9a02                	jalr	s4

00000252 <.L242>:
 252:	00000a37          	lui	s4,0x0
 256:	000a0793          	mv	a5,s4
 25a:	439c                	lw	a5,0(a5)
 25c:	4705                	li	a4,1
 25e:	000a0a13          	mv	s4,s4
 262:	c3d8                	sw	a4,4(a5)
 264:	4098                	lw	a4,0(s1)
 266:	05b70603          	lb	a2,91(a4)
 26a:	05a70683          	lb	a3,90(a4)
 26e:	96b2                	add	a3,a3,a2
 270:	4609                	li	a2,2
 272:	02c6c6b3          	div	a3,a3,a2
 276:	06d79923          	sh	a3,114(a5)
 27a:	05475683          	lhu	a3,84(a4)
 27e:	02868693          	add	a3,a3,40
 282:	0686                	sll	a3,a3,0x1
 284:	9736                	add	a4,a4,a3
 286:	00475703          	lhu	a4,4(a4)
 28a:	06e79a23          	sh	a4,116(a5)
 28e:	0187c703          	lbu	a4,24(a5)
 292:	20070363          	beqz	a4,498 <.L243>
 296:	00e78d23          	sb	a4,26(a5)
 29a:	0197c703          	lbu	a4,25(a5)

0000029e <.L244>:
 29e:	00e78da3          	sb	a4,27(a5)
 2a2:	00042783          	lw	a5,0(s0)
 2a6:	000009b7          	lui	s3,0x0
 2aa:	00098513          	mv	a0,s3
 2ae:	0e47a783          	lw	a5,228(a5)
 2b2:	9782                	jalr	a5
 2b4:	00042783          	lw	a5,0(s0)
 2b8:	00098513          	mv	a0,s3
 2bc:	0e87a783          	lw	a5,232(a5)
 2c0:	9782                	jalr	a5
 2c2:	00042783          	lw	a5,0(s0)
 2c6:	000005b7          	lui	a1,0x0
 2ca:	4601                	li	a2,0
 2cc:	0ec7a783          	lw	a5,236(a5)
 2d0:	00058593          	mv	a1,a1
 2d4:	00098513          	mv	a0,s3
 2d8:	9782                	jalr	a5
 2da:	000007b7          	lui	a5,0x0
 2de:	0007a703          	lw	a4,0(a5) # 0 <TOUCH_Find_sync_ht40>
 2e2:	3e800593          	li	a1,1000
 2e6:	00042783          	lw	a5,0(s0)
 2ea:	02e585b3          	mul	a1,a1,a4
 2ee:	4601                	li	a2,0
 2f0:	0e07a783          	lw	a5,224(a5)
 2f4:	00098513          	mv	a0,s3
 2f8:	9782                	jalr	a5
 2fa:	01894703          	lbu	a4,24(s2)
 2fe:	4785                	li	a5,1
 300:	08f71263          	bne	a4,a5,384 <.L246>
 304:	00042783          	lw	a5,0(s0)
 308:	cf8d                	beqz	a5,342 <.L247>
 30a:	14c7a903          	lw	s2,332(a5)
 30e:	02090a63          	beqz	s2,342 <.L247>
 312:	000009b7          	lui	s3,0x0
 316:	0009a583          	lw	a1,0(s3) # 0 <TOUCH_Find_sync_ht40>
 31a:	1547a783          	lw	a5,340(a5)
 31e:	c62e                	sw	a1,12(sp)
 320:	9782                	jalr	a5
 322:	000a2783          	lw	a5,0(s4) # 0 <TOUCH_Find_sync_ht40>
 326:	0009a703          	lw	a4,0(s3)
 32a:	45b2                	lw	a1,12(sp)
 32c:	01b7c803          	lbu	a6,27(a5)
 330:	01a7c783          	lbu	a5,26(a5)
 334:	00000637          	lui	a2,0x0
 338:	86aa                	mv	a3,a0
 33a:	00060613          	mv	a2,a2
 33e:	450d                	li	a0,3
 340:	9902                	jalr	s2

00000342 <.L247>:
 342:	00042783          	lw	a5,0(s0)
 346:	cf9d                	beqz	a5,384 <.L246>
 348:	14c7a903          	lw	s2,332(a5)
 34c:	02090c63          	beqz	s2,384 <.L246>
 350:	000009b7          	lui	s3,0x0
 354:	0009a583          	lw	a1,0(s3) # 0 <TOUCH_Find_sync_ht40>
 358:	1547a783          	lw	a5,340(a5)
 35c:	c62e                	sw	a1,12(sp)
 35e:	9782                	jalr	a5
 360:	000a2783          	lw	a5,0(s4)
 364:	0009a703          	lw	a4,0(s3)
 368:	45b2                	lw	a1,12(sp)
 36a:	0747d883          	lhu	a7,116(a5)
 36e:	01a7c803          	lbu	a6,26(a5)
 372:	07279783          	lh	a5,114(a5)
 376:	00000637          	lui	a2,0x0
 37a:	86aa                	mv	a3,a0
 37c:	00060613          	mv	a2,a2
 380:	450d                	li	a0,3
 382:	9902                	jalr	s2

00000384 <.L246>:
 384:	00042783          	lw	a5,0(s0)
 388:	cf8d                	beqz	a5,3c2 <.L249>
 38a:	14c7a903          	lw	s2,332(a5)
 38e:	02090a63          	beqz	s2,3c2 <.L249>
 392:	000009b7          	lui	s3,0x0
 396:	0009a583          	lw	a1,0(s3) # 0 <TOUCH_Find_sync_ht40>
 39a:	1547a783          	lw	a5,340(a5)
 39e:	c62e                	sw	a1,12(sp)
 3a0:	9782                	jalr	a5
 3a2:	000a2783          	lw	a5,0(s4)
 3a6:	0009a703          	lw	a4,0(s3)
 3aa:	45b2                	lw	a1,12(sp)
 3ac:	01b7c803          	lbu	a6,27(a5)
 3b0:	01a7c783          	lbu	a5,26(a5)
 3b4:	00000637          	lui	a2,0x0
 3b8:	86aa                	mv	a3,a0
 3ba:	00060613          	mv	a2,a2
 3be:	450d                	li	a0,3
 3c0:	9902                	jalr	s2

000003c2 <.L249>:
 3c2:	00042783          	lw	a5,0(s0)
 3c6:	00000537          	lui	a0,0x0
 3ca:	00052503          	lw	a0,0(a0) # 0 <TOUCH_Find_sync_ht40>
 3ce:	0b47a783          	lw	a5,180(a5)
 3d2:	577d                	li	a4,-1
 3d4:	4681                	li	a3,0
 3d6:	4601                	li	a2,0
 3d8:	4585                	li	a1,1
 3da:	9782                	jalr	a5
 3dc:	4088                	lw	a0,0(s1)
 3de:	4581                	li	a1,0
 3e0:	4619                	li	a2,6
 3e2:	05450513          	add	a0,a0,84
 3e6:	00000097          	auipc	ra,0x0
 3ea:	000080e7          	jalr	ra # 3e6 <.L249+0x24>
 3ee:	00042783          	lw	a5,0(s0)
 3f2:	000a8513          	mv	a0,s5
 3f6:	0e47a783          	lw	a5,228(a5)
 3fa:	9782                	jalr	a5
 3fc:	00042783          	lw	a5,0(s0)
 400:	000a8513          	mv	a0,s5
 404:	0e87a783          	lw	a5,232(a5)
 408:	9782                	jalr	a5
 40a:	000a2783          	lw	a5,0(s4)
 40e:	000b0023          	sb	zero,0(s6)
 412:	01b7c583          	lbu	a1,27(a5)
 416:	01a7c503          	lbu	a0,26(a5)
 41a:	00000097          	auipc	ra,0x0
 41e:	000080e7          	jalr	ra # 41a <.L249+0x58>

00000422 <.L256>:
 422:	4098                	lw	a4,0(s1)
 424:	02070793          	add	a5,a4,32
 428:	05470713          	add	a4,a4,84

0000042c <.L250>:
 42c:	00079023          	sh	zero,0(a5)
 430:	0791                	add	a5,a5,4
 432:	fef71de3          	bne	a4,a5,42c <.L250>
 436:	a809                	j	448 <.L223>

00000438 <.L236>:
 438:	0785                	add	a5,a5,1
 43a:	00069023          	sh	zero,0(a3)
 43e:	0ff7f793          	zext.b	a5,a5
 442:	0691                	add	a3,a3,4

00000444 <.L233>:
 444:	ff079ae3          	bne	a5,a6,438 <.L236>

00000448 <.L223>:
 448:	40b6                	lw	ra,76(sp)
 44a:	4426                	lw	s0,72(sp)
 44c:	4496                	lw	s1,68(sp)
 44e:	4906                	lw	s2,64(sp)
 450:	59f2                	lw	s3,60(sp)
 452:	5a62                	lw	s4,56(sp)
 454:	5ad2                	lw	s5,52(sp)
 456:	5b42                	lw	s6,48(sp)
 458:	5bb2                	lw	s7,44(sp)
 45a:	5c22                	lw	s8,40(sp)
 45c:	6161                	add	sp,sp,80
 45e:	8082                	ret

00000460 <.L259>:
 460:	4781                	li	a5,0
 462:	b7cd                	j	444 <.L233>

00000464 <.L238>:
 464:	04079a23          	sh	zero,84(a5)
 468:	b7c5                	j	448 <.L223>

0000046a <.L239>:
 46a:	14c7ab83          	lw	s7,332(a5)
 46e:	da0b81e3          	beqz	s7,210 <.L240>
 472:	00000c37          	lui	s8,0x0
 476:	000c2583          	lw	a1,0(s8) # 0 <TOUCH_Find_sync_ht40>
 47a:	1547a783          	lw	a5,340(a5)
 47e:	c62e                	sw	a1,12(sp)
 480:	9782                	jalr	a5
 482:	000c2703          	lw	a4,0(s8)
 486:	45b2                	lw	a1,12(sp)
 488:	00000637          	lui	a2,0x0
 48c:	86aa                	mv	a3,a0
 48e:	00060613          	mv	a2,a2
 492:	450d                	li	a0,3
 494:	9b82                	jalr	s7
 496:	bbad                	j	210 <.L240>

00000498 <.L243>:
 498:	01378d23          	sb	s3,26(a5)
 49c:	b509                	j	29e <.L244>

0000049e <.L258>:
 49e:	4609                	li	a2,2

000004a0 <.L228>:
 4a0:	0805                	add	a6,a6,1
 4a2:	0ff87813          	zext.b	a6,a6
 4a6:	0891                	add	a7,a7,4
 4a8:	bfd818e3          	bne	a6,t4,98 <.L251>
 4ac:	05078613          	add	a2,a5,80

000004b0 <.L252>:
 4b0:	0046d583          	lhu	a1,4(a3)
 4b4:	0691                	add	a3,a3,4
 4b6:	feb69e23          	sh	a1,-4(a3)
 4ba:	fed61be3          	bne	a2,a3,4b0 <.L252>
 4be:	02278693          	add	a3,a5,34
 4c2:	05278613          	add	a2,a5,82

000004c6 <.L253>:
 4c6:	0046d583          	lhu	a1,4(a3)
 4ca:	0691                	add	a3,a3,4
 4cc:	feb69e23          	sh	a1,-4(a3)
 4d0:	fed61be3          	bne	a2,a3,4c6 <.L253>
 4d4:	04e79823          	sh	a4,80(a5)
 4d8:	000a0703          	lb	a4,0(s4)
 4dc:	04e79923          	sh	a4,82(a5)
 4e0:	b7a5                	j	448 <.L223>

Disassembly of section .text.TOUCH_Deal_with:

00000000 <TOUCH_Deal_with>:
       0:	00050803          	lb	a6,0(a0)
       4:	fac00793          	li	a5,-84
       8:	00f85463          	bge	a6,a5,10 <TOUCH_Deal_with+0x10>
       c:	0010106f          	j	180c <.L698>
      10:	7115                	add	sp,sp,-224
      12:	c3d6                	sw	s5,196(sp)
      14:	cf86                	sw	ra,220(sp)
      16:	cda2                	sw	s0,216(sp)
      18:	cba6                	sw	s1,212(sp)
      1a:	c9ca                	sw	s2,208(sp)
      1c:	c7ce                	sw	s3,204(sp)
      1e:	c5d2                	sw	s4,200(sp)
      20:	c1da                	sw	s6,192(sp)
      22:	df5e                	sw	s7,188(sp)
      24:	dd62                	sw	s8,184(sp)
      26:	db66                	sw	s9,180(sp)
      28:	d96a                	sw	s10,176(sp)
      2a:	d76e                	sw	s11,172(sp)
      2c:	478d                	li	a5,3
      2e:	8aaa                	mv	s5,a0
      30:	3cf59fe3          	bne	a1,a5,c0e <.L298>
      34:	4158                	lw	a4,4(a0)
      36:	080007b7          	lui	a5,0x8000
      3a:	8ff9                	and	a5,a5,a4
      3c:	cf91                	beqz	a5,58 <.L299>
      3e:	5558                	lw	a4,44(a0)
      40:	6685                	lui	a3,0x1
      42:	16fd                	add	a3,a3,-1 # fff <.L425+0x63>
      44:	00d777b3          	and	a5,a4,a3
      48:	17f1                	add	a5,a5,-4 # 7fffffc <.L698+0x7ffe7f0>
      4a:	07c2                	sll	a5,a5,0x10
      4c:	83c1                	srl	a5,a5,0x10
      4e:	8ff5                	and	a5,a5,a3
      50:	76fd                	lui	a3,0xfffff
      52:	8f75                	and	a4,a4,a3
      54:	8f5d                	or	a4,a4,a5
      56:	d558                	sw	a4,44(a0)

00000058 <.L299>:
      58:	000004b7          	lui	s1,0x0
      5c:	00048793          	mv	a5,s1
      60:	439c                	lw	a5,0(a5)
      62:	4705                	li	a4,1
      64:	00048493          	mv	s1,s1
      68:	43d4                	lw	a3,4(a5)
      6a:	02e68963          	beq	a3,a4,9c <.L300>
      6e:	4709                	li	a4,2
      70:	38e68ce3          	beq	a3,a4,c08 <.L301>
      74:	eaf5                	bnez	a3,168 <.L296>
      76:	446e                	lw	s0,216(sp)
      78:	40fe                	lw	ra,220(sp)
      7a:	44de                	lw	s1,212(sp)
      7c:	494e                	lw	s2,208(sp)
      7e:	49be                	lw	s3,204(sp)
      80:	4a2e                	lw	s4,200(sp)
      82:	4b0e                	lw	s6,192(sp)
      84:	5bfa                	lw	s7,188(sp)
      86:	5c6a                	lw	s8,184(sp)
      88:	5cda                	lw	s9,180(sp)
      8a:	5d4a                	lw	s10,176(sp)
      8c:	5dba                	lw	s11,172(sp)
      8e:	8556                	mv	a0,s5
      90:	4a9e                	lw	s5,196(sp)
      92:	612d                	add	sp,sp,224
      94:	00000317          	auipc	t1,0x0
      98:	00030067          	jr	t1 # 94 <.L299+0x3c>

0000009c <.L300>:
      9c:	00000a37          	lui	s4,0x0
      a0:	000a2703          	lw	a4,0(s4) # 0 <TOUCH_Deal_with>
      a4:	0747d603          	lhu	a2,116(a5)
      a8:	05872903          	lw	s2,88(a4)
      ac:	fd800713          	li	a4,-40
      b0:	8f11                	sub	a4,a4,a2
      b2:	02caa603          	lw	a2,44(s5) # 2c <TOUCH_Deal_with+0x2c>
      b6:	0652                	sll	a2,a2,0x14
      b8:	8251                	srl	a2,a2,0x14
      ba:	9732                	add	a4,a4,a2
      bc:	0742                	sll	a4,a4,0x10
      be:	8341                	srl	a4,a4,0x10
      c0:	16800613          	li	a2,360
      c4:	0ae66263          	bltu	a2,a4,168 <.L296>
      c8:	0797c583          	lbu	a1,121(a5)
      cc:	01071613          	sll	a2,a4,0x10
      d0:	8641                	sra	a2,a2,0x10
      d2:	00d59863          	bne	a1,a3,e2 <.L304>
      d6:	0297c683          	lbu	a3,41(a5)
      da:	10068693          	add	a3,a3,256 # fffff100 <.L698+0xffffd8f4>
      de:	08e6c563          	blt	a3,a4,168 <.L296>

000000e2 <.L304>:
      e2:	1a27c703          	lbu	a4,418(a5)
      e6:	eb09                	bnez	a4,f8 <.L305>
      e8:	07279703          	lh	a4,114(a5)
      ec:	46f9                	li	a3,30
      ee:	40e80733          	sub	a4,a6,a4
      f2:	073d                	add	a4,a4,15
      f4:	06e6ea63          	bltu	a3,a4,168 <.L296>

000000f8 <.L305>:
      f8:	0ba79703          	lh	a4,186(a5)
      fc:	06c70663          	beq	a4,a2,168 <.L296>
     100:	0ac79d23          	sh	a2,186(a5)
     104:	0b079e23          	sh	a6,188(a5)
     108:	09e78713          	add	a4,a5,158
     10c:	0ba78693          	add	a3,a5,186

00000110 <.L306>:
     110:	00475603          	lhu	a2,4(a4)
     114:	0711                	add	a4,a4,4
     116:	fec71e23          	sh	a2,-4(a4)
     11a:	00275603          	lhu	a2,2(a4)
     11e:	fec71f23          	sh	a2,-2(a4)
     122:	fee697e3          	bne	a3,a4,110 <.L306>
     126:	0aa79703          	lh	a4,170(a5)
     12a:	0ff00793          	li	a5,255
     12e:	02e7dd63          	bge	a5,a4,168 <.L296>
     132:	4a89                	li	s5,2
     134:	0ff00c13          	li	s8,255
     138:	4c9d                	li	s9,7
     13a:	5d7d                	li	s10,-1

0000013c <.L308>:
     13c:	409c                	lw	a5,0(s1)
     13e:	024a8b93          	add	s7,s5,36
     142:	0b8a                	sll	s7,s7,0x2
     144:	97de                	add	a5,a5,s7
     146:	00e79783          	lh	a5,14(a5)
     14a:	00fc4f63          	blt	s8,a5,168 <.L296>
     14e:	4b11                	li	s6,4

00000150 <.L398>:
     150:	409c                	lw	a5,0(s1)
     152:	024b0713          	add	a4,s6,36
     156:	070a                	sll	a4,a4,0x2
     158:	973e                	add	a4,a4,a5
     15a:	00e71403          	lh	s0,14(a4)
     15e:	028c5463          	bge	s8,s0,186 <.L307>

00000162 <.L399>:
     162:	1afd                	add	s5,s5,-1
     164:	fdaa9ce3          	bne	s5,s10,13c <.L308>

00000168 <.L296>:
     168:	40fe                	lw	ra,220(sp)
     16a:	446e                	lw	s0,216(sp)
     16c:	44de                	lw	s1,212(sp)
     16e:	494e                	lw	s2,208(sp)
     170:	49be                	lw	s3,204(sp)
     172:	4a2e                	lw	s4,200(sp)
     174:	4a9e                	lw	s5,196(sp)
     176:	4b0e                	lw	s6,192(sp)
     178:	5bfa                	lw	s7,188(sp)
     17a:	5c6a                	lw	s8,184(sp)
     17c:	5cda                	lw	s9,180(sp)
     17e:	5d4a                	lw	s10,176(sp)
     180:	5dba                	lw	s11,172(sp)
     182:	612d                	add	sp,sp,224
     184:	8082                	ret

00000186 <.L307>:
     186:	0aa7d703          	lhu	a4,170(a5)
     18a:	97de                	add	a5,a5,s7
     18c:	4589                	li	a1,2
     18e:	02e104a3          	sb	a4,41(sp)
     192:	00e79983          	lh	s3,14(a5)
     196:	00f47713          	and	a4,s0,15
     19a:	8011                	srl	s0,s0,0x4
     19c:	01099793          	sll	a5,s3,0x10
     1a0:	83c1                	srl	a5,a5,0x10
     1a2:	0792                	sll	a5,a5,0x4
     1a4:	8fd9                	or	a5,a5,a4
     1a6:	1028                	add	a0,sp,40
     1a8:	883d                	and	s0,s0,15
     1aa:	0f09f993          	and	s3,s3,240
     1ae:	02f10423          	sb	a5,40(sp)
     1b2:	0089e9b3          	or	s3,s3,s0
     1b6:	00000097          	auipc	ra,0x0
     1ba:	000080e7          	jalr	ra # 1b6 <.L307+0x30>
     1be:	24a990e3          	bne	s3,a0,bfe <.L309>
     1c2:	000009b7          	lui	s3,0x0
     1c6:	00098793          	mv	a5,s3
     1ca:	0187c703          	lbu	a4,24(a5)
     1ce:	4785                	li	a5,1
     1d0:	00098993          	mv	s3,s3
     1d4:	04f71563          	bne	a4,a5,21e <.L310>
     1d8:	02914683          	lbu	a3,41(sp)
     1dc:	000007b7          	lui	a5,0x0
     1e0:	4721                	li	a4,8
     1e2:	0007a783          	lw	a5,0(a5) # 0 <TOUCH_Deal_with>
     1e6:	0ed76063          	bltu	a4,a3,2c6 <.L311>
     1ea:	cb95                	beqz	a5,21e <.L310>
     1ec:	14c7a403          	lw	s0,332(a5)
     1f0:	c41d                	beqz	s0,21e <.L310>
     1f2:	00000bb7          	lui	s7,0x0
     1f6:	000ba583          	lw	a1,0(s7) # 0 <TOUCH_Deal_with>
     1fa:	1547a783          	lw	a5,340(a5)
     1fe:	ce2e                	sw	a1,28(sp)
     200:	9782                	jalr	a5
     202:	02914803          	lbu	a6,41(sp)
     206:	02814783          	lbu	a5,40(sp)
     20a:	000ba703          	lw	a4,0(s7)
     20e:	00000637          	lui	a2,0x0
     212:	86aa                	mv	a3,a0
     214:	00060613          	mv	a2,a2

00000218 <.L701>:
     218:	45f2                	lw	a1,28(sp)
     21a:	450d                	li	a0,3
     21c:	9402                	jalr	s0

0000021e <.L310>:
     21e:	4080                	lw	s0,0(s1)
     220:	0a8a                	sll	s5,s5,0x2
     222:	0b0a                	sll	s6,s6,0x2
     224:	9aa2                	add	s5,s5,s0
     226:	9b22                	add	s6,s6,s0
     228:	0a0a9783          	lh	a5,160(s5)
     22c:	0a0b1703          	lh	a4,160(s6)
     230:	00000ab7          	lui	s5,0x0
     234:	000a8a93          	mv	s5,s5
     238:	97ba                	add	a5,a5,a4
     23a:	0ac41703          	lh	a4,172(s0)
     23e:	97ba                	add	a5,a5,a4
     240:	07241703          	lh	a4,114(s0)
     244:	97ba                	add	a5,a5,a4
     246:	4711                	li	a4,4
     248:	02e7c7b3          	div	a5,a5,a4
     24c:	07944703          	lbu	a4,121(s0)
     250:	06f41923          	sh	a5,114(s0)
     254:	02914783          	lbu	a5,41(sp)
     258:	3a071563          	bnez	a4,602 <.L313>
     25c:	efc9                	bnez	a5,2f6 <.L314>
     25e:	02814783          	lbu	a5,40(sp)
     262:	06f40c23          	sb	a5,120(s0)
     266:	4785                	li	a5,1
     268:	06f40d23          	sb	a5,122(s0)

0000026c <.L315>:
     26c:	07c45703          	lhu	a4,124(s0)
     270:	10100793          	li	a5,257
     274:	38f71763          	bne	a4,a5,602 <.L313>
     278:	5c38                	lw	a4,120(s0)
     27a:	77c1                	lui	a5,0xffff0
     27c:	8ff9                	and	a5,a5,a4
     27e:	01010737          	lui	a4,0x1010
     282:	38e79063          	bne	a5,a4,602 <.L313>
     286:	07844783          	lbu	a5,120(s0)
     28a:	05f00693          	li	a3,95
     28e:	ff678713          	add	a4,a5,-10 # fffefff6 <.L698+0xfffee7ea>
     292:	0ff77713          	zext.b	a4,a4
     296:	02e6e363          	bltu	a3,a4,2bc <.L319>
     29a:	000006b7          	lui	a3,0x0
     29e:	07744703          	lbu	a4,119(s0)
     2a2:	0006d683          	lhu	a3,0(a3) # 0 <TOUCH_Deal_with>
     2a6:	00e6eb63          	bltu	a3,a4,2bc <.L319>
     2aa:	40e786b3          	sub	a3,a5,a4
     2ae:	02900613          	li	a2,41
     2b2:	00d64563          	blt	a2,a3,2bc <.L319>
     2b6:	17dd                	add	a5,a5,-9
     2b8:	06f74d63          	blt	a4,a5,332 <.L320>

000002bc <.L319>:
     2bc:	06041d23          	sh	zero,122(s0)
     2c0:	06041e23          	sh	zero,124(s0)
     2c4:	b555                	j	168 <.L296>

000002c6 <.L311>:
     2c6:	dfa1                	beqz	a5,21e <.L310>
     2c8:	14c7a403          	lw	s0,332(a5)
     2cc:	d829                	beqz	s0,21e <.L310>
     2ce:	00000bb7          	lui	s7,0x0
     2d2:	000ba583          	lw	a1,0(s7) # 0 <TOUCH_Deal_with>
     2d6:	1547a783          	lw	a5,340(a5)
     2da:	ce2e                	sw	a1,28(sp)
     2dc:	9782                	jalr	a5
     2de:	00000637          	lui	a2,0x0
     2e2:	02914803          	lbu	a6,41(sp)
     2e6:	02814783          	lbu	a5,40(sp)
     2ea:	000ba703          	lw	a4,0(s7)
     2ee:	86aa                	mv	a3,a0
     2f0:	00060613          	mv	a2,a2
     2f4:	b715                	j	218 <.L701>

000002f6 <.L314>:
     2f6:	4705                	li	a4,1
     2f8:	00e79963          	bne	a5,a4,30a <.L316>
     2fc:	02814703          	lbu	a4,40(sp)
     300:	06f40da3          	sb	a5,123(s0)
     304:	06e40ba3          	sb	a4,119(s0)
     308:	b795                	j	26c <.L315>

0000030a <.L316>:
     30a:	4689                	li	a3,2
     30c:	00d79963          	bne	a5,a3,31e <.L317>
     310:	02814783          	lbu	a5,40(sp)
     314:	06e40e23          	sb	a4,124(s0)
     318:	02f40523          	sb	a5,42(s0)
     31c:	bf81                	j	26c <.L315>

0000031e <.L317>:
     31e:	468d                	li	a3,3
     320:	f4d796e3          	bne	a5,a3,26c <.L315>
     324:	02814783          	lbu	a5,40(sp)
     328:	06e40ea3          	sb	a4,125(s0)
     32c:	02f405a3          	sb	a5,43(s0)
     330:	bf35                	j	26c <.L315>

00000332 <.L320>:
     332:	8f99                	sub	a5,a5,a4
     334:	06f44703          	lbu	a4,111(s0)
     338:	0ff7fb13          	zext.b	s6,a5
     33c:	4785                	li	a5,1
     33e:	06f40ca3          	sb	a5,121(s0)
     342:	20f70a63          	beq	a4,a5,556 <.L692>
     346:	4c05                	li	s8,1
     348:	00000cb7          	lui	s9,0x0
     34c:	00000437          	lui	s0,0x0

00000350 <.L322>:
     350:	409c                	lw	a5,0(s1)
     352:	0c091463          	bnez	s2,41a <.L334>

00000356 <.L335>:
     356:	4098                	lw	a4,0(s1)
     358:	4785                	li	a5,1
     35a:	07074403          	lbu	s0,112(a4) # 1010070 <.L698+0x100e864>
     35e:	22f41a63          	bne	s0,a5,592 <.L336>
     362:	07774783          	lbu	a5,119(a4)
     366:	07a5                	add	a5,a5,9
     368:	0ff7f793          	zext.b	a5,a5

0000036c <.L337>:
     36c:	02f704a3          	sb	a5,41(a4)
     370:	28041463          	bnez	s0,5f8 <.L339>
     374:	000a2783          	lw	a5,0(s4)
     378:	4b01                	li	s6,0
     37a:	4a05                	li	s4,1
     37c:	0587a903          	lw	s2,88(a5)

00000380 <.L340>:
     380:	20091c63          	bnez	s2,598 <.L342>
     384:	4785                	li	a5,1
     386:	26f41963          	bne	s0,a5,5f8 <.L339>
     38a:	409c                	lw	a5,0(s1)
     38c:	01a7c703          	lbu	a4,26(a5)
     390:	01471663          	bne	a4,s4,39c <.L344>
     394:	01b7c703          	lbu	a4,27(a5)
     398:	27670063          	beq	a4,s6,5f8 <.L339>

0000039c <.L344>:
     39c:	240a0e63          	beqz	s4,5f8 <.L339>
     3a0:	0187c783          	lbu	a5,24(a5)
     3a4:	24079a63          	bnez	a5,5f8 <.L339>
     3a8:	85da                	mv	a1,s6
     3aa:	8552                	mv	a0,s4
     3ac:	00000097          	auipc	ra,0x0
     3b0:	000080e7          	jalr	ra # 3ac <.L344+0x10>
     3b4:	000aa703          	lw	a4,0(s5) # 0 <TOUCH_Deal_with>
     3b8:	4785                	li	a5,1
     3ba:	1af70123          	sb	a5,418(a4)
     3be:	0189c703          	lbu	a4,24(s3) # 18 <TOUCH_Deal_with+0x18>
     3c2:	24f71063          	bne	a4,a5,602 <.L313>
     3c6:	000007b7          	lui	a5,0x0
     3ca:	0007a783          	lw	a5,0(a5) # 0 <TOUCH_Deal_with>
     3ce:	1e079d63          	bnez	a5,5c8 <.L345>

000003d2 <.L348>:
     3d2:	00000437          	lui	s0,0x0
     3d6:	00042783          	lw	a5,0(s0) # 0 <TOUCH_Deal_with>
     3da:	2a079363          	bnez	a5,680 <.L346>

000003de <.L347>:
     3de:	00042783          	lw	a5,0(s0)
     3e2:	22078063          	beqz	a5,602 <.L313>
     3e6:	14c7a403          	lw	s0,332(a5)
     3ea:	20040c63          	beqz	s0,602 <.L313>
     3ee:	00000937          	lui	s2,0x0
     3f2:	00092583          	lw	a1,0(s2) # 0 <TOUCH_Deal_with>
     3f6:	1547a783          	lw	a5,340(a5)
     3fa:	ce2e                	sw	a1,28(sp)
     3fc:	9782                	jalr	a5
     3fe:	409c                	lw	a5,0(s1)
     400:	00092703          	lw	a4,0(s2)
     404:	45f2                	lw	a1,28(sp)
     406:	0707c783          	lbu	a5,112(a5)
     40a:	00000637          	lui	a2,0x0
     40e:	86aa                	mv	a3,a0
     410:	00060613          	mv	a2,a2
     414:	450d                	li	a0,3
     416:	9402                	jalr	s0
     418:	a2ed                	j	602 <.L313>

0000041a <.L334>:
     41a:	03390b93          	add	s7,s2,51
     41e:	855e                	mv	a0,s7
     420:	ce3e                	sw	a5,28(sp)
     422:	00000097          	auipc	ra,0x0
     426:	000080e7          	jalr	ra # 422 <.L334+0x8>
     42a:	47f2                	lw	a5,28(sp)
     42c:	0aab1e63          	bne	s6,a0,4e8 <.L325>
     430:	03394703          	lbu	a4,51(s2)
     434:	cb55                	beqz	a4,4e8 <.L325>
     436:	02a7cd03          	lbu	s10,42(a5)
     43a:	85da                	mv	a1,s6
     43c:	855e                	mv	a0,s7
     43e:	00000097          	auipc	ra,0x0
     442:	000080e7          	jalr	ra # 43e <.L334+0x24>
     446:	0aad1163          	bne	s10,a0,4e8 <.L325>
     44a:	409c                	lw	a5,0(s1)
     44c:	4599                	li	a1,6
     44e:	854a                	mv	a0,s2
     450:	02b7cd03          	lbu	s10,43(a5)
     454:	00000097          	auipc	ra,0x0
     458:	000080e7          	jalr	ra # 454 <.L334+0x3a>
     45c:	08ad1663          	bne	s10,a0,4e8 <.L325>
     460:	0004ad03          	lw	s10,0(s1) # 0 <TOUCH_Deal_with>
     464:	04ed0d93          	add	s11,s10,78
     468:	856e                	mv	a0,s11
     46a:	00000097          	auipc	ra,0x0
     46e:	000080e7          	jalr	ra # 46a <.L334+0x50>
     472:	862a                	mv	a2,a0
     474:	4581                	li	a1,0
     476:	856e                	mv	a0,s11
     478:	00000097          	auipc	ra,0x0
     47c:	000080e7          	jalr	ra # 478 <.L334+0x5e>
     480:	855e                	mv	a0,s7
     482:	00000097          	auipc	ra,0x0
     486:	000080e7          	jalr	ra # 482 <.L334+0x68>
     48a:	862a                	mv	a2,a0
     48c:	85de                	mv	a1,s7
     48e:	856e                	mv	a0,s11
     490:	00000097          	auipc	ra,0x0
     494:	000080e7          	jalr	ra # 490 <.L334+0x76>
     498:	4619                	li	a2,6
     49a:	85ca                	mv	a1,s2
     49c:	19cd0513          	add	a0,s10,412
     4a0:	00000097          	auipc	ra,0x0
     4a4:	000080e7          	jalr	ra # 4a0 <.L334+0x86>
     4a8:	05494503          	lbu	a0,84(s2)
     4ac:	01ad4703          	lbu	a4,26(s10)
     4b0:	06a70563          	beq	a4,a0,51a <.L327>
     4b4:	c13d                	beqz	a0,51a <.L327>
     4b6:	018d4783          	lbu	a5,24(s10)
     4ba:	e3a5                	bnez	a5,51a <.L327>
     4bc:	02e94583          	lbu	a1,46(s2)
     4c0:	00000097          	auipc	ra,0x0
     4c4:	000080e7          	jalr	ra # 4c0 <.L334+0xa6>
     4c8:	409c                	lw	a5,0(s1)
     4ca:	1b878123          	sb	s8,418(a5)
     4ce:	0189c783          	lbu	a5,24(s3)
     4d2:	01879863          	bne	a5,s8,4e2 <.L329>
     4d6:	000ca783          	lw	a5,0(s9) # 0 <TOUCH_Deal_with>
     4da:	eb91                	bnez	a5,4ee <.L330>

000004dc <.L333>:
     4dc:	000ca783          	lw	a5,0(s9)
     4e0:	e3b1                	bnez	a5,524 <.L331>

000004e2 <.L329>:
     4e2:	409c                	lw	a5,0(s1)
     4e4:	06078823          	sb	zero,112(a5)

000004e8 <.L325>:
     4e8:	05892903          	lw	s2,88(s2)
     4ec:	b595                	j	350 <.L322>

000004ee <.L330>:
     4ee:	14c7ab83          	lw	s7,332(a5)
     4f2:	fe0b85e3          	beqz	s7,4dc <.L333>
     4f6:	00042583          	lw	a1,0(s0)
     4fa:	1547a783          	lw	a5,340(a5)
     4fe:	ce2e                	sw	a1,28(sp)
     500:	9782                	jalr	a5
     502:	05494783          	lbu	a5,84(s2)
     506:	00042703          	lw	a4,0(s0)
     50a:	45f2                	lw	a1,28(sp)
     50c:	00000637          	lui	a2,0x0
     510:	86aa                	mv	a3,a0
     512:	00060613          	mv	a2,a2
     516:	450d                	li	a0,3
     518:	9b82                	jalr	s7

0000051a <.L327>:
     51a:	0189c783          	lbu	a5,24(s3)
     51e:	fd8792e3          	bne	a5,s8,4e2 <.L329>
     522:	bf6d                	j	4dc <.L333>

00000524 <.L331>:
     524:	14c7ab83          	lw	s7,332(a5)
     528:	fa0b8de3          	beqz	s7,4e2 <.L329>
     52c:	00042583          	lw	a1,0(s0)
     530:	1547a783          	lw	a5,340(a5)
     534:	ce2e                	sw	a1,28(sp)
     536:	9782                	jalr	a5
     538:	000aa783          	lw	a5,0(s5)
     53c:	00042703          	lw	a4,0(s0)
     540:	45f2                	lw	a1,28(sp)
     542:	00000637          	lui	a2,0x0
     546:	86aa                	mv	a3,a0
     548:	04e78793          	add	a5,a5,78
     54c:	00060613          	mv	a2,a2
     550:	450d                	li	a0,3
     552:	9b82                	jalr	s7
     554:	b779                	j	4e2 <.L329>

00000556 <.L692>:
     556:	02d40593          	add	a1,s0,45
     55a:	852e                	mv	a0,a1
     55c:	ce2e                	sw	a1,28(sp)
     55e:	00000097          	auipc	ra,0x0
     562:	000080e7          	jalr	ra # 55e <.L692+0x8>
     566:	45f2                	lw	a1,28(sp)
     568:	862a                	mv	a2,a0
     56a:	04e40513          	add	a0,s0,78
     56e:	00000097          	auipc	ra,0x0
     572:	000080e7          	jalr	ra # 56e <.L692+0x18>
     576:	4619                	li	a2,6
     578:	19640593          	add	a1,s0,406
     57c:	19c40513          	add	a0,s0,412
     580:	00000097          	auipc	ra,0x0
     584:	000080e7          	jalr	ra # 580 <.L692+0x2a>
     588:	06f44783          	lbu	a5,111(s0)
     58c:	06f40823          	sb	a5,112(s0)
     590:	b3d9                	j	356 <.L335>

00000592 <.L336>:
     592:	07874783          	lbu	a5,120(a4)
     596:	bbd9                	j	36c <.L337>

00000598 <.L342>:
     598:	03394783          	lbu	a5,51(s2)
     59c:	e39d                	bnez	a5,5c2 <.L341>
     59e:	409c                	lw	a5,0(s1)
     5a0:	4599                	li	a1,6
     5a2:	854a                	mv	a0,s2
     5a4:	02b7cb83          	lbu	s7,43(a5)
     5a8:	00000097          	auipc	ra,0x0
     5ac:	000080e7          	jalr	ra # 5a8 <.L342+0x10>
     5b0:	00ab9963          	bne	s7,a0,5c2 <.L341>
     5b4:	05494a03          	lbu	s4,84(s2)
     5b8:	02e94b03          	lbu	s6,46(s2)
     5bc:	0405                	add	s0,s0,1
     5be:	0ff47413          	zext.b	s0,s0

000005c2 <.L341>:
     5c2:	05892903          	lw	s2,88(s2)
     5c6:	bb6d                	j	380 <.L340>

000005c8 <.L345>:
     5c8:	14c7a403          	lw	s0,332(a5)
     5cc:	e00403e3          	beqz	s0,3d2 <.L348>
     5d0:	00000937          	lui	s2,0x0
     5d4:	00092583          	lw	a1,0(s2) # 0 <TOUCH_Deal_with>
     5d8:	1547a783          	lw	a5,340(a5)
     5dc:	ce2e                	sw	a1,28(sp)
     5de:	9782                	jalr	a5
     5e0:	00092703          	lw	a4,0(s2)
     5e4:	45f2                	lw	a1,28(sp)
     5e6:	00000637          	lui	a2,0x0
     5ea:	86aa                	mv	a3,a0
     5ec:	885a                	mv	a6,s6
     5ee:	87d2                	mv	a5,s4
     5f0:	00060613          	mv	a2,a2
     5f4:	450d                	li	a0,3
     5f6:	9402                	jalr	s0

000005f8 <.L339>:
     5f8:	0189c703          	lbu	a4,24(s3)
     5fc:	4785                	li	a5,1
     5fe:	dcf70ae3          	beq	a4,a5,3d2 <.L348>

00000602 <.L313>:
     602:	02914683          	lbu	a3,41(sp)
     606:	4098                	lw	a4,0(s1)
     608:	02814583          	lbu	a1,40(sp)
     60c:	00169793          	sll	a5,a3,0x1
     610:	97ba                	add	a5,a5,a4
     612:	0bf7c603          	lbu	a2,191(a5)
     616:	ca4d                	beqz	a2,6c8 <.L349>
     618:	0be7c683          	lbu	a3,190(a5)
     61c:	08b69e63          	bne	a3,a1,6b8 <.L350>
     620:	0605                	add	a2,a2,1 # 1 <TOUCH_Deal_with+0x1>
     622:	0ac78fa3          	sb	a2,191(a5)

00000626 <.L351>:
     626:	07974603          	lbu	a2,121(a4)
     62a:	4785                	li	a5,1
     62c:	b2f61ee3          	bne	a2,a5,168 <.L296>
     630:	02974583          	lbu	a1,41(a4)
     634:	0c770693          	add	a3,a4,199
     638:	4791                	li	a5,4
     63a:	4401                	li	s0,0

0000063c <.L353>:
     63c:	0ab7e063          	bltu	a5,a1,6dc <.L355>
     640:	b20414e3          	bnez	s0,168 <.L296>
     644:	07074683          	lbu	a3,112(a4)
     648:	02070623          	sb	zero,44(a4)
     64c:	4785                	li	a5,1
     64e:	07874603          	lbu	a2,120(a4)
     652:	08f68e63          	beq	a3,a5,6ee <.L356>
     656:	0be70793          	add	a5,a4,190
     65a:	4681                	li	a3,0
     65c:	4511                	li	a0,4

0000065e <.L357>:
     65e:	0ac68763          	beq	a3,a2,70c <.L367>
     662:	00a68a63          	beq	a3,a0,676 <.L365>
     666:	0007c583          	lbu	a1,0(a5)
     66a:	02c74803          	lbu	a6,44(a4)
     66e:	0105c5b3          	xor	a1,a1,a6
     672:	02b70623          	sb	a1,44(a4)

00000676 <.L365>:
     676:	0685                	add	a3,a3,1
     678:	0ff6f693          	zext.b	a3,a3
     67c:	0789                	add	a5,a5,2
     67e:	b7c5                	j	65e <.L357>

00000680 <.L346>:
     680:	14c7a903          	lw	s2,332(a5)
     684:	d4090de3          	beqz	s2,3de <.L347>
     688:	00000a37          	lui	s4,0x0
     68c:	000a2583          	lw	a1,0(s4) # 0 <TOUCH_Deal_with>
     690:	1547a783          	lw	a5,340(a5)
     694:	ce2e                	sw	a1,28(sp)
     696:	9782                	jalr	a5
     698:	409c                	lw	a5,0(s1)
     69a:	000a2703          	lw	a4,0(s4)
     69e:	45f2                	lw	a1,28(sp)
     6a0:	0777c803          	lbu	a6,119(a5)
     6a4:	0787c783          	lbu	a5,120(a5)
     6a8:	00000637          	lui	a2,0x0
     6ac:	86aa                	mv	a3,a0
     6ae:	00060613          	mv	a2,a2
     6b2:	450d                	li	a0,3
     6b4:	9902                	jalr	s2
     6b6:	b325                	j	3de <.L347>

000006b8 <.L350>:
     6b8:	4685                	li	a3,1
     6ba:	40d61be3          	bne	a2,a3,12d0 <.L443>
     6be:	0a078fa3          	sb	zero,191(a5)
     6c2:	0a078f23          	sb	zero,190(a5)
     6c6:	b785                	j	626 <.L351>

000006c8 <.L349>:
     6c8:	05868693          	add	a3,a3,88
     6cc:	0686                	sll	a3,a3,0x1
     6ce:	96ba                	add	a3,a3,a4
     6d0:	00b68723          	sb	a1,14(a3)
     6d4:	4685                	li	a3,1
     6d6:	0ad78fa3          	sb	a3,191(a5)
     6da:	b7b1                	j	626 <.L351>

000006dc <.L355>:
     6dc:	0006c503          	lbu	a0,0(a3)
     6e0:	e111                	bnez	a0,6e4 <.L354>
     6e2:	8432                	mv	s0,a2

000006e4 <.L354>:
     6e4:	0785                	add	a5,a5,1
     6e6:	0ff7f793          	zext.b	a5,a5
     6ea:	0689                	add	a3,a3,2
     6ec:	bf81                	j	63c <.L353>

000006ee <.L356>:
     6ee:	07774583          	lbu	a1,119(a4)
     6f2:	4681                	li	a3,0
     6f4:	4811                	li	a6,4
     6f6:	00858513          	add	a0,a1,8 # 8 <TOUCH_Deal_with+0x8>

000006fa <.L358>:
     6fa:	2ad55763          	bge	a0,a3,9a8 <.L360>
     6fe:	8e0d                	sub	a2,a2,a1
     700:	165d                	add	a2,a2,-9 # fffffff7 <.L698+0xffffe7eb>
     702:	4681                	li	a3,0

00000704 <.L361>:
     704:	02c74783          	lbu	a5,44(a4)
     708:	2cc6c263          	blt	a3,a2,9cc <.L362>

0000070c <.L367>:
     70c:	02c74683          	lbu	a3,44(a4)
     710:	0c674703          	lbu	a4,198(a4)
     714:	0189c783          	lbu	a5,24(s3)
     718:	2ce69563          	bne	a3,a4,9e2 <.L363>
     71c:	4705                	li	a4,1
     71e:	02e79263          	bne	a5,a4,742 <.L381>
     722:	000009b7          	lui	s3,0x0
     726:	4a21                	li	s4,8
     728:	00000937          	lui	s2,0x0
     72c:	00000b37          	lui	s6,0x0
     730:	00000bb7          	lui	s7,0x0

00000734 <.L376>:
     734:	409c                	lw	a5,0(s1)
     736:	0009a703          	lw	a4,0(s3) # 0 <TOUCH_Deal_with>
     73a:	0297c783          	lbu	a5,41(a5)
     73e:	3af46d63          	bltu	s0,a5,af8 <.L380>

00000742 <.L381>:
     742:	07400613          	li	a2,116
     746:	4581                	li	a1,0
     748:	1068                	add	a0,sp,44
     74a:	00000097          	auipc	ra,0x0
     74e:	000080e7          	jalr	ra # 74a <.L381+0x8>
     752:	00000937          	lui	s2,0x0
     756:	0d800613          	li	a2,216
     75a:	4581                	li	a1,0
     75c:	00090513          	mv	a0,s2
     760:	00000097          	auipc	ra,0x0
     764:	000080e7          	jalr	ra # 760 <.L381+0x1e>
     768:	4080                	lw	s0,0(s1)
     76a:	000007b7          	lui	a5,0x0
     76e:	0007d583          	lhu	a1,0(a5) # 0 <TOUCH_Deal_with>
     772:	07744603          	lbu	a2,119(s0)
     776:	000004b7          	lui	s1,0x0
     77a:	0004c803          	lbu	a6,0(s1) # 0 <TOUCH_Deal_with>
     77e:	00860513          	add	a0,a2,8
     782:	05a5                	add	a1,a1,9
     784:	47a5                	li	a5,9
     786:	00090893          	mv	a7,s2

0000078a <.L377>:
     78a:	3ef55b63          	bge	a0,a5,b80 <.L385>

0000078e <.L382>:
     78e:	07044703          	lbu	a4,112(s0)
     792:	4785                	li	a5,1
     794:	42f71163          	bne	a4,a5,bb6 <.L386>
     798:	04e40593          	add	a1,s0,78
     79c:	852e                	mv	a0,a1
     79e:	ce2e                	sw	a1,28(sp)
     7a0:	00000097          	auipc	ra,0x0
     7a4:	000080e7          	jalr	ra # 7a0 <.L382+0x12>
     7a8:	45f2                	lw	a1,28(sp)
     7aa:	862a                	mv	a2,a0
     7ac:	1068                	add	a0,sp,44
     7ae:	00000097          	auipc	ra,0x0
     7b2:	000080e7          	jalr	ra # 7ae <.L382+0x20>

000007b6 <.L390>:
     7b6:	0c844783          	lbu	a5,200(s0)
     7ba:	4705                	li	a4,1
     7bc:	18f40823          	sb	a5,400(s0)
     7c0:	0ca44783          	lbu	a5,202(s0)
     7c4:	18f408a3          	sb	a5,401(s0)
     7c8:	0cc44783          	lbu	a5,204(s0)
     7cc:	18f40923          	sb	a5,402(s0)
     7d0:	0ce44783          	lbu	a5,206(s0)
     7d4:	18f409a3          	sb	a5,403(s0)
     7d8:	07844783          	lbu	a5,120(s0)
     7dc:	18f40aa3          	sb	a5,405(s0)
     7e0:	07044783          	lbu	a5,112(s0)
     7e4:	40e79563          	bne	a5,a4,bee <.L694>
     7e8:	4619                	li	a2,6
     7ea:	19c40593          	add	a1,s0,412
     7ee:	08d10513          	add	a0,sp,141
     7f2:	08f10623          	sb	a5,140(sp)
     7f6:	00000097          	auipc	ra,0x0
     7fa:	000080e7          	jalr	ra # 7f6 <.L390+0x40>

000007fe <.L392>:
     7fe:	00000437          	lui	s0,0x0
     802:	00042783          	lw	a5,0(s0) # 0 <TOUCH_Deal_with>
     806:	cb85                	beqz	a5,836 <.L393>
     808:	14c7a983          	lw	s3,332(a5)
     80c:	02098563          	beqz	s3,836 <.L393>
     810:	00000a37          	lui	s4,0x0
     814:	000a2583          	lw	a1,0(s4) # 0 <TOUCH_Deal_with>
     818:	1547a783          	lw	a5,340(a5)
     81c:	ce2e                	sw	a1,28(sp)
     81e:	9782                	jalr	a5
     820:	000a2703          	lw	a4,0(s4)
     824:	45f2                	lw	a1,28(sp)
     826:	00000637          	lui	a2,0x0
     82a:	86aa                	mv	a3,a0
     82c:	00fc                	add	a5,sp,76
     82e:	00060613          	mv	a2,a2
     832:	450d                	li	a0,3
     834:	9982                	jalr	s3

00000836 <.L393>:
     836:	00042783          	lw	a5,0(s0)
     83a:	cb85                	beqz	a5,86a <.L394>
     83c:	14c7a983          	lw	s3,332(a5)
     840:	02098563          	beqz	s3,86a <.L394>
     844:	00000a37          	lui	s4,0x0
     848:	000a2583          	lw	a1,0(s4) # 0 <TOUCH_Deal_with>
     84c:	1547a783          	lw	a5,340(a5)
     850:	ce2e                	sw	a1,28(sp)
     852:	9782                	jalr	a5
     854:	000a2703          	lw	a4,0(s4)
     858:	45f2                	lw	a1,28(sp)
     85a:	00000637          	lui	a2,0x0
     85e:	86aa                	mv	a3,a0
     860:	107c                	add	a5,sp,44
     862:	00060613          	mv	a2,a2
     866:	450d                	li	a0,3
     868:	9982                	jalr	s3

0000086a <.L394>:
     86a:	08c14783          	lbu	a5,140(sp)
     86e:	cba9                	beqz	a5,8c0 <.L395>
     870:	00042783          	lw	a5,0(s0)
     874:	c7b1                	beqz	a5,8c0 <.L395>
     876:	14c7a983          	lw	s3,332(a5)
     87a:	04098363          	beqz	s3,8c0 <.L395>
     87e:	00000a37          	lui	s4,0x0
     882:	000a2583          	lw	a1,0(s4) # 0 <TOUCH_Deal_with>
     886:	1547a783          	lw	a5,340(a5)
     88a:	ce2e                	sw	a1,28(sp)
     88c:	9782                	jalr	a5
     88e:	09214783          	lbu	a5,146(sp)
     892:	08f14883          	lbu	a7,143(sp)
     896:	08e14803          	lbu	a6,142(sp)
     89a:	c43e                	sw	a5,8(sp)
     89c:	09114783          	lbu	a5,145(sp)
     8a0:	000a2703          	lw	a4,0(s4)
     8a4:	45f2                	lw	a1,28(sp)
     8a6:	c23e                	sw	a5,4(sp)
     8a8:	09014783          	lbu	a5,144(sp)
     8ac:	00000637          	lui	a2,0x0
     8b0:	86aa                	mv	a3,a0
     8b2:	c03e                	sw	a5,0(sp)
     8b4:	08d14783          	lbu	a5,141(sp)
     8b8:	00060613          	mv	a2,a2
     8bc:	450d                	li	a0,3
     8be:	9982                	jalr	s3

000008c0 <.L395>:
     8c0:	4501                	li	a0,0
     8c2:	00000097          	auipc	ra,0x0
     8c6:	000080e7          	jalr	ra # 8c2 <.L395+0x2>
     8ca:	c915                	beqz	a0,8fe <.L396>
     8cc:	00042783          	lw	a5,0(s0)
     8d0:	c79d                	beqz	a5,8fe <.L396>
     8d2:	14c7a983          	lw	s3,332(a5)
     8d6:	02098463          	beqz	s3,8fe <.L396>
     8da:	00000a37          	lui	s4,0x0
     8de:	000a2583          	lw	a1,0(s4) # 0 <TOUCH_Deal_with>
     8e2:	1547a783          	lw	a5,340(a5)
     8e6:	ce2e                	sw	a1,28(sp)
     8e8:	9782                	jalr	a5
     8ea:	000a2703          	lw	a4,0(s4)
     8ee:	45f2                	lw	a1,28(sp)
     8f0:	00000637          	lui	a2,0x0
     8f4:	86aa                	mv	a3,a0
     8f6:	00060613          	mv	a2,a2
     8fa:	4505                	li	a0,1
     8fc:	9982                	jalr	s3

000008fe <.L396>:
     8fe:	00042783          	lw	a5,0(s0)
     902:	00000a37          	lui	s4,0x0
     906:	000a0513          	mv	a0,s4
     90a:	0e47a783          	lw	a5,228(a5)
     90e:	000009b7          	lui	s3,0x0
     912:	9782                	jalr	a5
     914:	00042783          	lw	a5,0(s0)
     918:	00098513          	mv	a0,s3
     91c:	0e47a783          	lw	a5,228(a5)
     920:	9782                	jalr	a5
     922:	00042783          	lw	a5,0(s0)
     926:	000a0513          	mv	a0,s4
     92a:	0e87a783          	lw	a5,232(a5)
     92e:	9782                	jalr	a5
     930:	00042783          	lw	a5,0(s0)
     934:	00098513          	mv	a0,s3
     938:	0e87a783          	lw	a5,232(a5)
     93c:	9782                	jalr	a5
     93e:	000aa583          	lw	a1,0(s5)
     942:	4789                	li	a5,2
     944:	4611                	li	a2,4
     946:	c1dc                	sw	a5,4(a1)
     948:	cb02                	sw	zero,148(sp)
     94a:	1955c783          	lbu	a5,405(a1)
     94e:	09910513          	add	a0,sp,153
     952:	19058593          	add	a1,a1,400
     956:	08f10c23          	sb	a5,152(sp)
     95a:	00000097          	auipc	ra,0x0
     95e:	000080e7          	jalr	ra # 95a <.L396+0x5c>
     962:	02c14783          	lbu	a5,44(sp)
     966:	800781e3          	beqz	a5,168 <.L296>
     96a:	00042783          	lw	a5,0(s0)
     96e:	0b47a403          	lw	s0,180(a5)
     972:	000007b7          	lui	a5,0x0
     976:	0007a983          	lw	s3,0(a5) # 0 <TOUCH_Deal_with>
     97a:	0004c783          	lbu	a5,0(s1)
     97e:	26078b63          	beqz	a5,bf4 <.L397>
     982:	07400613          	li	a2,116
     986:	106c                	add	a1,sp,44
     988:	00090513          	mv	a0,s2
     98c:	00000097          	auipc	ra,0x0
     990:	000080e7          	jalr	ra # 98c <.L396+0x8e>
     994:	577d                	li	a4,-1
     996:	0d800693          	li	a3,216
     99a:	00090613          	mv	a2,s2

0000099e <.L709>:
     99e:	4589                	li	a1,2
     9a0:	854e                	mv	a0,s3

000009a2 <.L708>:
     9a2:	9402                	jalr	s0
     9a4:	fc4ff06f          	j	168 <.L296>

000009a8 <.L360>:
     9a8:	01068e63          	beq	a3,a6,9c4 <.L359>
     9ac:	05868793          	add	a5,a3,88
     9b0:	0786                	sll	a5,a5,0x1
     9b2:	97ba                	add	a5,a5,a4
     9b4:	00e7c783          	lbu	a5,14(a5)
     9b8:	02c74883          	lbu	a7,44(a4)
     9bc:	0117c7b3          	xor	a5,a5,a7
     9c0:	02f70623          	sb	a5,44(a4)

000009c4 <.L359>:
     9c4:	0685                	add	a3,a3,1
     9c6:	0ff6f693          	zext.b	a3,a3
     9ca:	bb05                	j	6fa <.L358>

000009cc <.L362>:
     9cc:	00d705b3          	add	a1,a4,a3
     9d0:	04e5c583          	lbu	a1,78(a1)
     9d4:	0685                	add	a3,a3,1
     9d6:	0ff6f693          	zext.b	a3,a3
     9da:	8fad                	xor	a5,a5,a1
     9dc:	02f70623          	sb	a5,44(a4)
     9e0:	b315                	j	704 <.L361>

000009e2 <.L363>:
     9e2:	4705                	li	a4,1
     9e4:	02e79c63          	bne	a5,a4,a1c <.L368>
     9e8:	000007b7          	lui	a5,0x0
     9ec:	0007a783          	lw	a5,0(a5) # 0 <TOUCH_Deal_with>
     9f0:	c795                	beqz	a5,a1c <.L368>
     9f2:	14c7a403          	lw	s0,332(a5)
     9f6:	c01d                	beqz	s0,a1c <.L368>
     9f8:	00000937          	lui	s2,0x0
     9fc:	00092583          	lw	a1,0(s2) # 0 <TOUCH_Deal_with>
     a00:	1547a783          	lw	a5,340(a5)
     a04:	ce2e                	sw	a1,28(sp)
     a06:	9782                	jalr	a5
     a08:	00092703          	lw	a4,0(s2)
     a0c:	45f2                	lw	a1,28(sp)
     a0e:	00000637          	lui	a2,0x0
     a12:	86aa                	mv	a3,a0
     a14:	00060613          	mv	a2,a2
     a18:	450d                	li	a0,3
     a1a:	9402                	jalr	s0

00000a1c <.L368>:
     a1c:	4080                	lw	s0,0(s1)
     a1e:	4785                	li	a5,1
     a20:	0bf44703          	lbu	a4,191(s0)
     a24:	02e7e363          	bltu	a5,a4,a4a <.L369>
     a28:	06040d23          	sb	zero,122(s0)
     a2c:	06040ca3          	sb	zero,121(s0)
     a30:	0a041f23          	sh	zero,190(s0)
     a34:	06040823          	sb	zero,112(s0)
     a38:	02100613          	li	a2,33
     a3c:	4581                	li	a1,0
     a3e:	04e40513          	add	a0,s0,78
     a42:	00000097          	auipc	ra,0x0
     a46:	000080e7          	jalr	ra # a42 <.L368+0x26>

00000a4a <.L369>:
     a4a:	0c144703          	lbu	a4,193(s0)
     a4e:	4785                	li	a5,1
     a50:	02e7e363          	bltu	a5,a4,a76 <.L370>
     a54:	06040da3          	sb	zero,123(s0)
     a58:	06040ca3          	sb	zero,121(s0)
     a5c:	0c041023          	sh	zero,192(s0)
     a60:	06040823          	sb	zero,112(s0)
     a64:	02100613          	li	a2,33
     a68:	4581                	li	a1,0
     a6a:	04e40513          	add	a0,s0,78
     a6e:	00000097          	auipc	ra,0x0
     a72:	000080e7          	jalr	ra # a6e <.L369+0x24>

00000a76 <.L370>:
     a76:	0c344703          	lbu	a4,195(s0)
     a7a:	4785                	li	a5,1
     a7c:	02e7e363          	bltu	a5,a4,aa2 <.L371>
     a80:	06040e23          	sb	zero,124(s0)
     a84:	06040ca3          	sb	zero,121(s0)
     a88:	0c041123          	sh	zero,194(s0)
     a8c:	06040823          	sb	zero,112(s0)
     a90:	02100613          	li	a2,33
     a94:	4581                	li	a1,0
     a96:	04e40513          	add	a0,s0,78
     a9a:	00000097          	auipc	ra,0x0
     a9e:	000080e7          	jalr	ra # a9a <.L370+0x24>

00000aa2 <.L371>:
     aa2:	0c544703          	lbu	a4,197(s0)
     aa6:	4785                	li	a5,1
     aa8:	02e7e363          	bltu	a5,a4,ace <.L372>
     aac:	06040ea3          	sb	zero,125(s0)
     ab0:	06040ca3          	sb	zero,121(s0)
     ab4:	0c041223          	sh	zero,196(s0)
     ab8:	06040823          	sb	zero,112(s0)
     abc:	02100613          	li	a2,33
     ac0:	4581                	li	a1,0
     ac2:	04e40513          	add	a0,s0,78
     ac6:	00000097          	auipc	ra,0x0
     aca:	000080e7          	jalr	ra # ac6 <.L371+0x24>

00000ace <.L372>:
     ace:	02944703          	lbu	a4,41(s0)
     ad2:	4791                	li	a5,4
     ad4:	0c740413          	add	s0,s0,199
     ad8:	4685                	li	a3,1

00000ada <.L373>:
     ada:	e8e7f763          	bgeu	a5,a4,168 <.L296>
     ade:	00044603          	lbu	a2,0(s0)
     ae2:	00c6e663          	bltu	a3,a2,aee <.L374>
     ae6:	fe040fa3          	sb	zero,-1(s0)
     aea:	00040023          	sb	zero,0(s0)

00000aee <.L374>:
     aee:	0785                	add	a5,a5,1
     af0:	0ff7f793          	zext.b	a5,a5
     af4:	0409                	add	s0,s0,2
     af6:	b7d5                	j	ada <.L373>

00000af8 <.L380>:
     af8:	048a6663          	bltu	s4,s0,b44 <.L378>
     afc:	c321                	beqz	a4,b3c <.L379>
     afe:	14c72c03          	lw	s8,332(a4)
     b02:	020c0d63          	beqz	s8,b3c <.L379>
     b06:	15472783          	lw	a5,340(a4)
     b0a:	00092583          	lw	a1,0(s2)
     b0e:	ce2e                	sw	a1,28(sp)
     b10:	9782                	jalr	a5
     b12:	409c                	lw	a5,0(s1)
     b14:	00141713          	sll	a4,s0,0x1
     b18:	05840613          	add	a2,s0,88
     b1c:	973e                	add	a4,a4,a5
     b1e:	0606                	sll	a2,a2,0x1
     b20:	0bf74883          	lbu	a7,191(a4)
     b24:	00092703          	lw	a4,0(s2)
     b28:	97b2                	add	a5,a5,a2
     b2a:	00e7c803          	lbu	a6,14(a5)
     b2e:	86aa                	mv	a3,a0
     b30:	87a2                	mv	a5,s0
     b32:	000b8613          	mv	a2,s7

00000b36 <.L702>:
     b36:	45f2                	lw	a1,28(sp)
     b38:	450d                	li	a0,3
     b3a:	9c02                	jalr	s8

00000b3c <.L379>:
     b3c:	0405                	add	s0,s0,1
     b3e:	0ff47413          	zext.b	s0,s0
     b42:	becd                	j	734 <.L376>

00000b44 <.L378>:
     b44:	df65                	beqz	a4,b3c <.L379>
     b46:	14c72c03          	lw	s8,332(a4)
     b4a:	fe0c09e3          	beqz	s8,b3c <.L379>
     b4e:	15472783          	lw	a5,340(a4)
     b52:	00092583          	lw	a1,0(s2)
     b56:	ce2e                	sw	a1,28(sp)
     b58:	9782                	jalr	a5
     b5a:	409c                	lw	a5,0(s1)
     b5c:	05840613          	add	a2,s0,88
     b60:	0606                	sll	a2,a2,0x1
     b62:	00141713          	sll	a4,s0,0x1
     b66:	973e                	add	a4,a4,a5
     b68:	97b2                	add	a5,a5,a2
     b6a:	0bf74883          	lbu	a7,191(a4)
     b6e:	00e7c803          	lbu	a6,14(a5)
     b72:	00092703          	lw	a4,0(s2)
     b76:	86aa                	mv	a3,a0
     b78:	87a2                	mv	a5,s0
     b7a:	000b0613          	mv	a2,s6
     b7e:	bf65                	j	b36 <.L702>

00000b80 <.L385>:
     b80:	c0f5c7e3          	blt	a1,a5,78e <.L382>
     b84:	05878693          	add	a3,a5,88
     b88:	0686                	sll	a3,a3,0x1
     b8a:	96a2                	add	a3,a3,s0
     b8c:	00e6c683          	lbu	a3,14(a3)
     b90:	ff778713          	add	a4,a5,-9
     b94:	00080963          	beqz	a6,ba6 <.L383>
     b98:	9746                	add	a4,a4,a7
     b9a:	06d70a23          	sb	a3,116(a4)

00000b9e <.L384>:
     b9e:	0785                	add	a5,a5,1
     ba0:	0ff7f793          	zext.b	a5,a5
     ba4:	b6dd                	j	78a <.L377>

00000ba6 <.L383>:
     ba6:	09070713          	add	a4,a4,144
     baa:	01010313          	add	t1,sp,16
     bae:	971a                	add	a4,a4,t1
     bb0:	fad70623          	sb	a3,-84(a4)
     bb4:	b7ed                	j	b9e <.L384>

00000bb6 <.L386>:
     bb6:	07844683          	lbu	a3,120(s0)
     bba:	00960793          	add	a5,a2,9 # 9 <TOUCH_Deal_with+0x9>
     bbe:	0ff7f793          	zext.b	a5,a5
     bc2:	02960593          	add	a1,a2,41

00000bc6 <.L389>:
     bc6:	0ff7f713          	zext.b	a4,a5
     bca:	bed776e3          	bgeu	a4,a3,7b6 <.L390>
     bce:	bef5c4e3          	blt	a1,a5,7b6 <.L390>
     bd2:	00179713          	sll	a4,a5,0x1
     bd6:	9722                	add	a4,a4,s0
     bd8:	0be74503          	lbu	a0,190(a4)
     bdc:	02c10813          	add	a6,sp,44
     be0:	40c78733          	sub	a4,a5,a2
     be4:	9742                	add	a4,a4,a6
     be6:	fea70ba3          	sb	a0,-9(a4)
     bea:	0785                	add	a5,a5,1
     bec:	bfe9                	j	bc6 <.L389>

00000bee <.L694>:
     bee:	08010623          	sb	zero,140(sp)
     bf2:	b131                	j	7fe <.L392>

00000bf4 <.L397>:
     bf4:	577d                	li	a4,-1
     bf6:	07400693          	li	a3,116
     bfa:	1070                	add	a2,sp,44
     bfc:	b34d                	j	99e <.L709>

00000bfe <.L309>:
     bfe:	0b05                	add	s6,s6,1 # 1 <TOUCH_Deal_with+0x1>
     c00:	d59b1863          	bne	s6,s9,150 <.L398>
     c04:	d5eff06f          	j	162 <.L399>

00000c08 <.L301>:
     c08:	c394                	sw	a3,0(a5)
     c0a:	d5eff06f          	j	168 <.L296>

00000c0e <.L298>:
     c0e:	4789                	li	a5,2
     c10:	d4f59c63          	bne	a1,a5,168 <.L296>
     c14:	00000937          	lui	s2,0x0
     c18:	00090793          	mv	a5,s2
     c1c:	4380                	lw	s0,0(a5)
     c1e:	00090913          	mv	s2,s2
     c22:	00042a03          	lw	s4,0(s0)
     c26:	020a1463          	bnez	s4,c4e <.L400>
     c2a:	446e                	lw	s0,216(sp)
     c2c:	40fe                	lw	ra,220(sp)
     c2e:	44de                	lw	s1,212(sp)
     c30:	494e                	lw	s2,208(sp)
     c32:	49be                	lw	s3,204(sp)
     c34:	4a2e                	lw	s4,200(sp)
     c36:	4a9e                	lw	s5,196(sp)
     c38:	4b0e                	lw	s6,192(sp)
     c3a:	5bfa                	lw	s7,188(sp)
     c3c:	5c6a                	lw	s8,184(sp)
     c3e:	5cda                	lw	s9,180(sp)
     c40:	5d4a                	lw	s10,176(sp)
     c42:	5dba                	lw	s11,172(sp)
     c44:	612d                	add	sp,sp,224
     c46:	00000317          	auipc	t1,0x0
     c4a:	00030067          	jr	t1 # c46 <.L298+0x38>

00000c4e <.L400>:
     c4e:	4619                	li	a2,6
     c50:	00940593          	add	a1,s0,9
     c54:	03a50513          	add	a0,a0,58
     c58:	00000097          	auipc	ra,0x0
     c5c:	000080e7          	jalr	ra # c58 <.L400+0xa>
     c60:	d0051463          	bnez	a0,168 <.L296>
     c64:	00f40993          	add	s3,s0,15
     c68:	00000cb7          	lui	s9,0x0
     c6c:	460d                	li	a2,3
     c6e:	000c8593          	mv	a1,s9
     c72:	854e                	mv	a0,s3
     c74:	00000097          	auipc	ra,0x0
     c78:	000080e7          	jalr	ra # c74 <.L400+0x26>
     c7c:	034a8493          	add	s1,s5,52
     c80:	460d                	li	a2,3
     c82:	e129                	bnez	a0,cc4 <.L401>
     c84:	000c8593          	mv	a1,s9
     c88:	8526                	mv	a0,s1
     c8a:	00000097          	auipc	ra,0x0
     c8e:	000080e7          	jalr	ra # c8a <.L400+0x3c>
     c92:	cd09                	beqz	a0,cac <.L402>
     c94:	000005b7          	lui	a1,0x0
     c98:	460d                	li	a2,3
     c9a:	00058593          	mv	a1,a1

00000c9e <.L703>:
     c9e:	8526                	mv	a0,s1
     ca0:	00000097          	auipc	ra,0x0
     ca4:	000080e7          	jalr	ra # ca0 <.L703+0x2>
     ca8:	cc051063          	bnez	a0,168 <.L296>

00000cac <.L402>:
     cac:	4785                	li	a5,1
     cae:	00fa0d63          	beq	s4,a5,cc8 <.L403>
     cb2:	4789                	li	a5,2
     cb4:	cafa1a63          	bne	s4,a5,168 <.L296>
     cb8:	01442223          	sw	s4,4(s0)
     cbc:	01442023          	sw	s4,0(s0)
     cc0:	ca8ff06f          	j	168 <.L296>

00000cc4 <.L401>:
     cc4:	85ce                	mv	a1,s3
     cc6:	bfe1                	j	c9e <.L703>

00000cc8 <.L403>:
     cc8:	000007b7          	lui	a5,0x0
     ccc:	0007a783          	lw	a5,0(a5) # 0 <TOUCH_Deal_with>
     cd0:	fd800993          	li	s3,-40
     cd4:	030ac683          	lbu	a3,48(s5)
     cd8:	4fa4                	lw	s1,88(a5)
     cda:	00844783          	lbu	a5,8(s0)
     cde:	046ad703          	lhu	a4,70(s5)
     ce2:	40f989b3          	sub	s3,s3,a5
     ce6:	02caa783          	lw	a5,44(s5)
     cea:	07d2                	sll	a5,a5,0x14
     cec:	83d1                	srl	a5,a5,0x14
     cee:	99be                	add	s3,s3,a5
     cf0:	09c2                	sll	s3,s3,0x10
     cf2:	08800793          	li	a5,136
     cf6:	0109d993          	srl	s3,s3,0x10
     cfa:	02f69263          	bne	a3,a5,d1e <.L406>
     cfe:	01c44783          	lbu	a5,28(s0)
     d02:	01479e63          	bne	a5,s4,d1e <.L406>
     d06:	048ad683          	lhu	a3,72(s5)
     d0a:	00869793          	sll	a5,a3,0x8
     d0e:	82a1                	srl	a3,a3,0x8
     d10:	8fd5                	or	a5,a5,a3
     d12:	01e45683          	lhu	a3,30(s0)
     d16:	07c2                	sll	a5,a5,0x10
     d18:	83c1                	srl	a5,a5,0x10
     d1a:	c4f69763          	bne	a3,a5,168 <.L296>

00000d1e <.L406>:
     d1e:	16800793          	li	a5,360
     d22:	c537e363          	bltu	a5,s3,168 <.L296>
     d26:	02645783          	lhu	a5,38(s0)
     d2a:	8311                	srl	a4,a4,0x4
     d2c:	00e78663          	beq	a5,a4,d38 <.L408>
     d30:	02445783          	lhu	a5,36(s0)
     d34:	00f99663          	bne	s3,a5,d40 <.L409>

00000d38 <.L408>:
     d38:	02e41323          	sh	a4,38(s0)
     d3c:	c2cff06f          	j	168 <.L296>

00000d40 <.L409>:
     d40:	02245a03          	lhu	s4,34(s0)
     d44:	02e41323          	sh	a4,38(s0)
     d48:	f0078713          	add	a4,a5,-256
     d4c:	0742                	sll	a4,a4,0x10
     d4e:	03441023          	sh	s4,32(s0)
     d52:	02f41123          	sh	a5,34(s0)
     d56:	03341223          	sh	s3,36(s0)
     d5a:	8341                	srl	a4,a4,0x10
     d5c:	06800693          	li	a3,104
     d60:	c0e6e463          	bltu	a3,a4,168 <.L296>
     d64:	07944683          	lbu	a3,121(s0)
     d68:	4705                	li	a4,1
     d6a:	00e69863          	bne	a3,a4,d7a <.L411>
     d6e:	02844703          	lbu	a4,40(s0)
     d72:	10070713          	add	a4,a4,256
     d76:	bef74963          	blt	a4,a5,168 <.L296>

00000d7a <.L411>:
     d7a:	00f9f713          	and	a4,s3,15
     d7e:	02f104a3          	sb	a5,41(sp)
     d82:	4049d993          	sra	s3,s3,0x4
     d86:	004a1793          	sll	a5,s4,0x4
     d8a:	8fd9                	or	a5,a5,a4
     d8c:	4589                	li	a1,2
     d8e:	1028                	add	a0,sp,40
     d90:	00f9f993          	and	s3,s3,15
     d94:	0f0a7a13          	and	s4,s4,240
     d98:	02f10423          	sb	a5,40(sp)
     d9c:	013a6a33          	or	s4,s4,s3
     da0:	00000097          	auipc	ra,0x0
     da4:	000080e7          	jalr	ra # da0 <.L411+0x26>
     da8:	bcaa1063          	bne	s4,a0,168 <.L296>
     dac:	02914703          	lbu	a4,41(sp)
     db0:	06800793          	li	a5,104
     db4:	bae7ea63          	bltu	a5,a4,168 <.L296>
     db8:	00000ab7          	lui	s5,0x0
     dbc:	000a8793          	mv	a5,s5
     dc0:	0187c683          	lbu	a3,24(a5)
     dc4:	4785                	li	a5,1
     dc6:	000a8a93          	mv	s5,s5
     dca:	00000437          	lui	s0,0x0
     dce:	04f69263          	bne	a3,a5,e12 <.L412>
     dd2:	46a1                	li	a3,8
     dd4:	00042783          	lw	a5,0(s0) # 0 <TOUCH_Deal_with>
     dd8:	10e6e663          	bltu	a3,a4,ee4 <.L413>
     ddc:	cb9d                	beqz	a5,e12 <.L412>
     dde:	14c7a983          	lw	s3,332(a5)
     de2:	02098863          	beqz	s3,e12 <.L412>
     de6:	00000a37          	lui	s4,0x0
     dea:	000a2583          	lw	a1,0(s4) # 0 <TOUCH_Deal_with>
     dee:	1547a783          	lw	a5,340(a5)
     df2:	ce2e                	sw	a1,28(sp)
     df4:	9782                	jalr	a5
     df6:	02914803          	lbu	a6,41(sp)
     dfa:	02814783          	lbu	a5,40(sp)
     dfe:	000a2703          	lw	a4,0(s4)
     e02:	00000637          	lui	a2,0x0
     e06:	86aa                	mv	a3,a0
     e08:	00060613          	mv	a2,a2

00000e0c <.L704>:
     e0c:	45f2                	lw	a1,28(sp)
     e0e:	450d                	li	a0,3
     e10:	9982                	jalr	s3

00000e12 <.L412>:
     e12:	000007b7          	lui	a5,0x0
     e16:	4985                	li	s3,1
     e18:	01378023          	sb	s3,0(a5) # 0 <TOUCH_Deal_with>
     e1c:	00042783          	lw	a5,0(s0)
     e20:	00000a37          	lui	s4,0x0
     e24:	000a0513          	mv	a0,s4
     e28:	0e47a783          	lw	a5,228(a5)
     e2c:	9782                	jalr	a5
     e2e:	00042783          	lw	a5,0(s0)
     e32:	000a0513          	mv	a0,s4
     e36:	0e87a783          	lw	a5,232(a5)
     e3a:	9782                	jalr	a5
     e3c:	00042783          	lw	a5,0(s0)
     e40:	000005b7          	lui	a1,0x0
     e44:	4601                	li	a2,0
     e46:	0ec7a783          	lw	a5,236(a5)
     e4a:	00058593          	mv	a1,a1
     e4e:	000a0513          	mv	a0,s4
     e52:	9782                	jalr	a5
     e54:	00042783          	lw	a5,0(s0)
     e58:	6585                	lui	a1,0x1
     e5a:	4601                	li	a2,0
     e5c:	0e07a783          	lw	a5,224(a5)
     e60:	bb858593          	add	a1,a1,-1096 # bb8 <.L386+0x2>
     e64:	000a0513          	mv	a0,s4
     e68:	9782                	jalr	a5
     e6a:	00092783          	lw	a5,0(s2) # 0 <TOUCH_Deal_with>
     e6e:	0797c703          	lbu	a4,121(a5)
     e72:	28071b63          	bnez	a4,1108 <.L415>
     e76:	02914703          	lbu	a4,41(sp)
     e7a:	ef51                	bnez	a4,f16 <.L416>
     e7c:	02814703          	lbu	a4,40(sp)
     e80:	07378d23          	sb	s3,122(a5)
     e84:	06e78c23          	sb	a4,120(a5)

00000e88 <.L417>:
     e88:	07c7d683          	lhu	a3,124(a5)
     e8c:	10100713          	li	a4,257
     e90:	26e69c63          	bne	a3,a4,1108 <.L415>
     e94:	5fb4                	lw	a3,120(a5)
     e96:	7741                	lui	a4,0xffff0
     e98:	8f75                	and	a4,a4,a3
     e9a:	010106b7          	lui	a3,0x1010
     e9e:	26d71563          	bne	a4,a3,1108 <.L415>
     ea2:	0787c983          	lbu	s3,120(a5)
     ea6:	05f00693          	li	a3,95
     eaa:	ff698713          	add	a4,s3,-10 # fffffff6 <.L698+0xffffe7ea>
     eae:	0ff77713          	zext.b	a4,a4
     eb2:	02e6e363          	bltu	a3,a4,ed8 <.L421>
     eb6:	000006b7          	lui	a3,0x0
     eba:	0777c703          	lbu	a4,119(a5)
     ebe:	0006d683          	lhu	a3,0(a3) # 0 <TOUCH_Deal_with>
     ec2:	00e6eb63          	bltu	a3,a4,ed8 <.L421>
     ec6:	40e986b3          	sub	a3,s3,a4
     eca:	02900613          	li	a2,41
     ece:	00d64563          	blt	a2,a3,ed8 <.L421>
     ed2:	19dd                	add	s3,s3,-9
     ed4:	07374e63          	blt	a4,s3,f50 <.L422>

00000ed8 <.L421>:
     ed8:	06079d23          	sh	zero,122(a5)
     edc:	06079e23          	sh	zero,124(a5)
     ee0:	a88ff06f          	j	168 <.L296>

00000ee4 <.L413>:
     ee4:	d79d                	beqz	a5,e12 <.L412>
     ee6:	14c7a983          	lw	s3,332(a5)
     eea:	f20984e3          	beqz	s3,e12 <.L412>
     eee:	00000a37          	lui	s4,0x0
     ef2:	000a2583          	lw	a1,0(s4) # 0 <TOUCH_Deal_with>
     ef6:	1547a783          	lw	a5,340(a5)
     efa:	ce2e                	sw	a1,28(sp)
     efc:	9782                	jalr	a5
     efe:	00000637          	lui	a2,0x0
     f02:	02914803          	lbu	a6,41(sp)
     f06:	02814783          	lbu	a5,40(sp)
     f0a:	000a2703          	lw	a4,0(s4)
     f0e:	86aa                	mv	a3,a0
     f10:	00060613          	mv	a2,a2
     f14:	bde5                	j	e0c <.L704>

00000f16 <.L416>:
     f16:	01371963          	bne	a4,s3,f28 <.L418>
     f1a:	02814683          	lbu	a3,40(sp)
     f1e:	06e78da3          	sb	a4,123(a5)
     f22:	06d78ba3          	sb	a3,119(a5)
     f26:	b78d                	j	e88 <.L417>

00000f28 <.L418>:
     f28:	4689                	li	a3,2
     f2a:	00d71963          	bne	a4,a3,f3c <.L419>
     f2e:	02814703          	lbu	a4,40(sp)
     f32:	07378e23          	sb	s3,124(a5)
     f36:	02e78523          	sb	a4,42(a5)
     f3a:	b7b9                	j	e88 <.L417>

00000f3c <.L419>:
     f3c:	468d                	li	a3,3
     f3e:	f4d715e3          	bne	a4,a3,e88 <.L417>
     f42:	02814703          	lbu	a4,40(sp)
     f46:	07378ea3          	sb	s3,125(a5)
     f4a:	02e785a3          	sb	a4,43(a5)
     f4e:	bf2d                	j	e88 <.L417>

00000f50 <.L422>:
     f50:	40e989b3          	sub	s3,s3,a4
     f54:	00000b37          	lui	s6,0x0
     f58:	4705                	li	a4,1
     f5a:	0ff9f993          	zext.b	s3,s3
     f5e:	06e78ca3          	sb	a4,121(a5)
     f62:	4c05                	li	s8,1
     f64:	000b0b13          	mv	s6,s6

00000f68 <.L423>:
     f68:	00092b83          	lw	s7,0(s2)
     f6c:	10048163          	beqz	s1,106e <.L431>
     f70:	460d                	li	a2,3
     f72:	000c8593          	mv	a1,s9
     f76:	8526                	mv	a0,s1
     f78:	00000097          	auipc	ra,0x0
     f7c:	000080e7          	jalr	ra # f78 <.L423+0x10>
     f80:	cd01                	beqz	a0,f98 <.L427>
     f82:	000007b7          	lui	a5,0x0
     f86:	4619                	li	a2,6
     f88:	00078593          	mv	a1,a5
     f8c:	8526                	mv	a0,s1
     f8e:	00000097          	auipc	ra,0x0
     f92:	000080e7          	jalr	ra # f8e <.L423+0x26>
     f96:	e119                	bnez	a0,f9c <.L425>

00000f98 <.L427>:
     f98:	4ca4                	lw	s1,88(s1)
     f9a:	b7f9                	j	f68 <.L423>

00000f9c <.L425>:
     f9c:	03348a13          	add	s4,s1,51
     fa0:	8552                	mv	a0,s4
     fa2:	00000097          	auipc	ra,0x0
     fa6:	000080e7          	jalr	ra # fa2 <.L425+0x6>
     faa:	fea997e3          	bne	s3,a0,f98 <.L427>
     fae:	02abcb83          	lbu	s7,42(s7) # 2a <TOUCH_Deal_with+0x2a>
     fb2:	85ce                	mv	a1,s3
     fb4:	8552                	mv	a0,s4
     fb6:	00000097          	auipc	ra,0x0
     fba:	000080e7          	jalr	ra # fb6 <.L425+0x1a>
     fbe:	fcab9de3          	bne	s7,a0,f98 <.L427>
     fc2:	00092b83          	lw	s7,0(s2)
     fc6:	017bc783          	lbu	a5,23(s7)
     fca:	1d878063          	beq	a5,s8,118a <.L428>
     fce:	4619                	li	a2,6
     fd0:	85a6                	mv	a1,s1
     fd2:	00fb8513          	add	a0,s7,15
     fd6:	00000097          	auipc	ra,0x0
     fda:	000080e7          	jalr	ra # fd6 <.L425+0x3a>
     fde:	fd4d                	bnez	a0,f98 <.L427>
     fe0:	02db8993          	add	s3,s7,45
     fe4:	854e                	mv	a0,s3
     fe6:	00000097          	auipc	ra,0x0
     fea:	000080e7          	jalr	ra # fe6 <.L425+0x4a>
     fee:	862a                	mv	a2,a0
     ff0:	4581                	li	a1,0
     ff2:	854e                	mv	a0,s3
     ff4:	00000097          	auipc	ra,0x0
     ff8:	000080e7          	jalr	ra # ff4 <.L425+0x58>
     ffc:	8552                	mv	a0,s4
     ffe:	00000097          	auipc	ra,0x0
    1002:	000080e7          	jalr	ra # ffe <.L425+0x62>
    1006:	862a                	mv	a2,a0
    1008:	85d2                	mv	a1,s4
    100a:	854e                	mv	a0,s3
    100c:	00000097          	auipc	ra,0x0
    1010:	000080e7          	jalr	ra # 100c <.L425+0x70>
    1014:	4619                	li	a2,6
    1016:	85a6                	mv	a1,s1
    1018:	196b8513          	add	a0,s7,406
    101c:	00000097          	auipc	ra,0x0
    1020:	000080e7          	jalr	ra # 101c <.L425+0x80>
    1024:	018ac783          	lbu	a5,24(s5) # 18 <TOUCH_Deal_with+0x18>
    1028:	03879e63          	bne	a5,s8,1064 <.L430>
    102c:	00042783          	lw	a5,0(s0)
    1030:	cb95                	beqz	a5,1064 <.L430>
    1032:	14c7a483          	lw	s1,332(a5) # 14c <.L308+0x10>
    1036:	c49d                	beqz	s1,1064 <.L430>
    1038:	000009b7          	lui	s3,0x0
    103c:	0009a583          	lw	a1,0(s3) # 0 <TOUCH_Deal_with>
